
tsvc.oracle.o:     file format elf64-x86-64


Disassembly of section .text:

0000000000000000 <s000>:
       0:	41 56                	push   r14
       2:	53                   	push   rbx
       3:	50                   	push   rax
       4:	49 89 fe             	mov    r14,rdi
       7:	bf 00 00 00 00       	mov    edi,0x0
       c:	e8 00 00 00 00       	call   11 <s000+0x11>
      11:	31 db                	xor    ebx,ebx
      13:	4c 89 f7             	mov    rdi,r14
      16:	31 f6                	xor    esi,esi
      18:	e8 00 00 00 00       	call   1d <s000+0x1d>
      1d:	f3 0f 10 0d 00 00 00 	movss  xmm1,DWORD PTR [rip+0x0]        # 25 <s000+0x25>
      24:	00 
      25:	48 c7 c0 00 0c fe ff 	mov    rax,0xfffffffffffe0c00
      2c:	f3 0f 10 80 00 00 00 	movss  xmm0,DWORD PTR [rax+0x0]
      33:	00 
      34:	f3 0f 58 c1          	addss  xmm0,xmm1
      38:	f3 0f 11 80 00 00 00 	movss  DWORD PTR [rax+0x0],xmm0
      3f:	00 
      40:	48 83 c0 04          	add    rax,0x4
      44:	75 e6                	jne    2c <s000+0x2c>
      46:	bf 00 00 00 00       	mov    edi,0x0
      4b:	be 00 00 00 00       	mov    esi,0x0
      50:	ba 00 00 00 00       	mov    edx,0x0
      55:	b9 00 00 00 00       	mov    ecx,0x0
      5a:	41 b8 00 00 00 00    	mov    r8d,0x0
      60:	41 b9 00 00 00 00    	mov    r9d,0x0
      66:	0f 57 c0             	xorps  xmm0,xmm0
      69:	68 00 00 00 00       	push   0x0
      6e:	68 00 00 00 00       	push   0x0
      73:	e8 00 00 00 00       	call   78 <s000+0x78>
      78:	f3 0f 10 0d 00 00 00 	movss  xmm1,DWORD PTR [rip+0x0]        # 80 <s000+0x80>
      7f:	00 
      80:	48 83 c4 10          	add    rsp,0x10
      84:	ff c3                	inc    ebx
      86:	81 fb 40 0d 03 00    	cmp    ebx,0x30d40
      8c:	75 97                	jne    25 <s000+0x25>
      8e:	49 83 c6 10          	add    r14,0x10
      92:	4c 89 f7             	mov    rdi,r14
      95:	31 f6                	xor    esi,esi
      97:	e8 00 00 00 00       	call   9c <s000+0x9c>
      9c:	bf 00 00 00 00       	mov    edi,0x0
      a1:	48 83 c4 08          	add    rsp,0x8
      a5:	5b                   	pop    rbx
      a6:	41 5e                	pop    r14
      a8:	e9 00 00 00 00       	jmp    ad <s111>

00000000000000ad <s111>:
      ad:	41 56                	push   r14
      af:	53                   	push   rbx
      b0:	50                   	push   rax
      b1:	49 89 fe             	mov    r14,rdi
      b4:	bf 00 00 00 00       	mov    edi,0x0
      b9:	e8 00 00 00 00       	call   be <s111+0x11>
      be:	31 db                	xor    ebx,ebx
      c0:	4c 89 f7             	mov    rdi,r14
      c3:	31 f6                	xor    esi,esi
      c5:	e8 00 00 00 00       	call   ca <s111+0x1d>
      ca:	48 c7 c0 ff ff ff ff 	mov    rax,0xffffffffffffffff
      d1:	f3 0f 10 04 85 00 00 	movss  xmm0,DWORD PTR [rax*4+0x0]
      d8:	00 00 
      da:	f3 0f 58 04 85 00 00 	addss  xmm0,DWORD PTR [rax*4+0x0]
      e1:	00 00 
      e3:	f3 0f 11 04 85 00 00 	movss  DWORD PTR [rax*4+0x0],xmm0
      ea:	00 00 
      ec:	48 83 c0 02          	add    rax,0x2
      f0:	48 3d fe 7c 00 00    	cmp    rax,0x7cfe
      f6:	72 d9                	jb     d1 <s111+0x24>
      f8:	bf 00 00 00 00       	mov    edi,0x0
      fd:	be 00 00 00 00       	mov    esi,0x0
     102:	ba 00 00 00 00       	mov    edx,0x0
     107:	b9 00 00 00 00       	mov    ecx,0x0
     10c:	41 b8 00 00 00 00    	mov    r8d,0x0
     112:	41 b9 00 00 00 00    	mov    r9d,0x0
     118:	0f 57 c0             	xorps  xmm0,xmm0
     11b:	68 00 00 00 00       	push   0x0
     120:	68 00 00 00 00       	push   0x0
     125:	e8 00 00 00 00       	call   12a <s111+0x7d>
     12a:	48 83 c4 10          	add    rsp,0x10
     12e:	ff c3                	inc    ebx
     130:	81 fb 40 0d 03 00    	cmp    ebx,0x30d40
     136:	75 92                	jne    ca <s111+0x1d>
     138:	49 83 c6 10          	add    r14,0x10
     13c:	4c 89 f7             	mov    rdi,r14
     13f:	31 f6                	xor    esi,esi
     141:	e8 00 00 00 00       	call   146 <s111+0x99>
     146:	bf 00 00 00 00       	mov    edi,0x0
     14b:	48 83 c4 08          	add    rsp,0x8
     14f:	5b                   	pop    rbx
     150:	41 5e                	pop    r14
     152:	e9 00 00 00 00       	jmp    157 <s1111>

0000000000000157 <s1111>:
     157:	41 56                	push   r14
     159:	53                   	push   rbx
     15a:	50                   	push   rax
     15b:	49 89 fe             	mov    r14,rdi
     15e:	bf 00 00 00 00       	mov    edi,0x0
     163:	e8 00 00 00 00       	call   168 <s1111+0x11>
     168:	31 db                	xor    ebx,ebx
     16a:	4c 89 f7             	mov    rdi,r14
     16d:	31 f6                	xor    esi,esi
     16f:	e8 00 00 00 00       	call   174 <s1111+0x1d>
     174:	48 c7 c0 00 06 ff ff 	mov    rax,0xffffffffffff0600
     17b:	f3 0f 10 80 00 00 00 	movss  xmm0,DWORD PTR [rax+0x0]
     182:	00 
     183:	f3 0f 10 88 00 00 00 	movss  xmm1,DWORD PTR [rax+0x0]
     18a:	00 
     18b:	0f 28 d0             	movaps xmm2,xmm0
     18e:	f3 0f 59 d1          	mulss  xmm2,xmm1
     192:	f3 0f 10 98 00 00 00 	movss  xmm3,DWORD PTR [rax+0x0]
     199:	00 
     19a:	f3 0f 59 cb          	mulss  xmm1,xmm3
     19e:	f3 0f 58 d1          	addss  xmm2,xmm1
     1a2:	0f 28 e0             	movaps xmm4,xmm0
     1a5:	f3 0f 59 e0          	mulss  xmm4,xmm0
     1a9:	f3 0f 58 e2          	addss  xmm4,xmm2
     1ad:	f3 0f 58 e1          	addss  xmm4,xmm1
     1b1:	f3 0f 59 c3          	mulss  xmm0,xmm3
     1b5:	f3 0f 58 c4          	addss  xmm0,xmm4
     1b9:	f3 0f 11 84 00 00 00 	movss  DWORD PTR [rax+rax*1+0x0],xmm0
     1c0:	00 00 
     1c2:	48 83 c0 04          	add    rax,0x4
     1c6:	75 b3                	jne    17b <s1111+0x24>
     1c8:	bf 00 00 00 00       	mov    edi,0x0
     1cd:	be 00 00 00 00       	mov    esi,0x0
     1d2:	ba 00 00 00 00       	mov    edx,0x0
     1d7:	b9 00 00 00 00       	mov    ecx,0x0
     1dc:	41 b8 00 00 00 00    	mov    r8d,0x0
     1e2:	41 b9 00 00 00 00    	mov    r9d,0x0
     1e8:	0f 57 c0             	xorps  xmm0,xmm0
     1eb:	68 00 00 00 00       	push   0x0
     1f0:	68 00 00 00 00       	push   0x0
     1f5:	e8 00 00 00 00       	call   1fa <s1111+0xa3>
     1fa:	48 83 c4 10          	add    rsp,0x10
     1fe:	ff c3                	inc    ebx
     200:	81 fb 40 0d 03 00    	cmp    ebx,0x30d40
     206:	0f 85 68 ff ff ff    	jne    174 <s1111+0x1d>
     20c:	49 83 c6 10          	add    r14,0x10
     210:	4c 89 f7             	mov    rdi,r14
     213:	31 f6                	xor    esi,esi
     215:	e8 00 00 00 00       	call   21a <s1111+0xc3>
     21a:	bf 00 00 00 00       	mov    edi,0x0
     21f:	48 83 c4 08          	add    rsp,0x8
     223:	5b                   	pop    rbx
     224:	41 5e                	pop    r14
     226:	e9 00 00 00 00       	jmp    22b <s112>

000000000000022b <s112>:
     22b:	41 56                	push   r14
     22d:	53                   	push   rbx
     22e:	50                   	push   rax
     22f:	49 89 fe             	mov    r14,rdi
     232:	bf 00 00 00 00       	mov    edi,0x0
     237:	e8 00 00 00 00       	call   23c <s112+0x11>
     23c:	31 db                	xor    ebx,ebx
     23e:	4c 89 f7             	mov    rdi,r14
     241:	31 f6                	xor    esi,esi
     243:	e8 00 00 00 00       	call   248 <s112+0x1d>
     248:	b8 fc f3 01 00       	mov    eax,0x1f3fc
     24d:	f3 0f 10 80 00 00 00 	movss  xmm0,DWORD PTR [rax+0x0]
     254:	00 
     255:	f3 0f 58 80 00 00 00 	addss  xmm0,DWORD PTR [rax+0x0]
     25c:	00 
     25d:	f3 0f 11 80 00 00 00 	movss  DWORD PTR [rax+0x0],xmm0
     264:	00 
     265:	48 83 c0 fc          	add    rax,0xfffffffffffffffc
     269:	75 e2                	jne    24d <s112+0x22>
     26b:	bf 00 00 00 00       	mov    edi,0x0
     270:	be 00 00 00 00       	mov    esi,0x0
     275:	ba 00 00 00 00       	mov    edx,0x0
     27a:	b9 00 00 00 00       	mov    ecx,0x0
     27f:	41 b8 00 00 00 00    	mov    r8d,0x0
     285:	41 b9 00 00 00 00    	mov    r9d,0x0
     28b:	0f 57 c0             	xorps  xmm0,xmm0
     28e:	68 00 00 00 00       	push   0x0
     293:	68 00 00 00 00       	push   0x0
     298:	e8 00 00 00 00       	call   29d <s112+0x72>
     29d:	48 83 c4 10          	add    rsp,0x10
     2a1:	ff c3                	inc    ebx
     2a3:	81 fb e0 93 04 00    	cmp    ebx,0x493e0
     2a9:	75 9d                	jne    248 <s112+0x1d>
     2ab:	49 83 c6 10          	add    r14,0x10
     2af:	4c 89 f7             	mov    rdi,r14
     2b2:	31 f6                	xor    esi,esi
     2b4:	e8 00 00 00 00       	call   2b9 <s112+0x8e>
     2b9:	bf 00 00 00 00       	mov    edi,0x0
     2be:	48 83 c4 08          	add    rsp,0x8
     2c2:	5b                   	pop    rbx
     2c3:	41 5e                	pop    r14
     2c5:	e9 00 00 00 00       	jmp    2ca <s1112>

00000000000002ca <s1112>:
     2ca:	41 56                	push   r14
     2cc:	53                   	push   rbx
     2cd:	50                   	push   rax
     2ce:	49 89 fe             	mov    r14,rdi
     2d1:	bf 00 00 00 00       	mov    edi,0x0
     2d6:	e8 00 00 00 00       	call   2db <s1112+0x11>
     2db:	31 db                	xor    ebx,ebx
     2dd:	4c 89 f7             	mov    rdi,r14
     2e0:	31 f6                	xor    esi,esi
     2e2:	e8 00 00 00 00       	call   2e7 <s1112+0x1d>
     2e7:	f3 0f 10 0d 00 00 00 	movss  xmm1,DWORD PTR [rip+0x0]        # 2ef <s1112+0x25>
     2ee:	00 
     2ef:	b8 00 f4 01 00       	mov    eax,0x1f400
     2f4:	f3 0f 10 80 00 00 00 	movss  xmm0,DWORD PTR [rax+0x0]
     2fb:	00 
     2fc:	f3 0f 58 c1          	addss  xmm0,xmm1
     300:	f3 0f 11 80 00 00 00 	movss  DWORD PTR [rax+0x0],xmm0
     307:	00 
     308:	48 83 c0 fc          	add    rax,0xfffffffffffffffc
     30c:	75 e6                	jne    2f4 <s1112+0x2a>
     30e:	bf 00 00 00 00       	mov    edi,0x0
     313:	be 00 00 00 00       	mov    esi,0x0
     318:	ba 00 00 00 00       	mov    edx,0x0
     31d:	b9 00 00 00 00       	mov    ecx,0x0
     322:	41 b8 00 00 00 00    	mov    r8d,0x0
     328:	41 b9 00 00 00 00    	mov    r9d,0x0
     32e:	0f 57 c0             	xorps  xmm0,xmm0
     331:	68 00 00 00 00       	push   0x0
     336:	68 00 00 00 00       	push   0x0
     33b:	e8 00 00 00 00       	call   340 <s1112+0x76>
     340:	f3 0f 10 0d 00 00 00 	movss  xmm1,DWORD PTR [rip+0x0]        # 348 <s1112+0x7e>
     347:	00 
     348:	48 83 c4 10          	add    rsp,0x10
     34c:	ff c3                	inc    ebx
     34e:	81 fb e0 93 04 00    	cmp    ebx,0x493e0
     354:	75 99                	jne    2ef <s1112+0x25>
     356:	49 83 c6 10          	add    r14,0x10
     35a:	4c 89 f7             	mov    rdi,r14
     35d:	31 f6                	xor    esi,esi
     35f:	e8 00 00 00 00       	call   364 <s1112+0x9a>
     364:	bf 00 00 00 00       	mov    edi,0x0
     369:	48 83 c4 08          	add    rsp,0x8
     36d:	5b                   	pop    rbx
     36e:	41 5e                	pop    r14
     370:	e9 00 00 00 00       	jmp    375 <s113>

0000000000000375 <s113>:
     375:	41 56                	push   r14
     377:	53                   	push   rbx
     378:	50                   	push   rax
     379:	49 89 fe             	mov    r14,rdi
     37c:	bf 00 00 00 00       	mov    edi,0x0
     381:	e8 00 00 00 00       	call   386 <s113+0x11>
     386:	31 db                	xor    ebx,ebx
     388:	4c 89 f7             	mov    rdi,r14
     38b:	31 f6                	xor    esi,esi
     38d:	e8 00 00 00 00       	call   392 <s113+0x1d>
     392:	48 c7 c0 04 0c fe ff 	mov    rax,0xfffffffffffe0c04
     399:	f3 0f 10 05 00 00 00 	movss  xmm0,DWORD PTR [rip+0x0]        # 3a1 <s113+0x2c>
     3a0:	00 
     3a1:	f3 0f 58 80 00 00 00 	addss  xmm0,DWORD PTR [rax+0x0]
     3a8:	00 
     3a9:	f3 0f 11 80 00 00 00 	movss  DWORD PTR [rax+0x0],xmm0
     3b0:	00 
     3b1:	48 83 c0 04          	add    rax,0x4
     3b5:	75 e2                	jne    399 <s113+0x24>
     3b7:	bf 00 00 00 00       	mov    edi,0x0
     3bc:	be 00 00 00 00       	mov    esi,0x0
     3c1:	ba 00 00 00 00       	mov    edx,0x0
     3c6:	b9 00 00 00 00       	mov    ecx,0x0
     3cb:	41 b8 00 00 00 00    	mov    r8d,0x0
     3d1:	41 b9 00 00 00 00    	mov    r9d,0x0
     3d7:	0f 57 c0             	xorps  xmm0,xmm0
     3da:	68 00 00 00 00       	push   0x0
     3df:	68 00 00 00 00       	push   0x0
     3e4:	e8 00 00 00 00       	call   3e9 <s113+0x74>
     3e9:	48 83 c4 10          	add    rsp,0x10
     3ed:	ff c3                	inc    ebx
     3ef:	81 fb 80 1a 06 00    	cmp    ebx,0x61a80
     3f5:	75 9b                	jne    392 <s113+0x1d>
     3f7:	49 83 c6 10          	add    r14,0x10
     3fb:	4c 89 f7             	mov    rdi,r14
     3fe:	31 f6                	xor    esi,esi
     400:	e8 00 00 00 00       	call   405 <s113+0x90>
     405:	bf 00 00 00 00       	mov    edi,0x0
     40a:	48 83 c4 08          	add    rsp,0x8
     40e:	5b                   	pop    rbx
     40f:	41 5e                	pop    r14
     411:	e9 00 00 00 00       	jmp    416 <s1113>

0000000000000416 <s1113>:
     416:	41 56                	push   r14
     418:	53                   	push   rbx
     419:	50                   	push   rax
     41a:	49 89 fe             	mov    r14,rdi
     41d:	bf 00 00 00 00       	mov    edi,0x0
     422:	e8 00 00 00 00       	call   427 <s1113+0x11>
     427:	31 db                	xor    ebx,ebx
     429:	4c 89 f7             	mov    rdi,r14
     42c:	31 f6                	xor    esi,esi
     42e:	e8 00 00 00 00       	call   433 <s1113+0x1d>
     433:	48 c7 c0 00 0c fe ff 	mov    rax,0xfffffffffffe0c00
     43a:	f3 0f 10 05 00 00 00 	movss  xmm0,DWORD PTR [rip+0x0]        # 442 <s1113+0x2c>
     441:	00 
     442:	f3 0f 58 80 00 00 00 	addss  xmm0,DWORD PTR [rax+0x0]
     449:	00 
     44a:	f3 0f 11 80 00 00 00 	movss  DWORD PTR [rax+0x0],xmm0
     451:	00 
     452:	48 83 c0 04          	add    rax,0x4
     456:	75 e2                	jne    43a <s1113+0x24>
     458:	bf 00 00 00 00       	mov    edi,0x0
     45d:	be 00 00 00 00       	mov    esi,0x0
     462:	ba 00 00 00 00       	mov    edx,0x0
     467:	b9 00 00 00 00       	mov    ecx,0x0
     46c:	41 b8 00 00 00 00    	mov    r8d,0x0
     472:	41 b9 00 00 00 00    	mov    r9d,0x0
     478:	0f 57 c0             	xorps  xmm0,xmm0
     47b:	68 00 00 00 00       	push   0x0
     480:	68 00 00 00 00       	push   0x0
     485:	e8 00 00 00 00       	call   48a <s1113+0x74>
     48a:	48 83 c4 10          	add    rsp,0x10
     48e:	ff c3                	inc    ebx
     490:	81 fb 40 0d 03 00    	cmp    ebx,0x30d40
     496:	75 9b                	jne    433 <s1113+0x1d>
     498:	49 83 c6 10          	add    r14,0x10
     49c:	4c 89 f7             	mov    rdi,r14
     49f:	31 f6                	xor    esi,esi
     4a1:	e8 00 00 00 00       	call   4a6 <s1113+0x90>
     4a6:	bf 00 00 00 00       	mov    edi,0x0
     4ab:	48 83 c4 08          	add    rsp,0x8
     4af:	5b                   	pop    rbx
     4b0:	41 5e                	pop    r14
     4b2:	e9 00 00 00 00       	jmp    4b7 <s114>

00000000000004b7 <s114>:
     4b7:	41 56                	push   r14
     4b9:	53                   	push   rbx
     4ba:	50                   	push   rax
     4bb:	49 89 fe             	mov    r14,rdi
     4be:	bf 00 00 00 00       	mov    edi,0x0
     4c3:	e8 00 00 00 00       	call   4c8 <s114+0x11>
     4c8:	31 db                	xor    ebx,ebx
     4ca:	4c 89 f7             	mov    rdi,r14
     4cd:	31 f6                	xor    esi,esi
     4cf:	e8 00 00 00 00       	call   4d4 <s114+0x1d>
     4d4:	b8 00 00 00 00       	mov    eax,0x0
     4d9:	31 c9                	xor    ecx,ecx
     4db:	31 d2                	xor    edx,edx
     4dd:	48 85 d2             	test   rdx,rdx
     4e0:	74 2a                	je     50c <s114+0x55>
     4e2:	48 89 c6             	mov    rsi,rax
     4e5:	31 ff                	xor    edi,edi
     4e7:	f3 0f 10 06          	movss  xmm0,DWORD PTR [rsi]
     4eb:	f3 0f 58 84 b9 00 00 	addss  xmm0,DWORD PTR [rcx+rdi*4+0x0]
     4f2:	00 00 
     4f4:	f3 0f 11 84 b9 00 00 	movss  DWORD PTR [rcx+rdi*4+0x0],xmm0
     4fb:	00 00 
     4fd:	48 ff c7             	inc    rdi
     500:	48 81 c6 00 04 00 00 	add    rsi,0x400
     507:	48 39 fa             	cmp    rdx,rdi
     50a:	75 db                	jne    4e7 <s114+0x30>
     50c:	48 ff c2             	inc    rdx
     50f:	48 81 c1 00 04 00 00 	add    rcx,0x400
     516:	48 83 c0 04          	add    rax,0x4
     51a:	48 81 fa 00 01 00 00 	cmp    rdx,0x100
     521:	75 ba                	jne    4dd <s114+0x26>
     523:	bf 00 00 00 00       	mov    edi,0x0
     528:	be 00 00 00 00       	mov    esi,0x0
     52d:	ba 00 00 00 00       	mov    edx,0x0
     532:	b9 00 00 00 00       	mov    ecx,0x0
     537:	41 b8 00 00 00 00    	mov    r8d,0x0
     53d:	41 b9 00 00 00 00    	mov    r9d,0x0
     543:	0f 57 c0             	xorps  xmm0,xmm0
     546:	68 00 00 00 00       	push   0x0
     54b:	68 00 00 00 00       	push   0x0
     550:	e8 00 00 00 00       	call   555 <s114+0x9e>
     555:	48 83 c4 10          	add    rsp,0x10
     559:	ff c3                	inc    ebx
     55b:	81 fb b0 30 01 00    	cmp    ebx,0x130b0
     561:	0f 85 6d ff ff ff    	jne    4d4 <s114+0x1d>
     567:	49 83 c6 10          	add    r14,0x10
     56b:	4c 89 f7             	mov    rdi,r14
     56e:	31 f6                	xor    esi,esi
     570:	e8 00 00 00 00       	call   575 <s114+0xbe>
     575:	bf 00 00 00 00       	mov    edi,0x0
     57a:	48 83 c4 08          	add    rsp,0x8
     57e:	5b                   	pop    rbx
     57f:	41 5e                	pop    r14
     581:	e9 00 00 00 00       	jmp    586 <s115>

0000000000000586 <s115>:
     586:	41 57                	push   r15
     588:	41 56                	push   r14
     58a:	53                   	push   rbx
     58b:	49 89 fe             	mov    r14,rdi
     58e:	bf 00 00 00 00       	mov    edi,0x0
     593:	e8 00 00 00 00       	call   598 <s115+0x12>
     598:	45 31 ff             	xor    r15d,r15d
     59b:	4c 89 f7             	mov    rdi,r14
     59e:	31 f6                	xor    esi,esi
     5a0:	e8 00 00 00 00       	call   5a5 <s115+0x1f>
     5a5:	b8 00 00 00 00       	mov    eax,0x0
     5aa:	b9 00 00 00 00       	mov    ecx,0x0
     5af:	31 d2                	xor    edx,edx
     5b1:	48 89 d6             	mov    rsi,rdx
     5b4:	48 ff c2             	inc    rdx
     5b7:	48 81 fe fe 00 00 00 	cmp    rsi,0xfe
     5be:	77 31                	ja     5f1 <s115+0x6b>
     5c0:	31 ff                	xor    edi,edi
     5c2:	f3 0f 10 04 b9       	movss  xmm0,DWORD PTR [rcx+rdi*4]
     5c7:	f3 0f 59 04 b5 00 00 	mulss  xmm0,DWORD PTR [rsi*4+0x0]
     5ce:	00 00 
     5d0:	f3 0f 10 0c b8       	movss  xmm1,DWORD PTR [rax+rdi*4]
     5d5:	f3 0f 5c c8          	subss  xmm1,xmm0
     5d9:	f3 0f 11 0c b8       	movss  DWORD PTR [rax+rdi*4],xmm1
     5de:	48 8d 1c 3e          	lea    rbx,[rsi+rdi*1]
     5e2:	48 ff c3             	inc    rbx
     5e5:	48 ff c7             	inc    rdi
     5e8:	48 81 fb ff 00 00 00 	cmp    rbx,0xff
     5ef:	75 d1                	jne    5c2 <s115+0x3c>
     5f1:	48 83 c0 04          	add    rax,0x4
     5f5:	48 81 c1 04 04 00 00 	add    rcx,0x404
     5fc:	48 81 fa 00 01 00 00 	cmp    rdx,0x100
     603:	75 ac                	jne    5b1 <s115+0x2b>
     605:	bf 00 00 00 00       	mov    edi,0x0
     60a:	be 00 00 00 00       	mov    esi,0x0
     60f:	ba 00 00 00 00       	mov    edx,0x0
     614:	b9 00 00 00 00       	mov    ecx,0x0
     619:	41 b8 00 00 00 00    	mov    r8d,0x0
     61f:	41 b9 00 00 00 00    	mov    r9d,0x0
     625:	0f 57 c0             	xorps  xmm0,xmm0
     628:	68 00 00 00 00       	push   0x0
     62d:	68 00 00 00 00       	push   0x0
     632:	e8 00 00 00 00       	call   637 <s115+0xb1>
     637:	48 83 c4 10          	add    rsp,0x10
     63b:	41 ff c7             	inc    r15d
     63e:	41 81 ff 70 f3 05 00 	cmp    r15d,0x5f370
     645:	0f 85 5a ff ff ff    	jne    5a5 <s115+0x1f>
     64b:	49 83 c6 10          	add    r14,0x10
     64f:	4c 89 f7             	mov    rdi,r14
     652:	31 f6                	xor    esi,esi
     654:	e8 00 00 00 00       	call   659 <s115+0xd3>
     659:	bf 00 00 00 00       	mov    edi,0x0
     65e:	5b                   	pop    rbx
     65f:	41 5e                	pop    r14
     661:	41 5f                	pop    r15
     663:	e9 00 00 00 00       	jmp    668 <s1115>

0000000000000668 <s1115>:
     668:	41 56                	push   r14
     66a:	53                   	push   rbx
     66b:	50                   	push   rax
     66c:	49 89 fe             	mov    r14,rdi
     66f:	bf 00 00 00 00       	mov    edi,0x0
     674:	e8 00 00 00 00       	call   679 <s1115+0x11>
     679:	31 db                	xor    ebx,ebx
     67b:	4c 89 f7             	mov    rdi,r14
     67e:	31 f6                	xor    esi,esi
     680:	e8 00 00 00 00       	call   685 <s1115+0x1d>
     685:	b8 00 00 00 00       	mov    eax,0x0
     68a:	31 c9                	xor    ecx,ecx
     68c:	31 d2                	xor    edx,edx
     68e:	48 89 ce             	mov    rsi,rcx
     691:	31 ff                	xor    edi,edi
     693:	f3 0f 10 86 00 00 00 	movss  xmm0,DWORD PTR [rsi+0x0]
     69a:	00 
     69b:	f3 0f 59 04 b8       	mulss  xmm0,DWORD PTR [rax+rdi*4]
     6a0:	f3 0f 58 86 00 00 00 	addss  xmm0,DWORD PTR [rsi+0x0]
     6a7:	00 
     6a8:	f3 0f 11 86 00 00 00 	movss  DWORD PTR [rsi+0x0],xmm0
     6af:	00 
     6b0:	48 81 c7 00 01 00 00 	add    rdi,0x100
     6b7:	48 83 c6 04          	add    rsi,0x4
     6bb:	48 81 ff 00 00 01 00 	cmp    rdi,0x10000
     6c2:	75 cf                	jne    693 <s1115+0x2b>
     6c4:	48 ff c2             	inc    rdx
     6c7:	48 81 c1 00 04 00 00 	add    rcx,0x400
     6ce:	48 83 c0 04          	add    rax,0x4
     6d2:	48 81 fa 00 01 00 00 	cmp    rdx,0x100
     6d9:	75 b3                	jne    68e <s1115+0x26>
     6db:	bf 00 00 00 00       	mov    edi,0x0
     6e0:	be 00 00 00 00       	mov    esi,0x0
     6e5:	ba 00 00 00 00       	mov    edx,0x0
     6ea:	b9 00 00 00 00       	mov    ecx,0x0
     6ef:	41 b8 00 00 00 00    	mov    r8d,0x0
     6f5:	41 b9 00 00 00 00    	mov    r9d,0x0
     6fb:	0f 57 c0             	xorps  xmm0,xmm0
     6fe:	68 00 00 00 00       	push   0x0
     703:	68 00 00 00 00       	push   0x0
     708:	e8 00 00 00 00       	call   70d <s1115+0xa5>
     70d:	48 83 c4 10          	add    rsp,0x10
     711:	ff c3                	inc    ebx
     713:	81 fb 58 98 00 00    	cmp    ebx,0x9858
     719:	0f 85 66 ff ff ff    	jne    685 <s1115+0x1d>
     71f:	49 83 c6 10          	add    r14,0x10
     723:	4c 89 f7             	mov    rdi,r14
     726:	31 f6                	xor    esi,esi
     728:	e8 00 00 00 00       	call   72d <s1115+0xc5>
     72d:	bf 00 00 00 00       	mov    edi,0x0
     732:	48 83 c4 08          	add    rsp,0x8
     736:	5b                   	pop    rbx
     737:	41 5e                	pop    r14
     739:	e9 00 00 00 00       	jmp    73e <s116>

000000000000073e <s116>:
     73e:	41 56                	push   r14
     740:	53                   	push   rbx
     741:	50                   	push   rax
     742:	49 89 fe             	mov    r14,rdi
     745:	bf 00 00 00 00       	mov    edi,0x0
     74a:	e8 00 00 00 00       	call   74f <s116+0x11>
     74f:	31 db                	xor    ebx,ebx
     751:	4c 89 f7             	mov    rdi,r14
     754:	31 f6                	xor    esi,esi
     756:	e8 00 00 00 00       	call   75b <s116+0x1d>
     75b:	48 c7 c0 fb ff ff ff 	mov    rax,0xfffffffffffffffb
     762:	f3 0f 10 05 00 00 00 	movss  xmm0,DWORD PTR [rip+0x0]        # 76a <s116+0x2c>
     769:	00 
     76a:	f3 0f 10 0c 85 00 00 	movss  xmm1,DWORD PTR [rax*4+0x0]
     771:	00 00 
     773:	f3 0f 59 c1          	mulss  xmm0,xmm1
     777:	f3 0f 11 04 85 00 00 	movss  DWORD PTR [rax*4+0x0],xmm0
     77e:	00 00 
     780:	f3 0f 10 04 85 00 00 	movss  xmm0,DWORD PTR [rax*4+0x0]
     787:	00 00 
     789:	f3 0f 59 c8          	mulss  xmm1,xmm0
     78d:	f3 0f 11 0c 85 00 00 	movss  DWORD PTR [rax*4+0x0],xmm1
     794:	00 00 
     796:	f3 0f 10 0c 85 00 00 	movss  xmm1,DWORD PTR [rax*4+0x0]
     79d:	00 00 
     79f:	f3 0f 59 c1          	mulss  xmm0,xmm1
     7a3:	f3 0f 11 04 85 00 00 	movss  DWORD PTR [rax*4+0x0],xmm0
     7aa:	00 00 
     7ac:	f3 0f 10 14 85 00 00 	movss  xmm2,DWORD PTR [rax*4+0x0]
     7b3:	00 00 
     7b5:	f3 0f 59 ca          	mulss  xmm1,xmm2
     7b9:	f3 0f 11 0c 85 00 00 	movss  DWORD PTR [rax*4+0x0],xmm1
     7c0:	00 00 
     7c2:	f3 0f 10 04 85 00 00 	movss  xmm0,DWORD PTR [rax*4+0x0]
     7c9:	00 00 
     7cb:	f3 0f 59 d0          	mulss  xmm2,xmm0
     7cf:	f3 0f 11 14 85 00 00 	movss  DWORD PTR [rax*4+0x0],xmm2
     7d6:	00 00 
     7d8:	48 83 c0 05          	add    rax,0x5
     7dc:	48 3d f6 7c 00 00    	cmp    rax,0x7cf6
     7e2:	72 86                	jb     76a <s116+0x2c>
     7e4:	bf 00 00 00 00       	mov    edi,0x0
     7e9:	be 00 00 00 00       	mov    esi,0x0
     7ee:	ba 00 00 00 00       	mov    edx,0x0
     7f3:	b9 00 00 00 00       	mov    ecx,0x0
     7f8:	41 b8 00 00 00 00    	mov    r8d,0x0
     7fe:	41 b9 00 00 00 00    	mov    r9d,0x0
     804:	0f 57 c0             	xorps  xmm0,xmm0
     807:	68 00 00 00 00       	push   0x0
     80c:	68 00 00 00 00       	push   0x0
     811:	e8 00 00 00 00       	call   816 <s116+0xd8>
     816:	48 83 c4 10          	add    rsp,0x10
     81a:	ff c3                	inc    ebx
     81c:	81 fb 40 42 0f 00    	cmp    ebx,0xf4240
     822:	0f 85 33 ff ff ff    	jne    75b <s116+0x1d>
     828:	49 83 c6 10          	add    r14,0x10
     82c:	4c 89 f7             	mov    rdi,r14
     82f:	31 f6                	xor    esi,esi
     831:	e8 00 00 00 00       	call   836 <s116+0xf8>
     836:	bf 00 00 00 00       	mov    edi,0x0
     83b:	48 83 c4 08          	add    rsp,0x8
     83f:	5b                   	pop    rbx
     840:	41 5e                	pop    r14
     842:	e9 00 00 00 00       	jmp    847 <s118>

0000000000000847 <s118>:
     847:	41 56                	push   r14
     849:	53                   	push   rbx
     84a:	50                   	push   rax
     84b:	49 89 fe             	mov    r14,rdi
     84e:	bf 00 00 00 00       	mov    edi,0x0
     853:	e8 00 00 00 00       	call   858 <s118+0x11>
     858:	31 db                	xor    ebx,ebx
     85a:	4c 89 f7             	mov    rdi,r14
     85d:	31 f6                	xor    esi,esi
     85f:	e8 00 00 00 00       	call   864 <s118+0x1d>
     864:	b8 01 00 00 00       	mov    eax,0x1
     869:	b9 00 00 00 00       	mov    ecx,0x0
     86e:	31 d2                	xor    edx,edx
     870:	f3 0f 10 04 85 00 00 	movss  xmm0,DWORD PTR [rax*4+0x0]
     877:	00 00 
     879:	48 89 ce             	mov    rsi,rcx
     87c:	48 89 d7             	mov    rdi,rdx
     87f:	f3 0f 10 0e          	movss  xmm1,DWORD PTR [rsi]
     883:	f3 0f 59 8f 00 00 00 	mulss  xmm1,DWORD PTR [rdi+0x0]
     88a:	00 
     88b:	f3 0f 58 c1          	addss  xmm0,xmm1
     88f:	f3 0f 11 04 85 00 00 	movss  DWORD PTR [rax*4+0x0],xmm0
     896:	00 00 
     898:	48 83 c7 fc          	add    rdi,0xfffffffffffffffc
     89c:	48 81 c6 00 04 00 00 	add    rsi,0x400
     8a3:	48 83 ff fc          	cmp    rdi,0xfffffffffffffffc
     8a7:	75 d6                	jne    87f <s118+0x38>
     8a9:	48 ff c0             	inc    rax
     8ac:	48 83 c2 04          	add    rdx,0x4
     8b0:	48 83 c1 04          	add    rcx,0x4
     8b4:	48 3d 00 01 00 00    	cmp    rax,0x100
     8ba:	75 b4                	jne    870 <s118+0x29>
     8bc:	bf 00 00 00 00       	mov    edi,0x0
     8c1:	be 00 00 00 00       	mov    esi,0x0
     8c6:	ba 00 00 00 00       	mov    edx,0x0
     8cb:	b9 00 00 00 00       	mov    ecx,0x0
     8d0:	41 b8 00 00 00 00    	mov    r8d,0x0
     8d6:	41 b9 00 00 00 00    	mov    r9d,0x0
     8dc:	0f 57 c0             	xorps  xmm0,xmm0
     8df:	68 00 00 00 00       	push   0x0
     8e4:	68 00 00 00 00       	push   0x0
     8e9:	e8 00 00 00 00       	call   8ee <s118+0xa7>
     8ee:	48 83 c4 10          	add    rsp,0x10
     8f2:	ff c3                	inc    ebx
     8f4:	81 fb b0 30 01 00    	cmp    ebx,0x130b0
     8fa:	0f 85 64 ff ff ff    	jne    864 <s118+0x1d>
     900:	49 83 c6 10          	add    r14,0x10
     904:	4c 89 f7             	mov    rdi,r14
     907:	31 f6                	xor    esi,esi
     909:	e8 00 00 00 00       	call   90e <s118+0xc7>
     90e:	bf 00 00 00 00       	mov    edi,0x0
     913:	48 83 c4 08          	add    rsp,0x8
     917:	5b                   	pop    rbx
     918:	41 5e                	pop    r14
     91a:	e9 00 00 00 00       	jmp    91f <s119>

000000000000091f <s119>:
     91f:	41 56                	push   r14
     921:	53                   	push   rbx
     922:	50                   	push   rax
     923:	49 89 fe             	mov    r14,rdi
     926:	bf 00 00 00 00       	mov    edi,0x0
     92b:	e8 00 00 00 00       	call   930 <s119+0x11>
     930:	31 db                	xor    ebx,ebx
     932:	4c 89 f7             	mov    rdi,r14
     935:	31 f6                	xor    esi,esi
     937:	e8 00 00 00 00       	call   93c <s119+0x1d>
     93c:	b8 01 00 00 00       	mov    eax,0x1
     941:	b9 04 04 00 00       	mov    ecx,0x404
     946:	48 c7 c2 04 fc ff ff 	mov    rdx,0xfffffffffffffc04
     94d:	f3 0f 10 84 11 00 00 	movss  xmm0,DWORD PTR [rcx+rdx*1+0x0]
     954:	00 00 
     956:	f3 0f 58 84 11 00 00 	addss  xmm0,DWORD PTR [rcx+rdx*1+0x0]
     95d:	00 00 
     95f:	f3 0f 11 84 11 00 00 	movss  DWORD PTR [rcx+rdx*1+0x0],xmm0
     966:	00 00 
     968:	48 83 c2 04          	add    rdx,0x4
     96c:	75 df                	jne    94d <s119+0x2e>
     96e:	48 ff c0             	inc    rax
     971:	48 81 c1 00 04 00 00 	add    rcx,0x400
     978:	48 3d 00 01 00 00    	cmp    rax,0x100
     97e:	75 c6                	jne    946 <s119+0x27>
     980:	bf 00 00 00 00       	mov    edi,0x0
     985:	be 00 00 00 00       	mov    esi,0x0
     98a:	ba 00 00 00 00       	mov    edx,0x0
     98f:	b9 00 00 00 00       	mov    ecx,0x0
     994:	41 b8 00 00 00 00    	mov    r8d,0x0
     99a:	41 b9 00 00 00 00    	mov    r9d,0x0
     9a0:	0f 57 c0             	xorps  xmm0,xmm0
     9a3:	68 00 00 00 00       	push   0x0
     9a8:	68 00 00 00 00       	push   0x0
     9ad:	e8 00 00 00 00       	call   9b2 <s119+0x93>
     9b2:	48 83 c4 10          	add    rsp,0x10
     9b6:	ff c3                	inc    ebx
     9b8:	81 fb b0 30 01 00    	cmp    ebx,0x130b0
     9be:	0f 85 78 ff ff ff    	jne    93c <s119+0x1d>
     9c4:	49 83 c6 10          	add    r14,0x10
     9c8:	4c 89 f7             	mov    rdi,r14
     9cb:	31 f6                	xor    esi,esi
     9cd:	e8 00 00 00 00       	call   9d2 <s119+0xb3>
     9d2:	bf 00 00 00 00       	mov    edi,0x0
     9d7:	48 83 c4 08          	add    rsp,0x8
     9db:	5b                   	pop    rbx
     9dc:	41 5e                	pop    r14
     9de:	e9 00 00 00 00       	jmp    9e3 <s1119>

00000000000009e3 <s1119>:
     9e3:	41 56                	push   r14
     9e5:	53                   	push   rbx
     9e6:	50                   	push   rax
     9e7:	49 89 fe             	mov    r14,rdi
     9ea:	bf 00 00 00 00       	mov    edi,0x0
     9ef:	e8 00 00 00 00       	call   9f4 <s1119+0x11>
     9f4:	31 db                	xor    ebx,ebx
     9f6:	4c 89 f7             	mov    rdi,r14
     9f9:	31 f6                	xor    esi,esi
     9fb:	e8 00 00 00 00       	call   a00 <s1119+0x1d>
     a00:	b8 01 00 00 00       	mov    eax,0x1
     a05:	b9 00 04 00 00       	mov    ecx,0x400
     a0a:	48 c7 c2 00 fc ff ff 	mov    rdx,0xfffffffffffffc00
     a11:	f3 0f 10 84 11 00 00 	movss  xmm0,DWORD PTR [rcx+rdx*1+0x0]
     a18:	00 00 
     a1a:	f3 0f 58 84 11 00 00 	addss  xmm0,DWORD PTR [rcx+rdx*1+0x0]
     a21:	00 00 
     a23:	f3 0f 11 84 11 00 00 	movss  DWORD PTR [rcx+rdx*1+0x0],xmm0
     a2a:	00 00 
     a2c:	48 83 c2 04          	add    rdx,0x4
     a30:	75 df                	jne    a11 <s1119+0x2e>
     a32:	48 ff c0             	inc    rax
     a35:	48 81 c1 00 04 00 00 	add    rcx,0x400
     a3c:	48 3d 00 01 00 00    	cmp    rax,0x100
     a42:	75 c6                	jne    a0a <s1119+0x27>
     a44:	bf 00 00 00 00       	mov    edi,0x0
     a49:	be 00 00 00 00       	mov    esi,0x0
     a4e:	ba 00 00 00 00       	mov    edx,0x0
     a53:	b9 00 00 00 00       	mov    ecx,0x0
     a58:	41 b8 00 00 00 00    	mov    r8d,0x0
     a5e:	41 b9 00 00 00 00    	mov    r9d,0x0
     a64:	0f 57 c0             	xorps  xmm0,xmm0
     a67:	68 00 00 00 00       	push   0x0
     a6c:	68 00 00 00 00       	push   0x0
     a71:	e8 00 00 00 00       	call   a76 <s1119+0x93>
     a76:	48 83 c4 10          	add    rsp,0x10
     a7a:	ff c3                	inc    ebx
     a7c:	81 fb b0 30 01 00    	cmp    ebx,0x130b0
     a82:	0f 85 78 ff ff ff    	jne    a00 <s1119+0x1d>
     a88:	49 83 c6 10          	add    r14,0x10
     a8c:	4c 89 f7             	mov    rdi,r14
     a8f:	31 f6                	xor    esi,esi
     a91:	e8 00 00 00 00       	call   a96 <s1119+0xb3>
     a96:	bf 00 00 00 00       	mov    edi,0x0
     a9b:	48 83 c4 08          	add    rsp,0x8
     a9f:	5b                   	pop    rbx
     aa0:	41 5e                	pop    r14
     aa2:	e9 00 00 00 00       	jmp    aa7 <s121>

0000000000000aa7 <s121>:
     aa7:	41 56                	push   r14
     aa9:	53                   	push   rbx
     aaa:	50                   	push   rax
     aab:	49 89 fe             	mov    r14,rdi
     aae:	bf 00 00 00 00       	mov    edi,0x0
     ab3:	e8 00 00 00 00       	call   ab8 <s121+0x11>
     ab8:	31 db                	xor    ebx,ebx
     aba:	4c 89 f7             	mov    rdi,r14
     abd:	31 f6                	xor    esi,esi
     abf:	e8 00 00 00 00       	call   ac4 <s121+0x1d>
     ac4:	48 c7 c0 04 0c fe ff 	mov    rax,0xfffffffffffe0c04
     acb:	f3 0f 10 80 00 00 00 	movss  xmm0,DWORD PTR [rax+0x0]
     ad2:	00 
     ad3:	f3 0f 58 80 00 00 00 	addss  xmm0,DWORD PTR [rax+0x0]
     ada:	00 
     adb:	f3 0f 11 80 00 00 00 	movss  DWORD PTR [rax+0x0],xmm0
     ae2:	00 
     ae3:	48 83 c0 04          	add    rax,0x4
     ae7:	75 e2                	jne    acb <s121+0x24>
     ae9:	bf 00 00 00 00       	mov    edi,0x0
     aee:	be 00 00 00 00       	mov    esi,0x0
     af3:	ba 00 00 00 00       	mov    edx,0x0
     af8:	b9 00 00 00 00       	mov    ecx,0x0
     afd:	41 b8 00 00 00 00    	mov    r8d,0x0
     b03:	41 b9 00 00 00 00    	mov    r9d,0x0
     b09:	0f 57 c0             	xorps  xmm0,xmm0
     b0c:	68 00 00 00 00       	push   0x0
     b11:	68 00 00 00 00       	push   0x0
     b16:	e8 00 00 00 00       	call   b1b <s121+0x74>
     b1b:	48 83 c4 10          	add    rsp,0x10
     b1f:	ff c3                	inc    ebx
     b21:	81 fb e0 93 04 00    	cmp    ebx,0x493e0
     b27:	75 9b                	jne    ac4 <s121+0x1d>
     b29:	49 83 c6 10          	add    r14,0x10
     b2d:	4c 89 f7             	mov    rdi,r14
     b30:	31 f6                	xor    esi,esi
     b32:	e8 00 00 00 00       	call   b37 <s121+0x90>
     b37:	bf 00 00 00 00       	mov    edi,0x0
     b3c:	48 83 c4 08          	add    rsp,0x8
     b40:	5b                   	pop    rbx
     b41:	41 5e                	pop    r14
     b43:	e9 00 00 00 00       	jmp    b48 <s122>

0000000000000b48 <s122>:
     b48:	41 57                	push   r15
     b4a:	41 56                	push   r14
     b4c:	41 55                	push   r13
     b4e:	41 54                	push   r12
     b50:	53                   	push   rbx
     b51:	49 89 fe             	mov    r14,rdi
     b54:	48 8b 47 20          	mov    rax,QWORD PTR [rdi+0x20]
     b58:	44 8b 38             	mov    r15d,DWORD PTR [rax]
     b5b:	48 63 58 04          	movsxd rbx,DWORD PTR [rax+0x4]
     b5f:	bf 00 00 00 00       	mov    edi,0x0
     b64:	e8 00 00 00 00       	call   b69 <s122+0x21>
     b69:	45 31 e4             	xor    r12d,r12d
     b6c:	4c 89 f7             	mov    rdi,r14
     b6f:	31 f6                	xor    esi,esi
     b71:	e8 00 00 00 00       	call   b76 <s122+0x2e>
     b76:	41 8d 47 ff          	lea    eax,[r15-0x1]
     b7a:	4c 63 e8             	movsxd r13,eax
     b7d:	41 81 ff 00 7d 00 00 	cmp    r15d,0x7d00
     b84:	7f 2e                	jg     bb4 <s122+0x6c>
     b86:	b8 00 00 00 00       	mov    eax,0x0
     b8b:	4c 89 e9             	mov    rcx,r13
     b8e:	f3 0f 10 00          	movss  xmm0,DWORD PTR [rax]
     b92:	f3 0f 58 04 8d 00 00 	addss  xmm0,DWORD PTR [rcx*4+0x0]
     b99:	00 00 
     b9b:	f3 0f 11 04 8d 00 00 	movss  DWORD PTR [rcx*4+0x0],xmm0
     ba2:	00 00 
     ba4:	48 01 d9             	add    rcx,rbx
     ba7:	48 83 c0 fc          	add    rax,0xfffffffffffffffc
     bab:	48 81 f9 00 7d 00 00 	cmp    rcx,0x7d00
     bb2:	7c da                	jl     b8e <s122+0x46>
     bb4:	bf 00 00 00 00       	mov    edi,0x0
     bb9:	be 00 00 00 00       	mov    esi,0x0
     bbe:	ba 00 00 00 00       	mov    edx,0x0
     bc3:	b9 00 00 00 00       	mov    ecx,0x0
     bc8:	41 b8 00 00 00 00    	mov    r8d,0x0
     bce:	41 b9 00 00 00 00    	mov    r9d,0x0
     bd4:	0f 57 c0             	xorps  xmm0,xmm0
     bd7:	68 00 00 00 00       	push   0x0
     bdc:	68 00 00 00 00       	push   0x0
     be1:	e8 00 00 00 00       	call   be6 <s122+0x9e>
     be6:	48 83 c4 10          	add    rsp,0x10
     bea:	41 ff c4             	inc    r12d
     bed:	41 81 fc a0 86 01 00 	cmp    r12d,0x186a0
     bf4:	75 87                	jne    b7d <s122+0x35>
     bf6:	49 83 c6 10          	add    r14,0x10
     bfa:	4c 89 f7             	mov    rdi,r14
     bfd:	31 f6                	xor    esi,esi
     bff:	e8 00 00 00 00       	call   c04 <s122+0xbc>
     c04:	bf 00 00 00 00       	mov    edi,0x0
     c09:	5b                   	pop    rbx
     c0a:	41 5c                	pop    r12
     c0c:	41 5d                	pop    r13
     c0e:	41 5e                	pop    r14
     c10:	41 5f                	pop    r15
     c12:	e9 00 00 00 00       	jmp    c17 <s123>

0000000000000c17 <s123>:
     c17:	41 56                	push   r14
     c19:	53                   	push   rbx
     c1a:	50                   	push   rax
     c1b:	49 89 fe             	mov    r14,rdi
     c1e:	bf 00 00 00 00       	mov    edi,0x0
     c23:	e8 00 00 00 00       	call   c28 <s123+0x11>
     c28:	31 db                	xor    ebx,ebx
     c2a:	4c 89 f7             	mov    rdi,r14
     c2d:	31 f6                	xor    esi,esi
     c2f:	e8 00 00 00 00       	call   c34 <s123+0x1d>
     c34:	0f 57 d2             	xorps  xmm2,xmm2
     c37:	b8 ff ff ff ff       	mov    eax,0xffffffff
     c3c:	48 c7 c1 00 06 ff ff 	mov    rcx,0xffffffffffff0600
     c43:	f3 0f 10 81 00 00 00 	movss  xmm0,DWORD PTR [rcx+0x0]
     c4a:	00 
     c4b:	f3 0f 59 81 00 00 00 	mulss  xmm0,DWORD PTR [rcx+0x0]
     c52:	00 
     c53:	f3 0f 10 89 00 00 00 	movss  xmm1,DWORD PTR [rcx+0x0]
     c5a:	00 
     c5b:	f3 0f 58 c8          	addss  xmm1,xmm0
     c5f:	48 63 d0             	movsxd rdx,eax
     c62:	f3 0f 11 0c 95 00 00 	movss  DWORD PTR [rdx*4+0x0],xmm1
     c69:	00 00 
     c6b:	f3 0f 10 89 00 00 00 	movss  xmm1,DWORD PTR [rcx+0x0]
     c72:	00 
     c73:	0f 2e ca             	ucomiss xmm1,xmm2
     c76:	76 12                	jbe    c8a <s123+0x73>
     c78:	83 c0 02             	add    eax,0x2
     c7b:	f3 0f 58 c1          	addss  xmm0,xmm1
     c7f:	f3 0f 11 04 95 00 00 	movss  DWORD PTR [rdx*4+0x0],xmm0
     c86:	00 00 
     c88:	eb 02                	jmp    c8c <s123+0x75>
     c8a:	ff c0                	inc    eax
     c8c:	48 83 c1 04          	add    rcx,0x4
     c90:	75 b1                	jne    c43 <s123+0x2c>
     c92:	bf 00 00 00 00       	mov    edi,0x0
     c97:	be 00 00 00 00       	mov    esi,0x0
     c9c:	ba 00 00 00 00       	mov    edx,0x0
     ca1:	b9 00 00 00 00       	mov    ecx,0x0
     ca6:	41 b8 00 00 00 00    	mov    r8d,0x0
     cac:	41 b9 00 00 00 00    	mov    r9d,0x0
     cb2:	0f 57 c0             	xorps  xmm0,xmm0
     cb5:	68 00 00 00 00       	push   0x0
     cba:	68 00 00 00 00       	push   0x0
     cbf:	e8 00 00 00 00       	call   cc4 <s123+0xad>
     cc4:	0f 57 d2             	xorps  xmm2,xmm2
     cc7:	48 83 c4 10          	add    rsp,0x10
     ccb:	ff c3                	inc    ebx
     ccd:	81 fb a0 86 01 00    	cmp    ebx,0x186a0
     cd3:	0f 85 5e ff ff ff    	jne    c37 <s123+0x20>
     cd9:	49 83 c6 10          	add    r14,0x10
     cdd:	4c 89 f7             	mov    rdi,r14
     ce0:	31 f6                	xor    esi,esi
     ce2:	e8 00 00 00 00       	call   ce7 <s123+0xd0>
     ce7:	bf 00 00 00 00       	mov    edi,0x0
     cec:	48 83 c4 08          	add    rsp,0x8
     cf0:	5b                   	pop    rbx
     cf1:	41 5e                	pop    r14
     cf3:	e9 00 00 00 00       	jmp    cf8 <s124>

0000000000000cf8 <s124>:
     cf8:	41 56                	push   r14
     cfa:	53                   	push   rbx
     cfb:	50                   	push   rax
     cfc:	49 89 fe             	mov    r14,rdi
     cff:	bf 00 00 00 00       	mov    edi,0x0
     d04:	e8 00 00 00 00       	call   d09 <s124+0x11>
     d09:	31 db                	xor    ebx,ebx
     d0b:	4c 89 f7             	mov    rdi,r14
     d0e:	31 f6                	xor    esi,esi
     d10:	e8 00 00 00 00       	call   d15 <s124+0x1d>
     d15:	0f 57 d2             	xorps  xmm2,xmm2
     d18:	48 c7 c0 00 0c fe ff 	mov    rax,0xfffffffffffe0c00
     d1f:	f3 0f 10 80 00 00 00 	movss  xmm0,DWORD PTR [rax+0x0]
     d26:	00 
     d27:	0f 2e c2             	ucomiss xmm0,xmm2
     d2a:	77 08                	ja     d34 <s124+0x3c>
     d2c:	f3 0f 10 80 00 00 00 	movss  xmm0,DWORD PTR [rax+0x0]
     d33:	00 
     d34:	f3 0f 10 88 00 00 00 	movss  xmm1,DWORD PTR [rax+0x0]
     d3b:	00 
     d3c:	f3 0f 59 88 00 00 00 	mulss  xmm1,DWORD PTR [rax+0x0]
     d43:	00 
     d44:	f3 0f 58 c8          	addss  xmm1,xmm0
     d48:	f3 0f 11 88 00 00 00 	movss  DWORD PTR [rax+0x0],xmm1
     d4f:	00 
     d50:	48 83 c0 04          	add    rax,0x4
     d54:	75 c9                	jne    d1f <s124+0x27>
     d56:	bf 00 00 00 00       	mov    edi,0x0
     d5b:	be 00 00 00 00       	mov    esi,0x0
     d60:	ba 00 00 00 00       	mov    edx,0x0
     d65:	b9 00 00 00 00       	mov    ecx,0x0
     d6a:	41 b8 00 00 00 00    	mov    r8d,0x0
     d70:	41 b9 00 00 00 00    	mov    r9d,0x0
     d76:	0f 57 c0             	xorps  xmm0,xmm0
     d79:	68 00 00 00 00       	push   0x0
     d7e:	68 00 00 00 00       	push   0x0
     d83:	e8 00 00 00 00       	call   d88 <s124+0x90>
     d88:	0f 57 d2             	xorps  xmm2,xmm2
     d8b:	48 83 c4 10          	add    rsp,0x10
     d8f:	ff c3                	inc    ebx
     d91:	81 fb a0 86 01 00    	cmp    ebx,0x186a0
     d97:	0f 85 7b ff ff ff    	jne    d18 <s124+0x20>
     d9d:	49 83 c6 10          	add    r14,0x10
     da1:	4c 89 f7             	mov    rdi,r14
     da4:	31 f6                	xor    esi,esi
     da6:	e8 00 00 00 00       	call   dab <s124+0xb3>
     dab:	bf 00 00 00 00       	mov    edi,0x0
     db0:	48 83 c4 08          	add    rsp,0x8
     db4:	5b                   	pop    rbx
     db5:	41 5e                	pop    r14
     db7:	e9 00 00 00 00       	jmp    dbc <s125>

0000000000000dbc <s125>:
     dbc:	41 56                	push   r14
     dbe:	53                   	push   rbx
     dbf:	50                   	push   rax
     dc0:	49 89 fe             	mov    r14,rdi
     dc3:	bf 00 00 00 00       	mov    edi,0x0
     dc8:	e8 00 00 00 00       	call   dcd <s125+0x11>
     dcd:	31 db                	xor    ebx,ebx
     dcf:	4c 89 f7             	mov    rdi,r14
     dd2:	31 f6                	xor    esi,esi
     dd4:	e8 00 00 00 00       	call   dd9 <s125+0x1d>
     dd9:	48 c7 c0 ff ff ff ff 	mov    rax,0xffffffffffffffff
     de0:	31 c9                	xor    ecx,ecx
     de2:	31 d2                	xor    edx,edx
     de4:	48 63 f0             	movsxd rsi,eax
     de7:	48 8d 3c b5 00 00 00 	lea    rdi,[rsi*4+0x0]
     dee:	00 
     def:	31 f6                	xor    esi,esi
     df1:	f3 0f 10 84 b1 00 00 	movss  xmm0,DWORD PTR [rcx+rsi*4+0x0]
     df8:	00 00 
     dfa:	f3 0f 59 84 b1 00 00 	mulss  xmm0,DWORD PTR [rcx+rsi*4+0x0]
     e01:	00 00 
     e03:	f3 0f 58 84 b1 00 00 	addss  xmm0,DWORD PTR [rcx+rsi*4+0x0]
     e0a:	00 00 
     e0c:	f3 0f 11 04 b7       	movss  DWORD PTR [rdi+rsi*4],xmm0
     e11:	48 ff c6             	inc    rsi
     e14:	48 81 fe 00 01 00 00 	cmp    rsi,0x100
     e1b:	75 d4                	jne    df1 <s125+0x35>
     e1d:	48 ff c2             	inc    rdx
     e20:	48 98                	cdqe   
     e22:	48 01 f0             	add    rax,rsi
     e25:	48 81 c1 00 04 00 00 	add    rcx,0x400
     e2c:	48 81 fa 00 01 00 00 	cmp    rdx,0x100
     e33:	75 af                	jne    de4 <s125+0x28>
     e35:	bf 00 00 00 00       	mov    edi,0x0
     e3a:	be 00 00 00 00       	mov    esi,0x0
     e3f:	ba 00 00 00 00       	mov    edx,0x0
     e44:	b9 00 00 00 00       	mov    ecx,0x0
     e49:	41 b8 00 00 00 00    	mov    r8d,0x0
     e4f:	41 b9 00 00 00 00    	mov    r9d,0x0
     e55:	0f 57 c0             	xorps  xmm0,xmm0
     e58:	68 00 00 00 00       	push   0x0
     e5d:	68 00 00 00 00       	push   0x0
     e62:	e8 00 00 00 00       	call   e67 <s125+0xab>
     e67:	48 83 c4 10          	add    rsp,0x10
     e6b:	ff c3                	inc    ebx
     e6d:	81 fb 58 98 00 00    	cmp    ebx,0x9858
     e73:	0f 85 60 ff ff ff    	jne    dd9 <s125+0x1d>
     e79:	49 83 c6 10          	add    r14,0x10
     e7d:	4c 89 f7             	mov    rdi,r14
     e80:	31 f6                	xor    esi,esi
     e82:	e8 00 00 00 00       	call   e87 <s125+0xcb>
     e87:	bf 00 00 00 00       	mov    edi,0x0
     e8c:	48 83 c4 08          	add    rsp,0x8
     e90:	5b                   	pop    rbx
     e91:	41 5e                	pop    r14
     e93:	e9 00 00 00 00       	jmp    e98 <s126>

0000000000000e98 <s126>:
     e98:	41 57                	push   r15
     e9a:	41 56                	push   r14
     e9c:	53                   	push   rbx
     e9d:	49 89 fe             	mov    r14,rdi
     ea0:	bf 00 00 00 00       	mov    edi,0x0
     ea5:	e8 00 00 00 00       	call   eaa <s126+0x12>
     eaa:	45 31 ff             	xor    r15d,r15d
     ead:	4c 89 f7             	mov    rdi,r14
     eb0:	31 f6                	xor    esi,esi
     eb2:	e8 00 00 00 00       	call   eb7 <s126+0x1f>
     eb7:	b8 01 00 00 00       	mov    eax,0x1
     ebc:	31 db                	xor    ebx,ebx
     ebe:	31 d2                	xor    edx,edx
     ec0:	48 63 c8             	movsxd rcx,eax
     ec3:	f3 0f 10 04 95 00 00 	movss  xmm0,DWORD PTR [rdx*4+0x0]
     eca:	00 00 
     ecc:	48 8d 3c 8d 00 00 00 	lea    rdi,[rcx*4+0x0]
     ed3:	00 
     ed4:	48 89 d9             	mov    rcx,rbx
     ed7:	31 f6                	xor    esi,esi
     ed9:	f3 0f 10 0c b7       	movss  xmm1,DWORD PTR [rdi+rsi*4]
     ede:	f3 0f 59 89 00 00 00 	mulss  xmm1,DWORD PTR [rcx+0x0]
     ee5:	00 
     ee6:	f3 0f 58 c1          	addss  xmm0,xmm1
     eea:	f3 0f 11 81 00 00 00 	movss  DWORD PTR [rcx+0x0],xmm0
     ef1:	00 
     ef2:	48 ff c6             	inc    rsi
     ef5:	48 81 c1 00 04 00 00 	add    rcx,0x400
     efc:	81 fe ff 00 00 00    	cmp    esi,0xff
     f02:	75 d5                	jne    ed9 <s126+0x41>
     f04:	01 f0                	add    eax,esi
     f06:	ff c0                	inc    eax
     f08:	48 ff c2             	inc    rdx
     f0b:	48 83 c3 04          	add    rbx,0x4
     f0f:	48 81 fa 00 01 00 00 	cmp    rdx,0x100
     f16:	75 a8                	jne    ec0 <s126+0x28>
     f18:	bf 00 00 00 00       	mov    edi,0x0
     f1d:	be 00 00 00 00       	mov    esi,0x0
     f22:	ba 00 00 00 00       	mov    edx,0x0
     f27:	b9 00 00 00 00       	mov    ecx,0x0
     f2c:	41 b8 00 00 00 00    	mov    r8d,0x0
     f32:	41 b9 00 00 00 00    	mov    r9d,0x0
     f38:	0f 57 c0             	xorps  xmm0,xmm0
     f3b:	68 00 00 00 00       	push   0x0
     f40:	68 00 00 00 00       	push   0x0
     f45:	e8 00 00 00 00       	call   f4a <s126+0xb2>
     f4a:	48 83 c4 10          	add    rsp,0x10
     f4e:	41 ff c7             	inc    r15d
     f51:	41 81 ff 3c 0f 00 00 	cmp    r15d,0xf3c
     f58:	0f 85 59 ff ff ff    	jne    eb7 <s126+0x1f>
     f5e:	49 83 c6 10          	add    r14,0x10
     f62:	4c 89 f7             	mov    rdi,r14
     f65:	31 f6                	xor    esi,esi
     f67:	e8 00 00 00 00       	call   f6c <s126+0xd4>
     f6c:	bf 00 00 00 00       	mov    edi,0x0
     f71:	5b                   	pop    rbx
     f72:	41 5e                	pop    r14
     f74:	41 5f                	pop    r15
     f76:	e9 00 00 00 00       	jmp    f7b <s127>

0000000000000f7b <s127>:
     f7b:	41 56                	push   r14
     f7d:	53                   	push   rbx
     f7e:	50                   	push   rax
     f7f:	49 89 fe             	mov    r14,rdi
     f82:	bf 00 00 00 00       	mov    edi,0x0
     f87:	e8 00 00 00 00       	call   f8c <s127+0x11>
     f8c:	31 db                	xor    ebx,ebx
     f8e:	4c 89 f7             	mov    rdi,r14
     f91:	31 f6                	xor    esi,esi
     f93:	e8 00 00 00 00       	call   f98 <s127+0x1d>
     f98:	31 c0                	xor    eax,eax
     f9a:	f3 0f 10 04 85 00 00 	movss  xmm0,DWORD PTR [rax*4+0x0]
     fa1:	00 00 
     fa3:	f3 0f 10 0c 85 00 00 	movss  xmm1,DWORD PTR [rax*4+0x0]
     faa:	00 00 
     fac:	f3 0f 10 14 85 00 00 	movss  xmm2,DWORD PTR [rax*4+0x0]
     fb3:	00 00 
     fb5:	f3 0f 59 d1          	mulss  xmm2,xmm1
     fb9:	f3 0f 58 d0          	addss  xmm2,xmm0
     fbd:	f3 0f 11 14 c5 00 00 	movss  DWORD PTR [rax*8+0x0],xmm2
     fc4:	00 00 
     fc6:	f3 0f 59 0c 85 00 00 	mulss  xmm1,DWORD PTR [rax*4+0x0]
     fcd:	00 00 
     fcf:	f3 0f 58 c8          	addss  xmm1,xmm0
     fd3:	f3 0f 11 0c c5 00 00 	movss  DWORD PTR [rax*8+0x0],xmm1
     fda:	00 00 
     fdc:	48 ff c0             	inc    rax
     fdf:	48 3d 80 3e 00 00    	cmp    rax,0x3e80
     fe5:	75 b3                	jne    f9a <s127+0x1f>
     fe7:	bf 00 00 00 00       	mov    edi,0x0
     fec:	be 00 00 00 00       	mov    esi,0x0
     ff1:	ba 00 00 00 00       	mov    edx,0x0
     ff6:	b9 00 00 00 00       	mov    ecx,0x0
     ffb:	41 b8 00 00 00 00    	mov    r8d,0x0
    1001:	41 b9 00 00 00 00    	mov    r9d,0x0
    1007:	0f 57 c0             	xorps  xmm0,xmm0
    100a:	68 00 00 00 00       	push   0x0
    100f:	68 00 00 00 00       	push   0x0
    1014:	e8 00 00 00 00       	call   1019 <s127+0x9e>
    1019:	48 83 c4 10          	add    rsp,0x10
    101d:	ff c3                	inc    ebx
    101f:	81 fb 40 0d 03 00    	cmp    ebx,0x30d40
    1025:	0f 85 6d ff ff ff    	jne    f98 <s127+0x1d>
    102b:	49 83 c6 10          	add    r14,0x10
    102f:	4c 89 f7             	mov    rdi,r14
    1032:	31 f6                	xor    esi,esi
    1034:	e8 00 00 00 00       	call   1039 <s127+0xbe>
    1039:	bf 00 00 00 00       	mov    edi,0x0
    103e:	48 83 c4 08          	add    rsp,0x8
    1042:	5b                   	pop    rbx
    1043:	41 5e                	pop    r14
    1045:	e9 00 00 00 00       	jmp    104a <s128>

000000000000104a <s128>:
    104a:	41 56                	push   r14
    104c:	53                   	push   rbx
    104d:	50                   	push   rax
    104e:	49 89 fe             	mov    r14,rdi
    1051:	bf 00 00 00 00       	mov    edi,0x0
    1056:	e8 00 00 00 00       	call   105b <s128+0x11>
    105b:	31 db                	xor    ebx,ebx
    105d:	4c 89 f7             	mov    rdi,r14
    1060:	31 f6                	xor    esi,esi
    1062:	e8 00 00 00 00       	call   1067 <s128+0x1d>
    1067:	48 c7 c0 00 06 ff ff 	mov    rax,0xffffffffffff0600
    106e:	f3 0f 10 84 00 00 00 	movss  xmm0,DWORD PTR [rax+rax*1+0x0]
    1075:	00 00 
    1077:	f3 0f 5c 80 00 00 00 	subss  xmm0,DWORD PTR [rax+0x0]
    107e:	00 
    107f:	f3 0f 11 80 00 00 00 	movss  DWORD PTR [rax+0x0],xmm0
    1086:	00 
    1087:	f3 0f 58 84 00 00 00 	addss  xmm0,DWORD PTR [rax+rax*1+0x0]
    108e:	00 00 
    1090:	f3 0f 11 84 00 00 00 	movss  DWORD PTR [rax+rax*1+0x0],xmm0
    1097:	00 00 
    1099:	48 83 c0 04          	add    rax,0x4
    109d:	75 cf                	jne    106e <s128+0x24>
    109f:	bf 00 00 00 00       	mov    edi,0x0
    10a4:	be 00 00 00 00       	mov    esi,0x0
    10a9:	ba 00 00 00 00       	mov    edx,0x0
    10ae:	b9 00 00 00 00       	mov    ecx,0x0
    10b3:	41 b8 00 00 00 00    	mov    r8d,0x0
    10b9:	41 b9 00 00 00 00    	mov    r9d,0x0
    10bf:	f3 0f 10 05 00 00 00 	movss  xmm0,DWORD PTR [rip+0x0]        # 10c7 <s128+0x7d>
    10c6:	00 
    10c7:	68 00 00 00 00       	push   0x0
    10cc:	68 00 00 00 00       	push   0x0
    10d1:	e8 00 00 00 00       	call   10d6 <s128+0x8c>
    10d6:	48 83 c4 10          	add    rsp,0x10
    10da:	ff c3                	inc    ebx
    10dc:	81 fb 40 0d 03 00    	cmp    ebx,0x30d40
    10e2:	75 83                	jne    1067 <s128+0x1d>
    10e4:	49 83 c6 10          	add    r14,0x10
    10e8:	4c 89 f7             	mov    rdi,r14
    10eb:	31 f6                	xor    esi,esi
    10ed:	e8 00 00 00 00       	call   10f2 <s128+0xa8>
    10f2:	bf 00 00 00 00       	mov    edi,0x0
    10f7:	48 83 c4 08          	add    rsp,0x8
    10fb:	5b                   	pop    rbx
    10fc:	41 5e                	pop    r14
    10fe:	e9 00 00 00 00       	jmp    1103 <s131>

0000000000001103 <s131>:
    1103:	41 56                	push   r14
    1105:	53                   	push   rbx
    1106:	50                   	push   rax
    1107:	49 89 fe             	mov    r14,rdi
    110a:	bf 00 00 00 00       	mov    edi,0x0
    110f:	e8 00 00 00 00       	call   1114 <s131+0x11>
    1114:	31 db                	xor    ebx,ebx
    1116:	4c 89 f7             	mov    rdi,r14
    1119:	31 f6                	xor    esi,esi
    111b:	e8 00 00 00 00       	call   1120 <s131+0x1d>
    1120:	48 c7 c0 04 0c fe ff 	mov    rax,0xfffffffffffe0c04
    1127:	f3 0f 10 80 00 00 00 	movss  xmm0,DWORD PTR [rax+0x0]
    112e:	00 
    112f:	f3 0f 58 80 00 00 00 	addss  xmm0,DWORD PTR [rax+0x0]
    1136:	00 
    1137:	f3 0f 11 80 00 00 00 	movss  DWORD PTR [rax+0x0],xmm0
    113e:	00 
    113f:	48 83 c0 04          	add    rax,0x4
    1143:	75 e2                	jne    1127 <s131+0x24>
    1145:	bf 00 00 00 00       	mov    edi,0x0
    114a:	be 00 00 00 00       	mov    esi,0x0
    114f:	ba 00 00 00 00       	mov    edx,0x0
    1154:	b9 00 00 00 00       	mov    ecx,0x0
    1159:	41 b8 00 00 00 00    	mov    r8d,0x0
    115f:	41 b9 00 00 00 00    	mov    r9d,0x0
    1165:	0f 57 c0             	xorps  xmm0,xmm0
    1168:	68 00 00 00 00       	push   0x0
    116d:	68 00 00 00 00       	push   0x0
    1172:	e8 00 00 00 00       	call   1177 <s131+0x74>
    1177:	48 83 c4 10          	add    rsp,0x10
    117b:	ff c3                	inc    ebx
    117d:	81 fb 20 a1 07 00    	cmp    ebx,0x7a120
    1183:	75 9b                	jne    1120 <s131+0x1d>
    1185:	49 83 c6 10          	add    r14,0x10
    1189:	4c 89 f7             	mov    rdi,r14
    118c:	31 f6                	xor    esi,esi
    118e:	e8 00 00 00 00       	call   1193 <s131+0x90>
    1193:	bf 00 00 00 00       	mov    edi,0x0
    1198:	48 83 c4 08          	add    rsp,0x8
    119c:	5b                   	pop    rbx
    119d:	41 5e                	pop    r14
    119f:	e9 00 00 00 00       	jmp    11a4 <s132>

00000000000011a4 <s132>:
    11a4:	41 56                	push   r14
    11a6:	53                   	push   rbx
    11a7:	50                   	push   rax
    11a8:	49 89 fe             	mov    r14,rdi
    11ab:	bf 00 00 00 00       	mov    edi,0x0
    11b0:	e8 00 00 00 00       	call   11b5 <s132+0x11>
    11b5:	31 db                	xor    ebx,ebx
    11b7:	4c 89 f7             	mov    rdi,r14
    11ba:	31 f6                	xor    esi,esi
    11bc:	e8 00 00 00 00       	call   11c1 <s132+0x1d>
    11c1:	48 c7 c0 04 fc ff ff 	mov    rax,0xfffffffffffffc04
    11c8:	f3 0f 10 05 00 00 00 	movss  xmm0,DWORD PTR [rip+0x0]        # 11d0 <s132+0x2c>
    11cf:	00 
    11d0:	f3 0f 10 88 00 00 00 	movss  xmm1,DWORD PTR [rax+0x0]
    11d7:	00 
    11d8:	f3 0f 59 c8          	mulss  xmm1,xmm0
    11dc:	f3 0f 58 88 00 00 00 	addss  xmm1,DWORD PTR [rax+0x0]
    11e3:	00 
    11e4:	f3 0f 11 88 00 00 00 	movss  DWORD PTR [rax+0x0],xmm1
    11eb:	00 
    11ec:	48 83 c0 04          	add    rax,0x4
    11f0:	75 de                	jne    11d0 <s132+0x2c>
    11f2:	bf 00 00 00 00       	mov    edi,0x0
    11f7:	be 00 00 00 00       	mov    esi,0x0
    11fc:	ba 00 00 00 00       	mov    edx,0x0
    1201:	b9 00 00 00 00       	mov    ecx,0x0
    1206:	41 b8 00 00 00 00    	mov    r8d,0x0
    120c:	41 b9 00 00 00 00    	mov    r9d,0x0
    1212:	0f 57 c0             	xorps  xmm0,xmm0
    1215:	68 00 00 00 00       	push   0x0
    121a:	68 00 00 00 00       	push   0x0
    121f:	e8 00 00 00 00       	call   1224 <s132+0x80>
    1224:	48 83 c4 10          	add    rsp,0x10
    1228:	ff c3                	inc    ebx
    122a:	81 fb 00 5a 62 02    	cmp    ebx,0x2625a00
    1230:	75 8f                	jne    11c1 <s132+0x1d>
    1232:	49 83 c6 10          	add    r14,0x10
    1236:	4c 89 f7             	mov    rdi,r14
    1239:	31 f6                	xor    esi,esi
    123b:	e8 00 00 00 00       	call   1240 <s132+0x9c>
    1240:	bf 00 00 00 00       	mov    edi,0x0
    1245:	48 83 c4 08          	add    rsp,0x8
    1249:	5b                   	pop    rbx
    124a:	41 5e                	pop    r14
    124c:	e9 00 00 00 00       	jmp    1251 <s141>

0000000000001251 <s141>:
    1251:	41 57                	push   r15
    1253:	41 56                	push   r14
    1255:	53                   	push   rbx
    1256:	49 89 fe             	mov    r14,rdi
    1259:	bf 00 00 00 00       	mov    edi,0x0
    125e:	e8 00 00 00 00       	call   1263 <s141+0x12>
    1263:	45 31 ff             	xor    r15d,r15d
    1266:	4c 89 f7             	mov    rdi,r14
    1269:	31 f6                	xor    esi,esi
    126b:	e8 00 00 00 00       	call   1270 <s141+0x1f>
    1270:	b8 00 00 04 00       	mov    eax,0x40000
    1275:	41 b9 01 00 00 00    	mov    r9d,0x1
    127b:	ba 00 00 00 00       	mov    edx,0x0
    1280:	45 31 c0             	xor    r8d,r8d
    1283:	4c 89 c1             	mov    rcx,r8
    1286:	49 ff c0             	inc    r8
    1289:	44 89 c7             	mov    edi,r8d
    128c:	0f af f9             	imul   edi,ecx
    128f:	d1 ef                	shr    edi,1
    1291:	01 cf                	add    edi,ecx
    1293:	44 89 c9             	mov    ecx,r9d
    1296:	31 f6                	xor    esi,esi
    1298:	f3 0f 10 04 32       	movss  xmm0,DWORD PTR [rdx+rsi*1]
    129d:	89 fb                	mov    ebx,edi
    129f:	f3 0f 58 04 9d 00 00 	addss  xmm0,DWORD PTR [rbx*4+0x0]
    12a6:	00 00 
    12a8:	f3 0f 11 04 9d 00 00 	movss  DWORD PTR [rbx*4+0x0],xmm0
    12af:	00 00 
    12b1:	01 cf                	add    edi,ecx
    12b3:	48 81 c6 00 04 00 00 	add    rsi,0x400
    12ba:	ff c1                	inc    ecx
    12bc:	48 39 f0             	cmp    rax,rsi
    12bf:	75 d7                	jne    1298 <s141+0x47>
    12c1:	48 05 00 fc ff ff    	add    rax,0xfffffffffffffc00
    12c7:	41 ff c1             	inc    r9d
    12ca:	48 81 c2 04 04 00 00 	add    rdx,0x404
    12d1:	49 81 f8 00 01 00 00 	cmp    r8,0x100
    12d8:	75 a9                	jne    1283 <s141+0x32>
    12da:	bf 00 00 00 00       	mov    edi,0x0
    12df:	be 00 00 00 00       	mov    esi,0x0
    12e4:	ba 00 00 00 00       	mov    edx,0x0
    12e9:	b9 00 00 00 00       	mov    ecx,0x0
    12ee:	41 b8 00 00 00 00    	mov    r8d,0x0
    12f4:	41 b9 00 00 00 00    	mov    r9d,0x0
    12fa:	0f 57 c0             	xorps  xmm0,xmm0
    12fd:	68 00 00 00 00       	push   0x0
    1302:	68 00 00 00 00       	push   0x0
    1307:	e8 00 00 00 00       	call   130c <s141+0xbb>
    130c:	48 83 c4 10          	add    rsp,0x10
    1310:	41 ff c7             	inc    r15d
    1313:	41 81 ff b0 30 01 00 	cmp    r15d,0x130b0
    131a:	0f 85 50 ff ff ff    	jne    1270 <s141+0x1f>
    1320:	49 83 c6 10          	add    r14,0x10
    1324:	4c 89 f7             	mov    rdi,r14
    1327:	31 f6                	xor    esi,esi
    1329:	e8 00 00 00 00       	call   132e <s141+0xdd>
    132e:	bf 00 00 00 00       	mov    edi,0x0
    1333:	5b                   	pop    rbx
    1334:	41 5e                	pop    r14
    1336:	41 5f                	pop    r15
    1338:	e9 00 00 00 00       	jmp    133d <s151s>

000000000000133d <s151s>:
    133d:	48 63 c2             	movsxd rax,edx
    1340:	48 8d 04 87          	lea    rax,[rdi+rax*4]
    1344:	31 c9                	xor    ecx,ecx
    1346:	f3 0f 10 04 88       	movss  xmm0,DWORD PTR [rax+rcx*4]
    134b:	f3 0f 58 04 8e       	addss  xmm0,DWORD PTR [rsi+rcx*4]
    1350:	f3 0f 11 04 8f       	movss  DWORD PTR [rdi+rcx*4],xmm0
    1355:	48 ff c1             	inc    rcx
    1358:	48 81 f9 ff 7c 00 00 	cmp    rcx,0x7cff
    135f:	75 e5                	jne    1346 <s151s+0x9>
    1361:	c3                   	ret    

0000000000001362 <s151>:
    1362:	41 56                	push   r14
    1364:	53                   	push   rbx
    1365:	50                   	push   rax
    1366:	49 89 fe             	mov    r14,rdi
    1369:	bf 00 00 00 00       	mov    edi,0x0
    136e:	e8 00 00 00 00       	call   1373 <s151+0x11>
    1373:	31 db                	xor    ebx,ebx
    1375:	4c 89 f7             	mov    rdi,r14
    1378:	31 f6                	xor    esi,esi
    137a:	e8 00 00 00 00       	call   137f <s151+0x1d>
    137f:	48 c7 c0 04 0c fe ff 	mov    rax,0xfffffffffffe0c04
    1386:	f3 0f 10 80 00 00 00 	movss  xmm0,DWORD PTR [rax+0x0]
    138d:	00 
    138e:	f3 0f 58 80 00 00 00 	addss  xmm0,DWORD PTR [rax+0x0]
    1395:	00 
    1396:	f3 0f 11 80 00 00 00 	movss  DWORD PTR [rax+0x0],xmm0
    139d:	00 
    139e:	48 83 c0 04          	add    rax,0x4
    13a2:	75 e2                	jne    1386 <s151+0x24>
    13a4:	bf 00 00 00 00       	mov    edi,0x0
    13a9:	be 00 00 00 00       	mov    esi,0x0
    13ae:	ba 00 00 00 00       	mov    edx,0x0
    13b3:	b9 00 00 00 00       	mov    ecx,0x0
    13b8:	41 b8 00 00 00 00    	mov    r8d,0x0
    13be:	41 b9 00 00 00 00    	mov    r9d,0x0
    13c4:	0f 57 c0             	xorps  xmm0,xmm0
    13c7:	68 00 00 00 00       	push   0x0
    13cc:	68 00 00 00 00       	push   0x0
    13d1:	e8 00 00 00 00       	call   13d6 <s151+0x74>
    13d6:	48 83 c4 10          	add    rsp,0x10
    13da:	ff c3                	inc    ebx
    13dc:	81 fb 20 a1 07 00    	cmp    ebx,0x7a120
    13e2:	75 9b                	jne    137f <s151+0x1d>
    13e4:	49 83 c6 10          	add    r14,0x10
    13e8:	4c 89 f7             	mov    rdi,r14
    13eb:	31 f6                	xor    esi,esi
    13ed:	e8 00 00 00 00       	call   13f2 <s151+0x90>
    13f2:	bf 00 00 00 00       	mov    edi,0x0
    13f7:	48 83 c4 08          	add    rsp,0x8
    13fb:	5b                   	pop    rbx
    13fc:	41 5e                	pop    r14
    13fe:	e9 00 00 00 00       	jmp    1403 <s152s>

0000000000001403 <s152s>:
    1403:	48 63 c1             	movsxd rax,ecx
    1406:	f3 0f 10 04 86       	movss  xmm0,DWORD PTR [rsi+rax*4]
    140b:	f3 0f 59 04 82       	mulss  xmm0,DWORD PTR [rdx+rax*4]
    1410:	f3 0f 58 04 87       	addss  xmm0,DWORD PTR [rdi+rax*4]
    1415:	f3 0f 11 04 87       	movss  DWORD PTR [rdi+rax*4],xmm0
    141a:	c3                   	ret    

000000000000141b <s152>:
    141b:	41 56                	push   r14
    141d:	53                   	push   rbx
    141e:	50                   	push   rax
    141f:	49 89 fe             	mov    r14,rdi
    1422:	bf 00 00 00 00       	mov    edi,0x0
    1427:	e8 00 00 00 00       	call   142c <s152+0x11>
    142c:	31 db                	xor    ebx,ebx
    142e:	4c 89 f7             	mov    rdi,r14
    1431:	31 f6                	xor    esi,esi
    1433:	e8 00 00 00 00       	call   1438 <s152+0x1d>
    1438:	48 c7 c0 00 0c fe ff 	mov    rax,0xfffffffffffe0c00
    143f:	f3 0f 10 80 00 00 00 	movss  xmm0,DWORD PTR [rax+0x0]
    1446:	00 
    1447:	f3 0f 59 80 00 00 00 	mulss  xmm0,DWORD PTR [rax+0x0]
    144e:	00 
    144f:	f3 0f 11 80 00 00 00 	movss  DWORD PTR [rax+0x0],xmm0
    1456:	00 
    1457:	f3 0f 59 80 00 00 00 	mulss  xmm0,DWORD PTR [rax+0x0]
    145e:	00 
    145f:	f3 0f 58 80 00 00 00 	addss  xmm0,DWORD PTR [rax+0x0]
    1466:	00 
    1467:	f3 0f 11 80 00 00 00 	movss  DWORD PTR [rax+0x0],xmm0
    146e:	00 
    146f:	48 83 c0 04          	add    rax,0x4
    1473:	75 ca                	jne    143f <s152+0x24>
    1475:	bf 00 00 00 00       	mov    edi,0x0
    147a:	be 00 00 00 00       	mov    esi,0x0
    147f:	ba 00 00 00 00       	mov    edx,0x0
    1484:	b9 00 00 00 00       	mov    ecx,0x0
    1489:	41 b8 00 00 00 00    	mov    r8d,0x0
    148f:	41 b9 00 00 00 00    	mov    r9d,0x0
    1495:	0f 57 c0             	xorps  xmm0,xmm0
    1498:	68 00 00 00 00       	push   0x0
    149d:	68 00 00 00 00       	push   0x0
    14a2:	e8 00 00 00 00       	call   14a7 <s152+0x8c>
    14a7:	48 83 c4 10          	add    rsp,0x10
    14ab:	ff c3                	inc    ebx
    14ad:	81 fb a0 86 01 00    	cmp    ebx,0x186a0
    14b3:	75 83                	jne    1438 <s152+0x1d>
    14b5:	49 83 c6 10          	add    r14,0x10
    14b9:	4c 89 f7             	mov    rdi,r14
    14bc:	31 f6                	xor    esi,esi
    14be:	e8 00 00 00 00       	call   14c3 <s152+0xa8>
    14c3:	bf 00 00 00 00       	mov    edi,0x0
    14c8:	48 83 c4 08          	add    rsp,0x8
    14cc:	5b                   	pop    rbx
    14cd:	41 5e                	pop    r14
    14cf:	e9 00 00 00 00       	jmp    14d4 <s161>

00000000000014d4 <s161>:
    14d4:	41 56                	push   r14
    14d6:	53                   	push   rbx
    14d7:	50                   	push   rax
    14d8:	49 89 fe             	mov    r14,rdi
    14db:	bf 00 00 00 00       	mov    edi,0x0
    14e0:	e8 00 00 00 00       	call   14e5 <s161+0x11>
    14e5:	31 db                	xor    ebx,ebx
    14e7:	4c 89 f7             	mov    rdi,r14
    14ea:	31 f6                	xor    esi,esi
    14ec:	e8 00 00 00 00       	call   14f1 <s161+0x1d>
    14f1:	0f 57 c9             	xorps  xmm1,xmm1
    14f4:	31 c0                	xor    eax,eax
    14f6:	0f 2e 0c 85 00 00 00 	ucomiss xmm1,DWORD PTR [rax*4+0x0]
    14fd:	00 
    14fe:	76 21                	jbe    1521 <s161+0x4d>
    1500:	f3 0f 10 04 85 00 00 	movss  xmm0,DWORD PTR [rax*4+0x0]
    1507:	00 00 
    1509:	f3 0f 59 c0          	mulss  xmm0,xmm0
    150d:	f3 0f 58 04 85 00 00 	addss  xmm0,DWORD PTR [rax*4+0x0]
    1514:	00 00 
    1516:	f3 0f 11 04 85 00 00 	movss  DWORD PTR [rax*4+0x0],xmm0
    151d:	00 00 
    151f:	eb 24                	jmp    1545 <s161+0x71>
    1521:	f3 0f 10 04 85 00 00 	movss  xmm0,DWORD PTR [rax*4+0x0]
    1528:	00 00 
    152a:	f3 0f 59 04 85 00 00 	mulss  xmm0,DWORD PTR [rax*4+0x0]
    1531:	00 00 
    1533:	f3 0f 58 04 85 00 00 	addss  xmm0,DWORD PTR [rax*4+0x0]
    153a:	00 00 
    153c:	f3 0f 11 04 85 00 00 	movss  DWORD PTR [rax*4+0x0],xmm0
    1543:	00 00 
    1545:	48 ff c0             	inc    rax
    1548:	48 3d ff 7c 00 00    	cmp    rax,0x7cff
    154e:	75 a6                	jne    14f6 <s161+0x22>
    1550:	bf 00 00 00 00       	mov    edi,0x0
    1555:	be 00 00 00 00       	mov    esi,0x0
    155a:	ba 00 00 00 00       	mov    edx,0x0
    155f:	b9 00 00 00 00       	mov    ecx,0x0
    1564:	41 b8 00 00 00 00    	mov    r8d,0x0
    156a:	41 b9 00 00 00 00    	mov    r9d,0x0
    1570:	0f 57 c0             	xorps  xmm0,xmm0
    1573:	68 00 00 00 00       	push   0x0
    1578:	68 00 00 00 00       	push   0x0
    157d:	e8 00 00 00 00       	call   1582 <s161+0xae>
    1582:	0f 57 c9             	xorps  xmm1,xmm1
    1585:	48 83 c4 10          	add    rsp,0x10
    1589:	ff c3                	inc    ebx
    158b:	81 fb 50 c3 00 00    	cmp    ebx,0xc350
    1591:	0f 85 5d ff ff ff    	jne    14f4 <s161+0x20>
    1597:	49 83 c6 10          	add    r14,0x10
    159b:	4c 89 f7             	mov    rdi,r14
    159e:	31 f6                	xor    esi,esi
    15a0:	e8 00 00 00 00       	call   15a5 <s161+0xd1>
    15a5:	bf 00 00 00 00       	mov    edi,0x0
    15aa:	48 83 c4 08          	add    rsp,0x8
    15ae:	5b                   	pop    rbx
    15af:	41 5e                	pop    r14
    15b1:	e9 00 00 00 00       	jmp    15b6 <s1161>

00000000000015b6 <s1161>:
    15b6:	41 56                	push   r14
    15b8:	53                   	push   rbx
    15b9:	50                   	push   rax
    15ba:	49 89 fe             	mov    r14,rdi
    15bd:	bf 00 00 00 00       	mov    edi,0x0
    15c2:	e8 00 00 00 00       	call   15c7 <s1161+0x11>
    15c7:	31 db                	xor    ebx,ebx
    15c9:	4c 89 f7             	mov    rdi,r14
    15cc:	31 f6                	xor    esi,esi
    15ce:	e8 00 00 00 00       	call   15d3 <s1161+0x1d>
    15d3:	0f 57 d2             	xorps  xmm2,xmm2
    15d6:	31 c0                	xor    eax,eax
    15d8:	f3 0f 10 80 00 00 00 	movss  xmm0,DWORD PTR [rax+0x0]
    15df:	00 
    15e0:	0f 2e d0             	ucomiss xmm2,xmm0
    15e3:	76 1b                	jbe    1600 <s1161+0x4a>
    15e5:	f3 0f 10 80 00 00 00 	movss  xmm0,DWORD PTR [rax+0x0]
    15ec:	00 
    15ed:	f3 0f 10 88 00 00 00 	movss  xmm1,DWORD PTR [rax+0x0]
    15f4:	00 
    15f5:	f3 0f 59 c9          	mulss  xmm1,xmm1
    15f9:	b9 00 00 00 00       	mov    ecx,0x0
    15fe:	eb 15                	jmp    1615 <s1161+0x5f>
    1600:	f3 0f 10 88 00 00 00 	movss  xmm1,DWORD PTR [rax+0x0]
    1607:	00 
    1608:	f3 0f 59 88 00 00 00 	mulss  xmm1,DWORD PTR [rax+0x0]
    160f:	00 
    1610:	b9 00 00 00 00       	mov    ecx,0x0
    1615:	f3 0f 58 c8          	addss  xmm1,xmm0
    1619:	f3 0f 11 0c 01       	movss  DWORD PTR [rcx+rax*1],xmm1
    161e:	48 83 c0 04          	add    rax,0x4
    1622:	48 3d fc f3 01 00    	cmp    rax,0x1f3fc
    1628:	75 ae                	jne    15d8 <s1161+0x22>
    162a:	bf 00 00 00 00       	mov    edi,0x0
    162f:	be 00 00 00 00       	mov    esi,0x0
    1634:	ba 00 00 00 00       	mov    edx,0x0
    1639:	b9 00 00 00 00       	mov    ecx,0x0
    163e:	41 b8 00 00 00 00    	mov    r8d,0x0
    1644:	41 b9 00 00 00 00    	mov    r9d,0x0
    164a:	0f 57 c0             	xorps  xmm0,xmm0
    164d:	68 00 00 00 00       	push   0x0
    1652:	68 00 00 00 00       	push   0x0
    1657:	e8 00 00 00 00       	call   165c <s1161+0xa6>
    165c:	0f 57 d2             	xorps  xmm2,xmm2
    165f:	48 83 c4 10          	add    rsp,0x10
    1663:	ff c3                	inc    ebx
    1665:	81 fb a0 86 01 00    	cmp    ebx,0x186a0
    166b:	0f 85 65 ff ff ff    	jne    15d6 <s1161+0x20>
    1671:	49 83 c6 10          	add    r14,0x10
    1675:	4c 89 f7             	mov    rdi,r14
    1678:	31 f6                	xor    esi,esi
    167a:	e8 00 00 00 00       	call   167f <s1161+0xc9>
    167f:	bf 00 00 00 00       	mov    edi,0x0
    1684:	48 83 c4 08          	add    rsp,0x8
    1688:	5b                   	pop    rbx
    1689:	41 5e                	pop    r14
    168b:	e9 00 00 00 00       	jmp    1690 <s162>

0000000000001690 <s162>:
    1690:	41 57                	push   r15
    1692:	41 56                	push   r14
    1694:	53                   	push   rbx
    1695:	49 89 fe             	mov    r14,rdi
    1698:	48 8b 47 20          	mov    rax,QWORD PTR [rdi+0x20]
    169c:	48 63 18             	movsxd rbx,DWORD PTR [rax]
    169f:	bf 00 00 00 00       	mov    edi,0x0
    16a4:	e8 00 00 00 00       	call   16a9 <s162+0x19>
    16a9:	45 31 ff             	xor    r15d,r15d
    16ac:	4c 89 f7             	mov    rdi,r14
    16af:	31 f6                	xor    esi,esi
    16b1:	e8 00 00 00 00       	call   16b6 <s162+0x26>
    16b6:	85 db                	test   ebx,ebx
    16b8:	7e 2f                	jle    16e9 <s162+0x59>
    16ba:	31 c0                	xor    eax,eax
    16bc:	f3 0f 10 80 00 00 00 	movss  xmm0,DWORD PTR [rax+0x0]
    16c3:	00 
    16c4:	f3 0f 59 80 00 00 00 	mulss  xmm0,DWORD PTR [rax+0x0]
    16cb:	00 
    16cc:	f3 0f 58 84 98 00 00 	addss  xmm0,DWORD PTR [rax+rbx*4+0x0]
    16d3:	00 00 
    16d5:	f3 0f 11 80 00 00 00 	movss  DWORD PTR [rax+0x0],xmm0
    16dc:	00 
    16dd:	48 83 c0 04          	add    rax,0x4
    16e1:	48 3d fc f3 01 00    	cmp    rax,0x1f3fc
    16e7:	75 d3                	jne    16bc <s162+0x2c>
    16e9:	bf 00 00 00 00       	mov    edi,0x0
    16ee:	be 00 00 00 00       	mov    esi,0x0
    16f3:	ba 00 00 00 00       	mov    edx,0x0
    16f8:	b9 00 00 00 00       	mov    ecx,0x0
    16fd:	41 b8 00 00 00 00    	mov    r8d,0x0
    1703:	41 b9 00 00 00 00    	mov    r9d,0x0
    1709:	0f 57 c0             	xorps  xmm0,xmm0
    170c:	68 00 00 00 00       	push   0x0
    1711:	68 00 00 00 00       	push   0x0
    1716:	e8 00 00 00 00       	call   171b <s162+0x8b>
    171b:	48 83 c4 10          	add    rsp,0x10
    171f:	41 ff c7             	inc    r15d
    1722:	41 81 ff a0 86 01 00 	cmp    r15d,0x186a0
    1729:	75 8b                	jne    16b6 <s162+0x26>
    172b:	49 83 c6 10          	add    r14,0x10
    172f:	4c 89 f7             	mov    rdi,r14
    1732:	31 f6                	xor    esi,esi
    1734:	e8 00 00 00 00       	call   1739 <s162+0xa9>
    1739:	bf 00 00 00 00       	mov    edi,0x0
    173e:	5b                   	pop    rbx
    173f:	41 5e                	pop    r14
    1741:	41 5f                	pop    r15
    1743:	e9 00 00 00 00       	jmp    1748 <s171>

0000000000001748 <s171>:
    1748:	41 57                	push   r15
    174a:	41 56                	push   r14
    174c:	53                   	push   rbx
    174d:	49 89 fe             	mov    r14,rdi
    1750:	48 8b 47 20          	mov    rax,QWORD PTR [rdi+0x20]
    1754:	48 63 18             	movsxd rbx,DWORD PTR [rax]
    1757:	bf 00 00 00 00       	mov    edi,0x0
    175c:	e8 00 00 00 00       	call   1761 <s171+0x19>
    1761:	45 31 ff             	xor    r15d,r15d
    1764:	4c 89 f7             	mov    rdi,r14
    1767:	31 f6                	xor    esi,esi
    1769:	e8 00 00 00 00       	call   176e <s171+0x26>
    176e:	48 c1 e3 02          	shl    rbx,0x2
    1772:	48 c7 c0 00 0c fe ff 	mov    rax,0xfffffffffffe0c00
    1779:	b9 00 00 00 00       	mov    ecx,0x0
    177e:	f3 0f 10 80 00 00 00 	movss  xmm0,DWORD PTR [rax+0x0]
    1785:	00 
    1786:	f3 0f 58 01          	addss  xmm0,DWORD PTR [rcx]
    178a:	f3 0f 11 01          	movss  DWORD PTR [rcx],xmm0
    178e:	48 01 d9             	add    rcx,rbx
    1791:	48 83 c0 04          	add    rax,0x4
    1795:	75 e7                	jne    177e <s171+0x36>
    1797:	bf 00 00 00 00       	mov    edi,0x0
    179c:	be 00 00 00 00       	mov    esi,0x0
    17a1:	ba 00 00 00 00       	mov    edx,0x0
    17a6:	b9 00 00 00 00       	mov    ecx,0x0
    17ab:	41 b8 00 00 00 00    	mov    r8d,0x0
    17b1:	41 b9 00 00 00 00    	mov    r9d,0x0
    17b7:	0f 57 c0             	xorps  xmm0,xmm0
    17ba:	68 00 00 00 00       	push   0x0
    17bf:	68 00 00 00 00       	push   0x0
    17c4:	e8 00 00 00 00       	call   17c9 <s171+0x81>
    17c9:	48 83 c4 10          	add    rsp,0x10
    17cd:	41 ff c7             	inc    r15d
    17d0:	41 81 ff a0 86 01 00 	cmp    r15d,0x186a0
    17d7:	75 99                	jne    1772 <s171+0x2a>
    17d9:	49 83 c6 10          	add    r14,0x10
    17dd:	4c 89 f7             	mov    rdi,r14
    17e0:	31 f6                	xor    esi,esi
    17e2:	e8 00 00 00 00       	call   17e7 <s171+0x9f>
    17e7:	bf 00 00 00 00       	mov    edi,0x0
    17ec:	5b                   	pop    rbx
    17ed:	41 5e                	pop    r14
    17ef:	41 5f                	pop    r15
    17f1:	e9 00 00 00 00       	jmp    17f6 <s172>

00000000000017f6 <s172>:
    17f6:	41 57                	push   r15
    17f8:	41 56                	push   r14
    17fa:	41 55                	push   r13
    17fc:	41 54                	push   r12
    17fe:	53                   	push   rbx
    17ff:	49 89 fe             	mov    r14,rdi
    1802:	48 8b 47 20          	mov    rax,QWORD PTR [rdi+0x20]
    1806:	44 8b 38             	mov    r15d,DWORD PTR [rax]
    1809:	48 63 58 04          	movsxd rbx,DWORD PTR [rax+0x4]
    180d:	bf 00 00 00 00       	mov    edi,0x0
    1812:	e8 00 00 00 00       	call   1817 <s172+0x21>
    1817:	45 31 e4             	xor    r12d,r12d
    181a:	4c 89 f7             	mov    rdi,r14
    181d:	31 f6                	xor    esi,esi
    181f:	e8 00 00 00 00       	call   1824 <s172+0x2e>
    1824:	41 8d 47 ff          	lea    eax,[r15-0x1]
    1828:	4c 63 e8             	movsxd r13,eax
    182b:	4c 89 e8             	mov    rax,r13
    182e:	41 81 ff 00 7d 00 00 	cmp    r15d,0x7d00
    1835:	7f 26                	jg     185d <s172+0x67>
    1837:	f3 0f 10 04 85 00 00 	movss  xmm0,DWORD PTR [rax*4+0x0]
    183e:	00 00 
    1840:	f3 0f 58 04 85 00 00 	addss  xmm0,DWORD PTR [rax*4+0x0]
    1847:	00 00 
    1849:	f3 0f 11 04 85 00 00 	movss  DWORD PTR [rax*4+0x0],xmm0
    1850:	00 00 
    1852:	48 01 d8             	add    rax,rbx
    1855:	48 3d 00 7d 00 00    	cmp    rax,0x7d00
    185b:	7c da                	jl     1837 <s172+0x41>
    185d:	bf 00 00 00 00       	mov    edi,0x0
    1862:	be 00 00 00 00       	mov    esi,0x0
    1867:	ba 00 00 00 00       	mov    edx,0x0
    186c:	b9 00 00 00 00       	mov    ecx,0x0
    1871:	41 b8 00 00 00 00    	mov    r8d,0x0
    1877:	41 b9 00 00 00 00    	mov    r9d,0x0
    187d:	0f 57 c0             	xorps  xmm0,xmm0
    1880:	68 00 00 00 00       	push   0x0
    1885:	68 00 00 00 00       	push   0x0
    188a:	e8 00 00 00 00       	call   188f <s172+0x99>
    188f:	48 83 c4 10          	add    rsp,0x10
    1893:	41 ff c4             	inc    r12d
    1896:	41 81 fc a0 86 01 00 	cmp    r12d,0x186a0
    189d:	75 8c                	jne    182b <s172+0x35>
    189f:	49 83 c6 10          	add    r14,0x10
    18a3:	4c 89 f7             	mov    rdi,r14
    18a6:	31 f6                	xor    esi,esi
    18a8:	e8 00 00 00 00       	call   18ad <s172+0xb7>
    18ad:	bf 00 00 00 00       	mov    edi,0x0
    18b2:	5b                   	pop    rbx
    18b3:	41 5c                	pop    r12
    18b5:	41 5d                	pop    r13
    18b7:	41 5e                	pop    r14
    18b9:	41 5f                	pop    r15
    18bb:	e9 00 00 00 00       	jmp    18c0 <s173>

00000000000018c0 <s173>:
    18c0:	41 56                	push   r14
    18c2:	53                   	push   rbx
    18c3:	50                   	push   rax
    18c4:	49 89 fe             	mov    r14,rdi
    18c7:	bf 00 00 00 00       	mov    edi,0x0
    18cc:	e8 00 00 00 00       	call   18d1 <s173+0x11>
    18d1:	31 db                	xor    ebx,ebx
    18d3:	4c 89 f7             	mov    rdi,r14
    18d6:	31 f6                	xor    esi,esi
    18d8:	e8 00 00 00 00       	call   18dd <s173+0x1d>
    18dd:	48 c7 c0 00 06 ff ff 	mov    rax,0xffffffffffff0600
    18e4:	f3 0f 10 80 00 00 00 	movss  xmm0,DWORD PTR [rax+0x0]
    18eb:	00 
    18ec:	f3 0f 58 80 00 00 00 	addss  xmm0,DWORD PTR [rax+0x0]
    18f3:	00 
    18f4:	f3 0f 11 80 00 00 00 	movss  DWORD PTR [rax+0x0],xmm0
    18fb:	00 
    18fc:	48 83 c0 04          	add    rax,0x4
    1900:	75 e2                	jne    18e4 <s173+0x24>
    1902:	bf 00 00 00 00       	mov    edi,0x0
    1907:	be 00 00 00 00       	mov    esi,0x0
    190c:	ba 00 00 00 00       	mov    edx,0x0
    1911:	b9 00 00 00 00       	mov    ecx,0x0
    1916:	41 b8 00 00 00 00    	mov    r8d,0x0
    191c:	41 b9 00 00 00 00    	mov    r9d,0x0
    1922:	0f 57 c0             	xorps  xmm0,xmm0
    1925:	68 00 00 00 00       	push   0x0
    192a:	68 00 00 00 00       	push   0x0
    192f:	e8 00 00 00 00       	call   1934 <s173+0x74>
    1934:	48 83 c4 10          	add    rsp,0x10
    1938:	ff c3                	inc    ebx
    193a:	81 fb 40 42 0f 00    	cmp    ebx,0xf4240
    1940:	75 9b                	jne    18dd <s173+0x1d>
    1942:	49 83 c6 10          	add    r14,0x10
    1946:	4c 89 f7             	mov    rdi,r14
    1949:	31 f6                	xor    esi,esi
    194b:	e8 00 00 00 00       	call   1950 <s173+0x90>
    1950:	bf 00 00 00 00       	mov    edi,0x0
    1955:	48 83 c4 08          	add    rsp,0x8
    1959:	5b                   	pop    rbx
    195a:	41 5e                	pop    r14
    195c:	e9 00 00 00 00       	jmp    1961 <s174>

0000000000001961 <s174>:
    1961:	41 57                	push   r15
    1963:	41 56                	push   r14
    1965:	41 55                	push   r13
    1967:	41 54                	push   r12
    1969:	53                   	push   rbx
    196a:	49 89 fe             	mov    r14,rdi
    196d:	48 8b 47 20          	mov    rax,QWORD PTR [rdi+0x20]
    1971:	44 8b 38             	mov    r15d,DWORD PTR [rax]
    1974:	bf 00 00 00 00       	mov    edi,0x0
    1979:	e8 00 00 00 00       	call   197e <s174+0x1d>
    197e:	45 31 e4             	xor    r12d,r12d
    1981:	4c 89 f7             	mov    rdi,r14
    1984:	31 f6                	xor    esi,esi
    1986:	e8 00 00 00 00       	call   198b <s174+0x2a>
    198b:	4d 63 ef             	movsxd r13,r15d
    198e:	4c 89 fb             	mov    rbx,r15
    1991:	48 c1 e3 02          	shl    rbx,0x2
    1995:	45 85 ff             	test   r15d,r15d
    1998:	7e 25                	jle    19bf <s174+0x5e>
    199a:	31 c0                	xor    eax,eax
    199c:	f3 0f 10 80 00 00 00 	movss  xmm0,DWORD PTR [rax+0x0]
    19a3:	00 
    19a4:	f3 0f 58 80 00 00 00 	addss  xmm0,DWORD PTR [rax+0x0]
    19ab:	00 
    19ac:	f3 42 0f 11 84 a8 00 	movss  DWORD PTR [rax+r13*4+0x0],xmm0
    19b3:	00 00 00 
    19b6:	48 83 c0 04          	add    rax,0x4
    19ba:	48 39 c3             	cmp    rbx,rax
    19bd:	75 dd                	jne    199c <s174+0x3b>
    19bf:	bf 00 00 00 00       	mov    edi,0x0
    19c4:	be 00 00 00 00       	mov    esi,0x0
    19c9:	ba 00 00 00 00       	mov    edx,0x0
    19ce:	b9 00 00 00 00       	mov    ecx,0x0
    19d3:	41 b8 00 00 00 00    	mov    r8d,0x0
    19d9:	41 b9 00 00 00 00    	mov    r9d,0x0
    19df:	0f 57 c0             	xorps  xmm0,xmm0
    19e2:	68 00 00 00 00       	push   0x0
    19e7:	68 00 00 00 00       	push   0x0
    19ec:	e8 00 00 00 00       	call   19f1 <s174+0x90>
    19f1:	48 83 c4 10          	add    rsp,0x10
    19f5:	41 ff c4             	inc    r12d
    19f8:	41 81 fc 40 42 0f 00 	cmp    r12d,0xf4240
    19ff:	75 94                	jne    1995 <s174+0x34>
    1a01:	49 83 c6 10          	add    r14,0x10
    1a05:	4c 89 f7             	mov    rdi,r14
    1a08:	31 f6                	xor    esi,esi
    1a0a:	e8 00 00 00 00       	call   1a0f <s174+0xae>
    1a0f:	bf 00 00 00 00       	mov    edi,0x0
    1a14:	5b                   	pop    rbx
    1a15:	41 5c                	pop    r12
    1a17:	41 5d                	pop    r13
    1a19:	41 5e                	pop    r14
    1a1b:	41 5f                	pop    r15
    1a1d:	e9 00 00 00 00       	jmp    1a22 <s175>

0000000000001a22 <s175>:
    1a22:	41 57                	push   r15
    1a24:	41 56                	push   r14
    1a26:	41 54                	push   r12
    1a28:	53                   	push   rbx
    1a29:	50                   	push   rax
    1a2a:	49 89 fe             	mov    r14,rdi
    1a2d:	48 8b 47 20          	mov    rax,QWORD PTR [rdi+0x20]
    1a31:	4c 63 20             	movsxd r12,DWORD PTR [rax]
    1a34:	bf 00 00 00 00       	mov    edi,0x0
    1a39:	e8 00 00 00 00       	call   1a3e <s175+0x1c>
    1a3e:	45 31 ff             	xor    r15d,r15d
    1a41:	4c 89 f7             	mov    rdi,r14
    1a44:	31 f6                	xor    esi,esi
    1a46:	e8 00 00 00 00       	call   1a4b <s175+0x29>
    1a4b:	4a 8d 1c a5 00 00 00 	lea    rbx,[r12*4+0x0]
    1a52:	00 
    1a53:	31 c0                	xor    eax,eax
    1a55:	f3 0f 10 04 83       	movss  xmm0,DWORD PTR [rbx+rax*4]
    1a5a:	f3 0f 58 04 85 00 00 	addss  xmm0,DWORD PTR [rax*4+0x0]
    1a61:	00 00 
    1a63:	f3 0f 11 04 85 00 00 	movss  DWORD PTR [rax*4+0x0],xmm0
    1a6a:	00 00 
    1a6c:	4a 8d 0c 20          	lea    rcx,[rax+r12*1]
    1a70:	48 89 c8             	mov    rax,rcx
    1a73:	48 81 f9 ff 7c 00 00 	cmp    rcx,0x7cff
    1a7a:	7c d9                	jl     1a55 <s175+0x33>
    1a7c:	bf 00 00 00 00       	mov    edi,0x0
    1a81:	be 00 00 00 00       	mov    esi,0x0
    1a86:	ba 00 00 00 00       	mov    edx,0x0
    1a8b:	b9 00 00 00 00       	mov    ecx,0x0
    1a90:	41 b8 00 00 00 00    	mov    r8d,0x0
    1a96:	41 b9 00 00 00 00    	mov    r9d,0x0
    1a9c:	0f 57 c0             	xorps  xmm0,xmm0
    1a9f:	68 00 00 00 00       	push   0x0
    1aa4:	68 00 00 00 00       	push   0x0
    1aa9:	e8 00 00 00 00       	call   1aae <s175+0x8c>
    1aae:	48 83 c4 10          	add    rsp,0x10
    1ab2:	41 ff c7             	inc    r15d
    1ab5:	41 81 ff a0 86 01 00 	cmp    r15d,0x186a0
    1abc:	75 95                	jne    1a53 <s175+0x31>
    1abe:	49 83 c6 10          	add    r14,0x10
    1ac2:	4c 89 f7             	mov    rdi,r14
    1ac5:	31 f6                	xor    esi,esi
    1ac7:	e8 00 00 00 00       	call   1acc <s175+0xaa>
    1acc:	bf 00 00 00 00       	mov    edi,0x0
    1ad1:	48 83 c4 08          	add    rsp,0x8
    1ad5:	5b                   	pop    rbx
    1ad6:	41 5c                	pop    r12
    1ad8:	41 5e                	pop    r14
    1ada:	41 5f                	pop    r15
    1adc:	e9 00 00 00 00       	jmp    1ae1 <s176>

0000000000001ae1 <s176>:
    1ae1:	41 56                	push   r14
    1ae3:	53                   	push   rbx
    1ae4:	50                   	push   rax
    1ae5:	49 89 fe             	mov    r14,rdi
    1ae8:	bf 00 00 00 00       	mov    edi,0x0
    1aed:	e8 00 00 00 00       	call   1af2 <s176+0x11>
    1af2:	31 db                	xor    ebx,ebx
    1af4:	4c 89 f7             	mov    rdi,r14
    1af7:	31 f6                	xor    esi,esi
    1af9:	e8 00 00 00 00       	call   1afe <s176+0x1d>
    1afe:	b8 00 00 00 00       	mov    eax,0x0
    1b03:	31 c9                	xor    ecx,ecx
    1b05:	f3 0f 10 04 8d 00 00 	movss  xmm0,DWORD PTR [rcx*4+0x0]
    1b0c:	00 00 
    1b0e:	48 c7 c2 00 06 ff ff 	mov    rdx,0xffffffffffff0600
    1b15:	f3 0f 10 8c 10 00 fa 	movss  xmm1,DWORD PTR [rax+rdx*1+0xfa00]
    1b1c:	00 00 
    1b1e:	f3 0f 59 c8          	mulss  xmm1,xmm0
    1b22:	f3 0f 58 8a 00 00 00 	addss  xmm1,DWORD PTR [rdx+0x0]
    1b29:	00 
    1b2a:	f3 0f 11 8a 00 00 00 	movss  DWORD PTR [rdx+0x0],xmm1
    1b31:	00 
    1b32:	48 83 c2 04          	add    rdx,0x4
    1b36:	75 dd                	jne    1b15 <s176+0x34>
    1b38:	48 ff c1             	inc    rcx
    1b3b:	48 83 c0 fc          	add    rax,0xfffffffffffffffc
    1b3f:	48 81 f9 80 3e 00 00 	cmp    rcx,0x3e80
    1b46:	75 bd                	jne    1b05 <s176+0x24>
    1b48:	bf 00 00 00 00       	mov    edi,0x0
    1b4d:	be 00 00 00 00       	mov    esi,0x0
    1b52:	ba 00 00 00 00       	mov    edx,0x0
    1b57:	b9 00 00 00 00       	mov    ecx,0x0
    1b5c:	41 b8 00 00 00 00    	mov    r8d,0x0
    1b62:	41 b9 00 00 00 00    	mov    r9d,0x0
    1b68:	0f 57 c0             	xorps  xmm0,xmm0
    1b6b:	68 00 00 00 00       	push   0x0
    1b70:	68 00 00 00 00       	push   0x0
    1b75:	e8 00 00 00 00       	call   1b7a <s176+0x99>
    1b7a:	48 83 c4 10          	add    rsp,0x10
    1b7e:	ff c3                	inc    ebx
    1b80:	83 fb 0c             	cmp    ebx,0xc
    1b83:	0f 85 75 ff ff ff    	jne    1afe <s176+0x1d>
    1b89:	49 83 c6 10          	add    r14,0x10
    1b8d:	4c 89 f7             	mov    rdi,r14
    1b90:	31 f6                	xor    esi,esi
    1b92:	e8 00 00 00 00       	call   1b97 <s176+0xb6>
    1b97:	bf 00 00 00 00       	mov    edi,0x0
    1b9c:	48 83 c4 08          	add    rsp,0x8
    1ba0:	5b                   	pop    rbx
    1ba1:	41 5e                	pop    r14
    1ba3:	e9 00 00 00 00       	jmp    1ba8 <s211>

0000000000001ba8 <s211>:
    1ba8:	41 56                	push   r14
    1baa:	53                   	push   rbx
    1bab:	50                   	push   rax
    1bac:	49 89 fe             	mov    r14,rdi
    1baf:	bf 00 00 00 00       	mov    edi,0x0
    1bb4:	e8 00 00 00 00       	call   1bb9 <s211+0x11>
    1bb9:	31 db                	xor    ebx,ebx
    1bbb:	4c 89 f7             	mov    rdi,r14
    1bbe:	31 f6                	xor    esi,esi
    1bc0:	e8 00 00 00 00       	call   1bc5 <s211+0x1d>
    1bc5:	f3 0f 10 05 00 00 00 	movss  xmm0,DWORD PTR [rip+0x0]        # 1bcd <s211+0x25>
    1bcc:	00 
    1bcd:	31 c0                	xor    eax,eax
    1bcf:	f3 0f 10 88 00 00 00 	movss  xmm1,DWORD PTR [rax+0x0]
    1bd6:	00 
    1bd7:	f3 0f 10 90 00 00 00 	movss  xmm2,DWORD PTR [rax+0x0]
    1bde:	00 
    1bdf:	f3 0f 59 d1          	mulss  xmm2,xmm1
    1be3:	f3 0f 58 d0          	addss  xmm2,xmm0
    1be7:	f3 0f 11 90 00 00 00 	movss  DWORD PTR [rax+0x0],xmm2
    1bee:	00 
    1bef:	f3 0f 10 80 00 00 00 	movss  xmm0,DWORD PTR [rax+0x0]
    1bf6:	00 
    1bf7:	f3 0f 59 88 00 00 00 	mulss  xmm1,DWORD PTR [rax+0x0]
    1bfe:	00 
    1bff:	f3 0f 5c c1          	subss  xmm0,xmm1
    1c03:	f3 0f 11 80 00 00 00 	movss  DWORD PTR [rax+0x0],xmm0
    1c0a:	00 
    1c0b:	48 83 c0 04          	add    rax,0x4
    1c0f:	48 3d f8 f3 01 00    	cmp    rax,0x1f3f8
    1c15:	75 b8                	jne    1bcf <s211+0x27>
    1c17:	bf 00 00 00 00       	mov    edi,0x0
    1c1c:	be 00 00 00 00       	mov    esi,0x0
    1c21:	ba 00 00 00 00       	mov    edx,0x0
    1c26:	b9 00 00 00 00       	mov    ecx,0x0
    1c2b:	41 b8 00 00 00 00    	mov    r8d,0x0
    1c31:	41 b9 00 00 00 00    	mov    r9d,0x0
    1c37:	0f 57 c0             	xorps  xmm0,xmm0
    1c3a:	68 00 00 00 00       	push   0x0
    1c3f:	68 00 00 00 00       	push   0x0
    1c44:	e8 00 00 00 00       	call   1c49 <s211+0xa1>
    1c49:	48 83 c4 10          	add    rsp,0x10
    1c4d:	ff c3                	inc    ebx
    1c4f:	81 fb a0 86 01 00    	cmp    ebx,0x186a0
    1c55:	0f 85 6a ff ff ff    	jne    1bc5 <s211+0x1d>
    1c5b:	49 83 c6 10          	add    r14,0x10
    1c5f:	4c 89 f7             	mov    rdi,r14
    1c62:	31 f6                	xor    esi,esi
    1c64:	e8 00 00 00 00       	call   1c69 <s211+0xc1>
    1c69:	bf 00 00 00 00       	mov    edi,0x0
    1c6e:	48 83 c4 08          	add    rsp,0x8
    1c72:	5b                   	pop    rbx
    1c73:	41 5e                	pop    r14
    1c75:	e9 00 00 00 00       	jmp    1c7a <s212>

0000000000001c7a <s212>:
    1c7a:	41 56                	push   r14
    1c7c:	53                   	push   rbx
    1c7d:	50                   	push   rax
    1c7e:	49 89 fe             	mov    r14,rdi
    1c81:	bf 00 00 00 00       	mov    edi,0x0
    1c86:	e8 00 00 00 00       	call   1c8b <s212+0x11>
    1c8b:	31 db                	xor    ebx,ebx
    1c8d:	4c 89 f7             	mov    rdi,r14
    1c90:	31 f6                	xor    esi,esi
    1c92:	e8 00 00 00 00       	call   1c97 <s212+0x1d>
    1c97:	48 c7 c0 04 0c fe ff 	mov    rax,0xfffffffffffe0c04
    1c9e:	f3 0f 10 05 00 00 00 	movss  xmm0,DWORD PTR [rip+0x0]        # 1ca6 <s212+0x2c>
    1ca5:	00 
    1ca6:	f3 0f 59 80 00 00 00 	mulss  xmm0,DWORD PTR [rax+0x0]
    1cad:	00 
    1cae:	f3 0f 11 80 00 00 00 	movss  DWORD PTR [rax+0x0],xmm0
    1cb5:	00 
    1cb6:	f3 0f 10 80 00 00 00 	movss  xmm0,DWORD PTR [rax+0x0]
    1cbd:	00 
    1cbe:	f3 0f 10 88 00 00 00 	movss  xmm1,DWORD PTR [rax+0x0]
    1cc5:	00 
    1cc6:	f3 0f 59 c8          	mulss  xmm1,xmm0
    1cca:	f3 0f 58 88 00 00 00 	addss  xmm1,DWORD PTR [rax+0x0]
    1cd1:	00 
    1cd2:	f3 0f 11 88 00 00 00 	movss  DWORD PTR [rax+0x0],xmm1
    1cd9:	00 
    1cda:	48 83 c0 04          	add    rax,0x4
    1cde:	75 c6                	jne    1ca6 <s212+0x2c>
    1ce0:	bf 00 00 00 00       	mov    edi,0x0
    1ce5:	be 00 00 00 00       	mov    esi,0x0
    1cea:	ba 00 00 00 00       	mov    edx,0x0
    1cef:	b9 00 00 00 00       	mov    ecx,0x0
    1cf4:	41 b8 00 00 00 00    	mov    r8d,0x0
    1cfa:	41 b9 00 00 00 00    	mov    r9d,0x0
    1d00:	0f 57 c0             	xorps  xmm0,xmm0
    1d03:	68 00 00 00 00       	push   0x0
    1d08:	68 00 00 00 00       	push   0x0
    1d0d:	e8 00 00 00 00       	call   1d12 <s212+0x98>
    1d12:	48 83 c4 10          	add    rsp,0x10
    1d16:	ff c3                	inc    ebx
    1d18:	81 fb a0 86 01 00    	cmp    ebx,0x186a0
    1d1e:	0f 85 73 ff ff ff    	jne    1c97 <s212+0x1d>
    1d24:	49 83 c6 10          	add    r14,0x10
    1d28:	4c 89 f7             	mov    rdi,r14
    1d2b:	31 f6                	xor    esi,esi
    1d2d:	e8 00 00 00 00       	call   1d32 <s212+0xb8>
    1d32:	bf 00 00 00 00       	mov    edi,0x0
    1d37:	48 83 c4 08          	add    rsp,0x8
    1d3b:	5b                   	pop    rbx
    1d3c:	41 5e                	pop    r14
    1d3e:	e9 00 00 00 00       	jmp    1d43 <s1213>

0000000000001d43 <s1213>:
    1d43:	41 56                	push   r14
    1d45:	53                   	push   rbx
    1d46:	50                   	push   rax
    1d47:	49 89 fe             	mov    r14,rdi
    1d4a:	bf 00 00 00 00       	mov    edi,0x0
    1d4f:	e8 00 00 00 00       	call   1d54 <s1213+0x11>
    1d54:	31 db                	xor    ebx,ebx
    1d56:	4c 89 f7             	mov    rdi,r14
    1d59:	31 f6                	xor    esi,esi
    1d5b:	e8 00 00 00 00       	call   1d60 <s1213+0x1d>
    1d60:	48 c7 c0 08 0c fe ff 	mov    rax,0xfffffffffffe0c08
    1d67:	f3 0f 10 05 00 00 00 	movss  xmm0,DWORD PTR [rip+0x0]        # 1d6f <s1213+0x2c>
    1d6e:	00 
    1d6f:	f3 0f 58 80 00 00 00 	addss  xmm0,DWORD PTR [rax+0x0]
    1d76:	00 
    1d77:	f3 0f 11 80 00 00 00 	movss  DWORD PTR [rax+0x0],xmm0
    1d7e:	00 
    1d7f:	f3 0f 10 80 00 00 00 	movss  xmm0,DWORD PTR [rax+0x0]
    1d86:	00 
    1d87:	f3 0f 59 80 00 00 00 	mulss  xmm0,DWORD PTR [rax+0x0]
    1d8e:	00 
    1d8f:	f3 0f 11 80 00 00 00 	movss  DWORD PTR [rax+0x0],xmm0
    1d96:	00 
    1d97:	48 83 c0 04          	add    rax,0x4
    1d9b:	75 d2                	jne    1d6f <s1213+0x2c>
    1d9d:	bf 00 00 00 00       	mov    edi,0x0
    1da2:	be 00 00 00 00       	mov    esi,0x0
    1da7:	ba 00 00 00 00       	mov    edx,0x0
    1dac:	b9 00 00 00 00       	mov    ecx,0x0
    1db1:	41 b8 00 00 00 00    	mov    r8d,0x0
    1db7:	41 b9 00 00 00 00    	mov    r9d,0x0
    1dbd:	0f 57 c0             	xorps  xmm0,xmm0
    1dc0:	68 00 00 00 00       	push   0x0
    1dc5:	68 00 00 00 00       	push   0x0
    1dca:	e8 00 00 00 00       	call   1dcf <s1213+0x8c>
    1dcf:	48 83 c4 10          	add    rsp,0x10
    1dd3:	ff c3                	inc    ebx
    1dd5:	81 fb a0 86 01 00    	cmp    ebx,0x186a0
    1ddb:	75 83                	jne    1d60 <s1213+0x1d>
    1ddd:	49 83 c6 10          	add    r14,0x10
    1de1:	4c 89 f7             	mov    rdi,r14
    1de4:	31 f6                	xor    esi,esi
    1de6:	e8 00 00 00 00       	call   1deb <s1213+0xa8>
    1deb:	bf 00 00 00 00       	mov    edi,0x0
    1df0:	48 83 c4 08          	add    rsp,0x8
    1df4:	5b                   	pop    rbx
    1df5:	41 5e                	pop    r14
    1df7:	e9 00 00 00 00       	jmp    1dfc <s221>

0000000000001dfc <s221>:
    1dfc:	41 56                	push   r14
    1dfe:	53                   	push   rbx
    1dff:	50                   	push   rax
    1e00:	49 89 fe             	mov    r14,rdi
    1e03:	bf 00 00 00 00       	mov    edi,0x0
    1e08:	e8 00 00 00 00       	call   1e0d <s221+0x11>
    1e0d:	31 db                	xor    ebx,ebx
    1e0f:	4c 89 f7             	mov    rdi,r14
    1e12:	31 f6                	xor    esi,esi
    1e14:	e8 00 00 00 00       	call   1e19 <s221+0x1d>
    1e19:	48 c7 c0 04 0c fe ff 	mov    rax,0xfffffffffffe0c04
    1e20:	f3 0f 10 05 00 00 00 	movss  xmm0,DWORD PTR [rip+0x0]        # 1e28 <s221+0x2c>
    1e27:	00 
    1e28:	f3 0f 10 88 00 00 00 	movss  xmm1,DWORD PTR [rax+0x0]
    1e2f:	00 
    1e30:	f3 0f 10 90 00 00 00 	movss  xmm2,DWORD PTR [rax+0x0]
    1e37:	00 
    1e38:	f3 0f 59 d1          	mulss  xmm2,xmm1
    1e3c:	f3 0f 58 90 00 00 00 	addss  xmm2,DWORD PTR [rax+0x0]
    1e43:	00 
    1e44:	f3 0f 11 90 00 00 00 	movss  DWORD PTR [rax+0x0],xmm2
    1e4b:	00 
    1e4c:	f3 0f 58 d0          	addss  xmm2,xmm0
    1e50:	f3 0f 58 d1          	addss  xmm2,xmm1
    1e54:	f3 0f 11 90 00 00 00 	movss  DWORD PTR [rax+0x0],xmm2
    1e5b:	00 
    1e5c:	0f 28 c2             	movaps xmm0,xmm2
    1e5f:	48 83 c0 04          	add    rax,0x4
    1e63:	75 c3                	jne    1e28 <s221+0x2c>
    1e65:	bf 00 00 00 00       	mov    edi,0x0
    1e6a:	be 00 00 00 00       	mov    esi,0x0
    1e6f:	ba 00 00 00 00       	mov    edx,0x0
    1e74:	b9 00 00 00 00       	mov    ecx,0x0
    1e79:	41 b8 00 00 00 00    	mov    r8d,0x0
    1e7f:	41 b9 00 00 00 00    	mov    r9d,0x0
    1e85:	0f 57 c0             	xorps  xmm0,xmm0
    1e88:	68 00 00 00 00       	push   0x0
    1e8d:	68 00 00 00 00       	push   0x0
    1e92:	e8 00 00 00 00       	call   1e97 <s221+0x9b>
    1e97:	48 83 c4 10          	add    rsp,0x10
    1e9b:	ff c3                	inc    ebx
    1e9d:	81 fb 50 c3 00 00    	cmp    ebx,0xc350
    1ea3:	0f 85 70 ff ff ff    	jne    1e19 <s221+0x1d>
    1ea9:	49 83 c6 10          	add    r14,0x10
    1ead:	4c 89 f7             	mov    rdi,r14
    1eb0:	31 f6                	xor    esi,esi
    1eb2:	e8 00 00 00 00       	call   1eb7 <s221+0xbb>
    1eb7:	bf 00 00 00 00       	mov    edi,0x0
    1ebc:	48 83 c4 08          	add    rsp,0x8
    1ec0:	5b                   	pop    rbx
    1ec1:	41 5e                	pop    r14
    1ec3:	e9 00 00 00 00       	jmp    1ec8 <s1221>

0000000000001ec8 <s1221>:
    1ec8:	41 56                	push   r14
    1eca:	53                   	push   rbx
    1ecb:	50                   	push   rax
    1ecc:	49 89 fe             	mov    r14,rdi
    1ecf:	bf 00 00 00 00       	mov    edi,0x0
    1ed4:	e8 00 00 00 00       	call   1ed9 <s1221+0x11>
    1ed9:	31 db                	xor    ebx,ebx
    1edb:	4c 89 f7             	mov    rdi,r14
    1ede:	31 f6                	xor    esi,esi
    1ee0:	e8 00 00 00 00       	call   1ee5 <s1221+0x1d>
    1ee5:	48 c7 c0 10 0c fe ff 	mov    rax,0xfffffffffffe0c10
    1eec:	f3 0f 10 80 00 00 00 	movss  xmm0,DWORD PTR [rax+0x0]
    1ef3:	00 
    1ef4:	f3 0f 58 80 00 00 00 	addss  xmm0,DWORD PTR [rax+0x0]
    1efb:	00 
    1efc:	f3 0f 11 80 00 00 00 	movss  DWORD PTR [rax+0x0],xmm0
    1f03:	00 
    1f04:	48 83 c0 04          	add    rax,0x4
    1f08:	75 e2                	jne    1eec <s1221+0x24>
    1f0a:	bf 00 00 00 00       	mov    edi,0x0
    1f0f:	be 00 00 00 00       	mov    esi,0x0
    1f14:	ba 00 00 00 00       	mov    edx,0x0
    1f19:	b9 00 00 00 00       	mov    ecx,0x0
    1f1e:	41 b8 00 00 00 00    	mov    r8d,0x0
    1f24:	41 b9 00 00 00 00    	mov    r9d,0x0
    1f2a:	0f 57 c0             	xorps  xmm0,xmm0
    1f2d:	68 00 00 00 00       	push   0x0
    1f32:	68 00 00 00 00       	push   0x0
    1f37:	e8 00 00 00 00       	call   1f3c <s1221+0x74>
    1f3c:	48 83 c4 10          	add    rsp,0x10
    1f40:	ff c3                	inc    ebx
    1f42:	81 fb a0 86 01 00    	cmp    ebx,0x186a0
    1f48:	75 9b                	jne    1ee5 <s1221+0x1d>
    1f4a:	49 83 c6 10          	add    r14,0x10
    1f4e:	4c 89 f7             	mov    rdi,r14
    1f51:	31 f6                	xor    esi,esi
    1f53:	e8 00 00 00 00       	call   1f58 <s1221+0x90>
    1f58:	bf 00 00 00 00       	mov    edi,0x0
    1f5d:	48 83 c4 08          	add    rsp,0x8
    1f61:	5b                   	pop    rbx
    1f62:	41 5e                	pop    r14
    1f64:	e9 00 00 00 00       	jmp    1f69 <s222>

0000000000001f69 <s222>:
    1f69:	41 56                	push   r14
    1f6b:	53                   	push   rbx
    1f6c:	50                   	push   rax
    1f6d:	49 89 fe             	mov    r14,rdi
    1f70:	bf 00 00 00 00       	mov    edi,0x0
    1f75:	e8 00 00 00 00       	call   1f7a <s222+0x11>
    1f7a:	31 db                	xor    ebx,ebx
    1f7c:	4c 89 f7             	mov    rdi,r14
    1f7f:	31 f6                	xor    esi,esi
    1f81:	e8 00 00 00 00       	call   1f86 <s222+0x1d>
    1f86:	48 c7 c0 04 0c fe ff 	mov    rax,0xfffffffffffe0c04
    1f8d:	f3 0f 10 05 00 00 00 	movss  xmm0,DWORD PTR [rip+0x0]        # 1f95 <s222+0x2c>
    1f94:	00 
    1f95:	f3 0f 10 88 00 00 00 	movss  xmm1,DWORD PTR [rax+0x0]
    1f9c:	00 
    1f9d:	f3 0f 59 88 00 00 00 	mulss  xmm1,DWORD PTR [rax+0x0]
    1fa4:	00 
    1fa5:	f3 0f 10 90 00 00 00 	movss  xmm2,DWORD PTR [rax+0x0]
    1fac:	00 
    1fad:	f3 0f 58 d1          	addss  xmm2,xmm1
    1fb1:	f3 0f 59 c0          	mulss  xmm0,xmm0
    1fb5:	f3 0f 11 80 00 00 00 	movss  DWORD PTR [rax+0x0],xmm0
    1fbc:	00 
    1fbd:	f3 0f 5c d1          	subss  xmm2,xmm1
    1fc1:	f3 0f 11 90 00 00 00 	movss  DWORD PTR [rax+0x0],xmm2
    1fc8:	00 
    1fc9:	48 83 c0 04          	add    rax,0x4
    1fcd:	75 c6                	jne    1f95 <s222+0x2c>
    1fcf:	bf 00 00 00 00       	mov    edi,0x0
    1fd4:	be 00 00 00 00       	mov    esi,0x0
    1fd9:	ba 00 00 00 00       	mov    edx,0x0
    1fde:	b9 00 00 00 00       	mov    ecx,0x0
    1fe3:	41 b8 00 00 00 00    	mov    r8d,0x0
    1fe9:	41 b9 00 00 00 00    	mov    r9d,0x0
    1fef:	0f 57 c0             	xorps  xmm0,xmm0
    1ff2:	68 00 00 00 00       	push   0x0
    1ff7:	68 00 00 00 00       	push   0x0
    1ffc:	e8 00 00 00 00       	call   2001 <s222+0x98>
    2001:	48 83 c4 10          	add    rsp,0x10
    2005:	ff c3                	inc    ebx
    2007:	81 fb 50 c3 00 00    	cmp    ebx,0xc350
    200d:	0f 85 73 ff ff ff    	jne    1f86 <s222+0x1d>
    2013:	49 83 c6 10          	add    r14,0x10
    2017:	4c 89 f7             	mov    rdi,r14
    201a:	31 f6                	xor    esi,esi
    201c:	e8 00 00 00 00       	call   2021 <s222+0xb8>
    2021:	bf 00 00 00 00       	mov    edi,0x0
    2026:	48 83 c4 08          	add    rsp,0x8
    202a:	5b                   	pop    rbx
    202b:	41 5e                	pop    r14
    202d:	e9 00 00 00 00       	jmp    2032 <s231>

0000000000002032 <s231>:
    2032:	41 56                	push   r14
    2034:	53                   	push   rbx
    2035:	50                   	push   rax
    2036:	49 89 fe             	mov    r14,rdi
    2039:	bf 00 00 00 00       	mov    edi,0x0
    203e:	e8 00 00 00 00       	call   2043 <s231+0x11>
    2043:	31 db                	xor    ebx,ebx
    2045:	4c 89 f7             	mov    rdi,r14
    2048:	31 f6                	xor    esi,esi
    204a:	e8 00 00 00 00       	call   204f <s231+0x1d>
    204f:	b8 00 04 00 00       	mov    eax,0x400
    2054:	31 c9                	xor    ecx,ecx
    2056:	f3 0f 10 04 8d 00 00 	movss  xmm0,DWORD PTR [rcx*4+0x0]
    205d:	00 00 
    205f:	48 c7 c2 00 04 fc ff 	mov    rdx,0xfffffffffffc0400
    2066:	f3 0f 58 84 10 00 00 	addss  xmm0,DWORD PTR [rax+rdx*1+0x0]
    206d:	00 00 
    206f:	f3 0f 11 84 10 00 00 	movss  DWORD PTR [rax+rdx*1+0x0],xmm0
    2076:	00 00 
    2078:	48 81 c2 00 04 00 00 	add    rdx,0x400
    207f:	75 e5                	jne    2066 <s231+0x34>
    2081:	48 ff c1             	inc    rcx
    2084:	48 83 c0 04          	add    rax,0x4
    2088:	48 81 f9 00 01 00 00 	cmp    rcx,0x100
    208f:	75 c5                	jne    2056 <s231+0x24>
    2091:	bf 00 00 00 00       	mov    edi,0x0
    2096:	be 00 00 00 00       	mov    esi,0x0
    209b:	ba 00 00 00 00       	mov    edx,0x0
    20a0:	b9 00 00 00 00       	mov    ecx,0x0
    20a5:	41 b8 00 00 00 00    	mov    r8d,0x0
    20ab:	41 b9 00 00 00 00    	mov    r9d,0x0
    20b1:	0f 57 c0             	xorps  xmm0,xmm0
    20b4:	68 00 00 00 00       	push   0x0
    20b9:	68 00 00 00 00       	push   0x0
    20be:	e8 00 00 00 00       	call   20c3 <s231+0x91>
    20c3:	48 83 c4 10          	add    rsp,0x10
    20c7:	ff c3                	inc    ebx
    20c9:	81 fb 58 98 00 00    	cmp    ebx,0x9858
    20cf:	0f 85 7a ff ff ff    	jne    204f <s231+0x1d>
    20d5:	49 83 c6 10          	add    r14,0x10
    20d9:	4c 89 f7             	mov    rdi,r14
    20dc:	31 f6                	xor    esi,esi
    20de:	e8 00 00 00 00       	call   20e3 <s231+0xb1>
    20e3:	bf 00 00 00 00       	mov    edi,0x0
    20e8:	48 83 c4 08          	add    rsp,0x8
    20ec:	5b                   	pop    rbx
    20ed:	41 5e                	pop    r14
    20ef:	e9 00 00 00 00       	jmp    20f4 <s232>

00000000000020f4 <s232>:
    20f4:	41 56                	push   r14
    20f6:	53                   	push   rbx
    20f7:	50                   	push   rax
    20f8:	49 89 fe             	mov    r14,rdi
    20fb:	bf 00 00 00 00       	mov    edi,0x0
    2100:	e8 00 00 00 00       	call   2105 <s232+0x11>
    2105:	31 db                	xor    ebx,ebx
    2107:	4c 89 f7             	mov    rdi,r14
    210a:	31 f6                	xor    esi,esi
    210c:	e8 00 00 00 00       	call   2111 <s232+0x1d>
    2111:	b8 01 00 00 00       	mov    eax,0x1
    2116:	31 c9                	xor    ecx,ecx
    2118:	48 89 c2             	mov    rdx,rax
    211b:	48 c1 e2 0a          	shl    rdx,0xa
    211f:	f3 0f 10 82 00 00 00 	movss  xmm0,DWORD PTR [rdx+0x0]
    2126:	00 
    2127:	31 d2                	xor    edx,edx
    2129:	f3 0f 59 c0          	mulss  xmm0,xmm0
    212d:	f3 0f 58 84 91 00 00 	addss  xmm0,DWORD PTR [rcx+rdx*4+0x0]
    2134:	00 00 
    2136:	f3 0f 11 84 91 00 00 	movss  DWORD PTR [rcx+rdx*4+0x0],xmm0
    213d:	00 00 
    213f:	48 ff c2             	inc    rdx
    2142:	48 39 d0             	cmp    rax,rdx
    2145:	75 e2                	jne    2129 <s232+0x35>
    2147:	48 ff c0             	inc    rax
    214a:	48 81 c1 00 04 00 00 	add    rcx,0x400
    2151:	48 3d 00 01 00 00    	cmp    rax,0x100
    2157:	75 bf                	jne    2118 <s232+0x24>
    2159:	bf 00 00 00 00       	mov    edi,0x0
    215e:	be 00 00 00 00       	mov    esi,0x0
    2163:	ba 00 00 00 00       	mov    edx,0x0
    2168:	b9 00 00 00 00       	mov    ecx,0x0
    216d:	41 b8 00 00 00 00    	mov    r8d,0x0
    2173:	41 b9 00 00 00 00    	mov    r9d,0x0
    2179:	f3 0f 10 05 00 00 00 	movss  xmm0,DWORD PTR [rip+0x0]        # 2181 <s232+0x8d>
    2180:	00 
    2181:	68 00 00 00 00       	push   0x0
    2186:	68 00 00 00 00       	push   0x0
    218b:	e8 00 00 00 00       	call   2190 <s232+0x9c>
    2190:	48 83 c4 10          	add    rsp,0x10
    2194:	ff c3                	inc    ebx
    2196:	81 fb 58 98 00 00    	cmp    ebx,0x9858
    219c:	0f 85 6f ff ff ff    	jne    2111 <s232+0x1d>
    21a2:	49 83 c6 10          	add    r14,0x10
    21a6:	4c 89 f7             	mov    rdi,r14
    21a9:	31 f6                	xor    esi,esi
    21ab:	e8 00 00 00 00       	call   21b0 <s232+0xbc>
    21b0:	bf 00 00 00 00       	mov    edi,0x0
    21b5:	48 83 c4 08          	add    rsp,0x8
    21b9:	5b                   	pop    rbx
    21ba:	41 5e                	pop    r14
    21bc:	e9 00 00 00 00       	jmp    21c1 <s1232>

00000000000021c1 <s1232>:
    21c1:	41 56                	push   r14
    21c3:	53                   	push   rbx
    21c4:	50                   	push   rax
    21c5:	49 89 fe             	mov    r14,rdi
    21c8:	bf 00 00 00 00       	mov    edi,0x0
    21cd:	e8 00 00 00 00       	call   21d2 <s1232+0x11>
    21d2:	31 db                	xor    ebx,ebx
    21d4:	4c 89 f7             	mov    rdi,r14
    21d7:	31 f6                	xor    esi,esi
    21d9:	e8 00 00 00 00       	call   21de <s1232+0x1d>
    21de:	31 c0                	xor    eax,eax
    21e0:	31 c9                	xor    ecx,ecx
    21e2:	31 d2                	xor    edx,edx
    21e4:	48 c7 c6 00 00 fc ff 	mov    rsi,0xfffffffffffc0000
    21eb:	f3 0f 10 84 30 00 00 	movss  xmm0,DWORD PTR [rax+rsi*1+0x0]
    21f2:	00 00 
    21f4:	f3 0f 58 84 30 00 00 	addss  xmm0,DWORD PTR [rax+rsi*1+0x0]
    21fb:	00 00 
    21fd:	f3 0f 11 84 30 00 00 	movss  DWORD PTR [rax+rsi*1+0x0],xmm0
    2204:	00 00 
    2206:	48 81 c6 00 04 00 00 	add    rsi,0x400
    220d:	48 39 f1             	cmp    rcx,rsi
    2210:	75 d9                	jne    21eb <s1232+0x2a>
    2212:	48 ff c2             	inc    rdx
    2215:	48 81 c1 00 fc ff ff 	add    rcx,0xfffffffffffffc00
    221c:	48 05 04 04 00 00    	add    rax,0x404
    2222:	48 81 fa 00 01 00 00 	cmp    rdx,0x100
    2229:	75 b9                	jne    21e4 <s1232+0x23>
    222b:	bf 00 00 00 00       	mov    edi,0x0
    2230:	be 00 00 00 00       	mov    esi,0x0
    2235:	ba 00 00 00 00       	mov    edx,0x0
    223a:	b9 00 00 00 00       	mov    ecx,0x0
    223f:	41 b8 00 00 00 00    	mov    r8d,0x0
    2245:	41 b9 00 00 00 00    	mov    r9d,0x0
    224b:	f3 0f 10 05 00 00 00 	movss  xmm0,DWORD PTR [rip+0x0]        # 2253 <s1232+0x92>
    2252:	00 
    2253:	68 00 00 00 00       	push   0x0
    2258:	68 00 00 00 00       	push   0x0
    225d:	e8 00 00 00 00       	call   2262 <s1232+0xa1>
    2262:	48 83 c4 10          	add    rsp,0x10
    2266:	ff c3                	inc    ebx
    2268:	81 fb 58 98 00 00    	cmp    ebx,0x9858
    226e:	0f 85 6a ff ff ff    	jne    21de <s1232+0x1d>
    2274:	49 83 c6 10          	add    r14,0x10
    2278:	4c 89 f7             	mov    rdi,r14
    227b:	31 f6                	xor    esi,esi
    227d:	e8 00 00 00 00       	call   2282 <s1232+0xc1>
    2282:	bf 00 00 00 00       	mov    edi,0x0
    2287:	48 83 c4 08          	add    rsp,0x8
    228b:	5b                   	pop    rbx
    228c:	41 5e                	pop    r14
    228e:	e9 00 00 00 00       	jmp    2293 <s233>

0000000000002293 <s233>:
    2293:	41 56                	push   r14
    2295:	53                   	push   rbx
    2296:	50                   	push   rax
    2297:	49 89 fe             	mov    r14,rdi
    229a:	bf 00 00 00 00       	mov    edi,0x0
    229f:	e8 00 00 00 00       	call   22a4 <s233+0x11>
    22a4:	31 db                	xor    ebx,ebx
    22a6:	4c 89 f7             	mov    rdi,r14
    22a9:	31 f6                	xor    esi,esi
    22ab:	e8 00 00 00 00       	call   22b0 <s233+0x1d>
    22b0:	b8 01 00 00 00       	mov    eax,0x1
    22b5:	b9 04 04 00 00       	mov    ecx,0x404
    22ba:	f3 0f 10 04 85 00 00 	movss  xmm0,DWORD PTR [rax*4+0x0]
    22c1:	00 00 
    22c3:	48 c7 c2 00 04 fc ff 	mov    rdx,0xfffffffffffc0400
    22ca:	f3 0f 58 84 11 00 00 	addss  xmm0,DWORD PTR [rcx+rdx*1+0x0]
    22d1:	00 00 
    22d3:	f3 0f 11 84 11 00 00 	movss  DWORD PTR [rcx+rdx*1+0x0],xmm0
    22da:	00 00 
    22dc:	48 81 c2 00 04 00 00 	add    rdx,0x400
    22e3:	75 e5                	jne    22ca <s233+0x37>
    22e5:	48 c7 c2 00 04 fc ff 	mov    rdx,0xfffffffffffc0400
    22ec:	f3 0f 10 84 11 00 00 	movss  xmm0,DWORD PTR [rcx+rdx*1+0x0]
    22f3:	00 00 
    22f5:	f3 0f 58 84 11 00 00 	addss  xmm0,DWORD PTR [rcx+rdx*1+0x0]
    22fc:	00 00 
    22fe:	f3 0f 11 84 11 00 00 	movss  DWORD PTR [rcx+rdx*1+0x0],xmm0
    2305:	00 00 
    2307:	48 81 c2 00 04 00 00 	add    rdx,0x400
    230e:	75 dc                	jne    22ec <s233+0x59>
    2310:	48 ff c0             	inc    rax
    2313:	48 83 c1 04          	add    rcx,0x4
    2317:	48 3d 00 01 00 00    	cmp    rax,0x100
    231d:	75 9b                	jne    22ba <s233+0x27>
    231f:	bf 00 00 00 00       	mov    edi,0x0
    2324:	be 00 00 00 00       	mov    esi,0x0
    2329:	ba 00 00 00 00       	mov    edx,0x0
    232e:	b9 00 00 00 00       	mov    ecx,0x0
    2333:	41 b8 00 00 00 00    	mov    r8d,0x0
    2339:	41 b9 00 00 00 00    	mov    r9d,0x0
    233f:	0f 57 c0             	xorps  xmm0,xmm0
    2342:	68 00 00 00 00       	push   0x0
    2347:	68 00 00 00 00       	push   0x0
    234c:	e8 00 00 00 00       	call   2351 <s233+0xbe>
    2351:	48 83 c4 10          	add    rsp,0x10
    2355:	ff c3                	inc    ebx
    2357:	81 fb 58 98 00 00    	cmp    ebx,0x9858
    235d:	0f 85 4d ff ff ff    	jne    22b0 <s233+0x1d>
    2363:	49 83 c6 10          	add    r14,0x10
    2367:	4c 89 f7             	mov    rdi,r14
    236a:	31 f6                	xor    esi,esi
    236c:	e8 00 00 00 00       	call   2371 <s233+0xde>
    2371:	bf 00 00 00 00       	mov    edi,0x0
    2376:	48 83 c4 08          	add    rsp,0x8
    237a:	5b                   	pop    rbx
    237b:	41 5e                	pop    r14
    237d:	e9 00 00 00 00       	jmp    2382 <s2233>

0000000000002382 <s2233>:
    2382:	41 56                	push   r14
    2384:	53                   	push   rbx
    2385:	50                   	push   rax
    2386:	49 89 fe             	mov    r14,rdi
    2389:	bf 00 00 00 00       	mov    edi,0x0
    238e:	e8 00 00 00 00       	call   2393 <s2233+0x11>
    2393:	31 db                	xor    ebx,ebx
    2395:	4c 89 f7             	mov    rdi,r14
    2398:	31 f6                	xor    esi,esi
    239a:	e8 00 00 00 00       	call   239f <s2233+0x1d>
    239f:	b8 01 00 00 00       	mov    eax,0x1
    23a4:	b9 04 04 00 00       	mov    ecx,0x404
    23a9:	ba 04 04 00 00       	mov    edx,0x404
    23ae:	f3 0f 10 04 85 00 00 	movss  xmm0,DWORD PTR [rax*4+0x0]
    23b5:	00 00 
    23b7:	48 c7 c6 00 04 fc ff 	mov    rsi,0xfffffffffffc0400
    23be:	f3 0f 58 84 32 00 00 	addss  xmm0,DWORD PTR [rdx+rsi*1+0x0]
    23c5:	00 00 
    23c7:	f3 0f 11 84 32 00 00 	movss  DWORD PTR [rdx+rsi*1+0x0],xmm0
    23ce:	00 00 
    23d0:	48 81 c6 00 04 00 00 	add    rsi,0x400
    23d7:	75 e5                	jne    23be <s2233+0x3c>
    23d9:	48 c7 c6 04 fc ff ff 	mov    rsi,0xfffffffffffffc04
    23e0:	f3 0f 10 84 31 00 00 	movss  xmm0,DWORD PTR [rcx+rsi*1+0x0]
    23e7:	00 00 
    23e9:	f3 0f 58 84 31 00 00 	addss  xmm0,DWORD PTR [rcx+rsi*1+0x0]
    23f0:	00 00 
    23f2:	f3 0f 11 84 31 00 00 	movss  DWORD PTR [rcx+rsi*1+0x0],xmm0
    23f9:	00 00 
    23fb:	48 83 c6 04          	add    rsi,0x4
    23ff:	75 df                	jne    23e0 <s2233+0x5e>
    2401:	48 ff c0             	inc    rax
    2404:	48 83 c2 04          	add    rdx,0x4
    2408:	48 81 c1 00 04 00 00 	add    rcx,0x400
    240f:	48 3d 00 01 00 00    	cmp    rax,0x100
    2415:	75 97                	jne    23ae <s2233+0x2c>
    2417:	bf 00 00 00 00       	mov    edi,0x0
    241c:	be 00 00 00 00       	mov    esi,0x0
    2421:	ba 00 00 00 00       	mov    edx,0x0
    2426:	b9 00 00 00 00       	mov    ecx,0x0
    242b:	41 b8 00 00 00 00    	mov    r8d,0x0
    2431:	41 b9 00 00 00 00    	mov    r9d,0x0
    2437:	0f 57 c0             	xorps  xmm0,xmm0
    243a:	68 00 00 00 00       	push   0x0
    243f:	68 00 00 00 00       	push   0x0
    2444:	e8 00 00 00 00       	call   2449 <s2233+0xc7>
    2449:	48 83 c4 10          	add    rsp,0x10
    244d:	ff c3                	inc    ebx
    244f:	81 fb 58 98 00 00    	cmp    ebx,0x9858
    2455:	0f 85 44 ff ff ff    	jne    239f <s2233+0x1d>
    245b:	49 83 c6 10          	add    r14,0x10
    245f:	4c 89 f7             	mov    rdi,r14
    2462:	31 f6                	xor    esi,esi
    2464:	e8 00 00 00 00       	call   2469 <s2233+0xe7>
    2469:	bf 00 00 00 00       	mov    edi,0x0
    246e:	48 83 c4 08          	add    rsp,0x8
    2472:	5b                   	pop    rbx
    2473:	41 5e                	pop    r14
    2475:	e9 00 00 00 00       	jmp    247a <s235>

000000000000247a <s235>:
    247a:	41 56                	push   r14
    247c:	53                   	push   rbx
    247d:	50                   	push   rax
    247e:	49 89 fe             	mov    r14,rdi
    2481:	bf 00 00 00 00       	mov    edi,0x0
    2486:	e8 00 00 00 00       	call   248b <s235+0x11>
    248b:	31 db                	xor    ebx,ebx
    248d:	4c 89 f7             	mov    rdi,r14
    2490:	31 f6                	xor    esi,esi
    2492:	e8 00 00 00 00       	call   2497 <s235+0x1d>
    2497:	b8 00 04 00 00       	mov    eax,0x400
    249c:	31 c9                	xor    ecx,ecx
    249e:	f3 0f 10 04 8d 00 00 	movss  xmm0,DWORD PTR [rcx*4+0x0]
    24a5:	00 00 
    24a7:	f3 0f 59 04 8d 00 00 	mulss  xmm0,DWORD PTR [rcx*4+0x0]
    24ae:	00 00 
    24b0:	f3 0f 58 04 8d 00 00 	addss  xmm0,DWORD PTR [rcx*4+0x0]
    24b7:	00 00 
    24b9:	f3 0f 11 04 8d 00 00 	movss  DWORD PTR [rcx*4+0x0],xmm0
    24c0:	00 00 
    24c2:	f3 0f 10 0c 8d 00 00 	movss  xmm1,DWORD PTR [rcx*4+0x0]
    24c9:	00 00 
    24cb:	48 c7 c2 00 04 fc ff 	mov    rdx,0xfffffffffffc0400
    24d2:	f3 0f 10 94 10 00 00 	movss  xmm2,DWORD PTR [rax+rdx*1+0x0]
    24d9:	00 00 
    24db:	f3 0f 59 d0          	mulss  xmm2,xmm0
    24df:	f3 0f 58 ca          	addss  xmm1,xmm2
    24e3:	f3 0f 11 8c 10 00 00 	movss  DWORD PTR [rax+rdx*1+0x0],xmm1
    24ea:	00 00 
    24ec:	48 81 c2 00 04 00 00 	add    rdx,0x400
    24f3:	75 dd                	jne    24d2 <s235+0x58>
    24f5:	48 ff c1             	inc    rcx
    24f8:	48 83 c0 04          	add    rax,0x4
    24fc:	48 81 f9 00 01 00 00 	cmp    rcx,0x100
    2503:	75 99                	jne    249e <s235+0x24>
    2505:	bf 00 00 00 00       	mov    edi,0x0
    250a:	be 00 00 00 00       	mov    esi,0x0
    250f:	ba 00 00 00 00       	mov    edx,0x0
    2514:	b9 00 00 00 00       	mov    ecx,0x0
    2519:	41 b8 00 00 00 00    	mov    r8d,0x0
    251f:	41 b9 00 00 00 00    	mov    r9d,0x0
    2525:	0f 57 c0             	xorps  xmm0,xmm0
    2528:	68 00 00 00 00       	push   0x0
    252d:	68 00 00 00 00       	push   0x0
    2532:	e8 00 00 00 00       	call   2537 <s235+0xbd>
    2537:	48 83 c4 10          	add    rsp,0x10
    253b:	ff c3                	inc    ebx
    253d:	81 fb b0 30 01 00    	cmp    ebx,0x130b0
    2543:	0f 85 4e ff ff ff    	jne    2497 <s235+0x1d>
    2549:	49 83 c6 10          	add    r14,0x10
    254d:	4c 89 f7             	mov    rdi,r14
    2550:	31 f6                	xor    esi,esi
    2552:	e8 00 00 00 00       	call   2557 <s235+0xdd>
    2557:	bf 00 00 00 00       	mov    edi,0x0
    255c:	48 83 c4 08          	add    rsp,0x8
    2560:	5b                   	pop    rbx
    2561:	41 5e                	pop    r14
    2563:	e9 00 00 00 00       	jmp    2568 <s241>

0000000000002568 <s241>:
    2568:	41 56                	push   r14
    256a:	53                   	push   rbx
    256b:	50                   	push   rax
    256c:	49 89 fe             	mov    r14,rdi
    256f:	bf 00 00 00 00       	mov    edi,0x0
    2574:	e8 00 00 00 00       	call   2579 <s241+0x11>
    2579:	31 db                	xor    ebx,ebx
    257b:	4c 89 f7             	mov    rdi,r14
    257e:	31 f6                	xor    esi,esi
    2580:	e8 00 00 00 00       	call   2585 <s241+0x1d>
    2585:	48 c7 c0 04 0c fe ff 	mov    rax,0xfffffffffffe0c04
    258c:	f3 0f 10 80 00 00 00 	movss  xmm0,DWORD PTR [rax+0x0]
    2593:	00 
    2594:	f3 0f 59 80 00 00 00 	mulss  xmm0,DWORD PTR [rax+0x0]
    259b:	00 
    259c:	f3 0f 10 88 00 00 00 	movss  xmm1,DWORD PTR [rax+0x0]
    25a3:	00 
    25a4:	f3 0f 59 c1          	mulss  xmm0,xmm1
    25a8:	f3 0f 11 80 00 00 00 	movss  DWORD PTR [rax+0x0],xmm0
    25af:	00 
    25b0:	f3 0f 59 80 00 00 00 	mulss  xmm0,DWORD PTR [rax+0x0]
    25b7:	00 
    25b8:	f3 0f 59 c1          	mulss  xmm0,xmm1
    25bc:	f3 0f 11 80 00 00 00 	movss  DWORD PTR [rax+0x0],xmm0
    25c3:	00 
    25c4:	48 83 c0 04          	add    rax,0x4
    25c8:	75 c2                	jne    258c <s241+0x24>
    25ca:	bf 00 00 00 00       	mov    edi,0x0
    25cf:	be 00 00 00 00       	mov    esi,0x0
    25d4:	ba 00 00 00 00       	mov    edx,0x0
    25d9:	b9 00 00 00 00       	mov    ecx,0x0
    25de:	41 b8 00 00 00 00    	mov    r8d,0x0
    25e4:	41 b9 00 00 00 00    	mov    r9d,0x0
    25ea:	0f 57 c0             	xorps  xmm0,xmm0
    25ed:	68 00 00 00 00       	push   0x0
    25f2:	68 00 00 00 00       	push   0x0
    25f7:	e8 00 00 00 00       	call   25fc <s241+0x94>
    25fc:	48 83 c4 10          	add    rsp,0x10
    2600:	ff c3                	inc    ebx
    2602:	81 fb 40 0d 03 00    	cmp    ebx,0x30d40
    2608:	0f 85 77 ff ff ff    	jne    2585 <s241+0x1d>
    260e:	49 83 c6 10          	add    r14,0x10
    2612:	4c 89 f7             	mov    rdi,r14
    2615:	31 f6                	xor    esi,esi
    2617:	e8 00 00 00 00       	call   261c <s241+0xb4>
    261c:	bf 00 00 00 00       	mov    edi,0x0
    2621:	48 83 c4 08          	add    rsp,0x8
    2625:	5b                   	pop    rbx
    2626:	41 5e                	pop    r14
    2628:	e9 00 00 00 00       	jmp    262d <s242>

000000000000262d <s242>:
    262d:	41 56                	push   r14
    262f:	53                   	push   rbx
    2630:	50                   	push   rax
    2631:	49 89 fe             	mov    r14,rdi
    2634:	48 8b 47 20          	mov    rax,QWORD PTR [rdi+0x20]
    2638:	f3 0f 10 00          	movss  xmm0,DWORD PTR [rax]
    263c:	f3 0f 11 44 24 04    	movss  DWORD PTR [rsp+0x4],xmm0
    2642:	f3 0f 10 40 04       	movss  xmm0,DWORD PTR [rax+0x4]
    2647:	f3 0f 11 04 24       	movss  DWORD PTR [rsp],xmm0
    264c:	bf 00 00 00 00       	mov    edi,0x0
    2651:	e8 00 00 00 00       	call   2656 <s242+0x29>
    2656:	31 db                	xor    ebx,ebx
    2658:	4c 89 f7             	mov    rdi,r14
    265b:	31 f6                	xor    esi,esi
    265d:	e8 00 00 00 00       	call   2662 <s242+0x35>
    2662:	48 c7 c0 04 0c fe ff 	mov    rax,0xfffffffffffe0c04
    2669:	f3 0f 10 05 00 00 00 	movss  xmm0,DWORD PTR [rip+0x0]        # 2671 <s242+0x44>
    2670:	00 
    2671:	f3 0f 10 4c 24 04    	movss  xmm1,DWORD PTR [rsp+0x4]
    2677:	f3 0f 10 14 24       	movss  xmm2,DWORD PTR [rsp]
    267c:	f3 0f 58 c1          	addss  xmm0,xmm1
    2680:	f3 0f 58 c2          	addss  xmm0,xmm2
    2684:	f3 0f 58 80 00 00 00 	addss  xmm0,DWORD PTR [rax+0x0]
    268b:	00 
    268c:	f3 0f 58 80 00 00 00 	addss  xmm0,DWORD PTR [rax+0x0]
    2693:	00 
    2694:	f3 0f 58 80 00 00 00 	addss  xmm0,DWORD PTR [rax+0x0]
    269b:	00 
    269c:	f3 0f 11 80 00 00 00 	movss  DWORD PTR [rax+0x0],xmm0
    26a3:	00 
    26a4:	48 83 c0 04          	add    rax,0x4
    26a8:	75 d2                	jne    267c <s242+0x4f>
    26aa:	bf 00 00 00 00       	mov    edi,0x0
    26af:	be 00 00 00 00       	mov    esi,0x0
    26b4:	ba 00 00 00 00       	mov    edx,0x0
    26b9:	b9 00 00 00 00       	mov    ecx,0x0
    26be:	41 b8 00 00 00 00    	mov    r8d,0x0
    26c4:	41 b9 00 00 00 00    	mov    r9d,0x0
    26ca:	0f 57 c0             	xorps  xmm0,xmm0
    26cd:	68 00 00 00 00       	push   0x0
    26d2:	68 00 00 00 00       	push   0x0
    26d7:	e8 00 00 00 00       	call   26dc <s242+0xaf>
    26dc:	48 83 c4 10          	add    rsp,0x10
    26e0:	ff c3                	inc    ebx
    26e2:	81 fb 20 4e 00 00    	cmp    ebx,0x4e20
    26e8:	0f 85 74 ff ff ff    	jne    2662 <s242+0x35>
    26ee:	49 83 c6 10          	add    r14,0x10
    26f2:	4c 89 f7             	mov    rdi,r14
    26f5:	31 f6                	xor    esi,esi
    26f7:	e8 00 00 00 00       	call   26fc <s242+0xcf>
    26fc:	bf 00 00 00 00       	mov    edi,0x0
    2701:	48 83 c4 08          	add    rsp,0x8
    2705:	5b                   	pop    rbx
    2706:	41 5e                	pop    r14
    2708:	e9 00 00 00 00       	jmp    270d <s243>

000000000000270d <s243>:
    270d:	41 56                	push   r14
    270f:	53                   	push   rbx
    2710:	50                   	push   rax
    2711:	49 89 fe             	mov    r14,rdi
    2714:	bf 00 00 00 00       	mov    edi,0x0
    2719:	e8 00 00 00 00       	call   271e <s243+0x11>
    271e:	31 db                	xor    ebx,ebx
    2720:	4c 89 f7             	mov    rdi,r14
    2723:	31 f6                	xor    esi,esi
    2725:	e8 00 00 00 00       	call   272a <s243+0x1d>
    272a:	48 c7 c0 04 0c fe ff 	mov    rax,0xfffffffffffe0c04
    2731:	f3 0f 10 80 00 00 00 	movss  xmm0,DWORD PTR [rax+0x0]
    2738:	00 
    2739:	f3 0f 10 88 00 00 00 	movss  xmm1,DWORD PTR [rax+0x0]
    2740:	00 
    2741:	f3 0f 59 c8          	mulss  xmm1,xmm0
    2745:	f3 0f 58 88 00 00 00 	addss  xmm1,DWORD PTR [rax+0x0]
    274c:	00 
    274d:	f3 0f 10 90 00 00 00 	movss  xmm2,DWORD PTR [rax+0x0]
    2754:	00 
    2755:	f3 0f 59 d0          	mulss  xmm2,xmm0
    2759:	f3 0f 58 d1          	addss  xmm2,xmm1
    275d:	f3 0f 59 80 00 00 00 	mulss  xmm0,DWORD PTR [rax+0x0]
    2764:	00 
    2765:	f3 0f 11 90 00 00 00 	movss  DWORD PTR [rax+0x0],xmm2
    276c:	00 
    276d:	f3 0f 58 c2          	addss  xmm0,xmm2
    2771:	f3 0f 11 80 00 00 00 	movss  DWORD PTR [rax+0x0],xmm0
    2778:	00 
    2779:	48 83 c0 04          	add    rax,0x4
    277d:	75 b2                	jne    2731 <s243+0x24>
    277f:	bf 00 00 00 00       	mov    edi,0x0
    2784:	be 00 00 00 00       	mov    esi,0x0
    2789:	ba 00 00 00 00       	mov    edx,0x0
    278e:	b9 00 00 00 00       	mov    ecx,0x0
    2793:	41 b8 00 00 00 00    	mov    r8d,0x0
    2799:	41 b9 00 00 00 00    	mov    r9d,0x0
    279f:	0f 57 c0             	xorps  xmm0,xmm0
    27a2:	68 00 00 00 00       	push   0x0
    27a7:	68 00 00 00 00       	push   0x0
    27ac:	e8 00 00 00 00       	call   27b1 <s243+0xa4>
    27b1:	48 83 c4 10          	add    rsp,0x10
    27b5:	ff c3                	inc    ebx
    27b7:	81 fb a0 86 01 00    	cmp    ebx,0x186a0
    27bd:	0f 85 67 ff ff ff    	jne    272a <s243+0x1d>
    27c3:	49 83 c6 10          	add    r14,0x10
    27c7:	4c 89 f7             	mov    rdi,r14
    27ca:	31 f6                	xor    esi,esi
    27cc:	e8 00 00 00 00       	call   27d1 <s243+0xc4>
    27d1:	bf 00 00 00 00       	mov    edi,0x0
    27d6:	48 83 c4 08          	add    rsp,0x8
    27da:	5b                   	pop    rbx
    27db:	41 5e                	pop    r14
    27dd:	e9 00 00 00 00       	jmp    27e2 <s244>

00000000000027e2 <s244>:
    27e2:	41 56                	push   r14
    27e4:	53                   	push   rbx
    27e5:	50                   	push   rax
    27e6:	49 89 fe             	mov    r14,rdi
    27e9:	bf 00 00 00 00       	mov    edi,0x0
    27ee:	e8 00 00 00 00       	call   27f3 <s244+0x11>
    27f3:	31 db                	xor    ebx,ebx
    27f5:	4c 89 f7             	mov    rdi,r14
    27f8:	31 f6                	xor    esi,esi
    27fa:	e8 00 00 00 00       	call   27ff <s244+0x1d>
    27ff:	48 c7 c0 04 0c fe ff 	mov    rax,0xfffffffffffe0c04
    2806:	f3 0f 10 80 00 00 00 	movss  xmm0,DWORD PTR [rax+0x0]
    280d:	00 
    280e:	f3 0f 10 88 00 00 00 	movss  xmm1,DWORD PTR [rax+0x0]
    2815:	00 
    2816:	f3 0f 10 90 00 00 00 	movss  xmm2,DWORD PTR [rax+0x0]
    281d:	00 
    281e:	0f 28 d9             	movaps xmm3,xmm1
    2821:	f3 0f 59 da          	mulss  xmm3,xmm2
    2825:	f3 0f 58 d8          	addss  xmm3,xmm0
    2829:	f3 0f 11 98 00 00 00 	movss  DWORD PTR [rax+0x0],xmm3
    2830:	00 
    2831:	f3 0f 58 c1          	addss  xmm0,xmm1
    2835:	f3 0f 59 90 00 00 00 	mulss  xmm2,DWORD PTR [rax+0x0]
    283c:	00 
    283d:	f3 0f 11 80 00 00 00 	movss  DWORD PTR [rax+0x0],xmm0
    2844:	00 
    2845:	f3 0f 58 d0          	addss  xmm2,xmm0
    2849:	f3 0f 11 90 00 00 00 	movss  DWORD PTR [rax+0x0],xmm2
    2850:	00 
    2851:	48 83 c0 04          	add    rax,0x4
    2855:	75 af                	jne    2806 <s244+0x24>
    2857:	bf 00 00 00 00       	mov    edi,0x0
    285c:	be 00 00 00 00       	mov    esi,0x0
    2861:	ba 00 00 00 00       	mov    edx,0x0
    2866:	b9 00 00 00 00       	mov    ecx,0x0
    286b:	41 b8 00 00 00 00    	mov    r8d,0x0
    2871:	41 b9 00 00 00 00    	mov    r9d,0x0
    2877:	0f 57 c0             	xorps  xmm0,xmm0
    287a:	68 00 00 00 00       	push   0x0
    287f:	68 00 00 00 00       	push   0x0
    2884:	e8 00 00 00 00       	call   2889 <s244+0xa7>
    2889:	48 83 c4 10          	add    rsp,0x10
    288d:	ff c3                	inc    ebx
    288f:	81 fb a0 86 01 00    	cmp    ebx,0x186a0
    2895:	0f 85 64 ff ff ff    	jne    27ff <s244+0x1d>
    289b:	49 83 c6 10          	add    r14,0x10
    289f:	4c 89 f7             	mov    rdi,r14
    28a2:	31 f6                	xor    esi,esi
    28a4:	e8 00 00 00 00       	call   28a9 <s244+0xc7>
    28a9:	bf 00 00 00 00       	mov    edi,0x0
    28ae:	48 83 c4 08          	add    rsp,0x8
    28b2:	5b                   	pop    rbx
    28b3:	41 5e                	pop    r14
    28b5:	e9 00 00 00 00       	jmp    28ba <s1244>

00000000000028ba <s1244>:
    28ba:	41 56                	push   r14
    28bc:	53                   	push   rbx
    28bd:	50                   	push   rax
    28be:	49 89 fe             	mov    r14,rdi
    28c1:	bf 00 00 00 00       	mov    edi,0x0
    28c6:	e8 00 00 00 00       	call   28cb <s1244+0x11>
    28cb:	31 db                	xor    ebx,ebx
    28cd:	4c 89 f7             	mov    rdi,r14
    28d0:	31 f6                	xor    esi,esi
    28d2:	e8 00 00 00 00       	call   28d7 <s1244+0x1d>
    28d7:	48 c7 c0 04 0c fe ff 	mov    rax,0xfffffffffffe0c04
    28de:	f3 0f 10 80 00 00 00 	movss  xmm0,DWORD PTR [rax+0x0]
    28e5:	00 
    28e6:	f3 0f 10 88 00 00 00 	movss  xmm1,DWORD PTR [rax+0x0]
    28ed:	00 
    28ee:	0f 28 d1             	movaps xmm2,xmm1
    28f1:	f3 0f 59 d1          	mulss  xmm2,xmm1
    28f5:	f3 0f 58 d0          	addss  xmm2,xmm0
    28f9:	f3 0f 59 c0          	mulss  xmm0,xmm0
    28fd:	f3 0f 58 c2          	addss  xmm0,xmm2
    2901:	f3 0f 58 c1          	addss  xmm0,xmm1
    2905:	f3 0f 11 80 00 00 00 	movss  DWORD PTR [rax+0x0],xmm0
    290c:	00 
    290d:	f3 0f 58 80 00 00 00 	addss  xmm0,DWORD PTR [rax+0x0]
    2914:	00 
    2915:	f3 0f 11 80 00 00 00 	movss  DWORD PTR [rax+0x0],xmm0
    291c:	00 
    291d:	48 83 c0 04          	add    rax,0x4
    2921:	75 bb                	jne    28de <s1244+0x24>
    2923:	bf 00 00 00 00       	mov    edi,0x0
    2928:	be 00 00 00 00       	mov    esi,0x0
    292d:	ba 00 00 00 00       	mov    edx,0x0
    2932:	b9 00 00 00 00       	mov    ecx,0x0
    2937:	41 b8 00 00 00 00    	mov    r8d,0x0
    293d:	41 b9 00 00 00 00    	mov    r9d,0x0
    2943:	0f 57 c0             	xorps  xmm0,xmm0
    2946:	68 00 00 00 00       	push   0x0
    294b:	68 00 00 00 00       	push   0x0
    2950:	e8 00 00 00 00       	call   2955 <s1244+0x9b>
    2955:	48 83 c4 10          	add    rsp,0x10
    2959:	ff c3                	inc    ebx
    295b:	81 fb a0 86 01 00    	cmp    ebx,0x186a0
    2961:	0f 85 70 ff ff ff    	jne    28d7 <s1244+0x1d>
    2967:	49 83 c6 10          	add    r14,0x10
    296b:	4c 89 f7             	mov    rdi,r14
    296e:	31 f6                	xor    esi,esi
    2970:	e8 00 00 00 00       	call   2975 <s1244+0xbb>
    2975:	bf 00 00 00 00       	mov    edi,0x0
    297a:	48 83 c4 08          	add    rsp,0x8
    297e:	5b                   	pop    rbx
    297f:	41 5e                	pop    r14
    2981:	e9 00 00 00 00       	jmp    2986 <s2244>

0000000000002986 <s2244>:
    2986:	41 56                	push   r14
    2988:	53                   	push   rbx
    2989:	50                   	push   rax
    298a:	49 89 fe             	mov    r14,rdi
    298d:	bf 00 00 00 00       	mov    edi,0x0
    2992:	e8 00 00 00 00       	call   2997 <s2244+0x11>
    2997:	31 db                	xor    ebx,ebx
    2999:	4c 89 f7             	mov    rdi,r14
    299c:	31 f6                	xor    esi,esi
    299e:	e8 00 00 00 00       	call   29a3 <s2244+0x1d>
    29a3:	48 c7 c0 04 0c fe ff 	mov    rax,0xfffffffffffe0c04
    29aa:	f3 0f 10 80 00 00 00 	movss  xmm0,DWORD PTR [rax+0x0]
    29b1:	00 
    29b2:	f3 0f 10 88 00 00 00 	movss  xmm1,DWORD PTR [rax+0x0]
    29b9:	00 
    29ba:	f3 0f 58 c8          	addss  xmm1,xmm0
    29be:	f3 0f 11 88 00 00 00 	movss  DWORD PTR [rax+0x0],xmm1
    29c5:	00 
    29c6:	f3 0f 58 80 00 00 00 	addss  xmm0,DWORD PTR [rax+0x0]
    29cd:	00 
    29ce:	f3 0f 11 80 00 00 00 	movss  DWORD PTR [rax+0x0],xmm0
    29d5:	00 
    29d6:	48 83 c0 04          	add    rax,0x4
    29da:	75 ce                	jne    29aa <s2244+0x24>
    29dc:	bf 00 00 00 00       	mov    edi,0x0
    29e1:	be 00 00 00 00       	mov    esi,0x0
    29e6:	ba 00 00 00 00       	mov    edx,0x0
    29eb:	b9 00 00 00 00       	mov    ecx,0x0
    29f0:	41 b8 00 00 00 00    	mov    r8d,0x0
    29f6:	41 b9 00 00 00 00    	mov    r9d,0x0
    29fc:	0f 57 c0             	xorps  xmm0,xmm0
    29ff:	68 00 00 00 00       	push   0x0
    2a04:	68 00 00 00 00       	push   0x0
    2a09:	e8 00 00 00 00       	call   2a0e <s2244+0x88>
    2a0e:	48 83 c4 10          	add    rsp,0x10
    2a12:	ff c3                	inc    ebx
    2a14:	81 fb a0 86 01 00    	cmp    ebx,0x186a0
    2a1a:	75 87                	jne    29a3 <s2244+0x1d>
    2a1c:	49 83 c6 10          	add    r14,0x10
    2a20:	4c 89 f7             	mov    rdi,r14
    2a23:	31 f6                	xor    esi,esi
    2a25:	e8 00 00 00 00       	call   2a2a <s2244+0xa4>
    2a2a:	bf 00 00 00 00       	mov    edi,0x0
    2a2f:	48 83 c4 08          	add    rsp,0x8
    2a33:	5b                   	pop    rbx
    2a34:	41 5e                	pop    r14
    2a36:	e9 00 00 00 00       	jmp    2a3b <s251>

0000000000002a3b <s251>:
    2a3b:	41 56                	push   r14
    2a3d:	53                   	push   rbx
    2a3e:	50                   	push   rax
    2a3f:	49 89 fe             	mov    r14,rdi
    2a42:	bf 00 00 00 00       	mov    edi,0x0
    2a47:	e8 00 00 00 00       	call   2a4c <s251+0x11>
    2a4c:	31 db                	xor    ebx,ebx
    2a4e:	4c 89 f7             	mov    rdi,r14
    2a51:	31 f6                	xor    esi,esi
    2a53:	e8 00 00 00 00       	call   2a58 <s251+0x1d>
    2a58:	48 c7 c0 00 0c fe ff 	mov    rax,0xfffffffffffe0c00
    2a5f:	f3 0f 10 80 00 00 00 	movss  xmm0,DWORD PTR [rax+0x0]
    2a66:	00 
    2a67:	f3 0f 59 80 00 00 00 	mulss  xmm0,DWORD PTR [rax+0x0]
    2a6e:	00 
    2a6f:	f3 0f 58 80 00 00 00 	addss  xmm0,DWORD PTR [rax+0x0]
    2a76:	00 
    2a77:	f3 0f 59 c0          	mulss  xmm0,xmm0
    2a7b:	f3 0f 11 80 00 00 00 	movss  DWORD PTR [rax+0x0],xmm0
    2a82:	00 
    2a83:	48 83 c0 04          	add    rax,0x4
    2a87:	75 d6                	jne    2a5f <s251+0x24>
    2a89:	bf 00 00 00 00       	mov    edi,0x0
    2a8e:	be 00 00 00 00       	mov    esi,0x0
    2a93:	ba 00 00 00 00       	mov    edx,0x0
    2a98:	b9 00 00 00 00       	mov    ecx,0x0
    2a9d:	41 b8 00 00 00 00    	mov    r8d,0x0
    2aa3:	41 b9 00 00 00 00    	mov    r9d,0x0
    2aa9:	0f 57 c0             	xorps  xmm0,xmm0
    2aac:	68 00 00 00 00       	push   0x0
    2ab1:	68 00 00 00 00       	push   0x0
    2ab6:	e8 00 00 00 00       	call   2abb <s251+0x80>
    2abb:	48 83 c4 10          	add    rsp,0x10
    2abf:	ff c3                	inc    ebx
    2ac1:	81 fb 80 1a 06 00    	cmp    ebx,0x61a80
    2ac7:	75 8f                	jne    2a58 <s251+0x1d>
    2ac9:	49 83 c6 10          	add    r14,0x10
    2acd:	4c 89 f7             	mov    rdi,r14
    2ad0:	31 f6                	xor    esi,esi
    2ad2:	e8 00 00 00 00       	call   2ad7 <s251+0x9c>
    2ad7:	bf 00 00 00 00       	mov    edi,0x0
    2adc:	48 83 c4 08          	add    rsp,0x8
    2ae0:	5b                   	pop    rbx
    2ae1:	41 5e                	pop    r14
    2ae3:	e9 00 00 00 00       	jmp    2ae8 <s1251>

0000000000002ae8 <s1251>:
    2ae8:	41 56                	push   r14
    2aea:	53                   	push   rbx
    2aeb:	50                   	push   rax
    2aec:	49 89 fe             	mov    r14,rdi
    2aef:	bf 00 00 00 00       	mov    edi,0x0
    2af4:	e8 00 00 00 00       	call   2af9 <s1251+0x11>
    2af9:	31 db                	xor    ebx,ebx
    2afb:	4c 89 f7             	mov    rdi,r14
    2afe:	31 f6                	xor    esi,esi
    2b00:	e8 00 00 00 00       	call   2b05 <s1251+0x1d>
    2b05:	48 c7 c0 00 0c fe ff 	mov    rax,0xfffffffffffe0c00
    2b0c:	f3 0f 10 80 00 00 00 	movss  xmm0,DWORD PTR [rax+0x0]
    2b13:	00 
    2b14:	f3 0f 58 80 00 00 00 	addss  xmm0,DWORD PTR [rax+0x0]
    2b1b:	00 
    2b1c:	f3 0f 10 88 00 00 00 	movss  xmm1,DWORD PTR [rax+0x0]
    2b23:	00 
    2b24:	f3 0f 58 88 00 00 00 	addss  xmm1,DWORD PTR [rax+0x0]
    2b2b:	00 
    2b2c:	f3 0f 11 88 00 00 00 	movss  DWORD PTR [rax+0x0],xmm1
    2b33:	00 
    2b34:	f3 0f 59 80 00 00 00 	mulss  xmm0,DWORD PTR [rax+0x0]
    2b3b:	00 
    2b3c:	f3 0f 11 80 00 00 00 	movss  DWORD PTR [rax+0x0],xmm0
    2b43:	00 
    2b44:	48 83 c0 04          	add    rax,0x4
    2b48:	75 c2                	jne    2b0c <s1251+0x24>
    2b4a:	bf 00 00 00 00       	mov    edi,0x0
    2b4f:	be 00 00 00 00       	mov    esi,0x0
    2b54:	ba 00 00 00 00       	mov    edx,0x0
    2b59:	b9 00 00 00 00       	mov    ecx,0x0
    2b5e:	41 b8 00 00 00 00    	mov    r8d,0x0
    2b64:	41 b9 00 00 00 00    	mov    r9d,0x0
    2b6a:	0f 57 c0             	xorps  xmm0,xmm0
    2b6d:	68 00 00 00 00       	push   0x0
    2b72:	68 00 00 00 00       	push   0x0
    2b77:	e8 00 00 00 00       	call   2b7c <s1251+0x94>
    2b7c:	48 83 c4 10          	add    rsp,0x10
    2b80:	ff c3                	inc    ebx
    2b82:	81 fb 80 1a 06 00    	cmp    ebx,0x61a80
    2b88:	0f 85 77 ff ff ff    	jne    2b05 <s1251+0x1d>
    2b8e:	49 83 c6 10          	add    r14,0x10
    2b92:	4c 89 f7             	mov    rdi,r14
    2b95:	31 f6                	xor    esi,esi
    2b97:	e8 00 00 00 00       	call   2b9c <s1251+0xb4>
    2b9c:	bf 00 00 00 00       	mov    edi,0x0
    2ba1:	48 83 c4 08          	add    rsp,0x8
    2ba5:	5b                   	pop    rbx
    2ba6:	41 5e                	pop    r14
    2ba8:	e9 00 00 00 00       	jmp    2bad <s2251>

0000000000002bad <s2251>:
    2bad:	41 56                	push   r14
    2baf:	53                   	push   rbx
    2bb0:	50                   	push   rax
    2bb1:	49 89 fe             	mov    r14,rdi
    2bb4:	bf 00 00 00 00       	mov    edi,0x0
    2bb9:	e8 00 00 00 00       	call   2bbe <s2251+0x11>
    2bbe:	31 db                	xor    ebx,ebx
    2bc0:	4c 89 f7             	mov    rdi,r14
    2bc3:	31 f6                	xor    esi,esi
    2bc5:	e8 00 00 00 00       	call   2bca <s2251+0x1d>
    2bca:	48 c7 c0 00 0c fe ff 	mov    rax,0xfffffffffffe0c00
    2bd1:	0f 57 c0             	xorps  xmm0,xmm0
    2bd4:	f3 0f 59 80 00 00 00 	mulss  xmm0,DWORD PTR [rax+0x0]
    2bdb:	00 
    2bdc:	f3 0f 11 80 00 00 00 	movss  DWORD PTR [rax+0x0],xmm0
    2be3:	00 
    2be4:	f3 0f 10 88 00 00 00 	movss  xmm1,DWORD PTR [rax+0x0]
    2beb:	00 
    2bec:	f3 0f 58 88 00 00 00 	addss  xmm1,DWORD PTR [rax+0x0]
    2bf3:	00 
    2bf4:	f3 0f 58 80 00 00 00 	addss  xmm0,DWORD PTR [rax+0x0]
    2bfb:	00 
    2bfc:	f3 0f 11 80 00 00 00 	movss  DWORD PTR [rax+0x0],xmm0
    2c03:	00 
    2c04:	0f 28 c1             	movaps xmm0,xmm1
    2c07:	48 83 c0 04          	add    rax,0x4
    2c0b:	75 c7                	jne    2bd4 <s2251+0x27>
    2c0d:	bf 00 00 00 00       	mov    edi,0x0
    2c12:	be 00 00 00 00       	mov    esi,0x0
    2c17:	ba 00 00 00 00       	mov    edx,0x0
    2c1c:	b9 00 00 00 00       	mov    ecx,0x0
    2c21:	41 b8 00 00 00 00    	mov    r8d,0x0
    2c27:	41 b9 00 00 00 00    	mov    r9d,0x0
    2c2d:	0f 57 c0             	xorps  xmm0,xmm0
    2c30:	68 00 00 00 00       	push   0x0
    2c35:	68 00 00 00 00       	push   0x0
    2c3a:	e8 00 00 00 00       	call   2c3f <s2251+0x92>
    2c3f:	48 83 c4 10          	add    rsp,0x10
    2c43:	ff c3                	inc    ebx
    2c45:	81 fb a0 86 01 00    	cmp    ebx,0x186a0
    2c4b:	0f 85 79 ff ff ff    	jne    2bca <s2251+0x1d>
    2c51:	49 83 c6 10          	add    r14,0x10
    2c55:	4c 89 f7             	mov    rdi,r14
    2c58:	31 f6                	xor    esi,esi
    2c5a:	e8 00 00 00 00       	call   2c5f <s2251+0xb2>
    2c5f:	bf 00 00 00 00       	mov    edi,0x0
    2c64:	48 83 c4 08          	add    rsp,0x8
    2c68:	5b                   	pop    rbx
    2c69:	41 5e                	pop    r14
    2c6b:	e9 00 00 00 00       	jmp    2c70 <s3251>

0000000000002c70 <s3251>:
    2c70:	41 56                	push   r14
    2c72:	53                   	push   rbx
    2c73:	50                   	push   rax
    2c74:	49 89 fe             	mov    r14,rdi
    2c77:	bf 00 00 00 00       	mov    edi,0x0
    2c7c:	e8 00 00 00 00       	call   2c81 <s3251+0x11>
    2c81:	31 db                	xor    ebx,ebx
    2c83:	4c 89 f7             	mov    rdi,r14
    2c86:	31 f6                	xor    esi,esi
    2c88:	e8 00 00 00 00       	call   2c8d <s3251+0x1d>
    2c8d:	f3 0f 10 05 00 00 00 	movss  xmm0,DWORD PTR [rip+0x0]        # 2c95 <s3251+0x25>
    2c94:	00 
    2c95:	31 c0                	xor    eax,eax
    2c97:	f3 0f 10 88 00 00 00 	movss  xmm1,DWORD PTR [rax+0x0]
    2c9e:	00 
    2c9f:	f3 0f 10 90 00 00 00 	movss  xmm2,DWORD PTR [rax+0x0]
    2ca6:	00 
    2ca7:	f3 0f 58 d1          	addss  xmm2,xmm1
    2cab:	f3 0f 11 90 00 00 00 	movss  DWORD PTR [rax+0x0],xmm2
    2cb2:	00 
    2cb3:	f3 0f 10 98 00 00 00 	movss  xmm3,DWORD PTR [rax+0x0]
    2cba:	00 
    2cbb:	f3 0f 59 cb          	mulss  xmm1,xmm3
    2cbf:	f3 0f 11 88 00 00 00 	movss  DWORD PTR [rax+0x0],xmm1
    2cc6:	00 
    2cc7:	f3 0f 59 c3          	mulss  xmm0,xmm3
    2ccb:	f3 0f 11 80 00 00 00 	movss  DWORD PTR [rax+0x0],xmm0
    2cd2:	00 
    2cd3:	48 83 c0 04          	add    rax,0x4
    2cd7:	0f 28 c2             	movaps xmm0,xmm2
    2cda:	48 3d fc f3 01 00    	cmp    rax,0x1f3fc
    2ce0:	75 b5                	jne    2c97 <s3251+0x27>
    2ce2:	bf 00 00 00 00       	mov    edi,0x0
    2ce7:	be 00 00 00 00       	mov    esi,0x0
    2cec:	ba 00 00 00 00       	mov    edx,0x0
    2cf1:	b9 00 00 00 00       	mov    ecx,0x0
    2cf6:	41 b8 00 00 00 00    	mov    r8d,0x0
    2cfc:	41 b9 00 00 00 00    	mov    r9d,0x0
    2d02:	0f 57 c0             	xorps  xmm0,xmm0
    2d05:	68 00 00 00 00       	push   0x0
    2d0a:	68 00 00 00 00       	push   0x0
    2d0f:	e8 00 00 00 00       	call   2d14 <s3251+0xa4>
    2d14:	48 83 c4 10          	add    rsp,0x10
    2d18:	ff c3                	inc    ebx
    2d1a:	81 fb a0 86 01 00    	cmp    ebx,0x186a0
    2d20:	0f 85 67 ff ff ff    	jne    2c8d <s3251+0x1d>
    2d26:	49 83 c6 10          	add    r14,0x10
    2d2a:	4c 89 f7             	mov    rdi,r14
    2d2d:	31 f6                	xor    esi,esi
    2d2f:	e8 00 00 00 00       	call   2d34 <s3251+0xc4>
    2d34:	bf 00 00 00 00       	mov    edi,0x0
    2d39:	48 83 c4 08          	add    rsp,0x8
    2d3d:	5b                   	pop    rbx
    2d3e:	41 5e                	pop    r14
    2d40:	e9 00 00 00 00       	jmp    2d45 <s252>

0000000000002d45 <s252>:
    2d45:	41 56                	push   r14
    2d47:	53                   	push   rbx
    2d48:	50                   	push   rax
    2d49:	49 89 fe             	mov    r14,rdi
    2d4c:	bf 00 00 00 00       	mov    edi,0x0
    2d51:	e8 00 00 00 00       	call   2d56 <s252+0x11>
    2d56:	31 db                	xor    ebx,ebx
    2d58:	4c 89 f7             	mov    rdi,r14
    2d5b:	31 f6                	xor    esi,esi
    2d5d:	e8 00 00 00 00       	call   2d62 <s252+0x1d>
    2d62:	48 c7 c0 00 0c fe ff 	mov    rax,0xfffffffffffe0c00
    2d69:	0f 57 c0             	xorps  xmm0,xmm0
    2d6c:	f3 0f 10 88 00 00 00 	movss  xmm1,DWORD PTR [rax+0x0]
    2d73:	00 
    2d74:	f3 0f 59 88 00 00 00 	mulss  xmm1,DWORD PTR [rax+0x0]
    2d7b:	00 
    2d7c:	f3 0f 58 c1          	addss  xmm0,xmm1
    2d80:	f3 0f 11 80 00 00 00 	movss  DWORD PTR [rax+0x0],xmm0
    2d87:	00 
    2d88:	0f 28 c1             	movaps xmm0,xmm1
    2d8b:	48 83 c0 04          	add    rax,0x4
    2d8f:	75 db                	jne    2d6c <s252+0x27>
    2d91:	bf 00 00 00 00       	mov    edi,0x0
    2d96:	be 00 00 00 00       	mov    esi,0x0
    2d9b:	ba 00 00 00 00       	mov    edx,0x0
    2da0:	b9 00 00 00 00       	mov    ecx,0x0
    2da5:	41 b8 00 00 00 00    	mov    r8d,0x0
    2dab:	41 b9 00 00 00 00    	mov    r9d,0x0
    2db1:	0f 57 c0             	xorps  xmm0,xmm0
    2db4:	68 00 00 00 00       	push   0x0
    2db9:	68 00 00 00 00       	push   0x0
    2dbe:	e8 00 00 00 00       	call   2dc3 <s252+0x7e>
    2dc3:	48 83 c4 10          	add    rsp,0x10
    2dc7:	ff c3                	inc    ebx
    2dc9:	81 fb a0 86 01 00    	cmp    ebx,0x186a0
    2dcf:	75 91                	jne    2d62 <s252+0x1d>
    2dd1:	49 83 c6 10          	add    r14,0x10
    2dd5:	4c 89 f7             	mov    rdi,r14
    2dd8:	31 f6                	xor    esi,esi
    2dda:	e8 00 00 00 00       	call   2ddf <s252+0x9a>
    2ddf:	bf 00 00 00 00       	mov    edi,0x0
    2de4:	48 83 c4 08          	add    rsp,0x8
    2de8:	5b                   	pop    rbx
    2de9:	41 5e                	pop    r14
    2deb:	e9 00 00 00 00       	jmp    2df0 <s253>

0000000000002df0 <s253>:
    2df0:	41 56                	push   r14
    2df2:	53                   	push   rbx
    2df3:	50                   	push   rax
    2df4:	49 89 fe             	mov    r14,rdi
    2df7:	bf 00 00 00 00       	mov    edi,0x0
    2dfc:	e8 00 00 00 00       	call   2e01 <s253+0x11>
    2e01:	31 db                	xor    ebx,ebx
    2e03:	4c 89 f7             	mov    rdi,r14
    2e06:	31 f6                	xor    esi,esi
    2e08:	e8 00 00 00 00       	call   2e0d <s253+0x1d>
    2e0d:	48 c7 c0 00 0c fe ff 	mov    rax,0xfffffffffffe0c00
    2e14:	f3 0f 10 80 00 00 00 	movss  xmm0,DWORD PTR [rax+0x0]
    2e1b:	00 
    2e1c:	f3 0f 10 88 00 00 00 	movss  xmm1,DWORD PTR [rax+0x0]
    2e23:	00 
    2e24:	0f 2e c1             	ucomiss xmm0,xmm1
    2e27:	76 28                	jbe    2e51 <s253+0x61>
    2e29:	f3 0f 59 88 00 00 00 	mulss  xmm1,DWORD PTR [rax+0x0]
    2e30:	00 
    2e31:	f3 0f 5c c1          	subss  xmm0,xmm1
    2e35:	f3 0f 10 88 00 00 00 	movss  xmm1,DWORD PTR [rax+0x0]
    2e3c:	00 
    2e3d:	f3 0f 58 c8          	addss  xmm1,xmm0
    2e41:	f3 0f 11 88 00 00 00 	movss  DWORD PTR [rax+0x0],xmm1
    2e48:	00 
    2e49:	f3 0f 11 80 00 00 00 	movss  DWORD PTR [rax+0x0],xmm0
    2e50:	00 
    2e51:	48 83 c0 04          	add    rax,0x4
    2e55:	75 bd                	jne    2e14 <s253+0x24>
    2e57:	bf 00 00 00 00       	mov    edi,0x0
    2e5c:	be 00 00 00 00       	mov    esi,0x0
    2e61:	ba 00 00 00 00       	mov    edx,0x0
    2e66:	b9 00 00 00 00       	mov    ecx,0x0
    2e6b:	41 b8 00 00 00 00    	mov    r8d,0x0
    2e71:	41 b9 00 00 00 00    	mov    r9d,0x0
    2e77:	0f 57 c0             	xorps  xmm0,xmm0
    2e7a:	68 00 00 00 00       	push   0x0
    2e7f:	68 00 00 00 00       	push   0x0
    2e84:	e8 00 00 00 00       	call   2e89 <s253+0x99>
    2e89:	48 83 c4 10          	add    rsp,0x10
    2e8d:	ff c3                	inc    ebx
    2e8f:	81 fb a0 86 01 00    	cmp    ebx,0x186a0
    2e95:	0f 85 72 ff ff ff    	jne    2e0d <s253+0x1d>
    2e9b:	49 83 c6 10          	add    r14,0x10
    2e9f:	4c 89 f7             	mov    rdi,r14
    2ea2:	31 f6                	xor    esi,esi
    2ea4:	e8 00 00 00 00       	call   2ea9 <s253+0xb9>
    2ea9:	bf 00 00 00 00       	mov    edi,0x0
    2eae:	48 83 c4 08          	add    rsp,0x8
    2eb2:	5b                   	pop    rbx
    2eb3:	41 5e                	pop    r14
    2eb5:	e9 00 00 00 00       	jmp    2eba <s254>

0000000000002eba <s254>:
    2eba:	41 56                	push   r14
    2ebc:	53                   	push   rbx
    2ebd:	50                   	push   rax
    2ebe:	49 89 fe             	mov    r14,rdi
    2ec1:	bf 00 00 00 00       	mov    edi,0x0
    2ec6:	e8 00 00 00 00       	call   2ecb <s254+0x11>
    2ecb:	31 db                	xor    ebx,ebx
    2ecd:	4c 89 f7             	mov    rdi,r14
    2ed0:	31 f6                	xor    esi,esi
    2ed2:	e8 00 00 00 00       	call   2ed7 <s254+0x1d>
    2ed7:	f3 0f 10 15 00 00 00 	movss  xmm2,DWORD PTR [rip+0x0]        # 2edf <s254+0x25>
    2ede:	00 
    2edf:	48 c7 c0 00 0c fe ff 	mov    rax,0xfffffffffffe0c00
    2ee6:	f3 0f 10 05 00 00 00 	movss  xmm0,DWORD PTR [rip+0x0]        # 2eee <s254+0x34>
    2eed:	00 
    2eee:	f3 0f 10 88 00 00 00 	movss  xmm1,DWORD PTR [rax+0x0]
    2ef5:	00 
    2ef6:	f3 0f 58 c1          	addss  xmm0,xmm1
    2efa:	f3 0f 59 c2          	mulss  xmm0,xmm2
    2efe:	f3 0f 11 80 00 00 00 	movss  DWORD PTR [rax+0x0],xmm0
    2f05:	00 
    2f06:	0f 28 c1             	movaps xmm0,xmm1
    2f09:	48 83 c0 04          	add    rax,0x4
    2f0d:	75 df                	jne    2eee <s254+0x34>
    2f0f:	bf 00 00 00 00       	mov    edi,0x0
    2f14:	be 00 00 00 00       	mov    esi,0x0
    2f19:	ba 00 00 00 00       	mov    edx,0x0
    2f1e:	b9 00 00 00 00       	mov    ecx,0x0
    2f23:	41 b8 00 00 00 00    	mov    r8d,0x0
    2f29:	41 b9 00 00 00 00    	mov    r9d,0x0
    2f2f:	0f 57 c0             	xorps  xmm0,xmm0
    2f32:	68 00 00 00 00       	push   0x0
    2f37:	68 00 00 00 00       	push   0x0
    2f3c:	e8 00 00 00 00       	call   2f41 <s254+0x87>
    2f41:	f3 0f 10 15 00 00 00 	movss  xmm2,DWORD PTR [rip+0x0]        # 2f49 <s254+0x8f>
    2f48:	00 
    2f49:	48 83 c4 10          	add    rsp,0x10
    2f4d:	ff c3                	inc    ebx
    2f4f:	81 fb 80 1a 06 00    	cmp    ebx,0x61a80
    2f55:	75 88                	jne    2edf <s254+0x25>
    2f57:	49 83 c6 10          	add    r14,0x10
    2f5b:	4c 89 f7             	mov    rdi,r14
    2f5e:	31 f6                	xor    esi,esi
    2f60:	e8 00 00 00 00       	call   2f65 <s254+0xab>
    2f65:	bf 00 00 00 00       	mov    edi,0x0
    2f6a:	48 83 c4 08          	add    rsp,0x8
    2f6e:	5b                   	pop    rbx
    2f6f:	41 5e                	pop    r14
    2f71:	e9 00 00 00 00       	jmp    2f76 <s255>

0000000000002f76 <s255>:
    2f76:	41 56                	push   r14
    2f78:	53                   	push   rbx
    2f79:	50                   	push   rax
    2f7a:	49 89 fe             	mov    r14,rdi
    2f7d:	bf 00 00 00 00       	mov    edi,0x0
    2f82:	e8 00 00 00 00       	call   2f87 <s255+0x11>
    2f87:	31 db                	xor    ebx,ebx
    2f89:	4c 89 f7             	mov    rdi,r14
    2f8c:	31 f6                	xor    esi,esi
    2f8e:	e8 00 00 00 00       	call   2f93 <s255+0x1d>
    2f93:	f3 0f 10 25 00 00 00 	movss  xmm4,DWORD PTR [rip+0x0]        # 2f9b <s255+0x25>
    2f9a:	00 
    2f9b:	f3 0f 10 0d 00 00 00 	movss  xmm1,DWORD PTR [rip+0x0]        # 2fa3 <s255+0x2d>
    2fa2:	00 
    2fa3:	48 c7 c0 00 0c fe ff 	mov    rax,0xfffffffffffe0c00
    2faa:	f3 0f 10 05 00 00 00 	movss  xmm0,DWORD PTR [rip+0x0]        # 2fb2 <s255+0x3c>
    2fb1:	00 
    2fb2:	0f 28 d0             	movaps xmm2,xmm0
    2fb5:	f3 0f 10 80 00 00 00 	movss  xmm0,DWORD PTR [rax+0x0]
    2fbc:	00 
    2fbd:	0f 28 da             	movaps xmm3,xmm2
    2fc0:	f3 0f 58 d8          	addss  xmm3,xmm0
    2fc4:	f3 0f 58 d9          	addss  xmm3,xmm1
    2fc8:	f3 0f 59 dc          	mulss  xmm3,xmm4
    2fcc:	f3 0f 11 98 00 00 00 	movss  DWORD PTR [rax+0x0],xmm3
    2fd3:	00 
    2fd4:	0f 28 ca             	movaps xmm1,xmm2
    2fd7:	48 83 c0 04          	add    rax,0x4
    2fdb:	75 d5                	jne    2fb2 <s255+0x3c>
    2fdd:	bf 00 00 00 00       	mov    edi,0x0
    2fe2:	be 00 00 00 00       	mov    esi,0x0
    2fe7:	ba 00 00 00 00       	mov    edx,0x0
    2fec:	b9 00 00 00 00       	mov    ecx,0x0
    2ff1:	41 b8 00 00 00 00    	mov    r8d,0x0
    2ff7:	41 b9 00 00 00 00    	mov    r9d,0x0
    2ffd:	0f 57 c0             	xorps  xmm0,xmm0
    3000:	68 00 00 00 00       	push   0x0
    3005:	68 00 00 00 00       	push   0x0
    300a:	e8 00 00 00 00       	call   300f <s255+0x99>
    300f:	f3 0f 10 25 00 00 00 	movss  xmm4,DWORD PTR [rip+0x0]        # 3017 <s255+0xa1>
    3016:	00 
    3017:	48 83 c4 10          	add    rsp,0x10
    301b:	ff c3                	inc    ebx
    301d:	81 fb a0 86 01 00    	cmp    ebx,0x186a0
    3023:	0f 85 72 ff ff ff    	jne    2f9b <s255+0x25>
    3029:	49 83 c6 10          	add    r14,0x10
    302d:	4c 89 f7             	mov    rdi,r14
    3030:	31 f6                	xor    esi,esi
    3032:	e8 00 00 00 00       	call   3037 <s255+0xc1>
    3037:	bf 00 00 00 00       	mov    edi,0x0
    303c:	48 83 c4 08          	add    rsp,0x8
    3040:	5b                   	pop    rbx
    3041:	41 5e                	pop    r14
    3043:	e9 00 00 00 00       	jmp    3048 <s256>

0000000000003048 <s256>:
    3048:	41 56                	push   r14
    304a:	53                   	push   rbx
    304b:	50                   	push   rax
    304c:	49 89 fe             	mov    r14,rdi
    304f:	bf 00 00 00 00       	mov    edi,0x0
    3054:	e8 00 00 00 00       	call   3059 <s256+0x11>
    3059:	31 db                	xor    ebx,ebx
    305b:	4c 89 f7             	mov    rdi,r14
    305e:	31 f6                	xor    esi,esi
    3060:	e8 00 00 00 00       	call   3065 <s256+0x1d>
    3065:	f3 0f 10 15 00 00 00 	movss  xmm2,DWORD PTR [rip+0x0]        # 306d <s256+0x25>
    306c:	00 
    306d:	31 c0                	xor    eax,eax
    306f:	31 c9                	xor    ecx,ecx
    3071:	f3 0f 10 05 00 00 00 	movss  xmm0,DWORD PTR [rip+0x0]        # 3079 <s256+0x31>
    3078:	00 
    3079:	31 d2                	xor    edx,edx
    307b:	31 f6                	xor    esi,esi
    307d:	0f 28 ca             	movaps xmm1,xmm2
    3080:	f3 0f 5c c8          	subss  xmm1,xmm0
    3084:	f3 0f 11 8a 00 00 00 	movss  DWORD PTR [rdx+0x0],xmm1
    308b:	00 
    308c:	f3 0f 10 84 30 00 00 	movss  xmm0,DWORD PTR [rax+rsi*1+0x0]
    3093:	00 00 
    3095:	f3 0f 59 82 00 00 00 	mulss  xmm0,DWORD PTR [rdx+0x0]
    309c:	00 
    309d:	f3 0f 58 c1          	addss  xmm0,xmm1
    30a1:	f3 0f 11 84 30 00 00 	movss  DWORD PTR [rax+rsi*1+0x0],xmm0
    30a8:	00 00 
    30aa:	48 81 c6 00 04 00 00 	add    rsi,0x400
    30b1:	48 83 c2 04          	add    rdx,0x4
    30b5:	0f 28 c1             	movaps xmm0,xmm1
    30b8:	48 81 fe 00 fc 03 00 	cmp    rsi,0x3fc00
    30bf:	75 bc                	jne    307d <s256+0x35>
    30c1:	48 ff c1             	inc    rcx
    30c4:	48 83 c0 04          	add    rax,0x4
    30c8:	48 81 f9 00 01 00 00 	cmp    rcx,0x100
    30cf:	75 a0                	jne    3071 <s256+0x29>
    30d1:	bf 00 00 00 00       	mov    edi,0x0
    30d6:	be 00 00 00 00       	mov    esi,0x0
    30db:	ba 00 00 00 00       	mov    edx,0x0
    30e0:	b9 00 00 00 00       	mov    ecx,0x0
    30e5:	41 b8 00 00 00 00    	mov    r8d,0x0
    30eb:	41 b9 00 00 00 00    	mov    r9d,0x0
    30f1:	0f 57 c0             	xorps  xmm0,xmm0
    30f4:	68 00 00 00 00       	push   0x0
    30f9:	68 00 00 00 00       	push   0x0
    30fe:	e8 00 00 00 00       	call   3103 <s256+0xbb>
    3103:	f3 0f 10 15 00 00 00 	movss  xmm2,DWORD PTR [rip+0x0]        # 310b <s256+0xc3>
    310a:	00 
    310b:	48 83 c4 10          	add    rsp,0x10
    310f:	ff c3                	inc    ebx
    3111:	81 fb 3c 0f 00 00    	cmp    ebx,0xf3c
    3117:	0f 85 50 ff ff ff    	jne    306d <s256+0x25>
    311d:	49 83 c6 10          	add    r14,0x10
    3121:	4c 89 f7             	mov    rdi,r14
    3124:	31 f6                	xor    esi,esi
    3126:	e8 00 00 00 00       	call   312b <s256+0xe3>
    312b:	bf 00 00 00 00       	mov    edi,0x0
    3130:	48 83 c4 08          	add    rsp,0x8
    3134:	5b                   	pop    rbx
    3135:	41 5e                	pop    r14
    3137:	e9 00 00 00 00       	jmp    313c <s257>

000000000000313c <s257>:
    313c:	41 56                	push   r14
    313e:	53                   	push   rbx
    313f:	50                   	push   rax
    3140:	49 89 fe             	mov    r14,rdi
    3143:	bf 00 00 00 00       	mov    edi,0x0
    3148:	e8 00 00 00 00       	call   314d <s257+0x11>
    314d:	31 db                	xor    ebx,ebx
    314f:	4c 89 f7             	mov    rdi,r14
    3152:	31 f6                	xor    esi,esi
    3154:	e8 00 00 00 00       	call   3159 <s257+0x1d>
    3159:	b8 01 00 00 00       	mov    eax,0x1
    315e:	b9 04 00 00 00       	mov    ecx,0x4
    3163:	f3 0f 10 05 00 00 00 	movss  xmm0,DWORD PTR [rip+0x0]        # 316b <s257+0x2f>
    316a:	00 
    316b:	48 c7 c2 00 00 fc ff 	mov    rdx,0xfffffffffffc0000
    3172:	f3 0f 10 8c 11 00 00 	movss  xmm1,DWORD PTR [rcx+rdx*1+0x0]
    3179:	00 00 
    317b:	f3 0f 5c c8          	subss  xmm1,xmm0
    317f:	f3 0f 10 94 11 00 00 	movss  xmm2,DWORD PTR [rcx+rdx*1+0x0]
    3186:	00 00 
    3188:	f3 0f 58 d1          	addss  xmm2,xmm1
    318c:	f3 0f 11 94 11 00 00 	movss  DWORD PTR [rcx+rdx*1+0x0],xmm2
    3193:	00 00 
    3195:	48 81 c2 00 04 00 00 	add    rdx,0x400
    319c:	75 d4                	jne    3172 <s257+0x36>
    319e:	f3 0f 11 0c 85 00 00 	movss  DWORD PTR [rax*4+0x0],xmm1
    31a5:	00 00 
    31a7:	48 ff c0             	inc    rax
    31aa:	48 83 c1 04          	add    rcx,0x4
    31ae:	0f 28 c1             	movaps xmm0,xmm1
    31b1:	48 3d 00 01 00 00    	cmp    rax,0x100
    31b7:	75 b2                	jne    316b <s257+0x2f>
    31b9:	bf 00 00 00 00       	mov    edi,0x0
    31be:	be 00 00 00 00       	mov    esi,0x0
    31c3:	ba 00 00 00 00       	mov    edx,0x0
    31c8:	b9 00 00 00 00       	mov    ecx,0x0
    31cd:	41 b8 00 00 00 00    	mov    r8d,0x0
    31d3:	41 b9 00 00 00 00    	mov    r9d,0x0
    31d9:	0f 57 c0             	xorps  xmm0,xmm0
    31dc:	68 00 00 00 00       	push   0x0
    31e1:	68 00 00 00 00       	push   0x0
    31e6:	e8 00 00 00 00       	call   31eb <s257+0xaf>
    31eb:	48 83 c4 10          	add    rsp,0x10
    31ef:	ff c3                	inc    ebx
    31f1:	81 fb 3c 0f 00 00    	cmp    ebx,0xf3c
    31f7:	0f 85 5c ff ff ff    	jne    3159 <s257+0x1d>
    31fd:	49 83 c6 10          	add    r14,0x10
    3201:	4c 89 f7             	mov    rdi,r14
    3204:	31 f6                	xor    esi,esi
    3206:	e8 00 00 00 00       	call   320b <s257+0xcf>
    320b:	bf 00 00 00 00       	mov    edi,0x0
    3210:	48 83 c4 08          	add    rsp,0x8
    3214:	5b                   	pop    rbx
    3215:	41 5e                	pop    r14
    3217:	e9 00 00 00 00       	jmp    321c <s258>

000000000000321c <s258>:
    321c:	41 56                	push   r14
    321e:	53                   	push   rbx
    321f:	50                   	push   rax
    3220:	49 89 fe             	mov    r14,rdi
    3223:	bf 00 00 00 00       	mov    edi,0x0
    3228:	e8 00 00 00 00       	call   322d <s258+0x11>
    322d:	31 db                	xor    ebx,ebx
    322f:	4c 89 f7             	mov    rdi,r14
    3232:	31 f6                	xor    esi,esi
    3234:	e8 00 00 00 00       	call   3239 <s258+0x1d>
    3239:	f3 0f 10 2d 00 00 00 	movss  xmm5,DWORD PTR [rip+0x0]        # 3241 <s258+0x25>
    3240:	00 
    3241:	48 c7 c0 00 fc ff ff 	mov    rax,0xfffffffffffffc00
    3248:	0f 57 c0             	xorps  xmm0,xmm0
    324b:	f3 0f 10 88 00 00 00 	movss  xmm1,DWORD PTR [rax+0x0]
    3252:	00 
    3253:	0f 28 d1             	movaps xmm2,xmm1
    3256:	f3 0f 59 d1          	mulss  xmm2,xmm1
    325a:	0f 57 db             	xorps  xmm3,xmm3
    325d:	f3 0f c2 98 00 00 00 	cmpltss xmm3,DWORD PTR [rax+0x0]
    3264:	00 01 
    3266:	0f 28 e3             	movaps xmm4,xmm3
    3269:	0f 55 e0             	andnps xmm4,xmm0
    326c:	0f 54 da             	andps  xmm3,xmm2
    326f:	0f 56 dc             	orps   xmm3,xmm4
    3272:	f3 0f 10 80 00 00 00 	movss  xmm0,DWORD PTR [rax+0x0]
    3279:	00 
    327a:	f3 0f 59 c3          	mulss  xmm0,xmm3
    327e:	f3 0f 58 c1          	addss  xmm0,xmm1
    3282:	f3 0f 11 80 00 00 00 	movss  DWORD PTR [rax+0x0],xmm0
    3289:	00 
    328a:	0f 28 c3             	movaps xmm0,xmm3
    328d:	f3 0f 58 dd          	addss  xmm3,xmm5
    3291:	f3 0f 59 98 00 00 00 	mulss  xmm3,DWORD PTR [rax+0x0]
    3298:	00 
    3299:	f3 0f 11 98 00 00 00 	movss  DWORD PTR [rax+0x0],xmm3
    32a0:	00 
    32a1:	48 83 c0 04          	add    rax,0x4
    32a5:	75 a4                	jne    324b <s258+0x2f>
    32a7:	bf 00 00 00 00       	mov    edi,0x0
    32ac:	be 00 00 00 00       	mov    esi,0x0
    32b1:	ba 00 00 00 00       	mov    edx,0x0
    32b6:	b9 00 00 00 00       	mov    ecx,0x0
    32bb:	41 b8 00 00 00 00    	mov    r8d,0x0
    32c1:	41 b9 00 00 00 00    	mov    r9d,0x0
    32c7:	0f 57 c0             	xorps  xmm0,xmm0
    32ca:	68 00 00 00 00       	push   0x0
    32cf:	68 00 00 00 00       	push   0x0
    32d4:	e8 00 00 00 00       	call   32d9 <s258+0xbd>
    32d9:	f3 0f 10 2d 00 00 00 	movss  xmm5,DWORD PTR [rip+0x0]        # 32e1 <s258+0xc5>
    32e0:	00 
    32e1:	48 83 c4 10          	add    rsp,0x10
    32e5:	ff c3                	inc    ebx
    32e7:	81 fb a0 86 01 00    	cmp    ebx,0x186a0
    32ed:	0f 85 4e ff ff ff    	jne    3241 <s258+0x25>
    32f3:	49 83 c6 10          	add    r14,0x10
    32f7:	4c 89 f7             	mov    rdi,r14
    32fa:	31 f6                	xor    esi,esi
    32fc:	e8 00 00 00 00       	call   3301 <s258+0xe5>
    3301:	bf 00 00 00 00       	mov    edi,0x0
    3306:	48 83 c4 08          	add    rsp,0x8
    330a:	5b                   	pop    rbx
    330b:	41 5e                	pop    r14
    330d:	e9 00 00 00 00       	jmp    3312 <s261>

0000000000003312 <s261>:
    3312:	41 56                	push   r14
    3314:	53                   	push   rbx
    3315:	50                   	push   rax
    3316:	49 89 fe             	mov    r14,rdi
    3319:	bf 00 00 00 00       	mov    edi,0x0
    331e:	e8 00 00 00 00       	call   3323 <s261+0x11>
    3323:	31 db                	xor    ebx,ebx
    3325:	4c 89 f7             	mov    rdi,r14
    3328:	31 f6                	xor    esi,esi
    332a:	e8 00 00 00 00       	call   332f <s261+0x1d>
    332f:	48 c7 c0 04 0c fe ff 	mov    rax,0xfffffffffffe0c04
    3336:	f3 0f 10 05 00 00 00 	movss  xmm0,DWORD PTR [rip+0x0]        # 333e <s261+0x2c>
    333d:	00 
    333e:	f3 0f 10 88 00 00 00 	movss  xmm1,DWORD PTR [rax+0x0]
    3345:	00 
    3346:	f3 0f 58 88 00 00 00 	addss  xmm1,DWORD PTR [rax+0x0]
    334d:	00 
    334e:	f3 0f 58 c8          	addss  xmm1,xmm0
    3352:	f3 0f 11 88 00 00 00 	movss  DWORD PTR [rax+0x0],xmm1
    3359:	00 
    335a:	f3 0f 10 80 00 00 00 	movss  xmm0,DWORD PTR [rax+0x0]
    3361:	00 
    3362:	f3 0f 59 80 00 00 00 	mulss  xmm0,DWORD PTR [rax+0x0]
    3369:	00 
    336a:	f3 0f 11 80 00 00 00 	movss  DWORD PTR [rax+0x0],xmm0
    3371:	00 
    3372:	48 83 c0 04          	add    rax,0x4
    3376:	75 c6                	jne    333e <s261+0x2c>
    3378:	bf 00 00 00 00       	mov    edi,0x0
    337d:	be 00 00 00 00       	mov    esi,0x0
    3382:	ba 00 00 00 00       	mov    edx,0x0
    3387:	b9 00 00 00 00       	mov    ecx,0x0
    338c:	41 b8 00 00 00 00    	mov    r8d,0x0
    3392:	41 b9 00 00 00 00    	mov    r9d,0x0
    3398:	0f 57 c0             	xorps  xmm0,xmm0
    339b:	68 00 00 00 00       	push   0x0
    33a0:	68 00 00 00 00       	push   0x0
    33a5:	e8 00 00 00 00       	call   33aa <s261+0x98>
    33aa:	48 83 c4 10          	add    rsp,0x10
    33ae:	ff c3                	inc    ebx
    33b0:	81 fb a0 86 01 00    	cmp    ebx,0x186a0
    33b6:	0f 85 73 ff ff ff    	jne    332f <s261+0x1d>
    33bc:	49 83 c6 10          	add    r14,0x10
    33c0:	4c 89 f7             	mov    rdi,r14
    33c3:	31 f6                	xor    esi,esi
    33c5:	e8 00 00 00 00       	call   33ca <s261+0xb8>
    33ca:	bf 00 00 00 00       	mov    edi,0x0
    33cf:	48 83 c4 08          	add    rsp,0x8
    33d3:	5b                   	pop    rbx
    33d4:	41 5e                	pop    r14
    33d6:	e9 00 00 00 00       	jmp    33db <s271>

00000000000033db <s271>:
    33db:	41 56                	push   r14
    33dd:	53                   	push   rbx
    33de:	50                   	push   rax
    33df:	49 89 fe             	mov    r14,rdi
    33e2:	bf 00 00 00 00       	mov    edi,0x0
    33e7:	e8 00 00 00 00       	call   33ec <s271+0x11>
    33ec:	31 db                	xor    ebx,ebx
    33ee:	4c 89 f7             	mov    rdi,r14
    33f1:	31 f6                	xor    esi,esi
    33f3:	e8 00 00 00 00       	call   33f8 <s271+0x1d>
    33f8:	0f 57 c9             	xorps  xmm1,xmm1
    33fb:	48 c7 c0 00 0c fe ff 	mov    rax,0xfffffffffffe0c00
    3402:	f3 0f 10 80 00 00 00 	movss  xmm0,DWORD PTR [rax+0x0]
    3409:	00 
    340a:	0f 2e c1             	ucomiss xmm0,xmm1
    340d:	76 18                	jbe    3427 <s271+0x4c>
    340f:	f3 0f 59 80 00 00 00 	mulss  xmm0,DWORD PTR [rax+0x0]
    3416:	00 
    3417:	f3 0f 58 80 00 00 00 	addss  xmm0,DWORD PTR [rax+0x0]
    341e:	00 
    341f:	f3 0f 11 80 00 00 00 	movss  DWORD PTR [rax+0x0],xmm0
    3426:	00 
    3427:	48 83 c0 04          	add    rax,0x4
    342b:	75 d5                	jne    3402 <s271+0x27>
    342d:	bf 00 00 00 00       	mov    edi,0x0
    3432:	be 00 00 00 00       	mov    esi,0x0
    3437:	ba 00 00 00 00       	mov    edx,0x0
    343c:	b9 00 00 00 00       	mov    ecx,0x0
    3441:	41 b8 00 00 00 00    	mov    r8d,0x0
    3447:	41 b9 00 00 00 00    	mov    r9d,0x0
    344d:	0f 57 c0             	xorps  xmm0,xmm0
    3450:	68 00 00 00 00       	push   0x0
    3455:	68 00 00 00 00       	push   0x0
    345a:	e8 00 00 00 00       	call   345f <s271+0x84>
    345f:	0f 57 c9             	xorps  xmm1,xmm1
    3462:	48 83 c4 10          	add    rsp,0x10
    3466:	ff c3                	inc    ebx
    3468:	81 fb 80 1a 06 00    	cmp    ebx,0x61a80
    346e:	75 8b                	jne    33fb <s271+0x20>
    3470:	49 83 c6 10          	add    r14,0x10
    3474:	4c 89 f7             	mov    rdi,r14
    3477:	31 f6                	xor    esi,esi
    3479:	e8 00 00 00 00       	call   347e <s271+0xa3>
    347e:	bf 00 00 00 00       	mov    edi,0x0
    3483:	48 83 c4 08          	add    rsp,0x8
    3487:	5b                   	pop    rbx
    3488:	41 5e                	pop    r14
    348a:	e9 00 00 00 00       	jmp    348f <s272>

000000000000348f <s272>:
    348f:	41 56                	push   r14
    3491:	53                   	push   rbx
    3492:	50                   	push   rax
    3493:	49 89 fe             	mov    r14,rdi
    3496:	48 8b 47 20          	mov    rax,QWORD PTR [rdi+0x20]
    349a:	f3 0f 2a 00          	cvtsi2ss xmm0,DWORD PTR [rax]
    349e:	f3 0f 11 44 24 04    	movss  DWORD PTR [rsp+0x4],xmm0
    34a4:	bf 00 00 00 00       	mov    edi,0x0
    34a9:	e8 00 00 00 00       	call   34ae <s272+0x1f>
    34ae:	31 db                	xor    ebx,ebx
    34b0:	4c 89 f7             	mov    rdi,r14
    34b3:	31 f6                	xor    esi,esi
    34b5:	e8 00 00 00 00       	call   34ba <s272+0x2b>
    34ba:	48 c7 c0 00 0c fe ff 	mov    rax,0xfffffffffffe0c00
    34c1:	f3 0f 10 54 24 04    	movss  xmm2,DWORD PTR [rsp+0x4]
    34c7:	f3 0f 10 80 00 00 00 	movss  xmm0,DWORD PTR [rax+0x0]
    34ce:	00 
    34cf:	0f 2e c2             	ucomiss xmm0,xmm2
    34d2:	72 38                	jb     350c <s272+0x7d>
    34d4:	f3 0f 10 80 00 00 00 	movss  xmm0,DWORD PTR [rax+0x0]
    34db:	00 
    34dc:	f3 0f 10 88 00 00 00 	movss  xmm1,DWORD PTR [rax+0x0]
    34e3:	00 
    34e4:	f3 0f 59 c8          	mulss  xmm1,xmm0
    34e8:	f3 0f 58 88 00 00 00 	addss  xmm1,DWORD PTR [rax+0x0]
    34ef:	00 
    34f0:	f3 0f 11 88 00 00 00 	movss  DWORD PTR [rax+0x0],xmm1
    34f7:	00 
    34f8:	f3 0f 59 c0          	mulss  xmm0,xmm0
    34fc:	f3 0f 58 80 00 00 00 	addss  xmm0,DWORD PTR [rax+0x0]
    3503:	00 
    3504:	f3 0f 11 80 00 00 00 	movss  DWORD PTR [rax+0x0],xmm0
    350b:	00 
    350c:	48 83 c0 04          	add    rax,0x4
    3510:	75 b5                	jne    34c7 <s272+0x38>
    3512:	bf 00 00 00 00       	mov    edi,0x0
    3517:	be 00 00 00 00       	mov    esi,0x0
    351c:	ba 00 00 00 00       	mov    edx,0x0
    3521:	b9 00 00 00 00       	mov    ecx,0x0
    3526:	41 b8 00 00 00 00    	mov    r8d,0x0
    352c:	41 b9 00 00 00 00    	mov    r9d,0x0
    3532:	0f 57 c0             	xorps  xmm0,xmm0
    3535:	68 00 00 00 00       	push   0x0
    353a:	68 00 00 00 00       	push   0x0
    353f:	e8 00 00 00 00       	call   3544 <s272+0xb5>
    3544:	48 83 c4 10          	add    rsp,0x10
    3548:	ff c3                	inc    ebx
    354a:	81 fb a0 86 01 00    	cmp    ebx,0x186a0
    3550:	0f 85 64 ff ff ff    	jne    34ba <s272+0x2b>
    3556:	49 83 c6 10          	add    r14,0x10
    355a:	4c 89 f7             	mov    rdi,r14
    355d:	31 f6                	xor    esi,esi
    355f:	e8 00 00 00 00       	call   3564 <s272+0xd5>
    3564:	bf 00 00 00 00       	mov    edi,0x0
    3569:	48 83 c4 08          	add    rsp,0x8
    356d:	5b                   	pop    rbx
    356e:	41 5e                	pop    r14
    3570:	e9 00 00 00 00       	jmp    3575 <s273>

0000000000003575 <s273>:
    3575:	41 56                	push   r14
    3577:	53                   	push   rbx
    3578:	50                   	push   rax
    3579:	49 89 fe             	mov    r14,rdi
    357c:	bf 00 00 00 00       	mov    edi,0x0
    3581:	e8 00 00 00 00       	call   3586 <s273+0x11>
    3586:	31 db                	xor    ebx,ebx
    3588:	4c 89 f7             	mov    rdi,r14
    358b:	31 f6                	xor    esi,esi
    358d:	e8 00 00 00 00       	call   3592 <s273+0x1d>
    3592:	0f 57 db             	xorps  xmm3,xmm3
    3595:	48 c7 c0 00 0c fe ff 	mov    rax,0xfffffffffffe0c00
    359c:	f3 0f 10 80 00 00 00 	movss  xmm0,DWORD PTR [rax+0x0]
    35a3:	00 
    35a4:	f3 0f 10 90 00 00 00 	movss  xmm2,DWORD PTR [rax+0x0]
    35ab:	00 
    35ac:	f3 0f 59 d0          	mulss  xmm2,xmm0
    35b0:	f3 0f 10 88 00 00 00 	movss  xmm1,DWORD PTR [rax+0x0]
    35b7:	00 
    35b8:	f3 0f 58 ca          	addss  xmm1,xmm2
    35bc:	f3 0f 11 88 00 00 00 	movss  DWORD PTR [rax+0x0],xmm1
    35c3:	00 
    35c4:	0f 2e d9             	ucomiss xmm3,xmm1
    35c7:	76 10                	jbe    35d9 <s273+0x64>
    35c9:	f3 0f 58 90 00 00 00 	addss  xmm2,DWORD PTR [rax+0x0]
    35d0:	00 
    35d1:	f3 0f 11 90 00 00 00 	movss  DWORD PTR [rax+0x0],xmm2
    35d8:	00 
    35d9:	f3 0f 59 c1          	mulss  xmm0,xmm1
    35dd:	f3 0f 58 80 00 00 00 	addss  xmm0,DWORD PTR [rax+0x0]
    35e4:	00 
    35e5:	f3 0f 11 80 00 00 00 	movss  DWORD PTR [rax+0x0],xmm0
    35ec:	00 
    35ed:	48 83 c0 04          	add    rax,0x4
    35f1:	75 a9                	jne    359c <s273+0x27>
    35f3:	bf 00 00 00 00       	mov    edi,0x0
    35f8:	be 00 00 00 00       	mov    esi,0x0
    35fd:	ba 00 00 00 00       	mov    edx,0x0
    3602:	b9 00 00 00 00       	mov    ecx,0x0
    3607:	41 b8 00 00 00 00    	mov    r8d,0x0
    360d:	41 b9 00 00 00 00    	mov    r9d,0x0
    3613:	0f 57 c0             	xorps  xmm0,xmm0
    3616:	68 00 00 00 00       	push   0x0
    361b:	68 00 00 00 00       	push   0x0
    3620:	e8 00 00 00 00       	call   3625 <s273+0xb0>
    3625:	0f 57 db             	xorps  xmm3,xmm3
    3628:	48 83 c4 10          	add    rsp,0x10
    362c:	ff c3                	inc    ebx
    362e:	81 fb a0 86 01 00    	cmp    ebx,0x186a0
    3634:	0f 85 5b ff ff ff    	jne    3595 <s273+0x20>
    363a:	49 83 c6 10          	add    r14,0x10
    363e:	4c 89 f7             	mov    rdi,r14
    3641:	31 f6                	xor    esi,esi
    3643:	e8 00 00 00 00       	call   3648 <s273+0xd3>
    3648:	bf 00 00 00 00       	mov    edi,0x0
    364d:	48 83 c4 08          	add    rsp,0x8
    3651:	5b                   	pop    rbx
    3652:	41 5e                	pop    r14
    3654:	e9 00 00 00 00       	jmp    3659 <s274>

0000000000003659 <s274>:
    3659:	41 56                	push   r14
    365b:	53                   	push   rbx
    365c:	50                   	push   rax
    365d:	49 89 fe             	mov    r14,rdi
    3660:	bf 00 00 00 00       	mov    edi,0x0
    3665:	e8 00 00 00 00       	call   366a <s274+0x11>
    366a:	31 db                	xor    ebx,ebx
    366c:	4c 89 f7             	mov    rdi,r14
    366f:	31 f6                	xor    esi,esi
    3671:	e8 00 00 00 00       	call   3676 <s274+0x1d>
    3676:	0f 57 d2             	xorps  xmm2,xmm2
    3679:	48 c7 c0 00 0c fe ff 	mov    rax,0xfffffffffffe0c00
    3680:	f3 0f 10 80 00 00 00 	movss  xmm0,DWORD PTR [rax+0x0]
    3687:	00 
    3688:	f3 0f 59 80 00 00 00 	mulss  xmm0,DWORD PTR [rax+0x0]
    368f:	00 
    3690:	f3 0f 10 88 00 00 00 	movss  xmm1,DWORD PTR [rax+0x0]
    3697:	00 
    3698:	f3 0f 58 c8          	addss  xmm1,xmm0
    369c:	f3 0f 11 88 00 00 00 	movss  DWORD PTR [rax+0x0],xmm1
    36a3:	00 
    36a4:	0f 2e ca             	ucomiss xmm1,xmm2
    36a7:	76 12                	jbe    36bb <s274+0x62>
    36a9:	f3 0f 58 88 00 00 00 	addss  xmm1,DWORD PTR [rax+0x0]
    36b0:	00 
    36b1:	f3 0f 11 88 00 00 00 	movss  DWORD PTR [rax+0x0],xmm1
    36b8:	00 
    36b9:	eb 08                	jmp    36c3 <s274+0x6a>
    36bb:	f3 0f 11 80 00 00 00 	movss  DWORD PTR [rax+0x0],xmm0
    36c2:	00 
    36c3:	48 83 c0 04          	add    rax,0x4
    36c7:	75 b7                	jne    3680 <s274+0x27>
    36c9:	bf 00 00 00 00       	mov    edi,0x0
    36ce:	be 00 00 00 00       	mov    esi,0x0
    36d3:	ba 00 00 00 00       	mov    edx,0x0
    36d8:	b9 00 00 00 00       	mov    ecx,0x0
    36dd:	41 b8 00 00 00 00    	mov    r8d,0x0
    36e3:	41 b9 00 00 00 00    	mov    r9d,0x0
    36e9:	0f 57 c0             	xorps  xmm0,xmm0
    36ec:	68 00 00 00 00       	push   0x0
    36f1:	68 00 00 00 00       	push   0x0
    36f6:	e8 00 00 00 00       	call   36fb <s274+0xa2>
    36fb:	0f 57 d2             	xorps  xmm2,xmm2
    36fe:	48 83 c4 10          	add    rsp,0x10
    3702:	ff c3                	inc    ebx
    3704:	81 fb a0 86 01 00    	cmp    ebx,0x186a0
    370a:	0f 85 69 ff ff ff    	jne    3679 <s274+0x20>
    3710:	49 83 c6 10          	add    r14,0x10
    3714:	4c 89 f7             	mov    rdi,r14
    3717:	31 f6                	xor    esi,esi
    3719:	e8 00 00 00 00       	call   371e <s274+0xc5>
    371e:	bf 00 00 00 00       	mov    edi,0x0
    3723:	48 83 c4 08          	add    rsp,0x8
    3727:	5b                   	pop    rbx
    3728:	41 5e                	pop    r14
    372a:	e9 00 00 00 00       	jmp    372f <s275>

000000000000372f <s275>:
    372f:	41 56                	push   r14
    3731:	53                   	push   rbx
    3732:	50                   	push   rax
    3733:	49 89 fe             	mov    r14,rdi
    3736:	bf 00 00 00 00       	mov    edi,0x0
    373b:	e8 00 00 00 00       	call   3740 <s275+0x11>
    3740:	31 db                	xor    ebx,ebx
    3742:	4c 89 f7             	mov    rdi,r14
    3745:	31 f6                	xor    esi,esi
    3747:	e8 00 00 00 00       	call   374c <s275+0x1d>
    374c:	0f 57 d2             	xorps  xmm2,xmm2
    374f:	b8 00 04 00 00       	mov    eax,0x400
    3754:	31 c9                	xor    ecx,ecx
    3756:	f3 0f 10 04 8d 00 00 	movss  xmm0,DWORD PTR [rcx*4+0x0]
    375d:	00 00 
    375f:	0f 2e c2             	ucomiss xmm0,xmm2
    3762:	76 2f                	jbe    3793 <s275+0x64>
    3764:	48 c7 c2 00 04 fc ff 	mov    rdx,0xfffffffffffc0400
    376b:	f3 0f 10 8c 10 00 00 	movss  xmm1,DWORD PTR [rax+rdx*1+0x0]
    3772:	00 00 
    3774:	f3 0f 59 8c 10 00 00 	mulss  xmm1,DWORD PTR [rax+rdx*1+0x0]
    377b:	00 00 
    377d:	f3 0f 58 c1          	addss  xmm0,xmm1
    3781:	f3 0f 11 84 10 00 00 	movss  DWORD PTR [rax+rdx*1+0x0],xmm0
    3788:	00 00 
    378a:	48 81 c2 00 04 00 00 	add    rdx,0x400
    3791:	75 d8                	jne    376b <s275+0x3c>
    3793:	48 ff c1             	inc    rcx
    3796:	48 83 c0 04          	add    rax,0x4
    379a:	48 81 f9 00 01 00 00 	cmp    rcx,0x100
    37a1:	75 b3                	jne    3756 <s275+0x27>
    37a3:	bf 00 00 00 00       	mov    edi,0x0
    37a8:	be 00 00 00 00       	mov    esi,0x0
    37ad:	ba 00 00 00 00       	mov    edx,0x0
    37b2:	b9 00 00 00 00       	mov    ecx,0x0
    37b7:	41 b8 00 00 00 00    	mov    r8d,0x0
    37bd:	41 b9 00 00 00 00    	mov    r9d,0x0
    37c3:	0f 57 c0             	xorps  xmm0,xmm0
    37c6:	68 00 00 00 00       	push   0x0
    37cb:	68 00 00 00 00       	push   0x0
    37d0:	e8 00 00 00 00       	call   37d5 <s275+0xa6>
    37d5:	0f 57 d2             	xorps  xmm2,xmm2
    37d8:	48 83 c4 10          	add    rsp,0x10
    37dc:	ff c3                	inc    ebx
    37de:	81 fb 3c 0f 00 00    	cmp    ebx,0xf3c
    37e4:	0f 85 65 ff ff ff    	jne    374f <s275+0x20>
    37ea:	49 83 c6 10          	add    r14,0x10
    37ee:	4c 89 f7             	mov    rdi,r14
    37f1:	31 f6                	xor    esi,esi
    37f3:	e8 00 00 00 00       	call   37f8 <s275+0xc9>
    37f8:	bf 00 00 00 00       	mov    edi,0x0
    37fd:	48 83 c4 08          	add    rsp,0x8
    3801:	5b                   	pop    rbx
    3802:	41 5e                	pop    r14
    3804:	e9 00 00 00 00       	jmp    3809 <s2275>

0000000000003809 <s2275>:
    3809:	41 56                	push   r14
    380b:	53                   	push   rbx
    380c:	50                   	push   rax
    380d:	49 89 fe             	mov    r14,rdi
    3810:	bf 00 00 00 00       	mov    edi,0x0
    3815:	e8 00 00 00 00       	call   381a <s2275+0x11>
    381a:	31 db                	xor    ebx,ebx
    381c:	4c 89 f7             	mov    rdi,r14
    381f:	31 f6                	xor    esi,esi
    3821:	e8 00 00 00 00       	call   3826 <s2275+0x1d>
    3826:	31 c0                	xor    eax,eax
    3828:	31 c9                	xor    ecx,ecx
    382a:	48 c7 c2 00 00 fc ff 	mov    rdx,0xfffffffffffc0000
    3831:	f3 0f 10 84 10 00 00 	movss  xmm0,DWORD PTR [rax+rdx*1+0x0]
    3838:	00 00 
    383a:	f3 0f 59 84 10 00 00 	mulss  xmm0,DWORD PTR [rax+rdx*1+0x0]
    3841:	00 00 
    3843:	f3 0f 58 84 10 00 00 	addss  xmm0,DWORD PTR [rax+rdx*1+0x0]
    384a:	00 00 
    384c:	f3 0f 11 84 10 00 00 	movss  DWORD PTR [rax+rdx*1+0x0],xmm0
    3853:	00 00 
    3855:	48 81 c2 00 04 00 00 	add    rdx,0x400
    385c:	75 d3                	jne    3831 <s2275+0x28>
    385e:	f3 0f 10 04 8d 00 00 	movss  xmm0,DWORD PTR [rcx*4+0x0]
    3865:	00 00 
    3867:	f3 0f 59 04 8d 00 00 	mulss  xmm0,DWORD PTR [rcx*4+0x0]
    386e:	00 00 
    3870:	f3 0f 58 04 8d 00 00 	addss  xmm0,DWORD PTR [rcx*4+0x0]
    3877:	00 00 
    3879:	f3 0f 11 04 8d 00 00 	movss  DWORD PTR [rcx*4+0x0],xmm0
    3880:	00 00 
    3882:	48 ff c1             	inc    rcx
    3885:	48 83 c0 04          	add    rax,0x4
    3889:	48 81 f9 00 01 00 00 	cmp    rcx,0x100
    3890:	75 98                	jne    382a <s2275+0x21>
    3892:	bf 00 00 00 00       	mov    edi,0x0
    3897:	be 00 00 00 00       	mov    esi,0x0
    389c:	ba 00 00 00 00       	mov    edx,0x0
    38a1:	b9 00 00 00 00       	mov    ecx,0x0
    38a6:	41 b8 00 00 00 00    	mov    r8d,0x0
    38ac:	41 b9 00 00 00 00    	mov    r9d,0x0
    38b2:	0f 57 c0             	xorps  xmm0,xmm0
    38b5:	68 00 00 00 00       	push   0x0
    38ba:	68 00 00 00 00       	push   0x0
    38bf:	e8 00 00 00 00       	call   38c4 <s2275+0xbb>
    38c4:	48 83 c4 10          	add    rsp,0x10
    38c8:	ff c3                	inc    ebx
    38ca:	81 fb 58 98 00 00    	cmp    ebx,0x9858
    38d0:	0f 85 50 ff ff ff    	jne    3826 <s2275+0x1d>
    38d6:	49 83 c6 10          	add    r14,0x10
    38da:	4c 89 f7             	mov    rdi,r14
    38dd:	31 f6                	xor    esi,esi
    38df:	e8 00 00 00 00       	call   38e4 <s2275+0xdb>
    38e4:	bf 00 00 00 00       	mov    edi,0x0
    38e9:	48 83 c4 08          	add    rsp,0x8
    38ed:	5b                   	pop    rbx
    38ee:	41 5e                	pop    r14
    38f0:	e9 00 00 00 00       	jmp    38f5 <s276>

00000000000038f5 <s276>:
    38f5:	41 57                	push   r15
    38f7:	41 56                	push   r14
    38f9:	53                   	push   rbx
    38fa:	49 89 fe             	mov    r14,rdi
    38fd:	bf 00 00 00 00       	mov    edi,0x0
    3902:	e8 00 00 00 00       	call   3907 <s276+0x12>
    3907:	45 31 ff             	xor    r15d,r15d
    390a:	4c 89 f7             	mov    rdi,r14
    390d:	31 f6                	xor    esi,esi
    390f:	e8 00 00 00 00       	call   3914 <s276+0x1f>
    3914:	bb 00 00 00 00       	mov    ebx,0x0
    3919:	31 c0                	xor    eax,eax
    391b:	48 3d 7f 3e 00 00    	cmp    rax,0x3e7f
    3921:	f3 0f 10 04 85 00 00 	movss  xmm0,DWORD PTR [rax*4+0x0]
    3928:	00 00 
    392a:	b9 00 00 00 00       	mov    ecx,0x0
    392f:	48 0f 42 cb          	cmovb  rcx,rbx
    3933:	f3 0f 59 04 81       	mulss  xmm0,DWORD PTR [rcx+rax*4]
    3938:	f3 0f 58 04 85 00 00 	addss  xmm0,DWORD PTR [rax*4+0x0]
    393f:	00 00 
    3941:	f3 0f 11 04 85 00 00 	movss  DWORD PTR [rax*4+0x0],xmm0
    3948:	00 00 
    394a:	48 8d 48 01          	lea    rcx,[rax+0x1]
    394e:	48 89 c8             	mov    rax,rcx
    3951:	48 81 f9 00 7d 00 00 	cmp    rcx,0x7d00
    3958:	75 c1                	jne    391b <s276+0x26>
    395a:	bf 00 00 00 00       	mov    edi,0x0
    395f:	be 00 00 00 00       	mov    esi,0x0
    3964:	ba 00 00 00 00       	mov    edx,0x0
    3969:	b9 00 00 00 00       	mov    ecx,0x0
    396e:	41 b8 00 00 00 00    	mov    r8d,0x0
    3974:	41 b9 00 00 00 00    	mov    r9d,0x0
    397a:	0f 57 c0             	xorps  xmm0,xmm0
    397d:	68 00 00 00 00       	push   0x0
    3982:	68 00 00 00 00       	push   0x0
    3987:	e8 00 00 00 00       	call   398c <s276+0x97>
    398c:	48 83 c4 10          	add    rsp,0x10
    3990:	41 ff c7             	inc    r15d
    3993:	41 81 ff 80 1a 06 00 	cmp    r15d,0x61a80
    399a:	0f 85 79 ff ff ff    	jne    3919 <s276+0x24>
    39a0:	49 83 c6 10          	add    r14,0x10
    39a4:	4c 89 f7             	mov    rdi,r14
    39a7:	31 f6                	xor    esi,esi
    39a9:	e8 00 00 00 00       	call   39ae <s276+0xb9>
    39ae:	bf 00 00 00 00       	mov    edi,0x0
    39b3:	5b                   	pop    rbx
    39b4:	41 5e                	pop    r14
    39b6:	41 5f                	pop    r15
    39b8:	e9 00 00 00 00       	jmp    39bd <s277>

00000000000039bd <s277>:
    39bd:	41 56                	push   r14
    39bf:	53                   	push   rbx
    39c0:	50                   	push   rax
    39c1:	49 89 fe             	mov    r14,rdi
    39c4:	bf 00 00 00 00       	mov    edi,0x0
    39c9:	e8 00 00 00 00       	call   39ce <s277+0x11>
    39ce:	31 db                	xor    ebx,ebx
    39d0:	4c 89 f7             	mov    rdi,r14
    39d3:	31 f6                	xor    esi,esi
    39d5:	e8 00 00 00 00       	call   39da <s277+0x1d>
    39da:	0f 57 e4             	xorps  xmm4,xmm4
    39dd:	31 c0                	xor    eax,eax
    39df:	f3 0f 10 04 85 00 00 	movss  xmm0,DWORD PTR [rax*4+0x0]
    39e6:	00 00 
    39e8:	0f 2e c4             	ucomiss xmm0,xmm4
    39eb:	73 4a                	jae    3a37 <s277+0x7a>
    39ed:	f3 0f 10 0c 85 00 00 	movss  xmm1,DWORD PTR [rax*4+0x0]
    39f4:	00 00 
    39f6:	0f 2e cc             	ucomiss xmm1,xmm4
    39f9:	f3 0f 10 0c 85 00 00 	movss  xmm1,DWORD PTR [rax*4+0x0]
    3a00:	00 00 
    3a02:	f3 0f 10 14 85 00 00 	movss  xmm2,DWORD PTR [rax*4+0x0]
    3a09:	00 00 
    3a0b:	73 14                	jae    3a21 <s277+0x64>
    3a0d:	0f 28 d9             	movaps xmm3,xmm1
    3a10:	f3 0f 59 da          	mulss  xmm3,xmm2
    3a14:	f3 0f 58 c3          	addss  xmm0,xmm3
    3a18:	f3 0f 11 04 85 00 00 	movss  DWORD PTR [rax*4+0x0],xmm0
    3a1f:	00 00 
    3a21:	f3 0f 59 14 85 00 00 	mulss  xmm2,DWORD PTR [rax*4+0x0]
    3a28:	00 00 
    3a2a:	f3 0f 58 ca          	addss  xmm1,xmm2
    3a2e:	f3 0f 11 0c 85 00 00 	movss  DWORD PTR [rax*4+0x0],xmm1
    3a35:	00 00 
    3a37:	48 ff c0             	inc    rax
    3a3a:	48 3d ff 7c 00 00    	cmp    rax,0x7cff
    3a40:	75 9d                	jne    39df <s277+0x22>
    3a42:	bf 00 00 00 00       	mov    edi,0x0
    3a47:	be 00 00 00 00       	mov    esi,0x0
    3a4c:	ba 00 00 00 00       	mov    edx,0x0
    3a51:	b9 00 00 00 00       	mov    ecx,0x0
    3a56:	41 b8 00 00 00 00    	mov    r8d,0x0
    3a5c:	41 b9 00 00 00 00    	mov    r9d,0x0
    3a62:	0f 57 c0             	xorps  xmm0,xmm0
    3a65:	68 00 00 00 00       	push   0x0
    3a6a:	68 00 00 00 00       	push   0x0
    3a6f:	e8 00 00 00 00       	call   3a74 <s277+0xb7>
    3a74:	0f 57 e4             	xorps  xmm4,xmm4
    3a77:	48 83 c4 10          	add    rsp,0x10
    3a7b:	ff c3                	inc    ebx
    3a7d:	81 fb a0 86 01 00    	cmp    ebx,0x186a0
    3a83:	0f 85 54 ff ff ff    	jne    39dd <s277+0x20>
    3a89:	49 83 c6 10          	add    r14,0x10
    3a8d:	4c 89 f7             	mov    rdi,r14
    3a90:	31 f6                	xor    esi,esi
    3a92:	e8 00 00 00 00       	call   3a97 <s277+0xda>
    3a97:	bf 00 00 00 00       	mov    edi,0x0
    3a9c:	48 83 c4 08          	add    rsp,0x8
    3aa0:	5b                   	pop    rbx
    3aa1:	41 5e                	pop    r14
    3aa3:	e9 00 00 00 00       	jmp    3aa8 <s278>

0000000000003aa8 <s278>:
    3aa8:	41 56                	push   r14
    3aaa:	53                   	push   rbx
    3aab:	50                   	push   rax
    3aac:	49 89 fe             	mov    r14,rdi
    3aaf:	bf 00 00 00 00       	mov    edi,0x0
    3ab4:	e8 00 00 00 00       	call   3ab9 <s278+0x11>
    3ab9:	31 db                	xor    ebx,ebx
    3abb:	4c 89 f7             	mov    rdi,r14
    3abe:	31 f6                	xor    esi,esi
    3ac0:	e8 00 00 00 00       	call   3ac5 <s278+0x1d>
    3ac5:	0f 57 db             	xorps  xmm3,xmm3
    3ac8:	48 c7 c0 00 0c fe ff 	mov    rax,0xfffffffffffe0c00
    3acf:	f3 0f 10 80 00 00 00 	movss  xmm0,DWORD PTR [rax+0x0]
    3ad6:	00 
    3ad7:	0f 2e c3             	ucomiss xmm0,xmm3
    3ada:	76 2e                	jbe    3b0a <s278+0x62>
    3adc:	f3 0f 10 80 00 00 00 	movss  xmm0,DWORD PTR [rax+0x0]
    3ae3:	00 
    3ae4:	f3 0f 10 90 00 00 00 	movss  xmm2,DWORD PTR [rax+0x0]
    3aeb:	00 
    3aec:	f3 0f 59 d0          	mulss  xmm2,xmm0
    3af0:	f3 0f 5c 90 00 00 00 	subss  xmm2,DWORD PTR [rax+0x0]
    3af7:	00 
    3af8:	f3 0f 11 90 00 00 00 	movss  DWORD PTR [rax+0x0],xmm2
    3aff:	00 
    3b00:	f3 0f 10 88 00 00 00 	movss  xmm1,DWORD PTR [rax+0x0]
    3b07:	00 
    3b08:	eb 2c                	jmp    3b36 <s278+0x8e>
    3b0a:	f3 0f 10 80 00 00 00 	movss  xmm0,DWORD PTR [rax+0x0]
    3b11:	00 
    3b12:	f3 0f 10 88 00 00 00 	movss  xmm1,DWORD PTR [rax+0x0]
    3b19:	00 
    3b1a:	f3 0f 59 c8          	mulss  xmm1,xmm0
    3b1e:	f3 0f 5c 88 00 00 00 	subss  xmm1,DWORD PTR [rax+0x0]
    3b25:	00 
    3b26:	f3 0f 11 88 00 00 00 	movss  DWORD PTR [rax+0x0],xmm1
    3b2d:	00 
    3b2e:	f3 0f 10 90 00 00 00 	movss  xmm2,DWORD PTR [rax+0x0]
    3b35:	00 
    3b36:	f3 0f 59 c2          	mulss  xmm0,xmm2
    3b3a:	f3 0f 58 c1          	addss  xmm0,xmm1
    3b3e:	f3 0f 11 80 00 00 00 	movss  DWORD PTR [rax+0x0],xmm0
    3b45:	00 
    3b46:	48 83 c0 04          	add    rax,0x4
    3b4a:	75 83                	jne    3acf <s278+0x27>
    3b4c:	bf 00 00 00 00       	mov    edi,0x0
    3b51:	be 00 00 00 00       	mov    esi,0x0
    3b56:	ba 00 00 00 00       	mov    edx,0x0
    3b5b:	b9 00 00 00 00       	mov    ecx,0x0
    3b60:	41 b8 00 00 00 00    	mov    r8d,0x0
    3b66:	41 b9 00 00 00 00    	mov    r9d,0x0
    3b6c:	0f 57 c0             	xorps  xmm0,xmm0
    3b6f:	68 00 00 00 00       	push   0x0
    3b74:	68 00 00 00 00       	push   0x0
    3b79:	e8 00 00 00 00       	call   3b7e <s278+0xd6>
    3b7e:	0f 57 db             	xorps  xmm3,xmm3
    3b81:	48 83 c4 10          	add    rsp,0x10
    3b85:	ff c3                	inc    ebx
    3b87:	81 fb a0 86 01 00    	cmp    ebx,0x186a0
    3b8d:	0f 85 35 ff ff ff    	jne    3ac8 <s278+0x20>
    3b93:	49 83 c6 10          	add    r14,0x10
    3b97:	4c 89 f7             	mov    rdi,r14
    3b9a:	31 f6                	xor    esi,esi
    3b9c:	e8 00 00 00 00       	call   3ba1 <s278+0xf9>
    3ba1:	bf 00 00 00 00       	mov    edi,0x0
    3ba6:	48 83 c4 08          	add    rsp,0x8
    3baa:	5b                   	pop    rbx
    3bab:	41 5e                	pop    r14
    3bad:	e9 00 00 00 00       	jmp    3bb2 <s279>

0000000000003bb2 <s279>:
    3bb2:	41 56                	push   r14
    3bb4:	53                   	push   rbx
    3bb5:	50                   	push   rax
    3bb6:	49 89 fe             	mov    r14,rdi
    3bb9:	bf 00 00 00 00       	mov    edi,0x0
    3bbe:	e8 00 00 00 00       	call   3bc3 <s279+0x11>
    3bc3:	31 db                	xor    ebx,ebx
    3bc5:	4c 89 f7             	mov    rdi,r14
    3bc8:	31 f6                	xor    esi,esi
    3bca:	e8 00 00 00 00       	call   3bcf <s279+0x1d>
    3bcf:	0f 57 db             	xorps  xmm3,xmm3
    3bd2:	48 c7 c0 00 0c fe ff 	mov    rax,0xfffffffffffe0c00
    3bd9:	f3 0f 10 90 00 00 00 	movss  xmm2,DWORD PTR [rax+0x0]
    3be0:	00 
    3be1:	0f 2e d3             	ucomiss xmm2,xmm3
    3be4:	76 2e                	jbe    3c14 <s279+0x62>
    3be6:	f3 0f 10 90 00 00 00 	movss  xmm2,DWORD PTR [rax+0x0]
    3bed:	00 
    3bee:	f3 0f 59 d2          	mulss  xmm2,xmm2
    3bf2:	f3 0f 5c 90 00 00 00 	subss  xmm2,DWORD PTR [rax+0x0]
    3bf9:	00 
    3bfa:	f3 0f 11 90 00 00 00 	movss  DWORD PTR [rax+0x0],xmm2
    3c01:	00 
    3c02:	f3 0f 10 88 00 00 00 	movss  xmm1,DWORD PTR [rax+0x0]
    3c09:	00 
    3c0a:	f3 0f 10 80 00 00 00 	movss  xmm0,DWORD PTR [rax+0x0]
    3c11:	00 
    3c12:	eb 4a                	jmp    3c5e <s279+0xac>
    3c14:	f3 0f 10 80 00 00 00 	movss  xmm0,DWORD PTR [rax+0x0]
    3c1b:	00 
    3c1c:	0f 28 c8             	movaps xmm1,xmm0
    3c1f:	f3 0f 59 c8          	mulss  xmm1,xmm0
    3c23:	f3 0f 5c 88 00 00 00 	subss  xmm1,DWORD PTR [rax+0x0]
    3c2a:	00 
    3c2b:	f3 0f 11 88 00 00 00 	movss  DWORD PTR [rax+0x0],xmm1
    3c32:	00 
    3c33:	0f 2e d1             	ucomiss xmm2,xmm1
    3c36:	73 1e                	jae    3c56 <s279+0xa4>
    3c38:	f3 0f 10 90 00 00 00 	movss  xmm2,DWORD PTR [rax+0x0]
    3c3f:	00 
    3c40:	f3 0f 59 d0          	mulss  xmm2,xmm0
    3c44:	f3 0f 58 90 00 00 00 	addss  xmm2,DWORD PTR [rax+0x0]
    3c4b:	00 
    3c4c:	f3 0f 11 90 00 00 00 	movss  DWORD PTR [rax+0x0],xmm2
    3c53:	00 
    3c54:	eb 08                	jmp    3c5e <s279+0xac>
    3c56:	f3 0f 10 90 00 00 00 	movss  xmm2,DWORD PTR [rax+0x0]
    3c5d:	00 
    3c5e:	f3 0f 59 c2          	mulss  xmm0,xmm2
    3c62:	f3 0f 58 c1          	addss  xmm0,xmm1
    3c66:	f3 0f 11 80 00 00 00 	movss  DWORD PTR [rax+0x0],xmm0
    3c6d:	00 
    3c6e:	48 83 c0 04          	add    rax,0x4
    3c72:	0f 85 61 ff ff ff    	jne    3bd9 <s279+0x27>
    3c78:	bf 00 00 00 00       	mov    edi,0x0
    3c7d:	be 00 00 00 00       	mov    esi,0x0
    3c82:	ba 00 00 00 00       	mov    edx,0x0
    3c87:	b9 00 00 00 00       	mov    ecx,0x0
    3c8c:	41 b8 00 00 00 00    	mov    r8d,0x0
    3c92:	41 b9 00 00 00 00    	mov    r9d,0x0
    3c98:	0f 57 c0             	xorps  xmm0,xmm0
    3c9b:	68 00 00 00 00       	push   0x0
    3ca0:	68 00 00 00 00       	push   0x0
    3ca5:	e8 00 00 00 00       	call   3caa <s279+0xf8>
    3caa:	0f 57 db             	xorps  xmm3,xmm3
    3cad:	48 83 c4 10          	add    rsp,0x10
    3cb1:	ff c3                	inc    ebx
    3cb3:	81 fb 50 c3 00 00    	cmp    ebx,0xc350
    3cb9:	0f 85 13 ff ff ff    	jne    3bd2 <s279+0x20>
    3cbf:	49 83 c6 10          	add    r14,0x10
    3cc3:	4c 89 f7             	mov    rdi,r14
    3cc6:	31 f6                	xor    esi,esi
    3cc8:	e8 00 00 00 00       	call   3ccd <s279+0x11b>
    3ccd:	bf 00 00 00 00       	mov    edi,0x0
    3cd2:	48 83 c4 08          	add    rsp,0x8
    3cd6:	5b                   	pop    rbx
    3cd7:	41 5e                	pop    r14
    3cd9:	e9 00 00 00 00       	jmp    3cde <s1279>

0000000000003cde <s1279>:
    3cde:	41 56                	push   r14
    3ce0:	53                   	push   rbx
    3ce1:	50                   	push   rax
    3ce2:	49 89 fe             	mov    r14,rdi
    3ce5:	bf 00 00 00 00       	mov    edi,0x0
    3cea:	e8 00 00 00 00       	call   3cef <s1279+0x11>
    3cef:	31 db                	xor    ebx,ebx
    3cf1:	4c 89 f7             	mov    rdi,r14
    3cf4:	31 f6                	xor    esi,esi
    3cf6:	e8 00 00 00 00       	call   3cfb <s1279+0x1d>
    3cfb:	0f 57 d2             	xorps  xmm2,xmm2
    3cfe:	48 c7 c0 00 0c fe ff 	mov    rax,0xfffffffffffe0c00
    3d05:	f3 0f 10 80 00 00 00 	movss  xmm0,DWORD PTR [rax+0x0]
    3d0c:	00 
    3d0d:	0f 2e d0             	ucomiss xmm2,xmm0
    3d10:	76 2d                	jbe    3d3f <s1279+0x61>
    3d12:	f3 0f 10 88 00 00 00 	movss  xmm1,DWORD PTR [rax+0x0]
    3d19:	00 
    3d1a:	0f 2e c8             	ucomiss xmm1,xmm0
    3d1d:	76 20                	jbe    3d3f <s1279+0x61>
    3d1f:	f3 0f 10 80 00 00 00 	movss  xmm0,DWORD PTR [rax+0x0]
    3d26:	00 
    3d27:	f3 0f 59 80 00 00 00 	mulss  xmm0,DWORD PTR [rax+0x0]
    3d2e:	00 
    3d2f:	f3 0f 58 80 00 00 00 	addss  xmm0,DWORD PTR [rax+0x0]
    3d36:	00 
    3d37:	f3 0f 11 80 00 00 00 	movss  DWORD PTR [rax+0x0],xmm0
    3d3e:	00 
    3d3f:	48 83 c0 04          	add    rax,0x4
    3d43:	75 c0                	jne    3d05 <s1279+0x27>
    3d45:	bf 00 00 00 00       	mov    edi,0x0
    3d4a:	be 00 00 00 00       	mov    esi,0x0
    3d4f:	ba 00 00 00 00       	mov    edx,0x0
    3d54:	b9 00 00 00 00       	mov    ecx,0x0
    3d59:	41 b8 00 00 00 00    	mov    r8d,0x0
    3d5f:	41 b9 00 00 00 00    	mov    r9d,0x0
    3d65:	0f 57 c0             	xorps  xmm0,xmm0
    3d68:	68 00 00 00 00       	push   0x0
    3d6d:	68 00 00 00 00       	push   0x0
    3d72:	e8 00 00 00 00       	call   3d77 <s1279+0x99>
    3d77:	0f 57 d2             	xorps  xmm2,xmm2
    3d7a:	48 83 c4 10          	add    rsp,0x10
    3d7e:	ff c3                	inc    ebx
    3d80:	81 fb a0 86 01 00    	cmp    ebx,0x186a0
    3d86:	0f 85 72 ff ff ff    	jne    3cfe <s1279+0x20>
    3d8c:	49 83 c6 10          	add    r14,0x10
    3d90:	4c 89 f7             	mov    rdi,r14
    3d93:	31 f6                	xor    esi,esi
    3d95:	e8 00 00 00 00       	call   3d9a <s1279+0xbc>
    3d9a:	bf 00 00 00 00       	mov    edi,0x0
    3d9f:	48 83 c4 08          	add    rsp,0x8
    3da3:	5b                   	pop    rbx
    3da4:	41 5e                	pop    r14
    3da6:	e9 00 00 00 00       	jmp    3dab <s2710>

0000000000003dab <s2710>:
    3dab:	55                   	push   rbp
    3dac:	41 56                	push   r14
    3dae:	53                   	push   rbx
    3daf:	49 89 fe             	mov    r14,rdi
    3db2:	48 8b 47 20          	mov    rax,QWORD PTR [rdi+0x20]
    3db6:	8b 28                	mov    ebp,DWORD PTR [rax]
    3db8:	bf 00 00 00 00       	mov    edi,0x0
    3dbd:	e8 00 00 00 00       	call   3dc2 <s2710+0x17>
    3dc2:	31 db                	xor    ebx,ebx
    3dc4:	4c 89 f7             	mov    rdi,r14
    3dc7:	31 f6                	xor    esi,esi
    3dc9:	e8 00 00 00 00       	call   3dce <s2710+0x23>
    3dce:	48 c7 c0 00 0c fe ff 	mov    rax,0xfffffffffffe0c00
    3dd5:	f3 0f 10 80 00 00 00 	movss  xmm0,DWORD PTR [rax+0x0]
    3ddc:	00 
    3ddd:	f3 0f 10 88 00 00 00 	movss  xmm1,DWORD PTR [rax+0x0]
    3de4:	00 
    3de5:	0f 2e c1             	ucomiss xmm0,xmm1
    3de8:	76 2e                	jbe    3e18 <s2710+0x6d>
    3dea:	f3 0f 10 90 00 00 00 	movss  xmm2,DWORD PTR [rax+0x0]
    3df1:	00 
    3df2:	f3 0f 59 ca          	mulss  xmm1,xmm2
    3df6:	f3 0f 58 c1          	addss  xmm0,xmm1
    3dfa:	f3 0f 11 80 00 00 00 	movss  DWORD PTR [rax+0x0],xmm0
    3e01:	00 
    3e02:	f3 0f 59 d2          	mulss  xmm2,xmm2
    3e06:	f3 0f 58 90 00 00 00 	addss  xmm2,DWORD PTR [rax+0x0]
    3e0d:	00 
    3e0e:	f3 0f 11 90 00 00 00 	movss  DWORD PTR [rax+0x0],xmm2
    3e15:	00 
    3e16:	eb 49                	jmp    3e61 <s2710+0xb6>
    3e18:	f3 0f 10 88 00 00 00 	movss  xmm1,DWORD PTR [rax+0x0]
    3e1f:	00 
    3e20:	f3 0f 59 c9          	mulss  xmm1,xmm1
    3e24:	0f 28 d0             	movaps xmm2,xmm0
    3e27:	f3 0f 58 d1          	addss  xmm2,xmm1
    3e2b:	f3 0f 11 90 00 00 00 	movss  DWORD PTR [rax+0x0],xmm2
    3e32:	00 
    3e33:	85 ed                	test   ebp,ebp
    3e35:	7e 1a                	jle    3e51 <s2710+0xa6>
    3e37:	f3 0f 10 88 00 00 00 	movss  xmm1,DWORD PTR [rax+0x0]
    3e3e:	00 
    3e3f:	f3 0f 59 c9          	mulss  xmm1,xmm1
    3e43:	f3 0f 58 c1          	addss  xmm0,xmm1
    3e47:	f3 0f 11 80 00 00 00 	movss  DWORD PTR [rax+0x0],xmm0
    3e4e:	00 
    3e4f:	eb 10                	jmp    3e61 <s2710+0xb6>
    3e51:	f3 0f 58 88 00 00 00 	addss  xmm1,DWORD PTR [rax+0x0]
    3e58:	00 
    3e59:	f3 0f 11 88 00 00 00 	movss  DWORD PTR [rax+0x0],xmm1
    3e60:	00 
    3e61:	48 83 c0 04          	add    rax,0x4
    3e65:	0f 85 6a ff ff ff    	jne    3dd5 <s2710+0x2a>
    3e6b:	bf 00 00 00 00       	mov    edi,0x0
    3e70:	be 00 00 00 00       	mov    esi,0x0
    3e75:	ba 00 00 00 00       	mov    edx,0x0
    3e7a:	b9 00 00 00 00       	mov    ecx,0x0
    3e7f:	41 b8 00 00 00 00    	mov    r8d,0x0
    3e85:	41 b9 00 00 00 00    	mov    r9d,0x0
    3e8b:	0f 57 c0             	xorps  xmm0,xmm0
    3e8e:	68 00 00 00 00       	push   0x0
    3e93:	68 00 00 00 00       	push   0x0
    3e98:	e8 00 00 00 00       	call   3e9d <s2710+0xf2>
    3e9d:	48 83 c4 10          	add    rsp,0x10
    3ea1:	ff c3                	inc    ebx
    3ea3:	81 fb 50 c3 00 00    	cmp    ebx,0xc350
    3ea9:	0f 85 1f ff ff ff    	jne    3dce <s2710+0x23>
    3eaf:	49 83 c6 10          	add    r14,0x10
    3eb3:	4c 89 f7             	mov    rdi,r14
    3eb6:	31 f6                	xor    esi,esi
    3eb8:	e8 00 00 00 00       	call   3ebd <s2710+0x112>
    3ebd:	bf 00 00 00 00       	mov    edi,0x0
    3ec2:	5b                   	pop    rbx
    3ec3:	41 5e                	pop    r14
    3ec5:	5d                   	pop    rbp
    3ec6:	e9 00 00 00 00       	jmp    3ecb <s2711>

0000000000003ecb <s2711>:
    3ecb:	41 56                	push   r14
    3ecd:	53                   	push   rbx
    3ece:	50                   	push   rax
    3ecf:	49 89 fe             	mov    r14,rdi
    3ed2:	bf 00 00 00 00       	mov    edi,0x0
    3ed7:	e8 00 00 00 00       	call   3edc <s2711+0x11>
    3edc:	31 db                	xor    ebx,ebx
    3ede:	4c 89 f7             	mov    rdi,r14
    3ee1:	31 f6                	xor    esi,esi
    3ee3:	e8 00 00 00 00       	call   3ee8 <s2711+0x1d>
    3ee8:	0f 57 c9             	xorps  xmm1,xmm1
    3eeb:	48 c7 c0 00 0c fe ff 	mov    rax,0xfffffffffffe0c00
    3ef2:	f3 0f 10 80 00 00 00 	movss  xmm0,DWORD PTR [rax+0x0]
    3ef9:	00 
    3efa:	0f 2e c1             	ucomiss xmm0,xmm1
    3efd:	75 02                	jne    3f01 <s2711+0x36>
    3eff:	7b 18                	jnp    3f19 <s2711+0x4e>
    3f01:	f3 0f 59 80 00 00 00 	mulss  xmm0,DWORD PTR [rax+0x0]
    3f08:	00 
    3f09:	f3 0f 58 80 00 00 00 	addss  xmm0,DWORD PTR [rax+0x0]
    3f10:	00 
    3f11:	f3 0f 11 80 00 00 00 	movss  DWORD PTR [rax+0x0],xmm0
    3f18:	00 
    3f19:	48 83 c0 04          	add    rax,0x4
    3f1d:	75 d3                	jne    3ef2 <s2711+0x27>
    3f1f:	bf 00 00 00 00       	mov    edi,0x0
    3f24:	be 00 00 00 00       	mov    esi,0x0
    3f29:	ba 00 00 00 00       	mov    edx,0x0
    3f2e:	b9 00 00 00 00       	mov    ecx,0x0
    3f33:	41 b8 00 00 00 00    	mov    r8d,0x0
    3f39:	41 b9 00 00 00 00    	mov    r9d,0x0
    3f3f:	0f 57 c0             	xorps  xmm0,xmm0
    3f42:	68 00 00 00 00       	push   0x0
    3f47:	68 00 00 00 00       	push   0x0
    3f4c:	e8 00 00 00 00       	call   3f51 <s2711+0x86>
    3f51:	0f 57 c9             	xorps  xmm1,xmm1
    3f54:	48 83 c4 10          	add    rsp,0x10
    3f58:	ff c3                	inc    ebx
    3f5a:	81 fb 80 1a 06 00    	cmp    ebx,0x61a80
    3f60:	75 89                	jne    3eeb <s2711+0x20>
    3f62:	49 83 c6 10          	add    r14,0x10
    3f66:	4c 89 f7             	mov    rdi,r14
    3f69:	31 f6                	xor    esi,esi
    3f6b:	e8 00 00 00 00       	call   3f70 <s2711+0xa5>
    3f70:	bf 00 00 00 00       	mov    edi,0x0
    3f75:	48 83 c4 08          	add    rsp,0x8
    3f79:	5b                   	pop    rbx
    3f7a:	41 5e                	pop    r14
    3f7c:	e9 00 00 00 00       	jmp    3f81 <s2712>

0000000000003f81 <s2712>:
    3f81:	41 56                	push   r14
    3f83:	53                   	push   rbx
    3f84:	50                   	push   rax
    3f85:	49 89 fe             	mov    r14,rdi
    3f88:	bf 00 00 00 00       	mov    edi,0x0
    3f8d:	e8 00 00 00 00       	call   3f92 <s2712+0x11>
    3f92:	31 db                	xor    ebx,ebx
    3f94:	4c 89 f7             	mov    rdi,r14
    3f97:	31 f6                	xor    esi,esi
    3f99:	e8 00 00 00 00       	call   3f9e <s2712+0x1d>
    3f9e:	48 c7 c0 00 0c fe ff 	mov    rax,0xfffffffffffe0c00
    3fa5:	f3 0f 10 80 00 00 00 	movss  xmm0,DWORD PTR [rax+0x0]
    3fac:	00 
    3fad:	f3 0f 10 88 00 00 00 	movss  xmm1,DWORD PTR [rax+0x0]
    3fb4:	00 
    3fb5:	0f 2e c1             	ucomiss xmm0,xmm1
    3fb8:	76 14                	jbe    3fce <s2712+0x4d>
    3fba:	f3 0f 59 88 00 00 00 	mulss  xmm1,DWORD PTR [rax+0x0]
    3fc1:	00 
    3fc2:	f3 0f 58 c1          	addss  xmm0,xmm1
    3fc6:	f3 0f 11 80 00 00 00 	movss  DWORD PTR [rax+0x0],xmm0
    3fcd:	00 
    3fce:	48 83 c0 04          	add    rax,0x4
    3fd2:	75 d1                	jne    3fa5 <s2712+0x24>
    3fd4:	bf 00 00 00 00       	mov    edi,0x0
    3fd9:	be 00 00 00 00       	mov    esi,0x0
    3fde:	ba 00 00 00 00       	mov    edx,0x0
    3fe3:	b9 00 00 00 00       	mov    ecx,0x0
    3fe8:	41 b8 00 00 00 00    	mov    r8d,0x0
    3fee:	41 b9 00 00 00 00    	mov    r9d,0x0
    3ff4:	0f 57 c0             	xorps  xmm0,xmm0
    3ff7:	68 00 00 00 00       	push   0x0
    3ffc:	68 00 00 00 00       	push   0x0
    4001:	e8 00 00 00 00       	call   4006 <s2712+0x85>
    4006:	48 83 c4 10          	add    rsp,0x10
    400a:	ff c3                	inc    ebx
    400c:	81 fb 80 1a 06 00    	cmp    ebx,0x61a80
    4012:	75 8a                	jne    3f9e <s2712+0x1d>
    4014:	49 83 c6 10          	add    r14,0x10
    4018:	4c 89 f7             	mov    rdi,r14
    401b:	31 f6                	xor    esi,esi
    401d:	e8 00 00 00 00       	call   4022 <s2712+0xa1>
    4022:	bf 00 00 00 00       	mov    edi,0x0
    4027:	48 83 c4 08          	add    rsp,0x8
    402b:	5b                   	pop    rbx
    402c:	41 5e                	pop    r14
    402e:	e9 00 00 00 00       	jmp    4033 <s281>

0000000000004033 <s281>:
    4033:	41 56                	push   r14
    4035:	53                   	push   rbx
    4036:	50                   	push   rax
    4037:	49 89 fe             	mov    r14,rdi
    403a:	bf 00 00 00 00       	mov    edi,0x0
    403f:	e8 00 00 00 00       	call   4044 <s281+0x11>
    4044:	31 db                	xor    ebx,ebx
    4046:	4c 89 f7             	mov    rdi,r14
    4049:	31 f6                	xor    esi,esi
    404b:	e8 00 00 00 00       	call   4050 <s281+0x1d>
    4050:	f3 0f 10 0d 00 00 00 	movss  xmm1,DWORD PTR [rip+0x0]        # 4058 <s281+0x25>
    4057:	00 
    4058:	48 c7 c0 00 0c fe ff 	mov    rax,0xfffffffffffe0c00
    405f:	b9 00 00 00 00       	mov    ecx,0x0
    4064:	f3 0f 10 80 00 00 00 	movss  xmm0,DWORD PTR [rax+0x0]
    406b:	00 
    406c:	f3 0f 59 80 00 00 00 	mulss  xmm0,DWORD PTR [rax+0x0]
    4073:	00 
    4074:	f3 0f 58 01          	addss  xmm0,DWORD PTR [rcx]
    4078:	f3 0f 11 80 00 00 00 	movss  DWORD PTR [rax+0x0],xmm0
    407f:	00 
    4080:	f3 0f 58 c1          	addss  xmm0,xmm1
    4084:	f3 0f 11 80 00 00 00 	movss  DWORD PTR [rax+0x0],xmm0
    408b:	00 
    408c:	48 83 c1 fc          	add    rcx,0xfffffffffffffffc
    4090:	48 83 c0 04          	add    rax,0x4
    4094:	75 ce                	jne    4064 <s281+0x31>
    4096:	bf 00 00 00 00       	mov    edi,0x0
    409b:	be 00 00 00 00       	mov    esi,0x0
    40a0:	ba 00 00 00 00       	mov    edx,0x0
    40a5:	b9 00 00 00 00       	mov    ecx,0x0
    40aa:	41 b8 00 00 00 00    	mov    r8d,0x0
    40b0:	41 b9 00 00 00 00    	mov    r9d,0x0
    40b6:	0f 57 c0             	xorps  xmm0,xmm0
    40b9:	68 00 00 00 00       	push   0x0
    40be:	68 00 00 00 00       	push   0x0
    40c3:	e8 00 00 00 00       	call   40c8 <s281+0x95>
    40c8:	f3 0f 10 0d 00 00 00 	movss  xmm1,DWORD PTR [rip+0x0]        # 40d0 <s281+0x9d>
    40cf:	00 
    40d0:	48 83 c4 10          	add    rsp,0x10
    40d4:	ff c3                	inc    ebx
    40d6:	81 fb a0 86 01 00    	cmp    ebx,0x186a0
    40dc:	0f 85 76 ff ff ff    	jne    4058 <s281+0x25>
    40e2:	49 83 c6 10          	add    r14,0x10
    40e6:	4c 89 f7             	mov    rdi,r14
    40e9:	31 f6                	xor    esi,esi
    40eb:	e8 00 00 00 00       	call   40f0 <s281+0xbd>
    40f0:	bf 00 00 00 00       	mov    edi,0x0
    40f5:	48 83 c4 08          	add    rsp,0x8
    40f9:	5b                   	pop    rbx
    40fa:	41 5e                	pop    r14
    40fc:	e9 00 00 00 00       	jmp    4101 <s1281>

0000000000004101 <s1281>:
    4101:	41 56                	push   r14
    4103:	53                   	push   rbx
    4104:	50                   	push   rax
    4105:	49 89 fe             	mov    r14,rdi
    4108:	bf 00 00 00 00       	mov    edi,0x0
    410d:	e8 00 00 00 00       	call   4112 <s1281+0x11>
    4112:	31 db                	xor    ebx,ebx
    4114:	4c 89 f7             	mov    rdi,r14
    4117:	31 f6                	xor    esi,esi
    4119:	e8 00 00 00 00       	call   411e <s1281+0x1d>
    411e:	f3 0f 10 15 00 00 00 	movss  xmm2,DWORD PTR [rip+0x0]        # 4126 <s1281+0x25>
    4125:	00 
    4126:	48 c7 c0 00 0c fe ff 	mov    rax,0xfffffffffffe0c00
    412d:	f3 0f 10 80 00 00 00 	movss  xmm0,DWORD PTR [rax+0x0]
    4134:	00 
    4135:	f3 0f 59 80 00 00 00 	mulss  xmm0,DWORD PTR [rax+0x0]
    413c:	00 
    413d:	f3 0f 10 88 00 00 00 	movss  xmm1,DWORD PTR [rax+0x0]
    4144:	00 
    4145:	f3 0f 59 88 00 00 00 	mulss  xmm1,DWORD PTR [rax+0x0]
    414c:	00 
    414d:	f3 0f 58 c8          	addss  xmm1,xmm0
    4151:	f3 0f 58 88 00 00 00 	addss  xmm1,DWORD PTR [rax+0x0]
    4158:	00 
    4159:	f3 0f 11 88 00 00 00 	movss  DWORD PTR [rax+0x0],xmm1
    4160:	00 
    4161:	f3 0f 58 ca          	addss  xmm1,xmm2
    4165:	f3 0f 11 88 00 00 00 	movss  DWORD PTR [rax+0x0],xmm1
    416c:	00 
    416d:	48 83 c0 04          	add    rax,0x4
    4171:	75 ba                	jne    412d <s1281+0x2c>
    4173:	bf 00 00 00 00       	mov    edi,0x0
    4178:	be 00 00 00 00       	mov    esi,0x0
    417d:	ba 00 00 00 00       	mov    edx,0x0
    4182:	b9 00 00 00 00       	mov    ecx,0x0
    4187:	41 b8 00 00 00 00    	mov    r8d,0x0
    418d:	41 b9 00 00 00 00    	mov    r9d,0x0
    4193:	0f 57 c0             	xorps  xmm0,xmm0
    4196:	68 00 00 00 00       	push   0x0
    419b:	68 00 00 00 00       	push   0x0
    41a0:	e8 00 00 00 00       	call   41a5 <s1281+0xa4>
    41a5:	f3 0f 10 15 00 00 00 	movss  xmm2,DWORD PTR [rip+0x0]        # 41ad <s1281+0xac>
    41ac:	00 
    41ad:	48 83 c4 10          	add    rsp,0x10
    41b1:	ff c3                	inc    ebx
    41b3:	81 fb 80 1a 06 00    	cmp    ebx,0x61a80
    41b9:	0f 85 67 ff ff ff    	jne    4126 <s1281+0x25>
    41bf:	49 83 c6 10          	add    r14,0x10
    41c3:	4c 89 f7             	mov    rdi,r14
    41c6:	31 f6                	xor    esi,esi
    41c8:	e8 00 00 00 00       	call   41cd <s1281+0xcc>
    41cd:	bf 00 00 00 00       	mov    edi,0x0
    41d2:	48 83 c4 08          	add    rsp,0x8
    41d6:	5b                   	pop    rbx
    41d7:	41 5e                	pop    r14
    41d9:	e9 00 00 00 00       	jmp    41de <s291>

00000000000041de <s291>:
    41de:	41 56                	push   r14
    41e0:	53                   	push   rbx
    41e1:	50                   	push   rax
    41e2:	49 89 fe             	mov    r14,rdi
    41e5:	bf 00 00 00 00       	mov    edi,0x0
    41ea:	e8 00 00 00 00       	call   41ef <s291+0x11>
    41ef:	31 db                	xor    ebx,ebx
    41f1:	4c 89 f7             	mov    rdi,r14
    41f4:	31 f6                	xor    esi,esi
    41f6:	e8 00 00 00 00       	call   41fb <s291+0x1d>
    41fb:	f3 0f 10 15 00 00 00 	movss  xmm2,DWORD PTR [rip+0x0]        # 4203 <s291+0x25>
    4202:	00 
    4203:	48 c7 c0 00 0c fe ff 	mov    rax,0xfffffffffffe0c00
    420a:	f3 0f 10 05 00 00 00 	movss  xmm0,DWORD PTR [rip+0x0]        # 4212 <s291+0x34>
    4211:	00 
    4212:	f3 0f 10 88 00 00 00 	movss  xmm1,DWORD PTR [rax+0x0]
    4219:	00 
    421a:	f3 0f 58 c1          	addss  xmm0,xmm1
    421e:	f3 0f 59 c2          	mulss  xmm0,xmm2
    4222:	f3 0f 11 80 00 00 00 	movss  DWORD PTR [rax+0x0],xmm0
    4229:	00 
    422a:	0f 28 c1             	movaps xmm0,xmm1
    422d:	48 83 c0 04          	add    rax,0x4
    4231:	75 df                	jne    4212 <s291+0x34>
    4233:	bf 00 00 00 00       	mov    edi,0x0
    4238:	be 00 00 00 00       	mov    esi,0x0
    423d:	ba 00 00 00 00       	mov    edx,0x0
    4242:	b9 00 00 00 00       	mov    ecx,0x0
    4247:	41 b8 00 00 00 00    	mov    r8d,0x0
    424d:	41 b9 00 00 00 00    	mov    r9d,0x0
    4253:	0f 57 c0             	xorps  xmm0,xmm0
    4256:	68 00 00 00 00       	push   0x0
    425b:	68 00 00 00 00       	push   0x0
    4260:	e8 00 00 00 00       	call   4265 <s291+0x87>
    4265:	f3 0f 10 15 00 00 00 	movss  xmm2,DWORD PTR [rip+0x0]        # 426d <s291+0x8f>
    426c:	00 
    426d:	48 83 c4 10          	add    rsp,0x10
    4271:	ff c3                	inc    ebx
    4273:	81 fb 40 0d 03 00    	cmp    ebx,0x30d40
    4279:	75 88                	jne    4203 <s291+0x25>
    427b:	49 83 c6 10          	add    r14,0x10
    427f:	4c 89 f7             	mov    rdi,r14
    4282:	31 f6                	xor    esi,esi
    4284:	e8 00 00 00 00       	call   4289 <s291+0xab>
    4289:	bf 00 00 00 00       	mov    edi,0x0
    428e:	48 83 c4 08          	add    rsp,0x8
    4292:	5b                   	pop    rbx
    4293:	41 5e                	pop    r14
    4295:	e9 00 00 00 00       	jmp    429a <s292>

000000000000429a <s292>:
    429a:	41 56                	push   r14
    429c:	53                   	push   rbx
    429d:	50                   	push   rax
    429e:	49 89 fe             	mov    r14,rdi
    42a1:	bf 00 00 00 00       	mov    edi,0x0
    42a6:	e8 00 00 00 00       	call   42ab <s292+0x11>
    42ab:	31 db                	xor    ebx,ebx
    42ad:	4c 89 f7             	mov    rdi,r14
    42b0:	31 f6                	xor    esi,esi
    42b2:	e8 00 00 00 00       	call   42b7 <s292+0x1d>
    42b7:	f3 0f 10 25 00 00 00 	movss  xmm4,DWORD PTR [rip+0x0]        # 42bf <s292+0x25>
    42be:	00 
    42bf:	f3 0f 10 0d 00 00 00 	movss  xmm1,DWORD PTR [rip+0x0]        # 42c7 <s292+0x2d>
    42c6:	00 
    42c7:	48 c7 c0 00 0c fe ff 	mov    rax,0xfffffffffffe0c00
    42ce:	f3 0f 10 05 00 00 00 	movss  xmm0,DWORD PTR [rip+0x0]        # 42d6 <s292+0x3c>
    42d5:	00 
    42d6:	0f 28 d0             	movaps xmm2,xmm0
    42d9:	f3 0f 10 80 00 00 00 	movss  xmm0,DWORD PTR [rax+0x0]
    42e0:	00 
    42e1:	0f 28 d8             	movaps xmm3,xmm0
    42e4:	f3 0f 58 da          	addss  xmm3,xmm2
    42e8:	f3 0f 58 d9          	addss  xmm3,xmm1
    42ec:	f3 0f 59 dc          	mulss  xmm3,xmm4
    42f0:	f3 0f 11 98 00 00 00 	movss  DWORD PTR [rax+0x0],xmm3
    42f7:	00 
    42f8:	0f 28 ca             	movaps xmm1,xmm2
    42fb:	48 83 c0 04          	add    rax,0x4
    42ff:	75 d5                	jne    42d6 <s292+0x3c>
    4301:	bf 00 00 00 00       	mov    edi,0x0
    4306:	be 00 00 00 00       	mov    esi,0x0
    430b:	ba 00 00 00 00       	mov    edx,0x0
    4310:	b9 00 00 00 00       	mov    ecx,0x0
    4315:	41 b8 00 00 00 00    	mov    r8d,0x0
    431b:	41 b9 00 00 00 00    	mov    r9d,0x0
    4321:	0f 57 c0             	xorps  xmm0,xmm0
    4324:	68 00 00 00 00       	push   0x0
    4329:	68 00 00 00 00       	push   0x0
    432e:	e8 00 00 00 00       	call   4333 <s292+0x99>
    4333:	f3 0f 10 25 00 00 00 	movss  xmm4,DWORD PTR [rip+0x0]        # 433b <s292+0xa1>
    433a:	00 
    433b:	48 83 c4 10          	add    rsp,0x10
    433f:	ff c3                	inc    ebx
    4341:	81 fb a0 86 01 00    	cmp    ebx,0x186a0
    4347:	0f 85 72 ff ff ff    	jne    42bf <s292+0x25>
    434d:	49 83 c6 10          	add    r14,0x10
    4351:	4c 89 f7             	mov    rdi,r14
    4354:	31 f6                	xor    esi,esi
    4356:	e8 00 00 00 00       	call   435b <s292+0xc1>
    435b:	bf 00 00 00 00       	mov    edi,0x0
    4360:	48 83 c4 08          	add    rsp,0x8
    4364:	5b                   	pop    rbx
    4365:	41 5e                	pop    r14
    4367:	e9 00 00 00 00       	jmp    436c <s293>

000000000000436c <s293>:
    436c:	41 56                	push   r14
    436e:	53                   	push   rbx
    436f:	50                   	push   rax
    4370:	49 89 fe             	mov    r14,rdi
    4373:	bf 00 00 00 00       	mov    edi,0x0
    4378:	e8 00 00 00 00       	call   437d <s293+0x11>
    437d:	31 db                	xor    ebx,ebx
    437f:	4c 89 f7             	mov    rdi,r14
    4382:	31 f6                	xor    esi,esi
    4384:	e8 00 00 00 00       	call   4389 <s293+0x1d>
    4389:	48 c7 c0 00 0c fe ff 	mov    rax,0xfffffffffffe0c00
    4390:	f3 0f 10 05 00 00 00 	movss  xmm0,DWORD PTR [rip+0x0]        # 4398 <s293+0x2c>
    4397:	00 
    4398:	f3 0f 11 80 00 00 00 	movss  DWORD PTR [rax+0x0],xmm0
    439f:	00 
    43a0:	48 83 c0 04          	add    rax,0x4
    43a4:	75 ea                	jne    4390 <s293+0x24>
    43a6:	bf 00 00 00 00       	mov    edi,0x0
    43ab:	be 00 00 00 00       	mov    esi,0x0
    43b0:	ba 00 00 00 00       	mov    edx,0x0
    43b5:	b9 00 00 00 00       	mov    ecx,0x0
    43ba:	41 b8 00 00 00 00    	mov    r8d,0x0
    43c0:	41 b9 00 00 00 00    	mov    r9d,0x0
    43c6:	0f 57 c0             	xorps  xmm0,xmm0
    43c9:	68 00 00 00 00       	push   0x0
    43ce:	68 00 00 00 00       	push   0x0
    43d3:	e8 00 00 00 00       	call   43d8 <s293+0x6c>
    43d8:	48 83 c4 10          	add    rsp,0x10
    43dc:	ff c3                	inc    ebx
    43de:	81 fb 80 1a 06 00    	cmp    ebx,0x61a80
    43e4:	75 a3                	jne    4389 <s293+0x1d>
    43e6:	49 83 c6 10          	add    r14,0x10
    43ea:	4c 89 f7             	mov    rdi,r14
    43ed:	31 f6                	xor    esi,esi
    43ef:	e8 00 00 00 00       	call   43f4 <s293+0x88>
    43f4:	bf 00 00 00 00       	mov    edi,0x0
    43f9:	48 83 c4 08          	add    rsp,0x8
    43fd:	5b                   	pop    rbx
    43fe:	41 5e                	pop    r14
    4400:	e9 00 00 00 00       	jmp    4405 <s2101>

0000000000004405 <s2101>:
    4405:	41 56                	push   r14
    4407:	53                   	push   rbx
    4408:	50                   	push   rax
    4409:	49 89 fe             	mov    r14,rdi
    440c:	bf 00 00 00 00       	mov    edi,0x0
    4411:	e8 00 00 00 00       	call   4416 <s2101+0x11>
    4416:	31 db                	xor    ebx,ebx
    4418:	4c 89 f7             	mov    rdi,r14
    441b:	31 f6                	xor    esi,esi
    441d:	e8 00 00 00 00       	call   4422 <s2101+0x1d>
    4422:	48 c7 c0 00 fc fb ff 	mov    rax,0xfffffffffffbfc00
    4429:	f3 0f 10 80 00 00 00 	movss  xmm0,DWORD PTR [rax+0x0]
    4430:	00 
    4431:	f3 0f 59 80 00 00 00 	mulss  xmm0,DWORD PTR [rax+0x0]
    4438:	00 
    4439:	f3 0f 58 80 00 00 00 	addss  xmm0,DWORD PTR [rax+0x0]
    4440:	00 
    4441:	f3 0f 11 80 00 00 00 	movss  DWORD PTR [rax+0x0],xmm0
    4448:	00 
    4449:	48 05 04 04 00 00    	add    rax,0x404
    444f:	75 d8                	jne    4429 <s2101+0x24>
    4451:	bf 00 00 00 00       	mov    edi,0x0
    4456:	be 00 00 00 00       	mov    esi,0x0
    445b:	ba 00 00 00 00       	mov    edx,0x0
    4460:	b9 00 00 00 00       	mov    ecx,0x0
    4465:	41 b8 00 00 00 00    	mov    r8d,0x0
    446b:	41 b9 00 00 00 00    	mov    r9d,0x0
    4471:	0f 57 c0             	xorps  xmm0,xmm0
    4474:	68 00 00 00 00       	push   0x0
    4479:	68 00 00 00 00       	push   0x0
    447e:	e8 00 00 00 00       	call   4483 <s2101+0x7e>
    4483:	48 83 c4 10          	add    rsp,0x10
    4487:	ff c3                	inc    ebx
    4489:	81 fb 40 42 0f 00    	cmp    ebx,0xf4240
    448f:	75 91                	jne    4422 <s2101+0x1d>
    4491:	49 83 c6 10          	add    r14,0x10
    4495:	4c 89 f7             	mov    rdi,r14
    4498:	31 f6                	xor    esi,esi
    449a:	e8 00 00 00 00       	call   449f <s2101+0x9a>
    449f:	bf 00 00 00 00       	mov    edi,0x0
    44a4:	48 83 c4 08          	add    rsp,0x8
    44a8:	5b                   	pop    rbx
    44a9:	41 5e                	pop    r14
    44ab:	e9 00 00 00 00       	jmp    44b0 <s2102>

00000000000044b0 <s2102>:
    44b0:	41 56                	push   r14
    44b2:	53                   	push   rbx
    44b3:	50                   	push   rax
    44b4:	49 89 fe             	mov    r14,rdi
    44b7:	bf 00 00 00 00       	mov    edi,0x0
    44bc:	e8 00 00 00 00       	call   44c1 <s2102+0x11>
    44c1:	31 db                	xor    ebx,ebx
    44c3:	4c 89 f7             	mov    rdi,r14
    44c6:	31 f6                	xor    esi,esi
    44c8:	e8 00 00 00 00       	call   44cd <s2102+0x1d>
    44cd:	b8 00 00 00 00       	mov    eax,0x0
    44d2:	31 c9                	xor    ecx,ecx
    44d4:	31 d2                	xor    edx,edx
    44d6:	c7 04 10 00 00 00 00 	mov    DWORD PTR [rax+rdx*1],0x0
    44dd:	48 81 c2 00 04 00 00 	add    rdx,0x400
    44e4:	48 81 fa 00 00 04 00 	cmp    rdx,0x40000
    44eb:	75 e9                	jne    44d6 <s2102+0x26>
    44ed:	48 89 ca             	mov    rdx,rcx
    44f0:	48 c1 e2 0a          	shl    rdx,0xa
    44f4:	c7 84 8a 00 00 00 00 	mov    DWORD PTR [rdx+rcx*4+0x0],0x3f800000
    44fb:	00 00 80 3f 
    44ff:	48 ff c1             	inc    rcx
    4502:	48 83 c0 04          	add    rax,0x4
    4506:	48 81 f9 00 01 00 00 	cmp    rcx,0x100
    450d:	75 c5                	jne    44d4 <s2102+0x24>
    450f:	bf 00 00 00 00       	mov    edi,0x0
    4514:	be 00 00 00 00       	mov    esi,0x0
    4519:	ba 00 00 00 00       	mov    edx,0x0
    451e:	b9 00 00 00 00       	mov    ecx,0x0
    4523:	41 b8 00 00 00 00    	mov    r8d,0x0
    4529:	41 b9 00 00 00 00    	mov    r9d,0x0
    452f:	0f 57 c0             	xorps  xmm0,xmm0
    4532:	68 00 00 00 00       	push   0x0
    4537:	68 00 00 00 00       	push   0x0
    453c:	e8 00 00 00 00       	call   4541 <s2102+0x91>
    4541:	48 83 c4 10          	add    rsp,0x10
    4545:	ff c3                	inc    ebx
    4547:	81 fb 58 98 00 00    	cmp    ebx,0x9858
    454d:	0f 85 7a ff ff ff    	jne    44cd <s2102+0x1d>
    4553:	49 83 c6 10          	add    r14,0x10
    4557:	4c 89 f7             	mov    rdi,r14
    455a:	31 f6                	xor    esi,esi
    455c:	e8 00 00 00 00       	call   4561 <s2102+0xb1>
    4561:	bf 00 00 00 00       	mov    edi,0x0
    4566:	48 83 c4 08          	add    rsp,0x8
    456a:	5b                   	pop    rbx
    456b:	41 5e                	pop    r14
    456d:	e9 00 00 00 00       	jmp    4572 <s2111>

0000000000004572 <s2111>:
    4572:	41 56                	push   r14
    4574:	53                   	push   rbx
    4575:	50                   	push   rax
    4576:	49 89 fe             	mov    r14,rdi
    4579:	bf 00 00 00 00       	mov    edi,0x0
    457e:	e8 00 00 00 00       	call   4583 <s2111+0x11>
    4583:	31 db                	xor    ebx,ebx
    4585:	4c 89 f7             	mov    rdi,r14
    4588:	31 f6                	xor    esi,esi
    458a:	e8 00 00 00 00       	call   458f <s2111+0x1d>
    458f:	f2 0f 10 0d 00 00 00 	movsd  xmm1,QWORD PTR [rip+0x0]        # 4597 <s2111+0x25>
    4596:	00 
    4597:	b8 01 00 00 00       	mov    eax,0x1
    459c:	b9 00 00 00 00       	mov    ecx,0x0
    45a1:	48 89 c2             	mov    rdx,rax
    45a4:	48 c1 e2 0a          	shl    rdx,0xa
    45a8:	f3 0f 10 82 00 00 00 	movss  xmm0,DWORD PTR [rdx+0x0]
    45af:	00 
    45b0:	48 c7 c2 04 fc ff ff 	mov    rdx,0xfffffffffffffc04
    45b7:	f3 0f 58 44 11 fc    	addss  xmm0,DWORD PTR [rcx+rdx*1-0x4]
    45bd:	f3 0f 5a c0          	cvtss2sd xmm0,xmm0
    45c1:	f2 0f 5e c1          	divsd  xmm0,xmm1
    45c5:	f2 0f 5a c0          	cvtsd2ss xmm0,xmm0
    45c9:	f3 0f 11 84 11 fc 03 	movss  DWORD PTR [rcx+rdx*1+0x3fc],xmm0
    45d0:	00 00 
    45d2:	48 83 c2 04          	add    rdx,0x4
    45d6:	75 df                	jne    45b7 <s2111+0x45>
    45d8:	48 ff c0             	inc    rax
    45db:	48 81 c1 00 04 00 00 	add    rcx,0x400
    45e2:	48 3d 00 01 00 00    	cmp    rax,0x100
    45e8:	75 b7                	jne    45a1 <s2111+0x2f>
    45ea:	bf 00 00 00 00       	mov    edi,0x0
    45ef:	be 00 00 00 00       	mov    esi,0x0
    45f4:	ba 00 00 00 00       	mov    edx,0x0
    45f9:	b9 00 00 00 00       	mov    ecx,0x0
    45fe:	41 b8 00 00 00 00    	mov    r8d,0x0
    4604:	41 b9 00 00 00 00    	mov    r9d,0x0
    460a:	0f 57 c0             	xorps  xmm0,xmm0
    460d:	68 00 00 00 00       	push   0x0
    4612:	68 00 00 00 00       	push   0x0
    4617:	e8 00 00 00 00       	call   461c <s2111+0xaa>
    461c:	f2 0f 10 0d 00 00 00 	movsd  xmm1,QWORD PTR [rip+0x0]        # 4624 <s2111+0xb2>
    4623:	00 
    4624:	48 83 c4 10          	add    rsp,0x10
    4628:	ff c3                	inc    ebx
    462a:	81 fb 58 98 00 00    	cmp    ebx,0x9858
    4630:	0f 85 61 ff ff ff    	jne    4597 <s2111+0x25>
    4636:	49 83 c6 10          	add    r14,0x10
    463a:	4c 89 f7             	mov    rdi,r14
    463d:	31 f6                	xor    esi,esi
    463f:	e8 00 00 00 00       	call   4644 <s2111+0xd2>
    4644:	bf 00 00 00 00       	mov    edi,0x0
    4649:	48 83 c4 08          	add    rsp,0x8
    464d:	5b                   	pop    rbx
    464e:	41 5e                	pop    r14
    4650:	e9 00 00 00 00       	jmp    4655 <s311>

0000000000004655 <s311>:
    4655:	41 56                	push   r14
    4657:	53                   	push   rbx
    4658:	50                   	push   rax
    4659:	49 89 fe             	mov    r14,rdi
    465c:	bf 00 00 00 00       	mov    edi,0x0
    4661:	e8 00 00 00 00       	call   4666 <s311+0x11>
    4666:	31 db                	xor    ebx,ebx
    4668:	4c 89 f7             	mov    rdi,r14
    466b:	31 f6                	xor    esi,esi
    466d:	e8 00 00 00 00       	call   4672 <s311+0x1d>
    4672:	0f 57 c0             	xorps  xmm0,xmm0
    4675:	48 c7 c0 00 0c fe ff 	mov    rax,0xfffffffffffe0c00
    467c:	f3 0f 58 80 00 00 00 	addss  xmm0,DWORD PTR [rax+0x0]
    4683:	00 
    4684:	48 83 c0 04          	add    rax,0x4
    4688:	75 f2                	jne    467c <s311+0x27>
    468a:	bf 00 00 00 00       	mov    edi,0x0
    468f:	be 00 00 00 00       	mov    esi,0x0
    4694:	ba 00 00 00 00       	mov    edx,0x0
    4699:	b9 00 00 00 00       	mov    ecx,0x0
    469e:	41 b8 00 00 00 00    	mov    r8d,0x0
    46a4:	41 b9 00 00 00 00    	mov    r9d,0x0
    46aa:	68 00 00 00 00       	push   0x0
    46af:	68 00 00 00 00       	push   0x0
    46b4:	e8 00 00 00 00       	call   46b9 <s311+0x64>
    46b9:	48 83 c4 10          	add    rsp,0x10
    46bd:	ff c3                	inc    ebx
    46bf:	81 fb 40 42 0f 00    	cmp    ebx,0xf4240
    46c5:	75 ab                	jne    4672 <s311+0x1d>
    46c7:	49 83 c6 10          	add    r14,0x10
    46cb:	4c 89 f7             	mov    rdi,r14
    46ce:	31 f6                	xor    esi,esi
    46d0:	e8 00 00 00 00       	call   46d5 <s311+0x80>
    46d5:	bf 00 00 00 00       	mov    edi,0x0
    46da:	48 83 c4 08          	add    rsp,0x8
    46de:	5b                   	pop    rbx
    46df:	41 5e                	pop    r14
    46e1:	e9 00 00 00 00       	jmp    46e6 <test>

00000000000046e6 <test>:
    46e6:	0f 57 c0             	xorps  xmm0,xmm0
    46e9:	31 c0                	xor    eax,eax
    46eb:	f3 0f 58 04 87       	addss  xmm0,DWORD PTR [rdi+rax*4]
    46f0:	48 ff c0             	inc    rax
    46f3:	48 83 f8 04          	cmp    rax,0x4
    46f7:	75 f2                	jne    46eb <test+0x5>
    46f9:	c3                   	ret    

00000000000046fa <s31111>:
    46fa:	41 56                	push   r14
    46fc:	53                   	push   rbx
    46fd:	50                   	push   rax
    46fe:	49 89 fe             	mov    r14,rdi
    4701:	bf 00 00 00 00       	mov    edi,0x0
    4706:	e8 00 00 00 00       	call   470b <s31111+0x11>
    470b:	31 db                	xor    ebx,ebx
    470d:	4c 89 f7             	mov    rdi,r14
    4710:	31 f6                	xor    esi,esi
    4712:	e8 00 00 00 00       	call   4717 <s31111+0x1d>
    4717:	0f 57 c0             	xorps  xmm0,xmm0
    471a:	48 c7 c0 f0 ff ff ff 	mov    rax,0xfffffffffffffff0
    4721:	f3 0f 58 80 00 00 00 	addss  xmm0,DWORD PTR [rax+0x0]
    4728:	00 
    4729:	48 83 c0 04          	add    rax,0x4
    472d:	75 f2                	jne    4721 <s31111+0x27>
    472f:	0f 57 db             	xorps  xmm3,xmm3
    4732:	48 c7 c0 f0 ff ff ff 	mov    rax,0xfffffffffffffff0
    4739:	f3 0f 58 98 00 00 00 	addss  xmm3,DWORD PTR [rax+0x0]
    4740:	00 
    4741:	48 83 c0 04          	add    rax,0x4
    4745:	75 f2                	jne    4739 <s31111+0x3f>
    4747:	0f 57 d2             	xorps  xmm2,xmm2
    474a:	48 c7 c0 f0 ff ff ff 	mov    rax,0xfffffffffffffff0
    4751:	f3 0f 58 90 00 00 00 	addss  xmm2,DWORD PTR [rax+0x0]
    4758:	00 
    4759:	48 83 c0 04          	add    rax,0x4
    475d:	75 f2                	jne    4751 <s31111+0x57>
    475f:	0f 57 c9             	xorps  xmm1,xmm1
    4762:	f3 0f 58 c1          	addss  xmm0,xmm1
    4766:	48 c7 c0 f0 ff ff ff 	mov    rax,0xfffffffffffffff0
    476d:	f3 0f 58 88 00 00 00 	addss  xmm1,DWORD PTR [rax+0x0]
    4774:	00 
    4775:	48 83 c0 04          	add    rax,0x4
    4779:	75 f2                	jne    476d <s31111+0x73>
    477b:	f3 0f 58 c3          	addss  xmm0,xmm3
    477f:	0f 57 db             	xorps  xmm3,xmm3
    4782:	48 c7 c0 f0 ff ff ff 	mov    rax,0xfffffffffffffff0
    4789:	f3 0f 58 98 00 00 00 	addss  xmm3,DWORD PTR [rax+0x0]
    4790:	00 
    4791:	48 83 c0 04          	add    rax,0x4
    4795:	75 f2                	jne    4789 <s31111+0x8f>
    4797:	f3 0f 58 c2          	addss  xmm0,xmm2
    479b:	0f 57 d2             	xorps  xmm2,xmm2
    479e:	48 c7 c0 f0 ff ff ff 	mov    rax,0xfffffffffffffff0
    47a5:	f3 0f 58 90 00 00 00 	addss  xmm2,DWORD PTR [rax+0x0]
    47ac:	00 
    47ad:	48 83 c0 04          	add    rax,0x4
    47b1:	75 f2                	jne    47a5 <s31111+0xab>
    47b3:	f3 0f 58 c1          	addss  xmm0,xmm1
    47b7:	0f 57 c9             	xorps  xmm1,xmm1
    47ba:	48 c7 c0 f0 ff ff ff 	mov    rax,0xfffffffffffffff0
    47c1:	f3 0f 58 88 00 00 00 	addss  xmm1,DWORD PTR [rax+0x0]
    47c8:	00 
    47c9:	48 83 c0 04          	add    rax,0x4
    47cd:	75 f2                	jne    47c1 <s31111+0xc7>
    47cf:	f3 0f 58 c3          	addss  xmm0,xmm3
    47d3:	0f 57 db             	xorps  xmm3,xmm3
    47d6:	48 c7 c0 f0 ff ff ff 	mov    rax,0xfffffffffffffff0
    47dd:	f3 0f 58 98 00 00 00 	addss  xmm3,DWORD PTR [rax+0x0]
    47e4:	00 
    47e5:	48 83 c0 04          	add    rax,0x4
    47e9:	75 f2                	jne    47dd <s31111+0xe3>
    47eb:	f3 0f 58 c2          	addss  xmm0,xmm2
    47ef:	f3 0f 58 c1          	addss  xmm0,xmm1
    47f3:	f3 0f 58 c3          	addss  xmm0,xmm3
    47f7:	bf 00 00 00 00       	mov    edi,0x0
    47fc:	be 00 00 00 00       	mov    esi,0x0
    4801:	ba 00 00 00 00       	mov    edx,0x0
    4806:	b9 00 00 00 00       	mov    ecx,0x0
    480b:	41 b8 00 00 00 00    	mov    r8d,0x0
    4811:	41 b9 00 00 00 00    	mov    r9d,0x0
    4817:	68 00 00 00 00       	push   0x0
    481c:	68 00 00 00 00       	push   0x0
    4821:	e8 00 00 00 00       	call   4826 <s31111+0x12c>
    4826:	48 83 c4 10          	add    rsp,0x10
    482a:	ff c3                	inc    ebx
    482c:	81 fb 00 c2 eb 0b    	cmp    ebx,0xbebc200
    4832:	0f 85 df fe ff ff    	jne    4717 <s31111+0x1d>
    4838:	49 83 c6 10          	add    r14,0x10
    483c:	4c 89 f7             	mov    rdi,r14
    483f:	31 f6                	xor    esi,esi
    4841:	e8 00 00 00 00       	call   4846 <s31111+0x14c>
    4846:	bf 00 00 00 00       	mov    edi,0x0
    484b:	48 83 c4 08          	add    rsp,0x8
    484f:	5b                   	pop    rbx
    4850:	41 5e                	pop    r14
    4852:	e9 00 00 00 00       	jmp    4857 <s312>

0000000000004857 <s312>:
    4857:	41 56                	push   r14
    4859:	53                   	push   rbx
    485a:	50                   	push   rax
    485b:	49 89 fe             	mov    r14,rdi
    485e:	bf 00 00 00 00       	mov    edi,0x0
    4863:	e8 00 00 00 00       	call   4868 <s312+0x11>
    4868:	31 db                	xor    ebx,ebx
    486a:	4c 89 f7             	mov    rdi,r14
    486d:	31 f6                	xor    esi,esi
    486f:	e8 00 00 00 00       	call   4874 <s312+0x1d>
    4874:	48 c7 c0 00 0c fe ff 	mov    rax,0xfffffffffffe0c00
    487b:	f3 0f 10 05 00 00 00 	movss  xmm0,DWORD PTR [rip+0x0]        # 4883 <s312+0x2c>
    4882:	00 
    4883:	f3 0f 59 80 00 00 00 	mulss  xmm0,DWORD PTR [rax+0x0]
    488a:	00 
    488b:	48 83 c0 04          	add    rax,0x4
    488f:	75 f2                	jne    4883 <s312+0x2c>
    4891:	bf 00 00 00 00       	mov    edi,0x0
    4896:	be 00 00 00 00       	mov    esi,0x0
    489b:	ba 00 00 00 00       	mov    edx,0x0
    48a0:	b9 00 00 00 00       	mov    ecx,0x0
    48a5:	41 b8 00 00 00 00    	mov    r8d,0x0
    48ab:	41 b9 00 00 00 00    	mov    r9d,0x0
    48b1:	f3 0f 11 44 24 04    	movss  DWORD PTR [rsp+0x4],xmm0
    48b7:	68 00 00 00 00       	push   0x0
    48bc:	68 00 00 00 00       	push   0x0
    48c1:	e8 00 00 00 00       	call   48c6 <s312+0x6f>
    48c6:	48 83 c4 10          	add    rsp,0x10
    48ca:	ff c3                	inc    ebx
    48cc:	81 fb 40 42 0f 00    	cmp    ebx,0xf4240
    48d2:	75 a0                	jne    4874 <s312+0x1d>
    48d4:	49 83 c6 10          	add    r14,0x10
    48d8:	4c 89 f7             	mov    rdi,r14
    48db:	31 f6                	xor    esi,esi
    48dd:	e8 00 00 00 00       	call   48e2 <s312+0x8b>
    48e2:	f3 0f 10 44 24 04    	movss  xmm0,DWORD PTR [rsp+0x4]
    48e8:	48 83 c4 08          	add    rsp,0x8
    48ec:	5b                   	pop    rbx
    48ed:	41 5e                	pop    r14
    48ef:	c3                   	ret    

00000000000048f0 <s313>:
    48f0:	41 56                	push   r14
    48f2:	53                   	push   rbx
    48f3:	50                   	push   rax
    48f4:	49 89 fe             	mov    r14,rdi
    48f7:	bf 00 00 00 00       	mov    edi,0x0
    48fc:	e8 00 00 00 00       	call   4901 <s313+0x11>
    4901:	31 db                	xor    ebx,ebx
    4903:	4c 89 f7             	mov    rdi,r14
    4906:	31 f6                	xor    esi,esi
    4908:	e8 00 00 00 00       	call   490d <s313+0x1d>
    490d:	0f 57 c0             	xorps  xmm0,xmm0
    4910:	48 c7 c0 00 0c fe ff 	mov    rax,0xfffffffffffe0c00
    4917:	f3 0f 10 88 00 00 00 	movss  xmm1,DWORD PTR [rax+0x0]
    491e:	00 
    491f:	f3 0f 59 88 00 00 00 	mulss  xmm1,DWORD PTR [rax+0x0]
    4926:	00 
    4927:	f3 0f 58 c1          	addss  xmm0,xmm1
    492b:	48 83 c0 04          	add    rax,0x4
    492f:	75 e6                	jne    4917 <s313+0x27>
    4931:	bf 00 00 00 00       	mov    edi,0x0
    4936:	be 00 00 00 00       	mov    esi,0x0
    493b:	ba 00 00 00 00       	mov    edx,0x0
    4940:	b9 00 00 00 00       	mov    ecx,0x0
    4945:	41 b8 00 00 00 00    	mov    r8d,0x0
    494b:	41 b9 00 00 00 00    	mov    r9d,0x0
    4951:	f3 0f 11 44 24 04    	movss  DWORD PTR [rsp+0x4],xmm0
    4957:	68 00 00 00 00       	push   0x0
    495c:	68 00 00 00 00       	push   0x0
    4961:	e8 00 00 00 00       	call   4966 <s313+0x76>
    4966:	48 83 c4 10          	add    rsp,0x10
    496a:	ff c3                	inc    ebx
    496c:	81 fb 20 a1 07 00    	cmp    ebx,0x7a120
    4972:	75 99                	jne    490d <s313+0x1d>
    4974:	49 83 c6 10          	add    r14,0x10
    4978:	4c 89 f7             	mov    rdi,r14
    497b:	31 f6                	xor    esi,esi
    497d:	e8 00 00 00 00       	call   4982 <s313+0x92>
    4982:	f3 0f 10 44 24 04    	movss  xmm0,DWORD PTR [rsp+0x4]
    4988:	48 83 c4 08          	add    rsp,0x8
    498c:	5b                   	pop    rbx
    498d:	41 5e                	pop    r14
    498f:	c3                   	ret    

0000000000004990 <s314>:
    4990:	41 56                	push   r14
    4992:	53                   	push   rbx
    4993:	50                   	push   rax
    4994:	49 89 fe             	mov    r14,rdi
    4997:	bf 00 00 00 00       	mov    edi,0x0
    499c:	e8 00 00 00 00       	call   49a1 <s314+0x11>
    49a1:	31 db                	xor    ebx,ebx
    49a3:	4c 89 f7             	mov    rdi,r14
    49a6:	31 f6                	xor    esi,esi
    49a8:	e8 00 00 00 00       	call   49ad <s314+0x1d>
    49ad:	48 c7 c0 04 0c fe ff 	mov    rax,0xfffffffffffe0c04
    49b4:	f3 0f 10 05 00 00 00 	movss  xmm0,DWORD PTR [rip+0x0]        # 49bc <s314+0x2c>
    49bb:	00 
    49bc:	0f 28 c8             	movaps xmm1,xmm0
    49bf:	f3 0f 10 80 00 00 00 	movss  xmm0,DWORD PTR [rax+0x0]
    49c6:	00 
    49c7:	f3 0f 5f c1          	maxss  xmm0,xmm1
    49cb:	48 83 c0 04          	add    rax,0x4
    49cf:	75 eb                	jne    49bc <s314+0x2c>
    49d1:	bf 00 00 00 00       	mov    edi,0x0
    49d6:	be 00 00 00 00       	mov    esi,0x0
    49db:	ba 00 00 00 00       	mov    edx,0x0
    49e0:	b9 00 00 00 00       	mov    ecx,0x0
    49e5:	41 b8 00 00 00 00    	mov    r8d,0x0
    49eb:	41 b9 00 00 00 00    	mov    r9d,0x0
    49f1:	f3 0f 11 44 24 04    	movss  DWORD PTR [rsp+0x4],xmm0
    49f7:	68 00 00 00 00       	push   0x0
    49fc:	68 00 00 00 00       	push   0x0
    4a01:	e8 00 00 00 00       	call   4a06 <s314+0x76>
    4a06:	48 83 c4 10          	add    rsp,0x10
    4a0a:	ff c3                	inc    ebx
    4a0c:	81 fb 20 a1 07 00    	cmp    ebx,0x7a120
    4a12:	75 99                	jne    49ad <s314+0x1d>
    4a14:	49 83 c6 10          	add    r14,0x10
    4a18:	4c 89 f7             	mov    rdi,r14
    4a1b:	31 f6                	xor    esi,esi
    4a1d:	e8 00 00 00 00       	call   4a22 <s314+0x92>
    4a22:	f3 0f 10 44 24 04    	movss  xmm0,DWORD PTR [rsp+0x4]
    4a28:	48 83 c4 08          	add    rsp,0x8
    4a2c:	5b                   	pop    rbx
    4a2d:	41 5e                	pop    r14
    4a2f:	c3                   	ret    

0000000000004a30 <s315>:
    4a30:	55                   	push   rbp
    4a31:	53                   	push   rbx
    4a32:	50                   	push   rax
    4a33:	48 89 fb             	mov    rbx,rdi
    4a36:	bf 00 00 00 00       	mov    edi,0x0
    4a3b:	e8 00 00 00 00       	call   4a40 <s315+0x10>
    4a40:	31 ed                	xor    ebp,ebp
    4a42:	48 89 df             	mov    rdi,rbx
    4a45:	31 f6                	xor    esi,esi
    4a47:	e8 00 00 00 00       	call   4a4c <s315+0x1c>
    4a4c:	48 c7 c0 00 0c fe ff 	mov    rax,0xfffffffffffe0c00
    4a53:	89 e9                	mov    ecx,ebp
    4a55:	48 69 c9 d3 4d 62 10 	imul   rcx,rcx,0x10624dd3
    4a5c:	48 c1 e9 2b          	shr    rcx,0x2b
    4a60:	69 c9 00 7d 00 00    	imul   ecx,ecx,0x7d00
    4a66:	89 ea                	mov    edx,ebp
    4a68:	29 ca                	sub    edx,ecx
    4a6a:	0f 57 c0             	xorps  xmm0,xmm0
    4a6d:	f3 0f 2a c2          	cvtsi2ss xmm0,edx
    4a71:	f3 0f 11 80 00 00 00 	movss  DWORD PTR [rax+0x0],xmm0
    4a78:	00 
    4a79:	83 c5 07             	add    ebp,0x7
    4a7c:	48 83 c0 04          	add    rax,0x4
    4a80:	75 d1                	jne    4a53 <s315+0x23>
    4a82:	31 ed                	xor    ebp,ebp
    4a84:	b8 01 00 00 00       	mov    eax,0x1
    4a89:	f3 0f 10 05 00 00 00 	movss  xmm0,DWORD PTR [rip+0x0]        # 4a91 <s315+0x61>
    4a90:	00 
    4a91:	31 c9                	xor    ecx,ecx
    4a93:	0f 28 c8             	movaps xmm1,xmm0
    4a96:	f3 0f 10 04 85 00 00 	movss  xmm0,DWORD PTR [rax*4+0x0]
    4a9d:	00 00 
    4a9f:	0f 2e c1             	ucomiss xmm0,xmm1
    4aa2:	0f 47 c8             	cmova  ecx,eax
    4aa5:	f3 0f 5f c1          	maxss  xmm0,xmm1
    4aa9:	48 ff c0             	inc    rax
    4aac:	48 3d 00 7d 00 00    	cmp    rax,0x7d00
    4ab2:	75 df                	jne    4a93 <s315+0x63>
    4ab4:	0f 57 c9             	xorps  xmm1,xmm1
    4ab7:	f3 0f 2a c9          	cvtsi2ss xmm1,ecx
    4abb:	f3 0f 58 c1          	addss  xmm0,xmm1
    4abf:	bf 00 00 00 00       	mov    edi,0x0
    4ac4:	be 00 00 00 00       	mov    esi,0x0
    4ac9:	ba 00 00 00 00       	mov    edx,0x0
    4ace:	b9 00 00 00 00       	mov    ecx,0x0
    4ad3:	41 b8 00 00 00 00    	mov    r8d,0x0
    4ad9:	41 b9 00 00 00 00    	mov    r9d,0x0
    4adf:	f3 0f 11 44 24 04    	movss  DWORD PTR [rsp+0x4],xmm0
    4ae5:	68 00 00 00 00       	push   0x0
    4aea:	68 00 00 00 00       	push   0x0
    4aef:	e8 00 00 00 00       	call   4af4 <s315+0xc4>
    4af4:	48 83 c4 10          	add    rsp,0x10
    4af8:	ff c5                	inc    ebp
    4afa:	81 fd a0 86 01 00    	cmp    ebp,0x186a0
    4b00:	75 82                	jne    4a84 <s315+0x54>
    4b02:	48 83 c3 10          	add    rbx,0x10
    4b06:	48 89 df             	mov    rdi,rbx
    4b09:	31 f6                	xor    esi,esi
    4b0b:	e8 00 00 00 00       	call   4b10 <s315+0xe0>
    4b10:	f3 0f 10 44 24 04    	movss  xmm0,DWORD PTR [rsp+0x4]
    4b16:	f3 0f 58 05 00 00 00 	addss  xmm0,DWORD PTR [rip+0x0]        # 4b1e <s315+0xee>
    4b1d:	00 
    4b1e:	48 83 c4 08          	add    rsp,0x8
    4b22:	5b                   	pop    rbx
    4b23:	5d                   	pop    rbp
    4b24:	c3                   	ret    

0000000000004b25 <s316>:
    4b25:	41 56                	push   r14
    4b27:	53                   	push   rbx
    4b28:	50                   	push   rax
    4b29:	49 89 fe             	mov    r14,rdi
    4b2c:	bf 00 00 00 00       	mov    edi,0x0
    4b31:	e8 00 00 00 00       	call   4b36 <s316+0x11>
    4b36:	31 db                	xor    ebx,ebx
    4b38:	4c 89 f7             	mov    rdi,r14
    4b3b:	31 f6                	xor    esi,esi
    4b3d:	e8 00 00 00 00       	call   4b42 <s316+0x1d>
    4b42:	48 c7 c0 04 0c fe ff 	mov    rax,0xfffffffffffe0c04
    4b49:	f3 0f 10 05 00 00 00 	movss  xmm0,DWORD PTR [rip+0x0]        # 4b51 <s316+0x2c>
    4b50:	00 
    4b51:	0f 28 c8             	movaps xmm1,xmm0
    4b54:	f3 0f 10 80 00 00 00 	movss  xmm0,DWORD PTR [rax+0x0]
    4b5b:	00 
    4b5c:	f3 0f 5d c1          	minss  xmm0,xmm1
    4b60:	48 83 c0 04          	add    rax,0x4
    4b64:	75 eb                	jne    4b51 <s316+0x2c>
    4b66:	bf 00 00 00 00       	mov    edi,0x0
    4b6b:	be 00 00 00 00       	mov    esi,0x0
    4b70:	ba 00 00 00 00       	mov    edx,0x0
    4b75:	b9 00 00 00 00       	mov    ecx,0x0
    4b7a:	41 b8 00 00 00 00    	mov    r8d,0x0
    4b80:	41 b9 00 00 00 00    	mov    r9d,0x0
    4b86:	f3 0f 11 44 24 04    	movss  DWORD PTR [rsp+0x4],xmm0
    4b8c:	68 00 00 00 00       	push   0x0
    4b91:	68 00 00 00 00       	push   0x0
    4b96:	e8 00 00 00 00       	call   4b9b <s316+0x76>
    4b9b:	48 83 c4 10          	add    rsp,0x10
    4b9f:	ff c3                	inc    ebx
    4ba1:	81 fb 20 a1 07 00    	cmp    ebx,0x7a120
    4ba7:	75 99                	jne    4b42 <s316+0x1d>
    4ba9:	49 83 c6 10          	add    r14,0x10
    4bad:	4c 89 f7             	mov    rdi,r14
    4bb0:	31 f6                	xor    esi,esi
    4bb2:	e8 00 00 00 00       	call   4bb7 <s316+0x92>
    4bb7:	f3 0f 10 44 24 04    	movss  xmm0,DWORD PTR [rsp+0x4]
    4bbd:	48 83 c4 08          	add    rsp,0x8
    4bc1:	5b                   	pop    rbx
    4bc2:	41 5e                	pop    r14
    4bc4:	c3                   	ret    

0000000000004bc5 <s317>:
    4bc5:	41 56                	push   r14
    4bc7:	53                   	push   rbx
    4bc8:	50                   	push   rax
    4bc9:	49 89 fe             	mov    r14,rdi
    4bcc:	bf 00 00 00 00       	mov    edi,0x0
    4bd1:	e8 00 00 00 00       	call   4bd6 <s317+0x11>
    4bd6:	31 db                	xor    ebx,ebx
    4bd8:	4c 89 f7             	mov    rdi,r14
    4bdb:	31 f6                	xor    esi,esi
    4bdd:	e8 00 00 00 00       	call   4be2 <s317+0x1d>
    4be2:	f3 0f 10 0d 00 00 00 	movss  xmm1,DWORD PTR [rip+0x0]        # 4bea <s317+0x25>
    4be9:	00 
    4bea:	b8 80 3e 00 00       	mov    eax,0x3e80
    4bef:	f3 0f 10 05 00 00 00 	movss  xmm0,DWORD PTR [rip+0x0]        # 4bf7 <s317+0x32>
    4bf6:	00 
    4bf7:	f3 0f 59 c1          	mulss  xmm0,xmm1
    4bfb:	ff c8                	dec    eax
    4bfd:	75 f8                	jne    4bf7 <s317+0x32>
    4bff:	bf 00 00 00 00       	mov    edi,0x0
    4c04:	be 00 00 00 00       	mov    esi,0x0
    4c09:	ba 00 00 00 00       	mov    edx,0x0
    4c0e:	b9 00 00 00 00       	mov    ecx,0x0
    4c13:	41 b8 00 00 00 00    	mov    r8d,0x0
    4c19:	41 b9 00 00 00 00    	mov    r9d,0x0
    4c1f:	f3 0f 11 44 24 04    	movss  DWORD PTR [rsp+0x4],xmm0
    4c25:	68 00 00 00 00       	push   0x0
    4c2a:	68 00 00 00 00       	push   0x0
    4c2f:	e8 00 00 00 00       	call   4c34 <s317+0x6f>
    4c34:	f3 0f 10 0d 00 00 00 	movss  xmm1,DWORD PTR [rip+0x0]        # 4c3c <s317+0x77>
    4c3b:	00 
    4c3c:	48 83 c4 10          	add    rsp,0x10
    4c40:	ff c3                	inc    ebx
    4c42:	81 fb 20 a1 07 00    	cmp    ebx,0x7a120
    4c48:	75 a0                	jne    4bea <s317+0x25>
    4c4a:	49 83 c6 10          	add    r14,0x10
    4c4e:	4c 89 f7             	mov    rdi,r14
    4c51:	31 f6                	xor    esi,esi
    4c53:	e8 00 00 00 00       	call   4c58 <s317+0x93>
    4c58:	f3 0f 10 44 24 04    	movss  xmm0,DWORD PTR [rsp+0x4]
    4c5e:	48 83 c4 08          	add    rsp,0x8
    4c62:	5b                   	pop    rbx
    4c63:	41 5e                	pop    r14
    4c65:	c3                   	ret    

0000000000004c66 <s318>:
    4c66:	41 57                	push   r15
    4c68:	41 56                	push   r14
    4c6a:	41 54                	push   r12
    4c6c:	53                   	push   rbx
    4c6d:	48 83 ec 18          	sub    rsp,0x18
    4c71:	49 89 fe             	mov    r14,rdi
    4c74:	48 8b 47 20          	mov    rax,QWORD PTR [rdi+0x20]
    4c78:	48 63 18             	movsxd rbx,DWORD PTR [rax]
    4c7b:	bf 00 00 00 00       	mov    edi,0x0
    4c80:	e8 00 00 00 00       	call   4c85 <s318+0x1f>
    4c85:	45 31 ff             	xor    r15d,r15d
    4c88:	4c 89 f7             	mov    rdi,r14
    4c8b:	31 f6                	xor    esi,esi
    4c8d:	e8 00 00 00 00       	call   4c92 <s318+0x2c>
    4c92:	4c 8d 24 9d 00 00 00 	lea    r12,[rbx*4+0x0]
    4c99:	00 
    4c9a:	48 c1 e3 02          	shl    rbx,0x2
    4c9e:	0f 28 15 00 00 00 00 	movaps xmm2,XMMWORD PTR [rip+0x0]        # 4ca5 <s318+0x3f>
    4ca5:	f3 0f 10 1d 00 00 00 	movss  xmm3,DWORD PTR [rip+0x0]        # 4cad <s318+0x47>
    4cac:	00 
    4cad:	0f 54 da             	andps  xmm3,xmm2
    4cb0:	b8 01 00 00 00       	mov    eax,0x1
    4cb5:	4c 89 e1             	mov    rcx,r12
    4cb8:	31 d2                	xor    edx,edx
    4cba:	f3 0f 10 09          	movss  xmm1,DWORD PTR [rcx]
    4cbe:	0f 54 ca             	andps  xmm1,xmm2
    4cc1:	0f 2e d9             	ucomiss xmm3,xmm1
    4cc4:	0f 42 d0             	cmovb  edx,eax
    4cc7:	0f 28 c1             	movaps xmm0,xmm1
    4cca:	f3 0f c2 c3 06       	cmpnless xmm0,xmm3
    4ccf:	0f 54 c8             	andps  xmm1,xmm0
    4cd2:	0f 55 c3             	andnps xmm0,xmm3
    4cd5:	0f 56 c1             	orps   xmm0,xmm1
    4cd8:	ff c0                	inc    eax
    4cda:	48 01 d9             	add    rcx,rbx
    4cdd:	0f 28 d8             	movaps xmm3,xmm0
    4ce0:	3d 00 7d 00 00       	cmp    eax,0x7d00
    4ce5:	75 d3                	jne    4cba <s318+0x54>
    4ce7:	0f 57 c9             	xorps  xmm1,xmm1
    4cea:	f3 0f 2a ca          	cvtsi2ss xmm1,edx
    4cee:	f3 0f 58 c1          	addss  xmm0,xmm1
    4cf2:	bf 00 00 00 00       	mov    edi,0x0
    4cf7:	be 00 00 00 00       	mov    esi,0x0
    4cfc:	ba 00 00 00 00       	mov    edx,0x0
    4d01:	b9 00 00 00 00       	mov    ecx,0x0
    4d06:	41 b8 00 00 00 00    	mov    r8d,0x0
    4d0c:	41 b9 00 00 00 00    	mov    r9d,0x0
    4d12:	0f 29 04 24          	movaps XMMWORD PTR [rsp],xmm0
    4d16:	68 00 00 00 00       	push   0x0
    4d1b:	68 00 00 00 00       	push   0x0
    4d20:	e8 00 00 00 00       	call   4d25 <s318+0xbf>
    4d25:	0f 28 15 00 00 00 00 	movaps xmm2,XMMWORD PTR [rip+0x0]        # 4d2c <s318+0xc6>
    4d2c:	48 83 c4 10          	add    rsp,0x10
    4d30:	41 ff c7             	inc    r15d
    4d33:	41 81 ff 50 c3 00 00 	cmp    r15d,0xc350
    4d3a:	0f 85 65 ff ff ff    	jne    4ca5 <s318+0x3f>
    4d40:	49 83 c6 10          	add    r14,0x10
    4d44:	4c 89 f7             	mov    rdi,r14
    4d47:	31 f6                	xor    esi,esi
    4d49:	e8 00 00 00 00       	call   4d4e <s318+0xe8>
    4d4e:	0f 28 04 24          	movaps xmm0,XMMWORD PTR [rsp]
    4d52:	f3 0f 58 05 00 00 00 	addss  xmm0,DWORD PTR [rip+0x0]        # 4d5a <s318+0xf4>
    4d59:	00 
    4d5a:	48 83 c4 18          	add    rsp,0x18
    4d5e:	5b                   	pop    rbx
    4d5f:	41 5c                	pop    r12
    4d61:	41 5e                	pop    r14
    4d63:	41 5f                	pop    r15
    4d65:	c3                   	ret    

0000000000004d66 <s319>:
    4d66:	41 56                	push   r14
    4d68:	53                   	push   rbx
    4d69:	50                   	push   rax
    4d6a:	49 89 fe             	mov    r14,rdi
    4d6d:	bf 00 00 00 00       	mov    edi,0x0
    4d72:	e8 00 00 00 00       	call   4d77 <s319+0x11>
    4d77:	31 db                	xor    ebx,ebx
    4d79:	4c 89 f7             	mov    rdi,r14
    4d7c:	31 f6                	xor    esi,esi
    4d7e:	e8 00 00 00 00       	call   4d83 <s319+0x1d>
    4d83:	0f 57 c0             	xorps  xmm0,xmm0
    4d86:	48 c7 c0 00 0c fe ff 	mov    rax,0xfffffffffffe0c00
    4d8d:	f3 0f 10 90 00 00 00 	movss  xmm2,DWORD PTR [rax+0x0]
    4d94:	00 
    4d95:	f3 0f 10 88 00 00 00 	movss  xmm1,DWORD PTR [rax+0x0]
    4d9c:	00 
    4d9d:	f3 0f 58 ca          	addss  xmm1,xmm2
    4da1:	f3 0f 11 88 00 00 00 	movss  DWORD PTR [rax+0x0],xmm1
    4da8:	00 
    4da9:	f3 0f 58 90 00 00 00 	addss  xmm2,DWORD PTR [rax+0x0]
    4db0:	00 
    4db1:	f3 0f 58 c8          	addss  xmm1,xmm0
    4db5:	f3 0f 11 90 00 00 00 	movss  DWORD PTR [rax+0x0],xmm2
    4dbc:	00 
    4dbd:	0f 28 c2             	movaps xmm0,xmm2
    4dc0:	f3 0f 58 c1          	addss  xmm0,xmm1
    4dc4:	48 83 c0 04          	add    rax,0x4
    4dc8:	75 c3                	jne    4d8d <s319+0x27>
    4dca:	bf 00 00 00 00       	mov    edi,0x0
    4dcf:	be 00 00 00 00       	mov    esi,0x0
    4dd4:	ba 00 00 00 00       	mov    edx,0x0
    4dd9:	b9 00 00 00 00       	mov    ecx,0x0
    4dde:	41 b8 00 00 00 00    	mov    r8d,0x0
    4de4:	41 b9 00 00 00 00    	mov    r9d,0x0
    4dea:	f3 0f 11 44 24 04    	movss  DWORD PTR [rsp+0x4],xmm0
    4df0:	68 00 00 00 00       	push   0x0
    4df5:	68 00 00 00 00       	push   0x0
    4dfa:	e8 00 00 00 00       	call   4dff <s319+0x99>
    4dff:	48 83 c4 10          	add    rsp,0x10
    4e03:	ff c3                	inc    ebx
    4e05:	81 fb 40 0d 03 00    	cmp    ebx,0x30d40
    4e0b:	0f 85 72 ff ff ff    	jne    4d83 <s319+0x1d>
    4e11:	49 83 c6 10          	add    r14,0x10
    4e15:	4c 89 f7             	mov    rdi,r14
    4e18:	31 f6                	xor    esi,esi
    4e1a:	e8 00 00 00 00       	call   4e1f <s319+0xb9>
    4e1f:	f3 0f 10 44 24 04    	movss  xmm0,DWORD PTR [rsp+0x4]
    4e25:	48 83 c4 08          	add    rsp,0x8
    4e29:	5b                   	pop    rbx
    4e2a:	41 5e                	pop    r14
    4e2c:	c3                   	ret    

0000000000004e2d <s3110>:
    4e2d:	41 56                	push   r14
    4e2f:	53                   	push   rbx
    4e30:	50                   	push   rax
    4e31:	49 89 fe             	mov    r14,rdi
    4e34:	bf 00 00 00 00       	mov    edi,0x0
    4e39:	e8 00 00 00 00       	call   4e3e <s3110+0x11>
    4e3e:	31 db                	xor    ebx,ebx
    4e40:	4c 89 f7             	mov    rdi,r14
    4e43:	31 f6                	xor    esi,esi
    4e45:	e8 00 00 00 00       	call   4e4a <s3110+0x1d>
    4e4a:	f3 0f 10 0d 00 00 00 	movss  xmm1,DWORD PTR [rip+0x0]        # 4e52 <s3110+0x25>
    4e51:	00 
    4e52:	b9 00 00 00 00       	mov    ecx,0x0
    4e57:	31 f6                	xor    esi,esi
    4e59:	31 d2                	xor    edx,edx
    4e5b:	31 c0                	xor    eax,eax
    4e5d:	31 ff                	xor    edi,edi
    4e5f:	0f 28 c1             	movaps xmm0,xmm1
    4e62:	f3 0f 10 0c b9       	movss  xmm1,DWORD PTR [rcx+rdi*4]
    4e67:	0f 2e c8             	ucomiss xmm1,xmm0
    4e6a:	0f 47 c7             	cmova  eax,edi
    4e6d:	0f 47 d6             	cmova  edx,esi
    4e70:	f3 0f 5f c8          	maxss  xmm1,xmm0
    4e74:	48 ff c7             	inc    rdi
    4e77:	48 81 ff 00 01 00 00 	cmp    rdi,0x100
    4e7e:	75 df                	jne    4e5f <s3110+0x32>
    4e80:	48 ff c6             	inc    rsi
    4e83:	48 81 c1 00 04 00 00 	add    rcx,0x400
    4e8a:	48 81 fe 00 01 00 00 	cmp    rsi,0x100
    4e91:	75 ca                	jne    4e5d <s3110+0x30>
    4e93:	0f 57 c0             	xorps  xmm0,xmm0
    4e96:	f3 0f 2a c2          	cvtsi2ss xmm0,edx
    4e9a:	f3 0f 58 c8          	addss  xmm1,xmm0
    4e9e:	f3 0f 11 0c 24       	movss  DWORD PTR [rsp],xmm1
    4ea3:	0f 57 d2             	xorps  xmm2,xmm2
    4ea6:	f3 0f 2a d0          	cvtsi2ss xmm2,eax
    4eaa:	0f 28 c1             	movaps xmm0,xmm1
    4ead:	f3 0f 11 54 24 04    	movss  DWORD PTR [rsp+0x4],xmm2
    4eb3:	f3 0f 58 c2          	addss  xmm0,xmm2
    4eb7:	bf 00 00 00 00       	mov    edi,0x0
    4ebc:	be 00 00 00 00       	mov    esi,0x0
    4ec1:	ba 00 00 00 00       	mov    edx,0x0
    4ec6:	b9 00 00 00 00       	mov    ecx,0x0
    4ecb:	41 b8 00 00 00 00    	mov    r8d,0x0
    4ed1:	41 b9 00 00 00 00    	mov    r9d,0x0
    4ed7:	68 00 00 00 00       	push   0x0
    4edc:	68 00 00 00 00       	push   0x0
    4ee1:	e8 00 00 00 00       	call   4ee6 <s3110+0xb9>
    4ee6:	48 83 c4 10          	add    rsp,0x10
    4eea:	ff c3                	inc    ebx
    4eec:	81 fb 58 98 00 00    	cmp    ebx,0x9858
    4ef2:	0f 85 52 ff ff ff    	jne    4e4a <s3110+0x1d>
    4ef8:	49 83 c6 10          	add    r14,0x10
    4efc:	4c 89 f7             	mov    rdi,r14
    4eff:	31 f6                	xor    esi,esi
    4f01:	e8 00 00 00 00       	call   4f06 <s3110+0xd9>
    4f06:	f3 0f 10 0d 00 00 00 	movss  xmm1,DWORD PTR [rip+0x0]        # 4f0e <s3110+0xe1>
    4f0d:	00 
    4f0e:	f3 0f 10 04 24       	movss  xmm0,DWORD PTR [rsp]
    4f13:	f3 0f 58 c1          	addss  xmm0,xmm1
    4f17:	f3 0f 58 44 24 04    	addss  xmm0,DWORD PTR [rsp+0x4]
    4f1d:	f3 0f 58 c1          	addss  xmm0,xmm1
    4f21:	48 83 c4 08          	add    rsp,0x8
    4f25:	5b                   	pop    rbx
    4f26:	41 5e                	pop    r14
    4f28:	c3                   	ret    

0000000000004f29 <s13110>:
    4f29:	41 56                	push   r14
    4f2b:	53                   	push   rbx
    4f2c:	50                   	push   rax
    4f2d:	49 89 fe             	mov    r14,rdi
    4f30:	bf 00 00 00 00       	mov    edi,0x0
    4f35:	e8 00 00 00 00       	call   4f3a <s13110+0x11>
    4f3a:	31 db                	xor    ebx,ebx
    4f3c:	4c 89 f7             	mov    rdi,r14
    4f3f:	31 f6                	xor    esi,esi
    4f41:	e8 00 00 00 00       	call   4f46 <s13110+0x1d>
    4f46:	f3 0f 10 0d 00 00 00 	movss  xmm1,DWORD PTR [rip+0x0]        # 4f4e <s13110+0x25>
