
tsvc.reroll.o:     file format elf64-x86-64


Disassembly of section .text:

0000000000000000 <s000>:
       0:	41 56                	push   r14
       2:	53                   	push   rbx
       3:	50                   	push   rax
       4:	49 89 fe             	mov    r14,rdi
       7:	bf 00 00 00 00       	mov    edi,0x0
       c:	e8 00 00 00 00       	call   11 <s000+0x11>
      11:	31 db                	xor    ebx,ebx
      13:	4c 89 f7             	mov    rdi,r14
      16:	31 f6                	xor    esi,esi
      18:	e8 00 00 00 00       	call   1d <s000+0x1d>
      1d:	f3 0f 10 0d 00 00 00 	movss  xmm1,DWORD PTR [rip+0x0]        # 25 <s000+0x25>
      24:	00 
      25:	48 c7 c0 00 0c fe ff 	mov    rax,0xfffffffffffe0c00
      2c:	f3 0f 10 80 00 00 00 	movss  xmm0,DWORD PTR [rax+0x0]
      33:	00 
      34:	f3 0f 58 c1          	addss  xmm0,xmm1
      38:	f3 0f 11 80 00 00 00 	movss  DWORD PTR [rax+0x0],xmm0
      3f:	00 
      40:	48 83 c0 04          	add    rax,0x4
      44:	75 e6                	jne    2c <s000+0x2c>
      46:	bf 00 00 00 00       	mov    edi,0x0
      4b:	be 00 00 00 00       	mov    esi,0x0
      50:	ba 00 00 00 00       	mov    edx,0x0
      55:	b9 00 00 00 00       	mov    ecx,0x0
      5a:	41 b8 00 00 00 00    	mov    r8d,0x0
      60:	41 b9 00 00 00 00    	mov    r9d,0x0
      66:	0f 57 c0             	xorps  xmm0,xmm0
      69:	68 00 00 00 00       	push   0x0
      6e:	68 00 00 00 00       	push   0x0
      73:	e8 00 00 00 00       	call   78 <s000+0x78>
      78:	f3 0f 10 0d 00 00 00 	movss  xmm1,DWORD PTR [rip+0x0]        # 80 <s000+0x80>
      7f:	00 
      80:	48 83 c4 10          	add    rsp,0x10
      84:	ff c3                	inc    ebx
      86:	81 fb 40 0d 03 00    	cmp    ebx,0x30d40
      8c:	75 97                	jne    25 <s000+0x25>
      8e:	49 83 c6 10          	add    r14,0x10
      92:	4c 89 f7             	mov    rdi,r14
      95:	31 f6                	xor    esi,esi
      97:	e8 00 00 00 00       	call   9c <s000+0x9c>
      9c:	bf 00 00 00 00       	mov    edi,0x0
      a1:	48 83 c4 08          	add    rsp,0x8
      a5:	5b                   	pop    rbx
      a6:	41 5e                	pop    r14
      a8:	e9 00 00 00 00       	jmp    ad <s111>

00000000000000ad <s111>:
      ad:	41 56                	push   r14
      af:	53                   	push   rbx
      b0:	50                   	push   rax
      b1:	49 89 fe             	mov    r14,rdi
      b4:	bf 00 00 00 00       	mov    edi,0x0
      b9:	e8 00 00 00 00       	call   be <s111+0x11>
      be:	31 db                	xor    ebx,ebx
      c0:	4c 89 f7             	mov    rdi,r14
      c3:	31 f6                	xor    esi,esi
      c5:	e8 00 00 00 00       	call   ca <s111+0x1d>
      ca:	48 c7 c0 f1 ff ff ff 	mov    rax,0xfffffffffffffff1
      d1:	f3 0f 10 04 85 00 00 	movss  xmm0,DWORD PTR [rax*4+0x0]
      d8:	00 00 
      da:	f3 0f 58 04 85 00 00 	addss  xmm0,DWORD PTR [rax*4+0x0]
      e1:	00 00 
      e3:	f3 0f 11 04 85 00 00 	movss  DWORD PTR [rax*4+0x0],xmm0
      ea:	00 00 
      ec:	f3 0f 10 04 85 00 00 	movss  xmm0,DWORD PTR [rax*4+0x0]
      f3:	00 00 
      f5:	f3 0f 58 04 85 00 00 	addss  xmm0,DWORD PTR [rax*4+0x0]
      fc:	00 00 
      fe:	f3 0f 11 04 85 00 00 	movss  DWORD PTR [rax*4+0x0],xmm0
     105:	00 00 
     107:	f3 0f 10 04 85 00 00 	movss  xmm0,DWORD PTR [rax*4+0x0]
     10e:	00 00 
     110:	f3 0f 58 04 85 00 00 	addss  xmm0,DWORD PTR [rax*4+0x0]
     117:	00 00 
     119:	f3 0f 11 04 85 00 00 	movss  DWORD PTR [rax*4+0x0],xmm0
     120:	00 00 
     122:	f3 0f 10 04 85 00 00 	movss  xmm0,DWORD PTR [rax*4+0x0]
     129:	00 00 
     12b:	f3 0f 58 04 85 00 00 	addss  xmm0,DWORD PTR [rax*4+0x0]
     132:	00 00 
     134:	f3 0f 11 04 85 00 00 	movss  DWORD PTR [rax*4+0x0],xmm0
     13b:	00 00 
     13d:	f3 0f 10 04 85 00 00 	movss  xmm0,DWORD PTR [rax*4+0x0]
     144:	00 00 
     146:	f3 0f 58 04 85 00 00 	addss  xmm0,DWORD PTR [rax*4+0x0]
     14d:	00 00 
     14f:	f3 0f 11 04 85 00 00 	movss  DWORD PTR [rax*4+0x0],xmm0
     156:	00 00 
     158:	f3 0f 10 04 85 00 00 	movss  xmm0,DWORD PTR [rax*4+0x0]
     15f:	00 00 
     161:	f3 0f 58 04 85 00 00 	addss  xmm0,DWORD PTR [rax*4+0x0]
     168:	00 00 
     16a:	f3 0f 11 04 85 00 00 	movss  DWORD PTR [rax*4+0x0],xmm0
     171:	00 00 
     173:	f3 0f 10 04 85 00 00 	movss  xmm0,DWORD PTR [rax*4+0x0]
     17a:	00 00 
     17c:	f3 0f 58 04 85 00 00 	addss  xmm0,DWORD PTR [rax*4+0x0]
     183:	00 00 
     185:	f3 0f 11 04 85 00 00 	movss  DWORD PTR [rax*4+0x0],xmm0
     18c:	00 00 
     18e:	f3 0f 10 04 85 00 00 	movss  xmm0,DWORD PTR [rax*4+0x0]
     195:	00 00 
     197:	f3 0f 58 04 85 00 00 	addss  xmm0,DWORD PTR [rax*4+0x0]
     19e:	00 00 
     1a0:	f3 0f 11 04 85 00 00 	movss  DWORD PTR [rax*4+0x0],xmm0
     1a7:	00 00 
     1a9:	48 83 c0 10          	add    rax,0x10
     1ad:	48 3d f0 7c 00 00    	cmp    rax,0x7cf0
     1b3:	0f 82 18 ff ff ff    	jb     d1 <s111+0x24>
     1b9:	bf 00 00 00 00       	mov    edi,0x0
     1be:	be 00 00 00 00       	mov    esi,0x0
     1c3:	ba 00 00 00 00       	mov    edx,0x0
     1c8:	b9 00 00 00 00       	mov    ecx,0x0
     1cd:	41 b8 00 00 00 00    	mov    r8d,0x0
     1d3:	41 b9 00 00 00 00    	mov    r9d,0x0
     1d9:	0f 57 c0             	xorps  xmm0,xmm0
     1dc:	68 00 00 00 00       	push   0x0
     1e1:	68 00 00 00 00       	push   0x0
     1e6:	e8 00 00 00 00       	call   1eb <s111+0x13e>
     1eb:	48 83 c4 10          	add    rsp,0x10
     1ef:	ff c3                	inc    ebx
     1f1:	81 fb 40 0d 03 00    	cmp    ebx,0x30d40
     1f7:	0f 85 cd fe ff ff    	jne    ca <s111+0x1d>
     1fd:	49 83 c6 10          	add    r14,0x10
     201:	4c 89 f7             	mov    rdi,r14
     204:	31 f6                	xor    esi,esi
     206:	e8 00 00 00 00       	call   20b <s111+0x15e>
     20b:	bf 00 00 00 00       	mov    edi,0x0
     210:	48 83 c4 08          	add    rsp,0x8
     214:	5b                   	pop    rbx
     215:	41 5e                	pop    r14
     217:	e9 00 00 00 00       	jmp    21c <s1111>

000000000000021c <s1111>:
     21c:	41 56                	push   r14
     21e:	53                   	push   rbx
     21f:	50                   	push   rax
     220:	49 89 fe             	mov    r14,rdi
     223:	bf 00 00 00 00       	mov    edi,0x0
     228:	e8 00 00 00 00       	call   22d <s1111+0x11>
     22d:	31 db                	xor    ebx,ebx
     22f:	4c 89 f7             	mov    rdi,r14
     232:	31 f6                	xor    esi,esi
     234:	e8 00 00 00 00       	call   239 <s1111+0x1d>
     239:	48 c7 c0 00 06 ff ff 	mov    rax,0xffffffffffff0600
     240:	f3 0f 10 80 00 00 00 	movss  xmm0,DWORD PTR [rax+0x0]
     247:	00 
     248:	f3 0f 10 88 00 00 00 	movss  xmm1,DWORD PTR [rax+0x0]
     24f:	00 
     250:	0f 28 d0             	movaps xmm2,xmm0
     253:	f3 0f 59 d1          	mulss  xmm2,xmm1
     257:	f3 0f 10 98 00 00 00 	movss  xmm3,DWORD PTR [rax+0x0]
     25e:	00 
     25f:	f3 0f 59 cb          	mulss  xmm1,xmm3
     263:	f3 0f 58 d1          	addss  xmm2,xmm1
     267:	0f 28 e0             	movaps xmm4,xmm0
     26a:	f3 0f 59 e0          	mulss  xmm4,xmm0
     26e:	f3 0f 58 e2          	addss  xmm4,xmm2
     272:	f3 0f 58 e1          	addss  xmm4,xmm1
     276:	f3 0f 59 c3          	mulss  xmm0,xmm3
     27a:	f3 0f 58 c4          	addss  xmm0,xmm4
     27e:	f3 0f 11 84 00 00 00 	movss  DWORD PTR [rax+rax*1+0x0],xmm0
     285:	00 00 
     287:	48 83 c0 04          	add    rax,0x4
     28b:	75 b3                	jne    240 <s1111+0x24>
     28d:	bf 00 00 00 00       	mov    edi,0x0
     292:	be 00 00 00 00       	mov    esi,0x0
     297:	ba 00 00 00 00       	mov    edx,0x0
     29c:	b9 00 00 00 00       	mov    ecx,0x0
     2a1:	41 b8 00 00 00 00    	mov    r8d,0x0
     2a7:	41 b9 00 00 00 00    	mov    r9d,0x0
     2ad:	0f 57 c0             	xorps  xmm0,xmm0
     2b0:	68 00 00 00 00       	push   0x0
     2b5:	68 00 00 00 00       	push   0x0
     2ba:	e8 00 00 00 00       	call   2bf <s1111+0xa3>
     2bf:	48 83 c4 10          	add    rsp,0x10
     2c3:	ff c3                	inc    ebx
     2c5:	81 fb 40 0d 03 00    	cmp    ebx,0x30d40
     2cb:	0f 85 68 ff ff ff    	jne    239 <s1111+0x1d>
     2d1:	49 83 c6 10          	add    r14,0x10
     2d5:	4c 89 f7             	mov    rdi,r14
     2d8:	31 f6                	xor    esi,esi
     2da:	e8 00 00 00 00       	call   2df <s1111+0xc3>
     2df:	bf 00 00 00 00       	mov    edi,0x0
     2e4:	48 83 c4 08          	add    rsp,0x8
     2e8:	5b                   	pop    rbx
     2e9:	41 5e                	pop    r14
     2eb:	e9 00 00 00 00       	jmp    2f0 <s112>

00000000000002f0 <s112>:
     2f0:	41 56                	push   r14
     2f2:	53                   	push   rbx
     2f3:	50                   	push   rax
     2f4:	49 89 fe             	mov    r14,rdi
     2f7:	bf 00 00 00 00       	mov    edi,0x0
     2fc:	e8 00 00 00 00       	call   301 <s112+0x11>
     301:	31 db                	xor    ebx,ebx
     303:	4c 89 f7             	mov    rdi,r14
     306:	31 f6                	xor    esi,esi
     308:	e8 00 00 00 00       	call   30d <s112+0x1d>
     30d:	b8 dc f3 01 00       	mov    eax,0x1f3dc
     312:	f3 0f 10 80 00 00 00 	movss  xmm0,DWORD PTR [rax+0x0]
     319:	00 
     31a:	f3 0f 58 80 00 00 00 	addss  xmm0,DWORD PTR [rax+0x0]
     321:	00 
     322:	f3 0f 11 80 00 00 00 	movss  DWORD PTR [rax+0x0],xmm0
     329:	00 
     32a:	f3 0f 10 80 00 00 00 	movss  xmm0,DWORD PTR [rax+0x0]
     331:	00 
     332:	f3 0f 58 80 00 00 00 	addss  xmm0,DWORD PTR [rax+0x0]
     339:	00 
     33a:	f3 0f 11 80 00 00 00 	movss  DWORD PTR [rax+0x0],xmm0
     341:	00 
     342:	f3 0f 10 80 00 00 00 	movss  xmm0,DWORD PTR [rax+0x0]
     349:	00 
     34a:	f3 0f 58 80 00 00 00 	addss  xmm0,DWORD PTR [rax+0x0]
     351:	00 
     352:	f3 0f 11 80 00 00 00 	movss  DWORD PTR [rax+0x0],xmm0
     359:	00 
     35a:	f3 0f 10 80 00 00 00 	movss  xmm0,DWORD PTR [rax+0x0]
     361:	00 
     362:	f3 0f 58 80 00 00 00 	addss  xmm0,DWORD PTR [rax+0x0]
     369:	00 
     36a:	f3 0f 11 80 00 00 00 	movss  DWORD PTR [rax+0x0],xmm0
     371:	00 
     372:	f3 0f 10 80 00 00 00 	movss  xmm0,DWORD PTR [rax+0x0]
     379:	00 
     37a:	f3 0f 58 80 00 00 00 	addss  xmm0,DWORD PTR [rax+0x0]
     381:	00 
     382:	f3 0f 11 80 00 00 00 	movss  DWORD PTR [rax+0x0],xmm0
     389:	00 
     38a:	f3 0f 10 80 00 00 00 	movss  xmm0,DWORD PTR [rax+0x0]
     391:	00 
     392:	f3 0f 58 80 00 00 00 	addss  xmm0,DWORD PTR [rax+0x0]
     399:	00 
     39a:	f3 0f 11 80 00 00 00 	movss  DWORD PTR [rax+0x0],xmm0
     3a1:	00 
     3a2:	f3 0f 10 80 00 00 00 	movss  xmm0,DWORD PTR [rax+0x0]
     3a9:	00 
     3aa:	f3 0f 58 80 00 00 00 	addss  xmm0,DWORD PTR [rax+0x0]
     3b1:	00 
     3b2:	f3 0f 11 80 00 00 00 	movss  DWORD PTR [rax+0x0],xmm0
     3b9:	00 
     3ba:	48 83 f8 fc          	cmp    rax,0xfffffffffffffffc
     3be:	74 21                	je     3e1 <s112+0xf1>
     3c0:	f3 0f 10 80 00 00 00 	movss  xmm0,DWORD PTR [rax+0x0]
     3c7:	00 
     3c8:	f3 0f 58 80 00 00 00 	addss  xmm0,DWORD PTR [rax+0x0]
     3cf:	00 
     3d0:	f3 0f 11 80 00 00 00 	movss  DWORD PTR [rax+0x0],xmm0
     3d7:	00 
     3d8:	48 83 c0 e0          	add    rax,0xffffffffffffffe0
     3dc:	e9 31 ff ff ff       	jmp    312 <s112+0x22>
     3e1:	bf 00 00 00 00       	mov    edi,0x0
     3e6:	be 00 00 00 00       	mov    esi,0x0
     3eb:	ba 00 00 00 00       	mov    edx,0x0
     3f0:	b9 00 00 00 00       	mov    ecx,0x0
     3f5:	41 b8 00 00 00 00    	mov    r8d,0x0
     3fb:	41 b9 00 00 00 00    	mov    r9d,0x0
     401:	0f 57 c0             	xorps  xmm0,xmm0
     404:	68 00 00 00 00       	push   0x0
     409:	68 00 00 00 00       	push   0x0
     40e:	e8 00 00 00 00       	call   413 <s112+0x123>
     413:	48 83 c4 10          	add    rsp,0x10
     417:	ff c3                	inc    ebx
     419:	81 fb e0 93 04 00    	cmp    ebx,0x493e0
     41f:	0f 85 e8 fe ff ff    	jne    30d <s112+0x1d>
     425:	49 83 c6 10          	add    r14,0x10
     429:	4c 89 f7             	mov    rdi,r14
     42c:	31 f6                	xor    esi,esi
     42e:	e8 00 00 00 00       	call   433 <s112+0x143>
     433:	bf 00 00 00 00       	mov    edi,0x0
     438:	48 83 c4 08          	add    rsp,0x8
     43c:	5b                   	pop    rbx
     43d:	41 5e                	pop    r14
     43f:	e9 00 00 00 00       	jmp    444 <s1112>

0000000000000444 <s1112>:
     444:	41 56                	push   r14
     446:	53                   	push   rbx
     447:	50                   	push   rax
     448:	49 89 fe             	mov    r14,rdi
     44b:	bf 00 00 00 00       	mov    edi,0x0
     450:	e8 00 00 00 00       	call   455 <s1112+0x11>
     455:	31 db                	xor    ebx,ebx
     457:	4c 89 f7             	mov    rdi,r14
     45a:	31 f6                	xor    esi,esi
     45c:	e8 00 00 00 00       	call   461 <s1112+0x1d>
     461:	f3 0f 10 0d 00 00 00 	movss  xmm1,DWORD PTR [rip+0x0]        # 469 <s1112+0x25>
     468:	00 
     469:	b8 00 f4 01 00       	mov    eax,0x1f400
     46e:	f3 0f 10 80 00 00 00 	movss  xmm0,DWORD PTR [rax+0x0]
     475:	00 
     476:	f3 0f 58 c1          	addss  xmm0,xmm1
     47a:	f3 0f 11 80 00 00 00 	movss  DWORD PTR [rax+0x0],xmm0
     481:	00 
     482:	f3 0f 10 80 00 00 00 	movss  xmm0,DWORD PTR [rax+0x0]
     489:	00 
     48a:	f3 0f 58 c1          	addss  xmm0,xmm1
     48e:	f3 0f 11 80 00 00 00 	movss  DWORD PTR [rax+0x0],xmm0
     495:	00 
     496:	f3 0f 10 80 00 00 00 	movss  xmm0,DWORD PTR [rax+0x0]
     49d:	00 
     49e:	f3 0f 58 c1          	addss  xmm0,xmm1
     4a2:	f3 0f 11 80 00 00 00 	movss  DWORD PTR [rax+0x0],xmm0
     4a9:	00 
     4aa:	f3 0f 10 80 00 00 00 	movss  xmm0,DWORD PTR [rax+0x0]
     4b1:	00 
     4b2:	f3 0f 58 c1          	addss  xmm0,xmm1
     4b6:	f3 0f 11 80 00 00 00 	movss  DWORD PTR [rax+0x0],xmm0
     4bd:	00 
     4be:	f3 0f 10 80 00 00 00 	movss  xmm0,DWORD PTR [rax+0x0]
     4c5:	00 
     4c6:	f3 0f 58 c1          	addss  xmm0,xmm1
     4ca:	f3 0f 11 80 00 00 00 	movss  DWORD PTR [rax+0x0],xmm0
     4d1:	00 
     4d2:	f3 0f 10 80 00 00 00 	movss  xmm0,DWORD PTR [rax+0x0]
     4d9:	00 
     4da:	f3 0f 58 c1          	addss  xmm0,xmm1
     4de:	f3 0f 11 80 00 00 00 	movss  DWORD PTR [rax+0x0],xmm0
     4e5:	00 
     4e6:	f3 0f 10 80 00 00 00 	movss  xmm0,DWORD PTR [rax+0x0]
     4ed:	00 
     4ee:	f3 0f 58 c1          	addss  xmm0,xmm1
     4f2:	f3 0f 11 80 00 00 00 	movss  DWORD PTR [rax+0x0],xmm0
     4f9:	00 
     4fa:	f3 0f 10 80 00 00 00 	movss  xmm0,DWORD PTR [rax+0x0]
     501:	00 
     502:	f3 0f 58 c1          	addss  xmm0,xmm1
     506:	f3 0f 11 80 00 00 00 	movss  DWORD PTR [rax+0x0],xmm0
     50d:	00 
     50e:	48 83 c0 e0          	add    rax,0xffffffffffffffe0
     512:	0f 85 56 ff ff ff    	jne    46e <s1112+0x2a>
     518:	bf 00 00 00 00       	mov    edi,0x0
     51d:	be 00 00 00 00       	mov    esi,0x0
     522:	ba 00 00 00 00       	mov    edx,0x0
     527:	b9 00 00 00 00       	mov    ecx,0x0
     52c:	41 b8 00 00 00 00    	mov    r8d,0x0
     532:	41 b9 00 00 00 00    	mov    r9d,0x0
     538:	0f 57 c0             	xorps  xmm0,xmm0
     53b:	68 00 00 00 00       	push   0x0
     540:	68 00 00 00 00       	push   0x0
     545:	e8 00 00 00 00       	call   54a <s1112+0x106>
     54a:	f3 0f 10 0d 00 00 00 	movss  xmm1,DWORD PTR [rip+0x0]        # 552 <s1112+0x10e>
     551:	00 
     552:	48 83 c4 10          	add    rsp,0x10
     556:	ff c3                	inc    ebx
     558:	81 fb e0 93 04 00    	cmp    ebx,0x493e0
     55e:	0f 85 05 ff ff ff    	jne    469 <s1112+0x25>
     564:	49 83 c6 10          	add    r14,0x10
     568:	4c 89 f7             	mov    rdi,r14
     56b:	31 f6                	xor    esi,esi
     56d:	e8 00 00 00 00       	call   572 <s1112+0x12e>
     572:	bf 00 00 00 00       	mov    edi,0x0
     577:	48 83 c4 08          	add    rsp,0x8
     57b:	5b                   	pop    rbx
     57c:	41 5e                	pop    r14
     57e:	e9 00 00 00 00       	jmp    583 <s113>

0000000000000583 <s113>:
     583:	41 56                	push   r14
     585:	53                   	push   rbx
     586:	50                   	push   rax
     587:	49 89 fe             	mov    r14,rdi
     58a:	bf 00 00 00 00       	mov    edi,0x0
     58f:	e8 00 00 00 00       	call   594 <s113+0x11>
     594:	31 db                	xor    ebx,ebx
     596:	4c 89 f7             	mov    rdi,r14
     599:	31 f6                	xor    esi,esi
     59b:	e8 00 00 00 00       	call   5a0 <s113+0x1d>
     5a0:	48 c7 c0 20 0c fe ff 	mov    rax,0xfffffffffffe0c20
     5a7:	f3 0f 10 05 00 00 00 	movss  xmm0,DWORD PTR [rip+0x0]        # 5af <s113+0x2c>
     5ae:	00 
     5af:	f3 0f 58 80 00 00 00 	addss  xmm0,DWORD PTR [rax+0x0]
     5b6:	00 
     5b7:	f3 0f 11 80 00 00 00 	movss  DWORD PTR [rax+0x0],xmm0
     5be:	00 
     5bf:	f3 0f 10 05 00 00 00 	movss  xmm0,DWORD PTR [rip+0x0]        # 5c7 <s113+0x44>
     5c6:	00 
     5c7:	f3 0f 10 88 00 00 00 	movss  xmm1,DWORD PTR [rax+0x0]
     5ce:	00 
     5cf:	f3 0f 58 c8          	addss  xmm1,xmm0
     5d3:	f3 0f 11 88 00 00 00 	movss  DWORD PTR [rax+0x0],xmm1
     5da:	00 
     5db:	f3 0f 10 88 00 00 00 	movss  xmm1,DWORD PTR [rax+0x0]
     5e2:	00 
     5e3:	f3 0f 58 c8          	addss  xmm1,xmm0
     5e7:	f3 0f 11 88 00 00 00 	movss  DWORD PTR [rax+0x0],xmm1
     5ee:	00 
     5ef:	f3 0f 10 88 00 00 00 	movss  xmm1,DWORD PTR [rax+0x0]
     5f6:	00 
     5f7:	f3 0f 58 c8          	addss  xmm1,xmm0
     5fb:	f3 0f 11 88 00 00 00 	movss  DWORD PTR [rax+0x0],xmm1
     602:	00 
     603:	f3 0f 10 88 00 00 00 	movss  xmm1,DWORD PTR [rax+0x0]
     60a:	00 
     60b:	f3 0f 58 c8          	addss  xmm1,xmm0
     60f:	f3 0f 11 88 00 00 00 	movss  DWORD PTR [rax+0x0],xmm1
     616:	00 
     617:	f3 0f 10 88 00 00 00 	movss  xmm1,DWORD PTR [rax+0x0]
     61e:	00 
     61f:	f3 0f 58 c8          	addss  xmm1,xmm0
     623:	f3 0f 11 88 00 00 00 	movss  DWORD PTR [rax+0x0],xmm1
     62a:	00 
     62b:	f3 0f 10 88 00 00 00 	movss  xmm1,DWORD PTR [rax+0x0]
     632:	00 
     633:	f3 0f 58 c8          	addss  xmm1,xmm0
     637:	f3 0f 11 88 00 00 00 	movss  DWORD PTR [rax+0x0],xmm1
     63e:	00 
     63f:	48 85 c0             	test   rax,rax
     642:	74 1d                	je     661 <s113+0xde>
     644:	f3 0f 10 88 00 00 00 	movss  xmm1,DWORD PTR [rax+0x0]
     64b:	00 
     64c:	f3 0f 58 c8          	addss  xmm1,xmm0
     650:	f3 0f 11 88 00 00 00 	movss  DWORD PTR [rax+0x0],xmm1
     657:	00 
     658:	48 83 c0 20          	add    rax,0x20
     65c:	e9 4e ff ff ff       	jmp    5af <s113+0x2c>
     661:	bf 00 00 00 00       	mov    edi,0x0
     666:	be 00 00 00 00       	mov    esi,0x0
     66b:	ba 00 00 00 00       	mov    edx,0x0
     670:	b9 00 00 00 00       	mov    ecx,0x0
     675:	41 b8 00 00 00 00    	mov    r8d,0x0
     67b:	41 b9 00 00 00 00    	mov    r9d,0x0
     681:	0f 57 c0             	xorps  xmm0,xmm0
     684:	68 00 00 00 00       	push   0x0
     689:	68 00 00 00 00       	push   0x0
     68e:	e8 00 00 00 00       	call   693 <s113+0x110>
     693:	48 83 c4 10          	add    rsp,0x10
     697:	ff c3                	inc    ebx
     699:	81 fb 80 1a 06 00    	cmp    ebx,0x61a80
     69f:	0f 85 fb fe ff ff    	jne    5a0 <s113+0x1d>
     6a5:	49 83 c6 10          	add    r14,0x10
     6a9:	4c 89 f7             	mov    rdi,r14
     6ac:	31 f6                	xor    esi,esi
     6ae:	e8 00 00 00 00       	call   6b3 <s113+0x130>
     6b3:	bf 00 00 00 00       	mov    edi,0x0
     6b8:	48 83 c4 08          	add    rsp,0x8
     6bc:	5b                   	pop    rbx
     6bd:	41 5e                	pop    r14
     6bf:	e9 00 00 00 00       	jmp    6c4 <s1113>

00000000000006c4 <s1113>:
     6c4:	41 56                	push   r14
     6c6:	53                   	push   rbx
     6c7:	50                   	push   rax
     6c8:	49 89 fe             	mov    r14,rdi
     6cb:	bf 00 00 00 00       	mov    edi,0x0
     6d0:	e8 00 00 00 00       	call   6d5 <s1113+0x11>
     6d5:	31 db                	xor    ebx,ebx
     6d7:	4c 89 f7             	mov    rdi,r14
     6da:	31 f6                	xor    esi,esi
     6dc:	e8 00 00 00 00       	call   6e1 <s1113+0x1d>
     6e1:	48 c7 c0 00 0c fe ff 	mov    rax,0xfffffffffffe0c00
     6e8:	f3 0f 10 05 00 00 00 	movss  xmm0,DWORD PTR [rip+0x0]        # 6f0 <s1113+0x2c>
     6ef:	00 
     6f0:	f3 0f 58 80 00 00 00 	addss  xmm0,DWORD PTR [rax+0x0]
     6f7:	00 
     6f8:	f3 0f 11 80 00 00 00 	movss  DWORD PTR [rax+0x0],xmm0
     6ff:	00 
     700:	48 83 c0 04          	add    rax,0x4
     704:	75 e2                	jne    6e8 <s1113+0x24>
     706:	bf 00 00 00 00       	mov    edi,0x0
     70b:	be 00 00 00 00       	mov    esi,0x0
     710:	ba 00 00 00 00       	mov    edx,0x0
     715:	b9 00 00 00 00       	mov    ecx,0x0
     71a:	41 b8 00 00 00 00    	mov    r8d,0x0
     720:	41 b9 00 00 00 00    	mov    r9d,0x0
     726:	0f 57 c0             	xorps  xmm0,xmm0
     729:	68 00 00 00 00       	push   0x0
     72e:	68 00 00 00 00       	push   0x0
     733:	e8 00 00 00 00       	call   738 <s1113+0x74>
     738:	48 83 c4 10          	add    rsp,0x10
     73c:	ff c3                	inc    ebx
     73e:	81 fb 40 0d 03 00    	cmp    ebx,0x30d40
     744:	75 9b                	jne    6e1 <s1113+0x1d>
     746:	49 83 c6 10          	add    r14,0x10
     74a:	4c 89 f7             	mov    rdi,r14
     74d:	31 f6                	xor    esi,esi
     74f:	e8 00 00 00 00       	call   754 <s1113+0x90>
     754:	bf 00 00 00 00       	mov    edi,0x0
     759:	48 83 c4 08          	add    rsp,0x8
     75d:	5b                   	pop    rbx
     75e:	41 5e                	pop    r14
     760:	e9 00 00 00 00       	jmp    765 <s114>

0000000000000765 <s114>:
     765:	41 56                	push   r14
     767:	53                   	push   rbx
     768:	50                   	push   rax
     769:	49 89 fe             	mov    r14,rdi
     76c:	bf 00 00 00 00       	mov    edi,0x0
     771:	e8 00 00 00 00       	call   776 <s114+0x11>
     776:	31 db                	xor    ebx,ebx
     778:	4c 89 f7             	mov    rdi,r14
     77b:	31 f6                	xor    esi,esi
     77d:	e8 00 00 00 00       	call   782 <s114+0x1d>
     782:	b8 00 00 00 00       	mov    eax,0x0
     787:	31 c9                	xor    ecx,ecx
     789:	31 d2                	xor    edx,edx
     78b:	48 85 d2             	test   rdx,rdx
     78e:	74 2a                	je     7ba <s114+0x55>
     790:	48 89 c6             	mov    rsi,rax
     793:	31 ff                	xor    edi,edi
     795:	f3 0f 10 06          	movss  xmm0,DWORD PTR [rsi]
     799:	f3 0f 58 84 b9 00 00 	addss  xmm0,DWORD PTR [rcx+rdi*4+0x0]
     7a0:	00 00 
     7a2:	f3 0f 11 84 b9 00 00 	movss  DWORD PTR [rcx+rdi*4+0x0],xmm0
     7a9:	00 00 
     7ab:	48 ff c7             	inc    rdi
     7ae:	48 81 c6 00 04 00 00 	add    rsi,0x400
     7b5:	48 39 fa             	cmp    rdx,rdi
     7b8:	75 db                	jne    795 <s114+0x30>
     7ba:	48 ff c2             	inc    rdx
     7bd:	48 81 c1 00 04 00 00 	add    rcx,0x400
     7c4:	48 83 c0 04          	add    rax,0x4
     7c8:	48 81 fa 00 01 00 00 	cmp    rdx,0x100
     7cf:	75 ba                	jne    78b <s114+0x26>
     7d1:	bf 00 00 00 00       	mov    edi,0x0
     7d6:	be 00 00 00 00       	mov    esi,0x0
     7db:	ba 00 00 00 00       	mov    edx,0x0
     7e0:	b9 00 00 00 00       	mov    ecx,0x0
     7e5:	41 b8 00 00 00 00    	mov    r8d,0x0
     7eb:	41 b9 00 00 00 00    	mov    r9d,0x0
     7f1:	0f 57 c0             	xorps  xmm0,xmm0
     7f4:	68 00 00 00 00       	push   0x0
     7f9:	68 00 00 00 00       	push   0x0
     7fe:	e8 00 00 00 00       	call   803 <s114+0x9e>
     803:	48 83 c4 10          	add    rsp,0x10
     807:	ff c3                	inc    ebx
     809:	81 fb b0 30 01 00    	cmp    ebx,0x130b0
     80f:	0f 85 6d ff ff ff    	jne    782 <s114+0x1d>
     815:	49 83 c6 10          	add    r14,0x10
     819:	4c 89 f7             	mov    rdi,r14
     81c:	31 f6                	xor    esi,esi
     81e:	e8 00 00 00 00       	call   823 <s114+0xbe>
     823:	bf 00 00 00 00       	mov    edi,0x0
     828:	48 83 c4 08          	add    rsp,0x8
     82c:	5b                   	pop    rbx
     82d:	41 5e                	pop    r14
     82f:	e9 00 00 00 00       	jmp    834 <s115>

0000000000000834 <s115>:
     834:	41 57                	push   r15
     836:	41 56                	push   r14
     838:	41 54                	push   r12
     83a:	53                   	push   rbx
     83b:	50                   	push   rax
     83c:	49 89 fe             	mov    r14,rdi
     83f:	bf 00 00 00 00       	mov    edi,0x0
     844:	e8 00 00 00 00       	call   849 <s115+0x15>
     849:	45 31 ff             	xor    r15d,r15d
     84c:	4c 89 f7             	mov    rdi,r14
     84f:	31 f6                	xor    esi,esi
     851:	e8 00 00 00 00       	call   856 <s115+0x22>
     856:	41 ba 01 00 00 00    	mov    r10d,0x1
     85c:	49 c7 c3 ff ff ff ff 	mov    r11,0xffffffffffffffff
     863:	ba 00 00 00 00       	mov    edx,0x0
     868:	41 bc 00 00 00 00    	mov    r12d,0x0
     86e:	41 b9 00 00 00 00    	mov    r9d,0x0
     874:	45 31 c0             	xor    r8d,r8d
     877:	4c 89 c3             	mov    rbx,r8
     87a:	49 ff c0             	inc    r8
     87d:	48 81 fb fe 00 00 00 	cmp    rbx,0xfe
     884:	0f 87 8b 00 00 00    	ja     915 <s115+0xe1>
     88a:	b9 07 00 00 00       	mov    ecx,0x7
     88f:	29 d9                	sub    ecx,ebx
     891:	4c 89 d0             	mov    rax,r10
     894:	f6 c1 07             	test   cl,0x7
     897:	74 2f                	je     8c8 <s115+0x94>
     899:	44 89 df             	mov    edi,r11d
     89c:	83 e7 07             	and    edi,0x7
     89f:	31 c0                	xor    eax,eax
     8a1:	f3 41 0f 10 04 84    	movss  xmm0,DWORD PTR [r12+rax*4]
     8a7:	f3 0f 59 04 9d 00 00 	mulss  xmm0,DWORD PTR [rbx*4+0x0]
     8ae:	00 00 
     8b0:	f3 0f 10 0c 82       	movss  xmm1,DWORD PTR [rdx+rax*4]
     8b5:	f3 0f 5c c8          	subss  xmm1,xmm0
     8b9:	f3 0f 11 0c 82       	movss  DWORD PTR [rdx+rax*4],xmm1
     8be:	48 ff c0             	inc    rax
     8c1:	39 c7                	cmp    edi,eax
     8c3:	75 dc                	jne    8a1 <s115+0x6d>
     8c5:	4c 29 d8             	sub    rax,r11
     8c8:	b9 fe 00 00 00       	mov    ecx,0xfe
     8cd:	29 d9                	sub    ecx,ebx
     8cf:	83 f9 07             	cmp    ecx,0x7
     8d2:	72 41                	jb     915 <s115+0xe1>
     8d4:	bf f8 00 00 00       	mov    edi,0xf8
     8d9:	48 29 c7             	sub    rdi,rax
     8dc:	48 83 cf 07          	or     rdi,0x7
     8e0:	48 ff c7             	inc    rdi
     8e3:	48 8d 0c 85 00 00 00 	lea    rcx,[rax*4+0x0]
     8ea:	00 
     8eb:	49 8d 04 81          	lea    rax,[r9+rax*4]
     8ef:	31 f6                	xor    esi,esi
     8f1:	f3 0f 10 04 b0       	movss  xmm0,DWORD PTR [rax+rsi*4]
     8f6:	f3 0f 59 04 9d 00 00 	mulss  xmm0,DWORD PTR [rbx*4+0x0]
     8fd:	00 00 
     8ff:	f3 0f 10 0c b1       	movss  xmm1,DWORD PTR [rcx+rsi*4]
     904:	f3 0f 5c c8          	subss  xmm1,xmm0
     908:	f3 0f 11 0c b1       	movss  DWORD PTR [rcx+rsi*4],xmm1
     90d:	48 ff c6             	inc    rsi
     910:	48 39 f7             	cmp    rdi,rsi
     913:	75 dc                	jne    8f1 <s115+0xbd>
     915:	49 ff c2             	inc    r10
     918:	49 ff cb             	dec    r11
     91b:	48 83 c2 04          	add    rdx,0x4
     91f:	49 81 c4 04 04 00 00 	add    r12,0x404
     926:	49 81 c1 00 04 00 00 	add    r9,0x400
     92d:	49 81 f8 00 01 00 00 	cmp    r8,0x100
     934:	0f 85 3d ff ff ff    	jne    877 <s115+0x43>
     93a:	bf 00 00 00 00       	mov    edi,0x0
     93f:	be 00 00 00 00       	mov    esi,0x0
     944:	ba 00 00 00 00       	mov    edx,0x0
     949:	b9 00 00 00 00       	mov    ecx,0x0
     94e:	41 b8 00 00 00 00    	mov    r8d,0x0
     954:	41 b9 00 00 00 00    	mov    r9d,0x0
     95a:	0f 57 c0             	xorps  xmm0,xmm0
     95d:	68 00 00 00 00       	push   0x0
     962:	68 00 00 00 00       	push   0x0
     967:	e8 00 00 00 00       	call   96c <s115+0x138>
     96c:	48 83 c4 10          	add    rsp,0x10
     970:	41 ff c7             	inc    r15d
     973:	41 81 ff 70 f3 05 00 	cmp    r15d,0x5f370
     97a:	0f 85 d6 fe ff ff    	jne    856 <s115+0x22>
     980:	49 83 c6 10          	add    r14,0x10
     984:	4c 89 f7             	mov    rdi,r14
     987:	31 f6                	xor    esi,esi
     989:	e8 00 00 00 00       	call   98e <s115+0x15a>
     98e:	bf 00 00 00 00       	mov    edi,0x0
     993:	48 83 c4 08          	add    rsp,0x8
     997:	5b                   	pop    rbx
     998:	41 5c                	pop    r12
     99a:	41 5e                	pop    r14
     99c:	41 5f                	pop    r15
     99e:	e9 00 00 00 00       	jmp    9a3 <s1115>

00000000000009a3 <s1115>:
     9a3:	41 56                	push   r14
     9a5:	53                   	push   rbx
     9a6:	50                   	push   rax
     9a7:	49 89 fe             	mov    r14,rdi
     9aa:	bf 00 00 00 00       	mov    edi,0x0
     9af:	e8 00 00 00 00       	call   9b4 <s1115+0x11>
     9b4:	31 db                	xor    ebx,ebx
     9b6:	4c 89 f7             	mov    rdi,r14
     9b9:	31 f6                	xor    esi,esi
     9bb:	e8 00 00 00 00       	call   9c0 <s1115+0x1d>
     9c0:	b8 00 00 00 00       	mov    eax,0x0
     9c5:	31 c9                	xor    ecx,ecx
     9c7:	31 d2                	xor    edx,edx
     9c9:	48 89 ce             	mov    rsi,rcx
     9cc:	31 ff                	xor    edi,edi
     9ce:	f3 0f 10 86 00 00 00 	movss  xmm0,DWORD PTR [rsi+0x0]
     9d5:	00 
     9d6:	f3 0f 59 04 b8       	mulss  xmm0,DWORD PTR [rax+rdi*4]
     9db:	f3 0f 58 86 00 00 00 	addss  xmm0,DWORD PTR [rsi+0x0]
     9e2:	00 
     9e3:	f3 0f 11 86 00 00 00 	movss  DWORD PTR [rsi+0x0],xmm0
     9ea:	00 
     9eb:	48 81 c7 00 01 00 00 	add    rdi,0x100
     9f2:	48 83 c6 04          	add    rsi,0x4
     9f6:	48 81 ff 00 00 01 00 	cmp    rdi,0x10000
     9fd:	75 cf                	jne    9ce <s1115+0x2b>
     9ff:	48 ff c2             	inc    rdx
     a02:	48 81 c1 00 04 00 00 	add    rcx,0x400
     a09:	48 83 c0 04          	add    rax,0x4
     a0d:	48 81 fa 00 01 00 00 	cmp    rdx,0x100
     a14:	75 b3                	jne    9c9 <s1115+0x26>
     a16:	bf 00 00 00 00       	mov    edi,0x0
     a1b:	be 00 00 00 00       	mov    esi,0x0
     a20:	ba 00 00 00 00       	mov    edx,0x0
     a25:	b9 00 00 00 00       	mov    ecx,0x0
     a2a:	41 b8 00 00 00 00    	mov    r8d,0x0
     a30:	41 b9 00 00 00 00    	mov    r9d,0x0
     a36:	0f 57 c0             	xorps  xmm0,xmm0
     a39:	68 00 00 00 00       	push   0x0
     a3e:	68 00 00 00 00       	push   0x0
     a43:	e8 00 00 00 00       	call   a48 <s1115+0xa5>
     a48:	48 83 c4 10          	add    rsp,0x10
     a4c:	ff c3                	inc    ebx
     a4e:	81 fb 58 98 00 00    	cmp    ebx,0x9858
     a54:	0f 85 66 ff ff ff    	jne    9c0 <s1115+0x1d>
     a5a:	49 83 c6 10          	add    r14,0x10
     a5e:	4c 89 f7             	mov    rdi,r14
     a61:	31 f6                	xor    esi,esi
     a63:	e8 00 00 00 00       	call   a68 <s1115+0xc5>
     a68:	bf 00 00 00 00       	mov    edi,0x0
     a6d:	48 83 c4 08          	add    rsp,0x8
     a71:	5b                   	pop    rbx
     a72:	41 5e                	pop    r14
     a74:	e9 00 00 00 00       	jmp    a79 <s116>

0000000000000a79 <s116>:
     a79:	41 56                	push   r14
     a7b:	53                   	push   rbx
     a7c:	50                   	push   rax
     a7d:	49 89 fe             	mov    r14,rdi
     a80:	bf 00 00 00 00       	mov    edi,0x0
     a85:	e8 00 00 00 00       	call   a8a <s116+0x11>
     a8a:	31 db                	xor    ebx,ebx
     a8c:	4c 89 f7             	mov    rdi,r14
     a8f:	31 f6                	xor    esi,esi
     a91:	e8 00 00 00 00       	call   a96 <s116+0x1d>
     a96:	48 c7 c0 fb ff ff ff 	mov    rax,0xfffffffffffffffb
     a9d:	f3 0f 10 05 00 00 00 	movss  xmm0,DWORD PTR [rip+0x0]        # aa5 <s116+0x2c>
     aa4:	00 
     aa5:	f3 0f 10 0c 85 00 00 	movss  xmm1,DWORD PTR [rax*4+0x0]
     aac:	00 00 
     aae:	f3 0f 59 c1          	mulss  xmm0,xmm1
     ab2:	f3 0f 11 04 85 00 00 	movss  DWORD PTR [rax*4+0x0],xmm0
     ab9:	00 00 
     abb:	f3 0f 10 04 85 00 00 	movss  xmm0,DWORD PTR [rax*4+0x0]
     ac2:	00 00 
     ac4:	f3 0f 59 c8          	mulss  xmm1,xmm0
     ac8:	f3 0f 11 0c 85 00 00 	movss  DWORD PTR [rax*4+0x0],xmm1
     acf:	00 00 
     ad1:	f3 0f 10 0c 85 00 00 	movss  xmm1,DWORD PTR [rax*4+0x0]
     ad8:	00 00 
     ada:	f3 0f 59 c1          	mulss  xmm0,xmm1
     ade:	f3 0f 11 04 85 00 00 	movss  DWORD PTR [rax*4+0x0],xmm0
     ae5:	00 00 
     ae7:	f3 0f 10 14 85 00 00 	movss  xmm2,DWORD PTR [rax*4+0x0]
     aee:	00 00 
     af0:	f3 0f 59 ca          	mulss  xmm1,xmm2
     af4:	f3 0f 11 0c 85 00 00 	movss  DWORD PTR [rax*4+0x0],xmm1
     afb:	00 00 
     afd:	f3 0f 10 04 85 00 00 	movss  xmm0,DWORD PTR [rax*4+0x0]
     b04:	00 00 
     b06:	f3 0f 59 d0          	mulss  xmm2,xmm0
     b0a:	f3 0f 11 14 85 00 00 	movss  DWORD PTR [rax*4+0x0],xmm2
     b11:	00 00 
     b13:	48 83 c0 05          	add    rax,0x5
     b17:	48 3d f6 7c 00 00    	cmp    rax,0x7cf6
     b1d:	72 86                	jb     aa5 <s116+0x2c>
     b1f:	bf 00 00 00 00       	mov    edi,0x0
     b24:	be 00 00 00 00       	mov    esi,0x0
     b29:	ba 00 00 00 00       	mov    edx,0x0
     b2e:	b9 00 00 00 00       	mov    ecx,0x0
     b33:	41 b8 00 00 00 00    	mov    r8d,0x0
     b39:	41 b9 00 00 00 00    	mov    r9d,0x0
     b3f:	0f 57 c0             	xorps  xmm0,xmm0
     b42:	68 00 00 00 00       	push   0x0
     b47:	68 00 00 00 00       	push   0x0
     b4c:	e8 00 00 00 00       	call   b51 <s116+0xd8>
     b51:	48 83 c4 10          	add    rsp,0x10
     b55:	ff c3                	inc    ebx
     b57:	81 fb 40 42 0f 00    	cmp    ebx,0xf4240
     b5d:	0f 85 33 ff ff ff    	jne    a96 <s116+0x1d>
     b63:	49 83 c6 10          	add    r14,0x10
     b67:	4c 89 f7             	mov    rdi,r14
     b6a:	31 f6                	xor    esi,esi
     b6c:	e8 00 00 00 00       	call   b71 <s116+0xf8>
     b71:	bf 00 00 00 00       	mov    edi,0x0
     b76:	48 83 c4 08          	add    rsp,0x8
     b7a:	5b                   	pop    rbx
     b7b:	41 5e                	pop    r14
     b7d:	e9 00 00 00 00       	jmp    b82 <s118>

0000000000000b82 <s118>:
     b82:	41 56                	push   r14
     b84:	53                   	push   rbx
     b85:	50                   	push   rax
     b86:	49 89 fe             	mov    r14,rdi
     b89:	bf 00 00 00 00       	mov    edi,0x0
     b8e:	e8 00 00 00 00       	call   b93 <s118+0x11>
     b93:	31 db                	xor    ebx,ebx
     b95:	4c 89 f7             	mov    rdi,r14
     b98:	31 f6                	xor    esi,esi
     b9a:	e8 00 00 00 00       	call   b9f <s118+0x1d>
     b9f:	b8 01 00 00 00       	mov    eax,0x1
     ba4:	b9 00 00 00 00       	mov    ecx,0x0
     ba9:	31 d2                	xor    edx,edx
     bab:	f3 0f 10 04 85 00 00 	movss  xmm0,DWORD PTR [rax*4+0x0]
     bb2:	00 00 
     bb4:	48 89 ce             	mov    rsi,rcx
     bb7:	48 89 d7             	mov    rdi,rdx
     bba:	f3 0f 10 0e          	movss  xmm1,DWORD PTR [rsi]
     bbe:	f3 0f 59 8f 00 00 00 	mulss  xmm1,DWORD PTR [rdi+0x0]
     bc5:	00 
     bc6:	f3 0f 58 c1          	addss  xmm0,xmm1
     bca:	f3 0f 11 04 85 00 00 	movss  DWORD PTR [rax*4+0x0],xmm0
     bd1:	00 00 
     bd3:	48 83 c7 fc          	add    rdi,0xfffffffffffffffc
     bd7:	48 81 c6 00 04 00 00 	add    rsi,0x400
     bde:	48 83 ff fc          	cmp    rdi,0xfffffffffffffffc
     be2:	75 d6                	jne    bba <s118+0x38>
     be4:	48 ff c0             	inc    rax
     be7:	48 83 c2 04          	add    rdx,0x4
     beb:	48 83 c1 04          	add    rcx,0x4
     bef:	48 3d 00 01 00 00    	cmp    rax,0x100
     bf5:	75 b4                	jne    bab <s118+0x29>
     bf7:	bf 00 00 00 00       	mov    edi,0x0
     bfc:	be 00 00 00 00       	mov    esi,0x0
     c01:	ba 00 00 00 00       	mov    edx,0x0
     c06:	b9 00 00 00 00       	mov    ecx,0x0
     c0b:	41 b8 00 00 00 00    	mov    r8d,0x0
     c11:	41 b9 00 00 00 00    	mov    r9d,0x0
     c17:	0f 57 c0             	xorps  xmm0,xmm0
     c1a:	68 00 00 00 00       	push   0x0
     c1f:	68 00 00 00 00       	push   0x0
     c24:	e8 00 00 00 00       	call   c29 <s118+0xa7>
     c29:	48 83 c4 10          	add    rsp,0x10
     c2d:	ff c3                	inc    ebx
     c2f:	81 fb b0 30 01 00    	cmp    ebx,0x130b0
     c35:	0f 85 64 ff ff ff    	jne    b9f <s118+0x1d>
     c3b:	49 83 c6 10          	add    r14,0x10
     c3f:	4c 89 f7             	mov    rdi,r14
     c42:	31 f6                	xor    esi,esi
     c44:	e8 00 00 00 00       	call   c49 <s118+0xc7>
     c49:	bf 00 00 00 00       	mov    edi,0x0
     c4e:	48 83 c4 08          	add    rsp,0x8
     c52:	5b                   	pop    rbx
     c53:	41 5e                	pop    r14
     c55:	e9 00 00 00 00       	jmp    c5a <s119>

0000000000000c5a <s119>:
     c5a:	41 56                	push   r14
     c5c:	53                   	push   rbx
     c5d:	50                   	push   rax
     c5e:	49 89 fe             	mov    r14,rdi
     c61:	bf 00 00 00 00       	mov    edi,0x0
     c66:	e8 00 00 00 00       	call   c6b <s119+0x11>
     c6b:	31 db                	xor    ebx,ebx
     c6d:	4c 89 f7             	mov    rdi,r14
     c70:	31 f6                	xor    esi,esi
     c72:	e8 00 00 00 00       	call   c77 <s119+0x1d>
     c77:	b8 01 00 00 00       	mov    eax,0x1
     c7c:	b9 20 04 00 00       	mov    ecx,0x420
     c81:	48 c7 c2 08 ff ff ff 	mov    rdx,0xffffffffffffff08
     c88:	f3 0f 10 84 91 00 00 	movss  xmm0,DWORD PTR [rcx+rdx*4+0x0]
     c8f:	00 00 
     c91:	f3 0f 58 84 91 00 00 	addss  xmm0,DWORD PTR [rcx+rdx*4+0x0]
     c98:	00 00 
     c9a:	f3 0f 11 84 91 00 00 	movss  DWORD PTR [rcx+rdx*4+0x0],xmm0
     ca1:	00 00 
     ca3:	f3 0f 10 84 91 00 00 	movss  xmm0,DWORD PTR [rcx+rdx*4+0x0]
     caa:	00 00 
     cac:	f3 0f 58 84 91 00 00 	addss  xmm0,DWORD PTR [rcx+rdx*4+0x0]
     cb3:	00 00 
     cb5:	f3 0f 11 84 91 00 00 	movss  DWORD PTR [rcx+rdx*4+0x0],xmm0
     cbc:	00 00 
     cbe:	f3 0f 10 84 91 00 00 	movss  xmm0,DWORD PTR [rcx+rdx*4+0x0]
     cc5:	00 00 
     cc7:	f3 0f 58 84 91 00 00 	addss  xmm0,DWORD PTR [rcx+rdx*4+0x0]
     cce:	00 00 
     cd0:	f3 0f 11 84 91 00 00 	movss  DWORD PTR [rcx+rdx*4+0x0],xmm0
     cd7:	00 00 
     cd9:	f3 0f 10 84 91 00 00 	movss  xmm0,DWORD PTR [rcx+rdx*4+0x0]
     ce0:	00 00 
     ce2:	f3 0f 58 84 91 00 00 	addss  xmm0,DWORD PTR [rcx+rdx*4+0x0]
     ce9:	00 00 
     ceb:	f3 0f 11 84 91 00 00 	movss  DWORD PTR [rcx+rdx*4+0x0],xmm0
     cf2:	00 00 
     cf4:	f3 0f 10 84 91 00 00 	movss  xmm0,DWORD PTR [rcx+rdx*4+0x0]
     cfb:	00 00 
     cfd:	f3 0f 58 84 91 00 00 	addss  xmm0,DWORD PTR [rcx+rdx*4+0x0]
     d04:	00 00 
     d06:	f3 0f 11 84 91 00 00 	movss  DWORD PTR [rcx+rdx*4+0x0],xmm0
     d0d:	00 00 
     d0f:	f3 0f 10 84 91 00 00 	movss  xmm0,DWORD PTR [rcx+rdx*4+0x0]
     d16:	00 00 
     d18:	f3 0f 58 84 91 00 00 	addss  xmm0,DWORD PTR [rcx+rdx*4+0x0]
     d1f:	00 00 
     d21:	f3 0f 11 84 91 00 00 	movss  DWORD PTR [rcx+rdx*4+0x0],xmm0
     d28:	00 00 
     d2a:	f3 0f 10 84 91 00 00 	movss  xmm0,DWORD PTR [rcx+rdx*4+0x0]
     d31:	00 00 
     d33:	f3 0f 58 84 91 00 00 	addss  xmm0,DWORD PTR [rcx+rdx*4+0x0]
     d3a:	00 00 
     d3c:	f3 0f 11 84 91 00 00 	movss  DWORD PTR [rcx+rdx*4+0x0],xmm0
     d43:	00 00 
     d45:	48 85 d2             	test   rdx,rdx
     d48:	74 24                	je     d6e <s119+0x114>
     d4a:	f3 0f 10 84 91 00 00 	movss  xmm0,DWORD PTR [rcx+rdx*4+0x0]
     d51:	00 00 
     d53:	f3 0f 58 84 91 00 00 	addss  xmm0,DWORD PTR [rcx+rdx*4+0x0]
     d5a:	00 00 
     d5c:	f3 0f 11 84 91 00 00 	movss  DWORD PTR [rcx+rdx*4+0x0],xmm0
     d63:	00 00 
     d65:	48 83 c2 08          	add    rdx,0x8
     d69:	e9 1a ff ff ff       	jmp    c88 <s119+0x2e>
     d6e:	48 ff c0             	inc    rax
     d71:	48 81 c1 00 04 00 00 	add    rcx,0x400
     d78:	48 3d 00 01 00 00    	cmp    rax,0x100
     d7e:	0f 85 fd fe ff ff    	jne    c81 <s119+0x27>
     d84:	bf 00 00 00 00       	mov    edi,0x0
     d89:	be 00 00 00 00       	mov    esi,0x0
     d8e:	ba 00 00 00 00       	mov    edx,0x0
     d93:	b9 00 00 00 00       	mov    ecx,0x0
     d98:	41 b8 00 00 00 00    	mov    r8d,0x0
     d9e:	41 b9 00 00 00 00    	mov    r9d,0x0
     da4:	0f 57 c0             	xorps  xmm0,xmm0
     da7:	68 00 00 00 00       	push   0x0
     dac:	68 00 00 00 00       	push   0x0
     db1:	e8 00 00 00 00       	call   db6 <s119+0x15c>
     db6:	48 83 c4 10          	add    rsp,0x10
     dba:	ff c3                	inc    ebx
     dbc:	81 fb b0 30 01 00    	cmp    ebx,0x130b0
     dc2:	0f 85 af fe ff ff    	jne    c77 <s119+0x1d>
     dc8:	49 83 c6 10          	add    r14,0x10
     dcc:	4c 89 f7             	mov    rdi,r14
     dcf:	31 f6                	xor    esi,esi
     dd1:	e8 00 00 00 00       	call   dd6 <s119+0x17c>
     dd6:	bf 00 00 00 00       	mov    edi,0x0
     ddb:	48 83 c4 08          	add    rsp,0x8
     ddf:	5b                   	pop    rbx
     de0:	41 5e                	pop    r14
     de2:	e9 00 00 00 00       	jmp    de7 <s1119>

0000000000000de7 <s1119>:
     de7:	41 56                	push   r14
     de9:	53                   	push   rbx
     dea:	50                   	push   rax
     deb:	49 89 fe             	mov    r14,rdi
     dee:	bf 00 00 00 00       	mov    edi,0x0
     df3:	e8 00 00 00 00       	call   df8 <s1119+0x11>
     df8:	31 db                	xor    ebx,ebx
     dfa:	4c 89 f7             	mov    rdi,r14
     dfd:	31 f6                	xor    esi,esi
     dff:	e8 00 00 00 00       	call   e04 <s1119+0x1d>
     e04:	b8 01 00 00 00       	mov    eax,0x1
     e09:	b9 00 04 00 00       	mov    ecx,0x400
     e0e:	48 c7 c2 00 fc ff ff 	mov    rdx,0xfffffffffffffc00
     e15:	f3 0f 10 84 11 00 00 	movss  xmm0,DWORD PTR [rcx+rdx*1+0x0]
     e1c:	00 00 
     e1e:	f3 0f 58 84 11 00 00 	addss  xmm0,DWORD PTR [rcx+rdx*1+0x0]
     e25:	00 00 
     e27:	f3 0f 11 84 11 00 00 	movss  DWORD PTR [rcx+rdx*1+0x0],xmm0
     e2e:	00 00 
     e30:	48 83 c2 04          	add    rdx,0x4
     e34:	75 df                	jne    e15 <s1119+0x2e>
     e36:	48 ff c0             	inc    rax
     e39:	48 81 c1 00 04 00 00 	add    rcx,0x400
     e40:	48 3d 00 01 00 00    	cmp    rax,0x100
     e46:	75 c6                	jne    e0e <s1119+0x27>
     e48:	bf 00 00 00 00       	mov    edi,0x0
     e4d:	be 00 00 00 00       	mov    esi,0x0
     e52:	ba 00 00 00 00       	mov    edx,0x0
     e57:	b9 00 00 00 00       	mov    ecx,0x0
     e5c:	41 b8 00 00 00 00    	mov    r8d,0x0
     e62:	41 b9 00 00 00 00    	mov    r9d,0x0
     e68:	0f 57 c0             	xorps  xmm0,xmm0
     e6b:	68 00 00 00 00       	push   0x0
     e70:	68 00 00 00 00       	push   0x0
     e75:	e8 00 00 00 00       	call   e7a <s1119+0x93>
     e7a:	48 83 c4 10          	add    rsp,0x10
     e7e:	ff c3                	inc    ebx
     e80:	81 fb b0 30 01 00    	cmp    ebx,0x130b0
     e86:	0f 85 78 ff ff ff    	jne    e04 <s1119+0x1d>
     e8c:	49 83 c6 10          	add    r14,0x10
     e90:	4c 89 f7             	mov    rdi,r14
     e93:	31 f6                	xor    esi,esi
     e95:	e8 00 00 00 00       	call   e9a <s1119+0xb3>
     e9a:	bf 00 00 00 00       	mov    edi,0x0
     e9f:	48 83 c4 08          	add    rsp,0x8
     ea3:	5b                   	pop    rbx
     ea4:	41 5e                	pop    r14
     ea6:	e9 00 00 00 00       	jmp    eab <s121>

0000000000000eab <s121>:
     eab:	41 56                	push   r14
     ead:	53                   	push   rbx
     eae:	50                   	push   rax
     eaf:	49 89 fe             	mov    r14,rdi
     eb2:	bf 00 00 00 00       	mov    edi,0x0
     eb7:	e8 00 00 00 00       	call   ebc <s121+0x11>
     ebc:	31 db                	xor    ebx,ebx
     ebe:	4c 89 f7             	mov    rdi,r14
     ec1:	31 f6                	xor    esi,esi
     ec3:	e8 00 00 00 00       	call   ec8 <s121+0x1d>
     ec8:	48 c7 c0 20 0c fe ff 	mov    rax,0xfffffffffffe0c20
     ecf:	f3 0f 10 80 00 00 00 	movss  xmm0,DWORD PTR [rax+0x0]
     ed6:	00 
     ed7:	f3 0f 58 80 00 00 00 	addss  xmm0,DWORD PTR [rax+0x0]
     ede:	00 
     edf:	f3 0f 11 80 00 00 00 	movss  DWORD PTR [rax+0x0],xmm0
     ee6:	00 
     ee7:	f3 0f 10 80 00 00 00 	movss  xmm0,DWORD PTR [rax+0x0]
     eee:	00 
     eef:	f3 0f 58 80 00 00 00 	addss  xmm0,DWORD PTR [rax+0x0]
     ef6:	00 
     ef7:	f3 0f 11 80 00 00 00 	movss  DWORD PTR [rax+0x0],xmm0
     efe:	00 
     eff:	f3 0f 10 80 00 00 00 	movss  xmm0,DWORD PTR [rax+0x0]
     f06:	00 
     f07:	f3 0f 58 80 00 00 00 	addss  xmm0,DWORD PTR [rax+0x0]
     f0e:	00 
     f0f:	f3 0f 11 80 00 00 00 	movss  DWORD PTR [rax+0x0],xmm0
     f16:	00 
     f17:	f3 0f 10 80 00 00 00 	movss  xmm0,DWORD PTR [rax+0x0]
     f1e:	00 
     f1f:	f3 0f 58 80 00 00 00 	addss  xmm0,DWORD PTR [rax+0x0]
     f26:	00 
     f27:	f3 0f 11 80 00 00 00 	movss  DWORD PTR [rax+0x0],xmm0
     f2e:	00 
     f2f:	f3 0f 10 80 00 00 00 	movss  xmm0,DWORD PTR [rax+0x0]
     f36:	00 
     f37:	f3 0f 58 80 00 00 00 	addss  xmm0,DWORD PTR [rax+0x0]
     f3e:	00 
     f3f:	f3 0f 11 80 00 00 00 	movss  DWORD PTR [rax+0x0],xmm0
     f46:	00 
     f47:	f3 0f 10 80 00 00 00 	movss  xmm0,DWORD PTR [rax+0x0]
     f4e:	00 
     f4f:	f3 0f 58 80 00 00 00 	addss  xmm0,DWORD PTR [rax+0x0]
     f56:	00 
     f57:	f3 0f 11 80 00 00 00 	movss  DWORD PTR [rax+0x0],xmm0
     f5e:	00 
     f5f:	f3 0f 10 80 00 00 00 	movss  xmm0,DWORD PTR [rax+0x0]
     f66:	00 
     f67:	f3 0f 58 80 00 00 00 	addss  xmm0,DWORD PTR [rax+0x0]
     f6e:	00 
     f6f:	f3 0f 11 80 00 00 00 	movss  DWORD PTR [rax+0x0],xmm0
     f76:	00 
     f77:	48 85 c0             	test   rax,rax
     f7a:	74 21                	je     f9d <s121+0xf2>
     f7c:	f3 0f 10 80 00 00 00 	movss  xmm0,DWORD PTR [rax+0x0]
     f83:	00 
     f84:	f3 0f 58 80 00 00 00 	addss  xmm0,DWORD PTR [rax+0x0]
     f8b:	00 
     f8c:	f3 0f 11 80 00 00 00 	movss  DWORD PTR [rax+0x0],xmm0
     f93:	00 
     f94:	48 83 c0 20          	add    rax,0x20
     f98:	e9 32 ff ff ff       	jmp    ecf <s121+0x24>
     f9d:	bf 00 00 00 00       	mov    edi,0x0
     fa2:	be 00 00 00 00       	mov    esi,0x0
     fa7:	ba 00 00 00 00       	mov    edx,0x0
     fac:	b9 00 00 00 00       	mov    ecx,0x0
     fb1:	41 b8 00 00 00 00    	mov    r8d,0x0
     fb7:	41 b9 00 00 00 00    	mov    r9d,0x0
     fbd:	0f 57 c0             	xorps  xmm0,xmm0
     fc0:	68 00 00 00 00       	push   0x0
     fc5:	68 00 00 00 00       	push   0x0
     fca:	e8 00 00 00 00       	call   fcf <s121+0x124>
     fcf:	48 83 c4 10          	add    rsp,0x10
     fd3:	ff c3                	inc    ebx
     fd5:	81 fb e0 93 04 00    	cmp    ebx,0x493e0
     fdb:	0f 85 e7 fe ff ff    	jne    ec8 <s121+0x1d>
     fe1:	49 83 c6 10          	add    r14,0x10
     fe5:	4c 89 f7             	mov    rdi,r14
     fe8:	31 f6                	xor    esi,esi
     fea:	e8 00 00 00 00       	call   fef <s121+0x144>
     fef:	bf 00 00 00 00       	mov    edi,0x0
     ff4:	48 83 c4 08          	add    rsp,0x8
     ff8:	5b                   	pop    rbx
     ff9:	41 5e                	pop    r14
     ffb:	e9 00 00 00 00       	jmp    1000 <s122>

0000000000001000 <s122>:
    1000:	55                   	push   rbp
    1001:	41 57                	push   r15
    1003:	41 56                	push   r14
    1005:	41 55                	push   r13
    1007:	41 54                	push   r12
    1009:	53                   	push   rbx
    100a:	50                   	push   rax
    100b:	48 89 fb             	mov    rbx,rdi
    100e:	48 8b 47 20          	mov    rax,QWORD PTR [rdi+0x20]
    1012:	44 8b 20             	mov    r12d,DWORD PTR [rax]
    1015:	48 63 68 04          	movsxd rbp,DWORD PTR [rax+0x4]
    1019:	bf 00 00 00 00       	mov    edi,0x0
    101e:	e8 00 00 00 00       	call   1023 <s122+0x23>
    1023:	45 31 ed             	xor    r13d,r13d
    1026:	48 89 1c 24          	mov    QWORD PTR [rsp],rbx
    102a:	48 89 df             	mov    rdi,rbx
    102d:	31 f6                	xor    esi,esi
    102f:	e8 00 00 00 00       	call   1034 <s122+0x34>
    1034:	41 8d 44 24 ff       	lea    eax,[r12-0x1]
    1039:	48 63 d8             	movsxd rbx,eax
    103c:	41 8d 04 2c          	lea    eax,[r12+rbp*1]
    1040:	ff c8                	dec    eax
    1042:	41 bf 00 7d 00 00    	mov    r15d,0x7d00
    1048:	44 39 f8             	cmp    eax,r15d
    104b:	44 0f 4f f8          	cmovg  r15d,eax
    104f:	45 29 e7             	sub    r15d,r12d
    1052:	4c 8d 34 ad 00 00 00 	lea    r14,[rbp*4+0x0]
    1059:	00 
    105a:	41 81 fc 00 7d 00 00 	cmp    r12d,0x7d00
    1061:	0f 8f 52 01 00 00    	jg     11b9 <s122+0x1b9>
    1067:	44 89 f8             	mov    eax,r15d
    106a:	31 d2                	xor    edx,edx
    106c:	f7 f5                	div    ebp
    106e:	8d 50 01             	lea    edx,[rax+0x1]
    1071:	41 89 d0             	mov    r8d,edx
    1074:	41 83 e0 07          	and    r8d,0x7
    1078:	83 f8 07             	cmp    eax,0x7
    107b:	73 0a                	jae    1087 <s122+0x87>
    107d:	31 c0                	xor    eax,eax
    107f:	48 89 de             	mov    rsi,rbx
    1082:	e9 fe 00 00 00       	jmp    1185 <s122+0x185>
    1087:	83 e2 f8             	and    edx,0xfffffff8
    108a:	31 c0                	xor    eax,eax
    108c:	49 89 d9             	mov    r9,rbx
    108f:	48 89 de             	mov    rsi,rbx
    1092:	f3 0f 10 04 85 00 00 	movss  xmm0,DWORD PTR [rax*4+0x0]
    1099:	00 00 
    109b:	f3 0f 58 04 b5 00 00 	addss  xmm0,DWORD PTR [rsi*4+0x0]
    10a2:	00 00 
    10a4:	f3 0f 11 04 b5 00 00 	movss  DWORD PTR [rsi*4+0x0],xmm0
    10ab:	00 00 
    10ad:	f3 0f 10 04 85 00 00 	movss  xmm0,DWORD PTR [rax*4+0x0]
    10b4:	00 00 
    10b6:	49 8d 3c b6          	lea    rdi,[r14+rsi*4]
    10ba:	48 81 c7 00 00 00 00 	add    rdi,0x0
    10c1:	f3 41 0f 58 84 b6 00 	addss  xmm0,DWORD PTR [r14+rsi*4+0x0]
    10c8:	00 00 00 
    10cb:	f3 41 0f 11 84 b6 00 	movss  DWORD PTR [r14+rsi*4+0x0],xmm0
    10d2:	00 00 00 
    10d5:	48 01 ee             	add    rsi,rbp
    10d8:	48 01 ee             	add    rsi,rbp
    10db:	f3 0f 10 04 85 00 00 	movss  xmm0,DWORD PTR [rax*4+0x0]
    10e2:	00 00 
    10e4:	4a 8d 1c 37          	lea    rbx,[rdi+r14*1]
    10e8:	f3 0f 58 04 af       	addss  xmm0,DWORD PTR [rdi+rbp*4]
    10ed:	f3 0f 11 04 af       	movss  DWORD PTR [rdi+rbp*4],xmm0
    10f2:	48 01 ee             	add    rsi,rbp
    10f5:	f3 0f 10 04 85 00 00 	movss  xmm0,DWORD PTR [rax*4+0x0]
    10fc:	00 00 
    10fe:	f3 0f 58 04 ef       	addss  xmm0,DWORD PTR [rdi+rbp*8]
    1103:	4a 8d 0c 33          	lea    rcx,[rbx+r14*1]
    1107:	f3 0f 11 04 ef       	movss  DWORD PTR [rdi+rbp*8],xmm0
    110c:	48 01 ee             	add    rsi,rbp
    110f:	f3 0f 10 04 85 00 00 	movss  xmm0,DWORD PTR [rax*4+0x0]
    1116:	00 00 
    1118:	4c 01 f1             	add    rcx,r14
    111b:	f3 0f 58 04 eb       	addss  xmm0,DWORD PTR [rbx+rbp*8]
    1120:	f3 0f 11 04 eb       	movss  DWORD PTR [rbx+rbp*8],xmm0
    1125:	48 01 ee             	add    rsi,rbp
    1128:	f3 0f 10 04 85 00 00 	movss  xmm0,DWORD PTR [rax*4+0x0]
    112f:	00 00 
    1131:	f3 0f 58 04 a9       	addss  xmm0,DWORD PTR [rcx+rbp*4]
    1136:	4a 8d 3c 31          	lea    rdi,[rcx+r14*1]
    113a:	f3 0f 11 04 a9       	movss  DWORD PTR [rcx+rbp*4],xmm0
    113f:	48 01 ee             	add    rsi,rbp
    1142:	f3 0f 10 04 85 00 00 	movss  xmm0,DWORD PTR [rax*4+0x0]
    1149:	00 00 
    114b:	4a 8d 0c 37          	lea    rcx,[rdi+r14*1]
    114f:	f3 0f 58 04 af       	addss  xmm0,DWORD PTR [rdi+rbp*4]
    1154:	f3 0f 11 04 af       	movss  DWORD PTR [rdi+rbp*4],xmm0
    1159:	48 01 ee             	add    rsi,rbp
    115c:	f3 0f 10 04 85 00 00 	movss  xmm0,DWORD PTR [rax*4+0x0]
    1163:	00 00 
    1165:	f3 0f 58 04 a9       	addss  xmm0,DWORD PTR [rcx+rbp*4]
    116a:	f3 0f 11 04 a9       	movss  DWORD PTR [rcx+rbp*4],xmm0
    116f:	48 01 ee             	add    rsi,rbp
    1172:	48 83 c0 f8          	add    rax,0xfffffffffffffff8
    1176:	83 c2 f8             	add    edx,0xfffffff8
    1179:	0f 85 13 ff ff ff    	jne    1092 <s122+0x92>
    117f:	48 f7 d8             	neg    rax
    1182:	4c 89 cb             	mov    rbx,r9
    1185:	45 85 c0             	test   r8d,r8d
    1188:	74 2f                	je     11b9 <s122+0x1b9>
    118a:	48 c1 e0 02          	shl    rax,0x2
    118e:	48 f7 d8             	neg    rax
    1191:	48 8d 04 05 00 00 00 	lea    rax,[rax*1+0x0]
    1198:	00 
    1199:	48 8d 14 b5 00 00 00 	lea    rdx,[rsi*4+0x0]
    11a0:	00 
    11a1:	f3 0f 10 00          	movss  xmm0,DWORD PTR [rax]
    11a5:	f3 0f 58 02          	addss  xmm0,DWORD PTR [rdx]
    11a9:	f3 0f 11 02          	movss  DWORD PTR [rdx],xmm0
    11ad:	48 83 c0 fc          	add    rax,0xfffffffffffffffc
    11b1:	4c 01 f2             	add    rdx,r14
    11b4:	41 ff c8             	dec    r8d
    11b7:	75 e8                	jne    11a1 <s122+0x1a1>
    11b9:	bf 00 00 00 00       	mov    edi,0x0
    11be:	be 00 00 00 00       	mov    esi,0x0
    11c3:	ba 00 00 00 00       	mov    edx,0x0
    11c8:	b9 00 00 00 00       	mov    ecx,0x0
    11cd:	41 b8 00 00 00 00    	mov    r8d,0x0
    11d3:	41 b9 00 00 00 00    	mov    r9d,0x0
    11d9:	0f 57 c0             	xorps  xmm0,xmm0
    11dc:	68 00 00 00 00       	push   0x0
    11e1:	68 00 00 00 00       	push   0x0
    11e6:	e8 00 00 00 00       	call   11eb <s122+0x1eb>
    11eb:	48 83 c4 10          	add    rsp,0x10
    11ef:	41 ff c5             	inc    r13d
    11f2:	41 81 fd a0 86 01 00 	cmp    r13d,0x186a0
    11f9:	0f 85 5b fe ff ff    	jne    105a <s122+0x5a>
    11ff:	48 8b 3c 24          	mov    rdi,QWORD PTR [rsp]
    1203:	48 83 c7 10          	add    rdi,0x10
    1207:	31 f6                	xor    esi,esi
    1209:	e8 00 00 00 00       	call   120e <s122+0x20e>
    120e:	bf 00 00 00 00       	mov    edi,0x0
    1213:	48 83 c4 08          	add    rsp,0x8
    1217:	5b                   	pop    rbx
    1218:	41 5c                	pop    r12
    121a:	41 5d                	pop    r13
    121c:	41 5e                	pop    r14
    121e:	41 5f                	pop    r15
    1220:	5d                   	pop    rbp
    1221:	e9 00 00 00 00       	jmp    1226 <s123>

0000000000001226 <s123>:
    1226:	41 56                	push   r14
    1228:	53                   	push   rbx
    1229:	50                   	push   rax
    122a:	49 89 fe             	mov    r14,rdi
    122d:	bf 00 00 00 00       	mov    edi,0x0
    1232:	e8 00 00 00 00       	call   1237 <s123+0x11>
    1237:	31 db                	xor    ebx,ebx
    1239:	4c 89 f7             	mov    rdi,r14
    123c:	31 f6                	xor    esi,esi
    123e:	e8 00 00 00 00       	call   1243 <s123+0x1d>
    1243:	0f 57 d2             	xorps  xmm2,xmm2
    1246:	b8 ff ff ff ff       	mov    eax,0xffffffff
    124b:	48 c7 c1 00 06 ff ff 	mov    rcx,0xffffffffffff0600
    1252:	f3 0f 10 81 00 00 00 	movss  xmm0,DWORD PTR [rcx+0x0]
    1259:	00 
    125a:	f3 0f 59 81 00 00 00 	mulss  xmm0,DWORD PTR [rcx+0x0]
    1261:	00 
    1262:	f3 0f 10 89 00 00 00 	movss  xmm1,DWORD PTR [rcx+0x0]
    1269:	00 
    126a:	f3 0f 58 c8          	addss  xmm1,xmm0
    126e:	48 63 d0             	movsxd rdx,eax
    1271:	f3 0f 11 0c 95 00 00 	movss  DWORD PTR [rdx*4+0x0],xmm1
    1278:	00 00 
    127a:	f3 0f 10 89 00 00 00 	movss  xmm1,DWORD PTR [rcx+0x0]
    1281:	00 
    1282:	0f 2e ca             	ucomiss xmm1,xmm2
    1285:	76 12                	jbe    1299 <s123+0x73>
    1287:	83 c0 02             	add    eax,0x2
    128a:	f3 0f 58 c1          	addss  xmm0,xmm1
    128e:	f3 0f 11 04 95 00 00 	movss  DWORD PTR [rdx*4+0x0],xmm0
    1295:	00 00 
    1297:	eb 02                	jmp    129b <s123+0x75>
    1299:	ff c0                	inc    eax
    129b:	f3 0f 10 81 00 00 00 	movss  xmm0,DWORD PTR [rcx+0x0]
    12a2:	00 
    12a3:	f3 0f 59 81 00 00 00 	mulss  xmm0,DWORD PTR [rcx+0x0]
    12aa:	00 
    12ab:	f3 0f 10 89 00 00 00 	movss  xmm1,DWORD PTR [rcx+0x0]
    12b2:	00 
    12b3:	f3 0f 58 c8          	addss  xmm1,xmm0
    12b7:	48 63 d0             	movsxd rdx,eax
    12ba:	f3 0f 11 0c 95 00 00 	movss  DWORD PTR [rdx*4+0x0],xmm1
    12c1:	00 00 
    12c3:	f3 0f 10 89 00 00 00 	movss  xmm1,DWORD PTR [rcx+0x0]
    12ca:	00 
    12cb:	0f 2e ca             	ucomiss xmm1,xmm2
    12ce:	76 12                	jbe    12e2 <s123+0xbc>
    12d0:	83 c0 02             	add    eax,0x2
    12d3:	f3 0f 58 c1          	addss  xmm0,xmm1
    12d7:	f3 0f 11 04 95 00 00 	movss  DWORD PTR [rdx*4+0x0],xmm0
    12de:	00 00 
    12e0:	eb 02                	jmp    12e4 <s123+0xbe>
    12e2:	ff c0                	inc    eax
    12e4:	f3 0f 10 81 00 00 00 	movss  xmm0,DWORD PTR [rcx+0x0]
    12eb:	00 
    12ec:	f3 0f 59 81 00 00 00 	mulss  xmm0,DWORD PTR [rcx+0x0]
    12f3:	00 
    12f4:	f3 0f 10 89 00 00 00 	movss  xmm1,DWORD PTR [rcx+0x0]
    12fb:	00 
    12fc:	f3 0f 58 c8          	addss  xmm1,xmm0
    1300:	48 63 d0             	movsxd rdx,eax
    1303:	f3 0f 11 0c 95 00 00 	movss  DWORD PTR [rdx*4+0x0],xmm1
    130a:	00 00 
    130c:	f3 0f 10 89 00 00 00 	movss  xmm1,DWORD PTR [rcx+0x0]
    1313:	00 
    1314:	0f 2e ca             	ucomiss xmm1,xmm2
    1317:	76 12                	jbe    132b <s123+0x105>
    1319:	83 c0 02             	add    eax,0x2
    131c:	f3 0f 58 c1          	addss  xmm0,xmm1
    1320:	f3 0f 11 04 95 00 00 	movss  DWORD PTR [rdx*4+0x0],xmm0
    1327:	00 00 
    1329:	eb 02                	jmp    132d <s123+0x107>
    132b:	ff c0                	inc    eax
    132d:	f3 0f 10 81 00 00 00 	movss  xmm0,DWORD PTR [rcx+0x0]
    1334:	00 
    1335:	f3 0f 59 81 00 00 00 	mulss  xmm0,DWORD PTR [rcx+0x0]
    133c:	00 
    133d:	f3 0f 10 89 00 00 00 	movss  xmm1,DWORD PTR [rcx+0x0]
    1344:	00 
    1345:	f3 0f 58 c8          	addss  xmm1,xmm0
    1349:	48 63 d0             	movsxd rdx,eax
    134c:	f3 0f 11 0c 95 00 00 	movss  DWORD PTR [rdx*4+0x0],xmm1
    1353:	00 00 
    1355:	f3 0f 10 89 00 00 00 	movss  xmm1,DWORD PTR [rcx+0x0]
    135c:	00 
    135d:	0f 2e ca             	ucomiss xmm1,xmm2
    1360:	76 12                	jbe    1374 <s123+0x14e>
    1362:	83 c0 02             	add    eax,0x2
    1365:	f3 0f 58 c1          	addss  xmm0,xmm1
    1369:	f3 0f 11 04 95 00 00 	movss  DWORD PTR [rdx*4+0x0],xmm0
    1370:	00 00 
    1372:	eb 02                	jmp    1376 <s123+0x150>
    1374:	ff c0                	inc    eax
    1376:	f3 0f 10 81 00 00 00 	movss  xmm0,DWORD PTR [rcx+0x0]
    137d:	00 
    137e:	f3 0f 59 81 00 00 00 	mulss  xmm0,DWORD PTR [rcx+0x0]
    1385:	00 
    1386:	f3 0f 10 89 00 00 00 	movss  xmm1,DWORD PTR [rcx+0x0]
    138d:	00 
    138e:	f3 0f 58 c8          	addss  xmm1,xmm0
    1392:	48 63 d0             	movsxd rdx,eax
    1395:	f3 0f 11 0c 95 00 00 	movss  DWORD PTR [rdx*4+0x0],xmm1
    139c:	00 00 
    139e:	f3 0f 10 89 00 00 00 	movss  xmm1,DWORD PTR [rcx+0x0]
    13a5:	00 
    13a6:	0f 2e ca             	ucomiss xmm1,xmm2
    13a9:	76 12                	jbe    13bd <s123+0x197>
    13ab:	83 c0 02             	add    eax,0x2
    13ae:	f3 0f 58 c1          	addss  xmm0,xmm1
    13b2:	f3 0f 11 04 95 00 00 	movss  DWORD PTR [rdx*4+0x0],xmm0
    13b9:	00 00 
    13bb:	eb 02                	jmp    13bf <s123+0x199>
    13bd:	ff c0                	inc    eax
    13bf:	f3 0f 10 81 00 00 00 	movss  xmm0,DWORD PTR [rcx+0x0]
    13c6:	00 
    13c7:	f3 0f 59 81 00 00 00 	mulss  xmm0,DWORD PTR [rcx+0x0]
    13ce:	00 
    13cf:	f3 0f 10 89 00 00 00 	movss  xmm1,DWORD PTR [rcx+0x0]
    13d6:	00 
    13d7:	f3 0f 58 c8          	addss  xmm1,xmm0
    13db:	48 63 d0             	movsxd rdx,eax
    13de:	f3 0f 11 0c 95 00 00 	movss  DWORD PTR [rdx*4+0x0],xmm1
    13e5:	00 00 
    13e7:	f3 0f 10 89 00 00 00 	movss  xmm1,DWORD PTR [rcx+0x0]
    13ee:	00 
    13ef:	0f 2e ca             	ucomiss xmm1,xmm2
    13f2:	76 12                	jbe    1406 <s123+0x1e0>
    13f4:	83 c0 02             	add    eax,0x2
    13f7:	f3 0f 58 c1          	addss  xmm0,xmm1
    13fb:	f3 0f 11 04 95 00 00 	movss  DWORD PTR [rdx*4+0x0],xmm0
    1402:	00 00 
    1404:	eb 02                	jmp    1408 <s123+0x1e2>
    1406:	ff c0                	inc    eax
    1408:	f3 0f 10 81 00 00 00 	movss  xmm0,DWORD PTR [rcx+0x0]
    140f:	00 
    1410:	f3 0f 59 81 00 00 00 	mulss  xmm0,DWORD PTR [rcx+0x0]
    1417:	00 
    1418:	f3 0f 10 89 00 00 00 	movss  xmm1,DWORD PTR [rcx+0x0]
    141f:	00 
    1420:	f3 0f 58 c8          	addss  xmm1,xmm0
    1424:	48 63 d0             	movsxd rdx,eax
    1427:	f3 0f 11 0c 95 00 00 	movss  DWORD PTR [rdx*4+0x0],xmm1
    142e:	00 00 
    1430:	f3 0f 10 89 00 00 00 	movss  xmm1,DWORD PTR [rcx+0x0]
    1437:	00 
    1438:	0f 2e ca             	ucomiss xmm1,xmm2
    143b:	76 12                	jbe    144f <s123+0x229>
    143d:	83 c0 02             	add    eax,0x2
    1440:	f3 0f 58 c1          	addss  xmm0,xmm1
    1444:	f3 0f 11 04 95 00 00 	movss  DWORD PTR [rdx*4+0x0],xmm0
    144b:	00 00 
    144d:	eb 02                	jmp    1451 <s123+0x22b>
    144f:	ff c0                	inc    eax
    1451:	f3 0f 10 81 00 00 00 	movss  xmm0,DWORD PTR [rcx+0x0]
    1458:	00 
    1459:	f3 0f 59 81 00 00 00 	mulss  xmm0,DWORD PTR [rcx+0x0]
    1460:	00 
    1461:	f3 0f 10 89 00 00 00 	movss  xmm1,DWORD PTR [rcx+0x0]
    1468:	00 
    1469:	f3 0f 58 c8          	addss  xmm1,xmm0
    146d:	48 63 d0             	movsxd rdx,eax
    1470:	f3 0f 11 0c 95 00 00 	movss  DWORD PTR [rdx*4+0x0],xmm1
    1477:	00 00 
    1479:	f3 0f 10 89 00 00 00 	movss  xmm1,DWORD PTR [rcx+0x0]
    1480:	00 
    1481:	0f 2e ca             	ucomiss xmm1,xmm2
    1484:	76 12                	jbe    1498 <s123+0x272>
    1486:	83 c0 02             	add    eax,0x2
    1489:	f3 0f 58 c1          	addss  xmm0,xmm1
    148d:	f3 0f 11 04 95 00 00 	movss  DWORD PTR [rdx*4+0x0],xmm0
    1494:	00 00 
    1496:	eb 02                	jmp    149a <s123+0x274>
    1498:	ff c0                	inc    eax
    149a:	48 83 c1 20          	add    rcx,0x20
    149e:	0f 85 ae fd ff ff    	jne    1252 <s123+0x2c>
    14a4:	bf 00 00 00 00       	mov    edi,0x0
    14a9:	be 00 00 00 00       	mov    esi,0x0
    14ae:	ba 00 00 00 00       	mov    edx,0x0
    14b3:	b9 00 00 00 00       	mov    ecx,0x0
    14b8:	41 b8 00 00 00 00    	mov    r8d,0x0
    14be:	41 b9 00 00 00 00    	mov    r9d,0x0
    14c4:	0f 57 c0             	xorps  xmm0,xmm0
    14c7:	68 00 00 00 00       	push   0x0
    14cc:	68 00 00 00 00       	push   0x0
    14d1:	e8 00 00 00 00       	call   14d6 <s123+0x2b0>
    14d6:	0f 57 d2             	xorps  xmm2,xmm2
    14d9:	48 83 c4 10          	add    rsp,0x10
    14dd:	ff c3                	inc    ebx
    14df:	81 fb a0 86 01 00    	cmp    ebx,0x186a0
    14e5:	0f 85 5b fd ff ff    	jne    1246 <s123+0x20>
    14eb:	49 83 c6 10          	add    r14,0x10
    14ef:	4c 89 f7             	mov    rdi,r14
    14f2:	31 f6                	xor    esi,esi
    14f4:	e8 00 00 00 00       	call   14f9 <s123+0x2d3>
    14f9:	bf 00 00 00 00       	mov    edi,0x0
    14fe:	48 83 c4 08          	add    rsp,0x8
    1502:	5b                   	pop    rbx
    1503:	41 5e                	pop    r14
    1505:	e9 00 00 00 00       	jmp    150a <s124>

000000000000150a <s124>:
    150a:	41 56                	push   r14
    150c:	53                   	push   rbx
    150d:	50                   	push   rax
    150e:	49 89 fe             	mov    r14,rdi
    1511:	bf 00 00 00 00       	mov    edi,0x0
    1516:	e8 00 00 00 00       	call   151b <s124+0x11>
    151b:	31 db                	xor    ebx,ebx
    151d:	4c 89 f7             	mov    rdi,r14
    1520:	31 f6                	xor    esi,esi
    1522:	e8 00 00 00 00       	call   1527 <s124+0x1d>
    1527:	0f 57 d2             	xorps  xmm2,xmm2
    152a:	31 c0                	xor    eax,eax
    152c:	f3 0f 10 80 00 00 00 	movss  xmm0,DWORD PTR [rax+0x0]
    1533:	00 
    1534:	0f 2e c2             	ucomiss xmm0,xmm2
    1537:	77 08                	ja     1541 <s124+0x37>
    1539:	f3 0f 10 80 00 00 00 	movss  xmm0,DWORD PTR [rax+0x0]
    1540:	00 
    1541:	f3 0f 10 88 00 00 00 	movss  xmm1,DWORD PTR [rax+0x0]
    1548:	00 
    1549:	f3 0f 59 88 00 00 00 	mulss  xmm1,DWORD PTR [rax+0x0]
    1550:	00 
    1551:	f3 0f 58 c8          	addss  xmm1,xmm0
    1555:	f3 0f 11 88 00 00 00 	movss  DWORD PTR [rax+0x0],xmm1
    155c:	00 
    155d:	f3 0f 10 80 00 00 00 	movss  xmm0,DWORD PTR [rax+0x0]
    1564:	00 
    1565:	0f 2e c2             	ucomiss xmm0,xmm2
    1568:	77 08                	ja     1572 <s124+0x68>
    156a:	f3 0f 10 80 00 00 00 	movss  xmm0,DWORD PTR [rax+0x0]
    1571:	00 
    1572:	f3 0f 10 88 00 00 00 	movss  xmm1,DWORD PTR [rax+0x0]
    1579:	00 
    157a:	f3 0f 59 88 00 00 00 	mulss  xmm1,DWORD PTR [rax+0x0]
    1581:	00 
    1582:	f3 0f 58 c8          	addss  xmm1,xmm0
    1586:	f3 0f 11 88 00 00 00 	movss  DWORD PTR [rax+0x0],xmm1
    158d:	00 
    158e:	f3 0f 10 80 00 00 00 	movss  xmm0,DWORD PTR [rax+0x0]
    1595:	00 
    1596:	0f 2e c2             	ucomiss xmm0,xmm2
    1599:	77 08                	ja     15a3 <s124+0x99>
    159b:	f3 0f 10 80 00 00 00 	movss  xmm0,DWORD PTR [rax+0x0]
    15a2:	00 
    15a3:	f3 0f 10 88 00 00 00 	movss  xmm1,DWORD PTR [rax+0x0]
    15aa:	00 
    15ab:	f3 0f 59 88 00 00 00 	mulss  xmm1,DWORD PTR [rax+0x0]
    15b2:	00 
    15b3:	f3 0f 58 c8          	addss  xmm1,xmm0
    15b7:	f3 0f 11 88 00 00 00 	movss  DWORD PTR [rax+0x0],xmm1
    15be:	00 
    15bf:	f3 0f 10 80 00 00 00 	movss  xmm0,DWORD PTR [rax+0x0]
    15c6:	00 
    15c7:	0f 2e c2             	ucomiss xmm0,xmm2
    15ca:	77 08                	ja     15d4 <s124+0xca>
    15cc:	f3 0f 10 80 00 00 00 	movss  xmm0,DWORD PTR [rax+0x0]
    15d3:	00 
    15d4:	f3 0f 10 88 00 00 00 	movss  xmm1,DWORD PTR [rax+0x0]
    15db:	00 
    15dc:	f3 0f 59 88 00 00 00 	mulss  xmm1,DWORD PTR [rax+0x0]
    15e3:	00 
    15e4:	f3 0f 58 c8          	addss  xmm1,xmm0
    15e8:	f3 0f 11 88 00 00 00 	movss  DWORD PTR [rax+0x0],xmm1
    15ef:	00 
    15f0:	f3 0f 10 80 00 00 00 	movss  xmm0,DWORD PTR [rax+0x0]
    15f7:	00 
    15f8:	0f 2e c2             	ucomiss xmm0,xmm2
    15fb:	77 08                	ja     1605 <s124+0xfb>
    15fd:	f3 0f 10 80 00 00 00 	movss  xmm0,DWORD PTR [rax+0x0]
    1604:	00 
    1605:	f3 0f 10 88 00 00 00 	movss  xmm1,DWORD PTR [rax+0x0]
    160c:	00 
    160d:	f3 0f 59 88 00 00 00 	mulss  xmm1,DWORD PTR [rax+0x0]
    1614:	00 
    1615:	f3 0f 58 c8          	addss  xmm1,xmm0
    1619:	f3 0f 11 88 00 00 00 	movss  DWORD PTR [rax+0x0],xmm1
    1620:	00 
    1621:	f3 0f 10 80 00 00 00 	movss  xmm0,DWORD PTR [rax+0x0]
    1628:	00 
    1629:	0f 2e c2             	ucomiss xmm0,xmm2
    162c:	77 08                	ja     1636 <s124+0x12c>
    162e:	f3 0f 10 80 00 00 00 	movss  xmm0,DWORD PTR [rax+0x0]
    1635:	00 
    1636:	f3 0f 10 88 00 00 00 	movss  xmm1,DWORD PTR [rax+0x0]
    163d:	00 
    163e:	f3 0f 59 88 00 00 00 	mulss  xmm1,DWORD PTR [rax+0x0]
    1645:	00 
    1646:	f3 0f 58 c8          	addss  xmm1,xmm0
    164a:	f3 0f 11 88 00 00 00 	movss  DWORD PTR [rax+0x0],xmm1
    1651:	00 
    1652:	f3 0f 10 80 00 00 00 	movss  xmm0,DWORD PTR [rax+0x0]
    1659:	00 
    165a:	0f 2e c2             	ucomiss xmm0,xmm2
    165d:	77 08                	ja     1667 <s124+0x15d>
    165f:	f3 0f 10 80 00 00 00 	movss  xmm0,DWORD PTR [rax+0x0]
    1666:	00 
    1667:	f3 0f 10 88 00 00 00 	movss  xmm1,DWORD PTR [rax+0x0]
    166e:	00 
    166f:	f3 0f 59 88 00 00 00 	mulss  xmm1,DWORD PTR [rax+0x0]
    1676:	00 
    1677:	f3 0f 58 c8          	addss  xmm1,xmm0
    167b:	f3 0f 11 88 00 00 00 	movss  DWORD PTR [rax+0x0],xmm1
    1682:	00 
    1683:	f3 0f 10 80 00 00 00 	movss  xmm0,DWORD PTR [rax+0x0]
    168a:	00 
    168b:	0f 2e c2             	ucomiss xmm0,xmm2
    168e:	77 08                	ja     1698 <s124+0x18e>
    1690:	f3 0f 10 80 00 00 00 	movss  xmm0,DWORD PTR [rax+0x0]
    1697:	00 
    1698:	f3 0f 10 88 00 00 00 	movss  xmm1,DWORD PTR [rax+0x0]
    169f:	00 
    16a0:	f3 0f 59 88 00 00 00 	mulss  xmm1,DWORD PTR [rax+0x0]
    16a7:	00 
    16a8:	f3 0f 58 c8          	addss  xmm1,xmm0
    16ac:	f3 0f 11 88 00 00 00 	movss  DWORD PTR [rax+0x0],xmm1
    16b3:	00 
    16b4:	48 83 c0 20          	add    rax,0x20
    16b8:	48 3d 00 f4 01 00    	cmp    rax,0x1f400
    16be:	0f 85 68 fe ff ff    	jne    152c <s124+0x22>
    16c4:	bf 00 00 00 00       	mov    edi,0x0
    16c9:	be 00 00 00 00       	mov    esi,0x0
    16ce:	ba 00 00 00 00       	mov    edx,0x0
    16d3:	b9 00 00 00 00       	mov    ecx,0x0
    16d8:	41 b8 00 00 00 00    	mov    r8d,0x0
    16de:	41 b9 00 00 00 00    	mov    r9d,0x0
    16e4:	0f 57 c0             	xorps  xmm0,xmm0
    16e7:	68 00 00 00 00       	push   0x0
    16ec:	68 00 00 00 00       	push   0x0
    16f1:	e8 00 00 00 00       	call   16f6 <s124+0x1ec>
    16f6:	0f 57 d2             	xorps  xmm2,xmm2
    16f9:	48 83 c4 10          	add    rsp,0x10
    16fd:	ff c3                	inc    ebx
    16ff:	81 fb a0 86 01 00    	cmp    ebx,0x186a0
    1705:	0f 85 1f fe ff ff    	jne    152a <s124+0x20>
    170b:	49 83 c6 10          	add    r14,0x10
    170f:	4c 89 f7             	mov    rdi,r14
    1712:	31 f6                	xor    esi,esi
    1714:	e8 00 00 00 00       	call   1719 <s124+0x20f>
    1719:	bf 00 00 00 00       	mov    edi,0x0
    171e:	48 83 c4 08          	add    rsp,0x8
    1722:	5b                   	pop    rbx
    1723:	41 5e                	pop    r14
    1725:	e9 00 00 00 00       	jmp    172a <s125>

000000000000172a <s125>:
    172a:	41 56                	push   r14
    172c:	53                   	push   rbx
    172d:	50                   	push   rax
    172e:	49 89 fe             	mov    r14,rdi
    1731:	bf 00 00 00 00       	mov    edi,0x0
    1736:	e8 00 00 00 00       	call   173b <s125+0x11>
    173b:	31 db                	xor    ebx,ebx
    173d:	4c 89 f7             	mov    rdi,r14
    1740:	31 f6                	xor    esi,esi
    1742:	e8 00 00 00 00       	call   1747 <s125+0x1d>
    1747:	48 c7 c0 ff ff ff ff 	mov    rax,0xffffffffffffffff
    174e:	b9 1c 00 00 00       	mov    ecx,0x1c
    1753:	31 d2                	xor    edx,edx
    1755:	48 63 f0             	movsxd rsi,eax
    1758:	48 8d 3c b5 00 00 00 	lea    rdi,[rsi*4+0x0]
    175f:	00 
    1760:	31 f6                	xor    esi,esi
    1762:	f3 0f 10 84 b1 00 00 	movss  xmm0,DWORD PTR [rcx+rsi*4+0x0]
    1769:	00 00 
    176b:	f3 0f 59 84 b1 00 00 	mulss  xmm0,DWORD PTR [rcx+rsi*4+0x0]
    1772:	00 00 
    1774:	f3 0f 58 84 b1 00 00 	addss  xmm0,DWORD PTR [rcx+rsi*4+0x0]
    177b:	00 00 
    177d:	f3 0f 10 8c b1 00 00 	movss  xmm1,DWORD PTR [rcx+rsi*4+0x0]
    1784:	00 00 
    1786:	f3 0f 59 8c b1 00 00 	mulss  xmm1,DWORD PTR [rcx+rsi*4+0x0]
    178d:	00 00 
    178f:	f3 0f 58 8c b1 00 00 	addss  xmm1,DWORD PTR [rcx+rsi*4+0x0]
    1796:	00 00 
    1798:	f3 0f 11 44 b7 e4    	movss  DWORD PTR [rdi+rsi*4-0x1c],xmm0
    179e:	f3 0f 10 84 b1 00 00 	movss  xmm0,DWORD PTR [rcx+rsi*4+0x0]
    17a5:	00 00 
    17a7:	f3 0f 59 84 b1 00 00 	mulss  xmm0,DWORD PTR [rcx+rsi*4+0x0]
    17ae:	00 00 
    17b0:	f3 0f 11 4c b7 e8    	movss  DWORD PTR [rdi+rsi*4-0x18],xmm1
    17b6:	f3 0f 58 84 b1 00 00 	addss  xmm0,DWORD PTR [rcx+rsi*4+0x0]
    17bd:	00 00 
    17bf:	f3 0f 10 8c b1 00 00 	movss  xmm1,DWORD PTR [rcx+rsi*4+0x0]
    17c6:	00 00 
    17c8:	f3 0f 59 8c b1 00 00 	mulss  xmm1,DWORD PTR [rcx+rsi*4+0x0]
    17cf:	00 00 
    17d1:	f3 0f 58 8c b1 00 00 	addss  xmm1,DWORD PTR [rcx+rsi*4+0x0]
    17d8:	00 00 
    17da:	f3 0f 11 44 b7 ec    	movss  DWORD PTR [rdi+rsi*4-0x14],xmm0
    17e0:	f3 0f 10 84 b1 00 00 	movss  xmm0,DWORD PTR [rcx+rsi*4+0x0]
    17e7:	00 00 
    17e9:	f3 0f 59 84 b1 00 00 	mulss  xmm0,DWORD PTR [rcx+rsi*4+0x0]
    17f0:	00 00 
    17f2:	f3 0f 11 4c b7 f0    	movss  DWORD PTR [rdi+rsi*4-0x10],xmm1
    17f8:	f3 0f 58 84 b1 00 00 	addss  xmm0,DWORD PTR [rcx+rsi*4+0x0]
    17ff:	00 00 
    1801:	f3 0f 10 8c b1 00 00 	movss  xmm1,DWORD PTR [rcx+rsi*4+0x0]
    1808:	00 00 
    180a:	f3 0f 59 8c b1 00 00 	mulss  xmm1,DWORD PTR [rcx+rsi*4+0x0]
    1811:	00 00 
    1813:	f3 0f 58 8c b1 00 00 	addss  xmm1,DWORD PTR [rcx+rsi*4+0x0]
    181a:	00 00 
    181c:	f3 0f 11 44 b7 f4    	movss  DWORD PTR [rdi+rsi*4-0xc],xmm0
    1822:	f3 0f 10 84 b1 00 00 	movss  xmm0,DWORD PTR [rcx+rsi*4+0x0]
    1829:	00 00 
    182b:	f3 0f 59 84 b1 00 00 	mulss  xmm0,DWORD PTR [rcx+rsi*4+0x0]
    1832:	00 00 
    1834:	f3 0f 11 4c b7 f8    	movss  DWORD PTR [rdi+rsi*4-0x8],xmm1
    183a:	f3 0f 58 84 b1 00 00 	addss  xmm0,DWORD PTR [rcx+rsi*4+0x0]
    1841:	00 00 
    1843:	f3 0f 10 8c b1 00 00 	movss  xmm1,DWORD PTR [rcx+rsi*4+0x0]
    184a:	00 00 
    184c:	f3 0f 59 8c b1 00 00 	mulss  xmm1,DWORD PTR [rcx+rsi*4+0x0]
    1853:	00 00 
    1855:	f3 0f 58 8c b1 00 00 	addss  xmm1,DWORD PTR [rcx+rsi*4+0x0]
    185c:	00 00 
    185e:	f3 0f 11 44 b7 fc    	movss  DWORD PTR [rdi+rsi*4-0x4],xmm0
    1864:	f3 0f 11 0c b7       	movss  DWORD PTR [rdi+rsi*4],xmm1
    1869:	48 83 c6 08          	add    rsi,0x8
    186d:	48 81 fe 00 01 00 00 	cmp    rsi,0x100
    1874:	0f 85 e8 fe ff ff    	jne    1762 <s125+0x38>
    187a:	48 ff c2             	inc    rdx
    187d:	48 98                	cdqe   
    187f:	48 01 f0             	add    rax,rsi
    1882:	48 81 c1 00 04 00 00 	add    rcx,0x400
    1889:	48 81 fa 00 01 00 00 	cmp    rdx,0x100
    1890:	0f 85 bf fe ff ff    	jne    1755 <s125+0x2b>
    1896:	bf 00 00 00 00       	mov    edi,0x0
    189b:	be 00 00 00 00       	mov    esi,0x0
    18a0:	ba 00 00 00 00       	mov    edx,0x0
    18a5:	b9 00 00 00 00       	mov    ecx,0x0
    18aa:	41 b8 00 00 00 00    	mov    r8d,0x0
    18b0:	41 b9 00 00 00 00    	mov    r9d,0x0
    18b6:	0f 57 c0             	xorps  xmm0,xmm0
    18b9:	68 00 00 00 00       	push   0x0
    18be:	68 00 00 00 00       	push   0x0
    18c3:	e8 00 00 00 00       	call   18c8 <s125+0x19e>
    18c8:	48 83 c4 10          	add    rsp,0x10
    18cc:	ff c3                	inc    ebx
    18ce:	81 fb 58 98 00 00    	cmp    ebx,0x9858
    18d4:	0f 85 6d fe ff ff    	jne    1747 <s125+0x1d>
    18da:	49 83 c6 10          	add    r14,0x10
    18de:	4c 89 f7             	mov    rdi,r14
    18e1:	31 f6                	xor    esi,esi
    18e3:	e8 00 00 00 00       	call   18e8 <s125+0x1be>
    18e8:	bf 00 00 00 00       	mov    edi,0x0
    18ed:	48 83 c4 08          	add    rsp,0x8
    18f1:	5b                   	pop    rbx
    18f2:	41 5e                	pop    r14
    18f4:	e9 00 00 00 00       	jmp    18f9 <s126>

00000000000018f9 <s126>:
    18f9:	41 56                	push   r14
    18fb:	53                   	push   rbx
    18fc:	50                   	push   rax
    18fd:	49 89 fe             	mov    r14,rdi
    1900:	bf 00 00 00 00       	mov    edi,0x0
    1905:	e8 00 00 00 00       	call   190a <s126+0x11>
    190a:	31 db                	xor    ebx,ebx
    190c:	4c 89 f7             	mov    rdi,r14
    190f:	31 f6                	xor    esi,esi
    1911:	e8 00 00 00 00       	call   1916 <s126+0x1d>
    1916:	ba 01 00 00 00       	mov    edx,0x1
    191b:	31 c0                	xor    eax,eax
    191d:	31 c9                	xor    ecx,ecx
    191f:	48 63 f2             	movsxd rsi,edx
    1922:	f3 0f 10 04 8d 00 00 	movss  xmm0,DWORD PTR [rcx*4+0x0]
    1929:	00 00 
    192b:	8d 56 08             	lea    edx,[rsi+0x8]
    192e:	48 8d 34 b5 00 00 00 	lea    rsi,[rsi*4+0x0]
    1935:	00 
    1936:	31 ff                	xor    edi,edi
    1938:	f3 0f 10 4e fc       	movss  xmm1,DWORD PTR [rsi-0x4]
    193d:	f3 0f 59 8c 38 00 00 	mulss  xmm1,DWORD PTR [rax+rdi*1+0x0]
    1944:	00 00 
    1946:	f3 0f 58 c8          	addss  xmm1,xmm0
    194a:	f3 0f 11 8c 38 00 00 	movss  DWORD PTR [rax+rdi*1+0x0],xmm1
    1951:	00 00 
    1953:	f3 0f 10 06          	movss  xmm0,DWORD PTR [rsi]
    1957:	f3 0f 59 84 38 00 00 	mulss  xmm0,DWORD PTR [rax+rdi*1+0x0]
    195e:	00 00 
    1960:	f3 0f 58 c1          	addss  xmm0,xmm1
    1964:	f3 0f 10 4e 04       	movss  xmm1,DWORD PTR [rsi+0x4]
    1969:	f3 0f 59 8c 38 00 00 	mulss  xmm1,DWORD PTR [rax+rdi*1+0x0]
    1970:	00 00 
    1972:	f3 0f 11 84 38 00 00 	movss  DWORD PTR [rax+rdi*1+0x0],xmm0
    1979:	00 00 
    197b:	f3 0f 58 c8          	addss  xmm1,xmm0
    197f:	f3 0f 11 8c 38 00 00 	movss  DWORD PTR [rax+rdi*1+0x0],xmm1
    1986:	00 00 
    1988:	f3 0f 10 46 08       	movss  xmm0,DWORD PTR [rsi+0x8]
    198d:	f3 0f 59 84 38 00 00 	mulss  xmm0,DWORD PTR [rax+rdi*1+0x0]
    1994:	00 00 
    1996:	f3 0f 58 c1          	addss  xmm0,xmm1
    199a:	f3 0f 11 84 38 00 00 	movss  DWORD PTR [rax+rdi*1+0x0],xmm0
    19a1:	00 00 
    19a3:	f3 0f 10 4e 0c       	movss  xmm1,DWORD PTR [rsi+0xc]
    19a8:	f3 0f 59 8c 38 00 00 	mulss  xmm1,DWORD PTR [rax+rdi*1+0x0]
    19af:	00 00 
    19b1:	f3 0f 58 c8          	addss  xmm1,xmm0
    19b5:	f3 0f 11 8c 38 00 00 	movss  DWORD PTR [rax+rdi*1+0x0],xmm1
    19bc:	00 00 
    19be:	f3 0f 10 56 10       	movss  xmm2,DWORD PTR [rsi+0x10]
    19c3:	f3 0f 59 94 38 00 00 	mulss  xmm2,DWORD PTR [rax+rdi*1+0x0]
    19ca:	00 00 
    19cc:	f3 0f 58 d1          	addss  xmm2,xmm1
    19d0:	f3 0f 10 46 14       	movss  xmm0,DWORD PTR [rsi+0x14]
    19d5:	f3 0f 59 84 38 00 00 	mulss  xmm0,DWORD PTR [rax+rdi*1+0x0]
    19dc:	00 00 
    19de:	f3 0f 11 94 38 00 00 	movss  DWORD PTR [rax+rdi*1+0x0],xmm2
    19e5:	00 00 
    19e7:	f3 0f 58 c2          	addss  xmm0,xmm2
    19eb:	f3 0f 11 84 38 00 00 	movss  DWORD PTR [rax+rdi*1+0x0],xmm0
    19f2:	00 00 
    19f4:	81 ff 00 e0 03 00    	cmp    edi,0x3e000
    19fa:	74 2e                	je     1a2a <s126+0x131>
    19fc:	f3 0f 10 4e 18       	movss  xmm1,DWORD PTR [rsi+0x18]
    1a01:	f3 0f 59 8c 38 00 00 	mulss  xmm1,DWORD PTR [rax+rdi*1+0x0]
    1a08:	00 00 
    1a0a:	f3 0f 58 c1          	addss  xmm0,xmm1
    1a0e:	f3 0f 11 84 38 00 00 	movss  DWORD PTR [rax+rdi*1+0x0],xmm0
    1a15:	00 00 
    1a17:	48 81 c7 00 20 00 00 	add    rdi,0x2000
    1a1e:	83 c2 08             	add    edx,0x8
    1a21:	48 83 c6 20          	add    rsi,0x20
    1a25:	e9 0e ff ff ff       	jmp    1938 <s126+0x3f>
    1a2a:	48 ff c1             	inc    rcx
    1a2d:	48 83 c0 04          	add    rax,0x4
    1a31:	48 81 f9 00 01 00 00 	cmp    rcx,0x100
    1a38:	0f 85 e1 fe ff ff    	jne    191f <s126+0x26>
    1a3e:	bf 00 00 00 00       	mov    edi,0x0
    1a43:	be 00 00 00 00       	mov    esi,0x0
    1a48:	ba 00 00 00 00       	mov    edx,0x0
    1a4d:	b9 00 00 00 00       	mov    ecx,0x0
    1a52:	41 b8 00 00 00 00    	mov    r8d,0x0
    1a58:	41 b9 00 00 00 00    	mov    r9d,0x0
    1a5e:	0f 57 c0             	xorps  xmm0,xmm0
    1a61:	68 00 00 00 00       	push   0x0
    1a66:	68 00 00 00 00       	push   0x0
    1a6b:	e8 00 00 00 00       	call   1a70 <s126+0x177>
    1a70:	48 83 c4 10          	add    rsp,0x10
    1a74:	ff c3                	inc    ebx
    1a76:	81 fb 3c 0f 00 00    	cmp    ebx,0xf3c
    1a7c:	0f 85 94 fe ff ff    	jne    1916 <s126+0x1d>
    1a82:	49 83 c6 10          	add    r14,0x10
    1a86:	4c 89 f7             	mov    rdi,r14
    1a89:	31 f6                	xor    esi,esi
    1a8b:	e8 00 00 00 00       	call   1a90 <s126+0x197>
    1a90:	bf 00 00 00 00       	mov    edi,0x0
    1a95:	48 83 c4 08          	add    rsp,0x8
    1a99:	5b                   	pop    rbx
    1a9a:	41 5e                	pop    r14
    1a9c:	e9 00 00 00 00       	jmp    1aa1 <s127>

0000000000001aa1 <s127>:
    1aa1:	41 56                	push   r14
    1aa3:	53                   	push   rbx
    1aa4:	50                   	push   rax
    1aa5:	49 89 fe             	mov    r14,rdi
    1aa8:	bf 00 00 00 00       	mov    edi,0x0
    1aad:	e8 00 00 00 00       	call   1ab2 <s127+0x11>
    1ab2:	31 db                	xor    ebx,ebx
    1ab4:	4c 89 f7             	mov    rdi,r14
    1ab7:	31 f6                	xor    esi,esi
    1ab9:	e8 00 00 00 00       	call   1abe <s127+0x1d>
    1abe:	31 c0                	xor    eax,eax
    1ac0:	f3 0f 10 04 85 00 00 	movss  xmm0,DWORD PTR [rax*4+0x0]
    1ac7:	00 00 
    1ac9:	f3 0f 10 0c 85 00 00 	movss  xmm1,DWORD PTR [rax*4+0x0]
    1ad0:	00 00 
    1ad2:	f3 0f 10 14 85 00 00 	movss  xmm2,DWORD PTR [rax*4+0x0]
    1ad9:	00 00 
    1adb:	f3 0f 59 d1          	mulss  xmm2,xmm1
    1adf:	f3 0f 58 d0          	addss  xmm2,xmm0
    1ae3:	f3 0f 11 14 c5 00 00 	movss  DWORD PTR [rax*8+0x0],xmm2
    1aea:	00 00 
    1aec:	f3 0f 59 0c 85 00 00 	mulss  xmm1,DWORD PTR [rax*4+0x0]
    1af3:	00 00 
    1af5:	f3 0f 58 c8          	addss  xmm1,xmm0
    1af9:	f3 0f 11 0c c5 00 00 	movss  DWORD PTR [rax*8+0x0],xmm1
    1b00:	00 00 
    1b02:	f3 0f 10 04 85 00 00 	movss  xmm0,DWORD PTR [rax*4+0x0]
    1b09:	00 00 
    1b0b:	f3 0f 10 0c 85 00 00 	movss  xmm1,DWORD PTR [rax*4+0x0]
    1b12:	00 00 
    1b14:	f3 0f 10 14 85 00 00 	movss  xmm2,DWORD PTR [rax*4+0x0]
    1b1b:	00 00 
    1b1d:	f3 0f 59 d1          	mulss  xmm2,xmm1
    1b21:	f3 0f 58 d0          	addss  xmm2,xmm0
    1b25:	f3 0f 11 14 c5 00 00 	movss  DWORD PTR [rax*8+0x0],xmm2
    1b2c:	00 00 
    1b2e:	f3 0f 59 0c 85 00 00 	mulss  xmm1,DWORD PTR [rax*4+0x0]
    1b35:	00 00 
    1b37:	f3 0f 58 c8          	addss  xmm1,xmm0
    1b3b:	f3 0f 11 0c c5 00 00 	movss  DWORD PTR [rax*8+0x0],xmm1
    1b42:	00 00 
    1b44:	f3 0f 10 04 85 00 00 	movss  xmm0,DWORD PTR [rax*4+0x0]
    1b4b:	00 00 
    1b4d:	f3 0f 10 0c 85 00 00 	movss  xmm1,DWORD PTR [rax*4+0x0]
    1b54:	00 00 
    1b56:	f3 0f 10 14 85 00 00 	movss  xmm2,DWORD PTR [rax*4+0x0]
    1b5d:	00 00 
    1b5f:	f3 0f 59 d1          	mulss  xmm2,xmm1
    1b63:	f3 0f 58 d0          	addss  xmm2,xmm0
    1b67:	f3 0f 11 14 c5 00 00 	movss  DWORD PTR [rax*8+0x0],xmm2
    1b6e:	00 00 
    1b70:	f3 0f 59 0c 85 00 00 	mulss  xmm1,DWORD PTR [rax*4+0x0]
    1b77:	00 00 
    1b79:	f3 0f 58 c8          	addss  xmm1,xmm0
    1b7d:	f3 0f 11 0c c5 00 00 	movss  DWORD PTR [rax*8+0x0],xmm1
    1b84:	00 00 
    1b86:	f3 0f 10 04 85 00 00 	movss  xmm0,DWORD PTR [rax*4+0x0]
    1b8d:	00 00 
    1b8f:	f3 0f 10 0c 85 00 00 	movss  xmm1,DWORD PTR [rax*4+0x0]
    1b96:	00 00 
    1b98:	f3 0f 10 14 85 00 00 	movss  xmm2,DWORD PTR [rax*4+0x0]
    1b9f:	00 00 
    1ba1:	f3 0f 59 d1          	mulss  xmm2,xmm1
    1ba5:	f3 0f 58 d0          	addss  xmm2,xmm0
    1ba9:	f3 0f 11 14 c5 00 00 	movss  DWORD PTR [rax*8+0x0],xmm2
    1bb0:	00 00 
    1bb2:	f3 0f 59 0c 85 00 00 	mulss  xmm1,DWORD PTR [rax*4+0x0]
    1bb9:	00 00 
    1bbb:	f3 0f 58 c8          	addss  xmm1,xmm0
    1bbf:	f3 0f 11 0c c5 00 00 	movss  DWORD PTR [rax*8+0x0],xmm1
    1bc6:	00 00 
    1bc8:	f3 0f 10 04 85 00 00 	movss  xmm0,DWORD PTR [rax*4+0x0]
    1bcf:	00 00 
    1bd1:	f3 0f 10 0c 85 00 00 	movss  xmm1,DWORD PTR [rax*4+0x0]
    1bd8:	00 00 
    1bda:	f3 0f 10 14 85 00 00 	movss  xmm2,DWORD PTR [rax*4+0x0]
    1be1:	00 00 
    1be3:	f3 0f 59 d1          	mulss  xmm2,xmm1
    1be7:	f3 0f 58 d0          	addss  xmm2,xmm0
    1beb:	f3 0f 11 14 c5 00 00 	movss  DWORD PTR [rax*8+0x0],xmm2
    1bf2:	00 00 
    1bf4:	f3 0f 59 0c 85 00 00 	mulss  xmm1,DWORD PTR [rax*4+0x0]
    1bfb:	00 00 
    1bfd:	f3 0f 58 c8          	addss  xmm1,xmm0
    1c01:	f3 0f 11 0c c5 00 00 	movss  DWORD PTR [rax*8+0x0],xmm1
    1c08:	00 00 
    1c0a:	f3 0f 10 04 85 00 00 	movss  xmm0,DWORD PTR [rax*4+0x0]
    1c11:	00 00 
    1c13:	f3 0f 10 0c 85 00 00 	movss  xmm1,DWORD PTR [rax*4+0x0]
    1c1a:	00 00 
    1c1c:	f3 0f 10 14 85 00 00 	movss  xmm2,DWORD PTR [rax*4+0x0]
    1c23:	00 00 
    1c25:	f3 0f 59 d1          	mulss  xmm2,xmm1
    1c29:	f3 0f 58 d0          	addss  xmm2,xmm0
    1c2d:	f3 0f 11 14 c5 00 00 	movss  DWORD PTR [rax*8+0x0],xmm2
    1c34:	00 00 
    1c36:	f3 0f 59 0c 85 00 00 	mulss  xmm1,DWORD PTR [rax*4+0x0]
    1c3d:	00 00 
    1c3f:	f3 0f 58 c8          	addss  xmm1,xmm0
    1c43:	f3 0f 11 0c c5 00 00 	movss  DWORD PTR [rax*8+0x0],xmm1
    1c4a:	00 00 
    1c4c:	f3 0f 10 04 85 00 00 	movss  xmm0,DWORD PTR [rax*4+0x0]
    1c53:	00 00 
    1c55:	f3 0f 10 0c 85 00 00 	movss  xmm1,DWORD PTR [rax*4+0x0]
    1c5c:	00 00 
    1c5e:	f3 0f 10 14 85 00 00 	movss  xmm2,DWORD PTR [rax*4+0x0]
    1c65:	00 00 
    1c67:	f3 0f 59 d1          	mulss  xmm2,xmm1
    1c6b:	f3 0f 58 d0          	addss  xmm2,xmm0
    1c6f:	f3 0f 11 14 c5 00 00 	movss  DWORD PTR [rax*8+0x0],xmm2
    1c76:	00 00 
    1c78:	f3 0f 59 0c 85 00 00 	mulss  xmm1,DWORD PTR [rax*4+0x0]
    1c7f:	00 00 
    1c81:	f3 0f 58 c8          	addss  xmm1,xmm0
    1c85:	f3 0f 11 0c c5 00 00 	movss  DWORD PTR [rax*8+0x0],xmm1
    1c8c:	00 00 
    1c8e:	f3 0f 10 04 85 00 00 	movss  xmm0,DWORD PTR [rax*4+0x0]
    1c95:	00 00 
    1c97:	f3 0f 10 0c 85 00 00 	movss  xmm1,DWORD PTR [rax*4+0x0]
    1c9e:	00 00 
    1ca0:	f3 0f 10 14 85 00 00 	movss  xmm2,DWORD PTR [rax*4+0x0]
    1ca7:	00 00 
    1ca9:	f3 0f 59 d1          	mulss  xmm2,xmm1
    1cad:	f3 0f 58 d0          	addss  xmm2,xmm0
    1cb1:	f3 0f 11 14 c5 00 00 	movss  DWORD PTR [rax*8+0x0],xmm2
    1cb8:	00 00 
    1cba:	f3 0f 59 0c 85 00 00 	mulss  xmm1,DWORD PTR [rax*4+0x0]
    1cc1:	00 00 
    1cc3:	f3 0f 58 c8          	addss  xmm1,xmm0
    1cc7:	f3 0f 11 0c c5 00 00 	movss  DWORD PTR [rax*8+0x0],xmm1
    1cce:	00 00 
    1cd0:	48 83 c0 08          	add    rax,0x8
    1cd4:	48 3d 80 3e 00 00    	cmp    rax,0x3e80
    1cda:	0f 85 e0 fd ff ff    	jne    1ac0 <s127+0x1f>
    1ce0:	bf 00 00 00 00       	mov    edi,0x0
    1ce5:	be 00 00 00 00       	mov    esi,0x0
    1cea:	ba 00 00 00 00       	mov    edx,0x0
    1cef:	b9 00 00 00 00       	mov    ecx,0x0
    1cf4:	41 b8 00 00 00 00    	mov    r8d,0x0
    1cfa:	41 b9 00 00 00 00    	mov    r9d,0x0
    1d00:	0f 57 c0             	xorps  xmm0,xmm0
    1d03:	68 00 00 00 00       	push   0x0
    1d08:	68 00 00 00 00       	push   0x0
    1d0d:	e8 00 00 00 00       	call   1d12 <s127+0x271>
    1d12:	48 83 c4 10          	add    rsp,0x10
    1d16:	ff c3                	inc    ebx
    1d18:	81 fb 40 0d 03 00    	cmp    ebx,0x30d40
    1d1e:	0f 85 9a fd ff ff    	jne    1abe <s127+0x1d>
    1d24:	49 83 c6 10          	add    r14,0x10
    1d28:	4c 89 f7             	mov    rdi,r14
    1d2b:	31 f6                	xor    esi,esi
    1d2d:	e8 00 00 00 00       	call   1d32 <s127+0x291>
    1d32:	bf 00 00 00 00       	mov    edi,0x0
    1d37:	48 83 c4 08          	add    rsp,0x8
    1d3b:	5b                   	pop    rbx
    1d3c:	41 5e                	pop    r14
    1d3e:	e9 00 00 00 00       	jmp    1d43 <s128>

0000000000001d43 <s128>:
    1d43:	41 56                	push   r14
    1d45:	53                   	push   rbx
    1d46:	50                   	push   rax
    1d47:	49 89 fe             	mov    r14,rdi
    1d4a:	bf 00 00 00 00       	mov    edi,0x0
    1d4f:	e8 00 00 00 00       	call   1d54 <s128+0x11>
    1d54:	31 db                	xor    ebx,ebx
    1d56:	4c 89 f7             	mov    rdi,r14
    1d59:	31 f6                	xor    esi,esi
    1d5b:	e8 00 00 00 00       	call   1d60 <s128+0x1d>
    1d60:	31 c0                	xor    eax,eax
    1d62:	f3 0f 10 04 c5 00 00 	movss  xmm0,DWORD PTR [rax*8+0x0]
    1d69:	00 00 
    1d6b:	f3 0f 5c 04 85 00 00 	subss  xmm0,DWORD PTR [rax*4+0x0]
    1d72:	00 00 
    1d74:	f3 0f 11 04 85 00 00 	movss  DWORD PTR [rax*4+0x0],xmm0
    1d7b:	00 00 
    1d7d:	f3 0f 58 04 c5 00 00 	addss  xmm0,DWORD PTR [rax*8+0x0]
    1d84:	00 00 
    1d86:	f3 0f 11 04 c5 00 00 	movss  DWORD PTR [rax*8+0x0],xmm0
    1d8d:	00 00 
    1d8f:	f3 0f 10 04 c5 00 00 	movss  xmm0,DWORD PTR [rax*8+0x0]
    1d96:	00 00 
    1d98:	f3 0f 5c 04 85 00 00 	subss  xmm0,DWORD PTR [rax*4+0x0]
    1d9f:	00 00 
    1da1:	f3 0f 11 04 85 00 00 	movss  DWORD PTR [rax*4+0x0],xmm0
    1da8:	00 00 
    1daa:	f3 0f 58 04 c5 00 00 	addss  xmm0,DWORD PTR [rax*8+0x0]
    1db1:	00 00 
    1db3:	f3 0f 11 04 c5 00 00 	movss  DWORD PTR [rax*8+0x0],xmm0
    1dba:	00 00 
    1dbc:	f3 0f 10 04 c5 00 00 	movss  xmm0,DWORD PTR [rax*8+0x0]
    1dc3:	00 00 
    1dc5:	f3 0f 5c 04 85 00 00 	subss  xmm0,DWORD PTR [rax*4+0x0]
    1dcc:	00 00 
    1dce:	f3 0f 11 04 85 00 00 	movss  DWORD PTR [rax*4+0x0],xmm0
    1dd5:	00 00 
    1dd7:	f3 0f 58 04 c5 00 00 	addss  xmm0,DWORD PTR [rax*8+0x0]
    1dde:	00 00 
    1de0:	f3 0f 11 04 c5 00 00 	movss  DWORD PTR [rax*8+0x0],xmm0
    1de7:	00 00 
    1de9:	f3 0f 10 04 c5 00 00 	movss  xmm0,DWORD PTR [rax*8+0x0]
    1df0:	00 00 
    1df2:	f3 0f 5c 04 85 00 00 	subss  xmm0,DWORD PTR [rax*4+0x0]
    1df9:	00 00 
    1dfb:	f3 0f 11 04 85 00 00 	movss  DWORD PTR [rax*4+0x0],xmm0
    1e02:	00 00 
    1e04:	f3 0f 58 04 c5 00 00 	addss  xmm0,DWORD PTR [rax*8+0x0]
    1e0b:	00 00 
    1e0d:	f3 0f 11 04 c5 00 00 	movss  DWORD PTR [rax*8+0x0],xmm0
    1e14:	00 00 
    1e16:	f3 0f 10 04 c5 00 00 	movss  xmm0,DWORD PTR [rax*8+0x0]
    1e1d:	00 00 
    1e1f:	f3 0f 5c 04 85 00 00 	subss  xmm0,DWORD PTR [rax*4+0x0]
    1e26:	00 00 
    1e28:	f3 0f 11 04 85 00 00 	movss  DWORD PTR [rax*4+0x0],xmm0
    1e2f:	00 00 
    1e31:	f3 0f 58 04 c5 00 00 	addss  xmm0,DWORD PTR [rax*8+0x0]
    1e38:	00 00 
    1e3a:	f3 0f 11 04 c5 00 00 	movss  DWORD PTR [rax*8+0x0],xmm0
    1e41:	00 00 
    1e43:	f3 0f 10 04 c5 00 00 	movss  xmm0,DWORD PTR [rax*8+0x0]
    1e4a:	00 00 
    1e4c:	f3 0f 5c 04 85 00 00 	subss  xmm0,DWORD PTR [rax*4+0x0]
    1e53:	00 00 
    1e55:	f3 0f 11 04 85 00 00 	movss  DWORD PTR [rax*4+0x0],xmm0
    1e5c:	00 00 
    1e5e:	f3 0f 58 04 c5 00 00 	addss  xmm0,DWORD PTR [rax*8+0x0]
    1e65:	00 00 
    1e67:	f3 0f 11 04 c5 00 00 	movss  DWORD PTR [rax*8+0x0],xmm0
    1e6e:	00 00 
    1e70:	f3 0f 10 04 c5 00 00 	movss  xmm0,DWORD PTR [rax*8+0x0]
    1e77:	00 00 
    1e79:	f3 0f 5c 04 85 00 00 	subss  xmm0,DWORD PTR [rax*4+0x0]
    1e80:	00 00 
    1e82:	f3 0f 11 04 85 00 00 	movss  DWORD PTR [rax*4+0x0],xmm0
    1e89:	00 00 
    1e8b:	f3 0f 58 04 c5 00 00 	addss  xmm0,DWORD PTR [rax*8+0x0]
    1e92:	00 00 
    1e94:	f3 0f 11 04 c5 00 00 	movss  DWORD PTR [rax*8+0x0],xmm0
    1e9b:	00 00 
    1e9d:	f3 0f 10 04 c5 00 00 	movss  xmm0,DWORD PTR [rax*8+0x0]
    1ea4:	00 00 
    1ea6:	f3 0f 5c 04 85 00 00 	subss  xmm0,DWORD PTR [rax*4+0x0]
    1ead:	00 00 
    1eaf:	f3 0f 11 04 85 00 00 	movss  DWORD PTR [rax*4+0x0],xmm0
    1eb6:	00 00 
    1eb8:	f3 0f 58 04 c5 00 00 	addss  xmm0,DWORD PTR [rax*8+0x0]
    1ebf:	00 00 
    1ec1:	f3 0f 11 04 c5 00 00 	movss  DWORD PTR [rax*8+0x0],xmm0
    1ec8:	00 00 
    1eca:	48 83 c0 08          	add    rax,0x8
    1ece:	48 3d 80 3e 00 00    	cmp    rax,0x3e80
    1ed4:	0f 85 88 fe ff ff    	jne    1d62 <s128+0x1f>
    1eda:	bf 00 00 00 00       	mov    edi,0x0
    1edf:	be 00 00 00 00       	mov    esi,0x0
    1ee4:	ba 00 00 00 00       	mov    edx,0x0
    1ee9:	b9 00 00 00 00       	mov    ecx,0x0
    1eee:	41 b8 00 00 00 00    	mov    r8d,0x0
    1ef4:	41 b9 00 00 00 00    	mov    r9d,0x0
    1efa:	f3 0f 10 05 00 00 00 	movss  xmm0,DWORD PTR [rip+0x0]        # 1f02 <s128+0x1bf>
    1f01:	00 
    1f02:	68 00 00 00 00       	push   0x0
    1f07:	68 00 00 00 00       	push   0x0
    1f0c:	e8 00 00 00 00       	call   1f11 <s128+0x1ce>
    1f11:	48 83 c4 10          	add    rsp,0x10
    1f15:	ff c3                	inc    ebx
    1f17:	81 fb 40 0d 03 00    	cmp    ebx,0x30d40
    1f1d:	0f 85 3d fe ff ff    	jne    1d60 <s128+0x1d>
    1f23:	49 83 c6 10          	add    r14,0x10
    1f27:	4c 89 f7             	mov    rdi,r14
    1f2a:	31 f6                	xor    esi,esi
    1f2c:	e8 00 00 00 00       	call   1f31 <s128+0x1ee>
    1f31:	bf 00 00 00 00       	mov    edi,0x0
    1f36:	48 83 c4 08          	add    rsp,0x8
    1f3a:	5b                   	pop    rbx
    1f3b:	41 5e                	pop    r14
    1f3d:	e9 00 00 00 00       	jmp    1f42 <s131>

0000000000001f42 <s131>:
    1f42:	41 56                	push   r14
    1f44:	53                   	push   rbx
    1f45:	50                   	push   rax
    1f46:	49 89 fe             	mov    r14,rdi
    1f49:	bf 00 00 00 00       	mov    edi,0x0
    1f4e:	e8 00 00 00 00       	call   1f53 <s131+0x11>
    1f53:	31 db                	xor    ebx,ebx
    1f55:	4c 89 f7             	mov    rdi,r14
    1f58:	31 f6                	xor    esi,esi
    1f5a:	e8 00 00 00 00       	call   1f5f <s131+0x1d>
    1f5f:	48 c7 c0 20 0c fe ff 	mov    rax,0xfffffffffffe0c20
    1f66:	f3 0f 10 80 00 00 00 	movss  xmm0,DWORD PTR [rax+0x0]
    1f6d:	00 
    1f6e:	f3 0f 58 80 00 00 00 	addss  xmm0,DWORD PTR [rax+0x0]
    1f75:	00 
    1f76:	f3 0f 11 80 00 00 00 	movss  DWORD PTR [rax+0x0],xmm0
    1f7d:	00 
    1f7e:	f3 0f 10 80 00 00 00 	movss  xmm0,DWORD PTR [rax+0x0]
    1f85:	00 
    1f86:	f3 0f 58 80 00 00 00 	addss  xmm0,DWORD PTR [rax+0x0]
    1f8d:	00 
    1f8e:	f3 0f 11 80 00 00 00 	movss  DWORD PTR [rax+0x0],xmm0
    1f95:	00 
    1f96:	f3 0f 10 80 00 00 00 	movss  xmm0,DWORD PTR [rax+0x0]
    1f9d:	00 
    1f9e:	f3 0f 58 80 00 00 00 	addss  xmm0,DWORD PTR [rax+0x0]
    1fa5:	00 
    1fa6:	f3 0f 11 80 00 00 00 	movss  DWORD PTR [rax+0x0],xmm0
    1fad:	00 
    1fae:	f3 0f 10 80 00 00 00 	movss  xmm0,DWORD PTR [rax+0x0]
    1fb5:	00 
    1fb6:	f3 0f 58 80 00 00 00 	addss  xmm0,DWORD PTR [rax+0x0]
    1fbd:	00 
    1fbe:	f3 0f 11 80 00 00 00 	movss  DWORD PTR [rax+0x0],xmm0
    1fc5:	00 
    1fc6:	f3 0f 10 80 00 00 00 	movss  xmm0,DWORD PTR [rax+0x0]
    1fcd:	00 
    1fce:	f3 0f 58 80 00 00 00 	addss  xmm0,DWORD PTR [rax+0x0]
    1fd5:	00 
    1fd6:	f3 0f 11 80 00 00 00 	movss  DWORD PTR [rax+0x0],xmm0
    1fdd:	00 
    1fde:	f3 0f 10 80 00 00 00 	movss  xmm0,DWORD PTR [rax+0x0]
    1fe5:	00 
    1fe6:	f3 0f 58 80 00 00 00 	addss  xmm0,DWORD PTR [rax+0x0]
    1fed:	00 
    1fee:	f3 0f 11 80 00 00 00 	movss  DWORD PTR [rax+0x0],xmm0
    1ff5:	00 
    1ff6:	f3 0f 10 80 00 00 00 	movss  xmm0,DWORD PTR [rax+0x0]
    1ffd:	00 
    1ffe:	f3 0f 58 80 00 00 00 	addss  xmm0,DWORD PTR [rax+0x0]
    2005:	00 
    2006:	f3 0f 11 80 00 00 00 	movss  DWORD PTR [rax+0x0],xmm0
    200d:	00 
    200e:	48 85 c0             	test   rax,rax
    2011:	74 21                	je     2034 <s131+0xf2>
    2013:	f3 0f 10 80 00 00 00 	movss  xmm0,DWORD PTR [rax+0x0]
    201a:	00 
    201b:	f3 0f 58 80 00 00 00 	addss  xmm0,DWORD PTR [rax+0x0]
    2022:	00 
    2023:	f3 0f 11 80 00 00 00 	movss  DWORD PTR [rax+0x0],xmm0
    202a:	00 
    202b:	48 83 c0 20          	add    rax,0x20
    202f:	e9 32 ff ff ff       	jmp    1f66 <s131+0x24>
    2034:	bf 00 00 00 00       	mov    edi,0x0
    2039:	be 00 00 00 00       	mov    esi,0x0
    203e:	ba 00 00 00 00       	mov    edx,0x0
    2043:	b9 00 00 00 00       	mov    ecx,0x0
    2048:	41 b8 00 00 00 00    	mov    r8d,0x0
    204e:	41 b9 00 00 00 00    	mov    r9d,0x0
    2054:	0f 57 c0             	xorps  xmm0,xmm0
    2057:	68 00 00 00 00       	push   0x0
    205c:	68 00 00 00 00       	push   0x0
    2061:	e8 00 00 00 00       	call   2066 <s131+0x124>
    2066:	48 83 c4 10          	add    rsp,0x10
    206a:	ff c3                	inc    ebx
    206c:	81 fb 20 a1 07 00    	cmp    ebx,0x7a120
    2072:	0f 85 e7 fe ff ff    	jne    1f5f <s131+0x1d>
    2078:	49 83 c6 10          	add    r14,0x10
    207c:	4c 89 f7             	mov    rdi,r14
    207f:	31 f6                	xor    esi,esi
    2081:	e8 00 00 00 00       	call   2086 <s131+0x144>
    2086:	bf 00 00 00 00       	mov    edi,0x0
    208b:	48 83 c4 08          	add    rsp,0x8
    208f:	5b                   	pop    rbx
    2090:	41 5e                	pop    r14
    2092:	e9 00 00 00 00       	jmp    2097 <s132>

0000000000002097 <s132>:
    2097:	41 56                	push   r14
    2099:	53                   	push   rbx
    209a:	50                   	push   rax
    209b:	49 89 fe             	mov    r14,rdi
    209e:	bf 00 00 00 00       	mov    edi,0x0
    20a3:	e8 00 00 00 00       	call   20a8 <s132+0x11>
    20a8:	31 db                	xor    ebx,ebx
    20aa:	4c 89 f7             	mov    rdi,r14
    20ad:	31 f6                	xor    esi,esi
    20af:	e8 00 00 00 00       	call   20b4 <s132+0x1d>
    20b4:	48 c7 c0 20 fc ff ff 	mov    rax,0xfffffffffffffc20
    20bb:	f3 0f 10 05 00 00 00 	movss  xmm0,DWORD PTR [rip+0x0]        # 20c3 <s132+0x2c>
    20c2:	00 
    20c3:	f3 0f 10 88 00 00 00 	movss  xmm1,DWORD PTR [rax+0x0]
    20ca:	00 
    20cb:	f3 0f 59 c8          	mulss  xmm1,xmm0
    20cf:	f3 0f 58 88 00 00 00 	addss  xmm1,DWORD PTR [rax+0x0]
    20d6:	00 
    20d7:	f3 0f 11 88 00 00 00 	movss  DWORD PTR [rax+0x0],xmm1
    20de:	00 
    20df:	f3 0f 10 88 00 00 00 	movss  xmm1,DWORD PTR [rax+0x0]
    20e6:	00 
    20e7:	f3 0f 59 c8          	mulss  xmm1,xmm0
    20eb:	f3 0f 58 88 00 00 00 	addss  xmm1,DWORD PTR [rax+0x0]
    20f2:	00 
    20f3:	f3 0f 11 88 00 00 00 	movss  DWORD PTR [rax+0x0],xmm1
    20fa:	00 
    20fb:	f3 0f 10 88 00 00 00 	movss  xmm1,DWORD PTR [rax+0x0]
    2102:	00 
    2103:	f3 0f 59 c8          	mulss  xmm1,xmm0
    2107:	f3 0f 58 88 00 00 00 	addss  xmm1,DWORD PTR [rax+0x0]
    210e:	00 
    210f:	f3 0f 11 88 00 00 00 	movss  DWORD PTR [rax+0x0],xmm1
    2116:	00 
    2117:	f3 0f 10 88 00 00 00 	movss  xmm1,DWORD PTR [rax+0x0]
    211e:	00 
    211f:	f3 0f 59 c8          	mulss  xmm1,xmm0
    2123:	f3 0f 58 88 00 00 00 	addss  xmm1,DWORD PTR [rax+0x0]
    212a:	00 
    212b:	f3 0f 11 88 00 00 00 	movss  DWORD PTR [rax+0x0],xmm1
    2132:	00 
    2133:	f3 0f 10 88 00 00 00 	movss  xmm1,DWORD PTR [rax+0x0]
    213a:	00 
    213b:	f3 0f 59 c8          	mulss  xmm1,xmm0
    213f:	f3 0f 58 88 00 00 00 	addss  xmm1,DWORD PTR [rax+0x0]
    2146:	00 
    2147:	f3 0f 11 88 00 00 00 	movss  DWORD PTR [rax+0x0],xmm1
    214e:	00 
    214f:	f3 0f 10 88 00 00 00 	movss  xmm1,DWORD PTR [rax+0x0]
    2156:	00 
    2157:	f3 0f 59 c8          	mulss  xmm1,xmm0
    215b:	f3 0f 58 88 00 00 00 	addss  xmm1,DWORD PTR [rax+0x0]
    2162:	00 
    2163:	f3 0f 11 88 00 00 00 	movss  DWORD PTR [rax+0x0],xmm1
    216a:	00 
    216b:	f3 0f 10 88 00 00 00 	movss  xmm1,DWORD PTR [rax+0x0]
    2172:	00 
    2173:	f3 0f 59 c8          	mulss  xmm1,xmm0
    2177:	f3 0f 58 88 00 00 00 	addss  xmm1,DWORD PTR [rax+0x0]
    217e:	00 
    217f:	f3 0f 11 88 00 00 00 	movss  DWORD PTR [rax+0x0],xmm1
    2186:	00 
    2187:	48 85 c0             	test   rax,rax
    218a:	74 25                	je     21b1 <s132+0x11a>
    218c:	f3 0f 10 88 00 00 00 	movss  xmm1,DWORD PTR [rax+0x0]
    2193:	00 
    2194:	f3 0f 59 c8          	mulss  xmm1,xmm0
    2198:	f3 0f 58 88 00 00 00 	addss  xmm1,DWORD PTR [rax+0x0]
    219f:	00 
    21a0:	f3 0f 11 88 00 00 00 	movss  DWORD PTR [rax+0x0],xmm1
    21a7:	00 
    21a8:	48 83 c0 20          	add    rax,0x20
    21ac:	e9 12 ff ff ff       	jmp    20c3 <s132+0x2c>
    21b1:	bf 00 00 00 00       	mov    edi,0x0
    21b6:	be 00 00 00 00       	mov    esi,0x0
    21bb:	ba 00 00 00 00       	mov    edx,0x0
    21c0:	b9 00 00 00 00       	mov    ecx,0x0
    21c5:	41 b8 00 00 00 00    	mov    r8d,0x0
    21cb:	41 b9 00 00 00 00    	mov    r9d,0x0
    21d1:	0f 57 c0             	xorps  xmm0,xmm0
    21d4:	68 00 00 00 00       	push   0x0
    21d9:	68 00 00 00 00       	push   0x0
    21de:	e8 00 00 00 00       	call   21e3 <s132+0x14c>
    21e3:	48 83 c4 10          	add    rsp,0x10
    21e7:	ff c3                	inc    ebx
    21e9:	81 fb 00 5a 62 02    	cmp    ebx,0x2625a00
    21ef:	0f 85 bf fe ff ff    	jne    20b4 <s132+0x1d>
    21f5:	49 83 c6 10          	add    r14,0x10
    21f9:	4c 89 f7             	mov    rdi,r14
    21fc:	31 f6                	xor    esi,esi
    21fe:	e8 00 00 00 00       	call   2203 <s132+0x16c>
    2203:	bf 00 00 00 00       	mov    edi,0x0
    2208:	48 83 c4 08          	add    rsp,0x8
    220c:	5b                   	pop    rbx
    220d:	41 5e                	pop    r14
    220f:	e9 00 00 00 00       	jmp    2214 <s141>

0000000000002214 <s141>:
    2214:	41 57                	push   r15
    2216:	41 56                	push   r14
    2218:	41 54                	push   r12
    221a:	53                   	push   rbx
    221b:	50                   	push   rax
    221c:	49 89 fe             	mov    r14,rdi
    221f:	bf 00 00 00 00       	mov    edi,0x0
    2224:	e8 00 00 00 00       	call   2229 <s141+0x15>
    2229:	45 31 ff             	xor    r15d,r15d
    222c:	4c 89 f7             	mov    rdi,r14
    222f:	31 f6                	xor    esi,esi
    2231:	e8 00 00 00 00       	call   2236 <s141+0x22>
    2236:	b8 00 00 00 00       	mov    eax,0x0
    223b:	41 ba 00 00 00 00    	mov    r10d,0x0
    2241:	45 31 db             	xor    r11d,r11d
    2244:	45 31 c9             	xor    r9d,r9d
    2247:	45 31 c0             	xor    r8d,r8d
    224a:	4d 89 cc             	mov    r12,r9
    224d:	41 ff c0             	inc    r8d
    2250:	44 89 e1             	mov    ecx,r12d
    2253:	f7 d9                	neg    ecx
    2255:	44 89 c6             	mov    esi,r8d
    2258:	41 0f af f4          	imul   esi,r12d
    225c:	d1 ee                	shr    esi,1
    225e:	44 01 e6             	add    esi,r12d
    2261:	f6 c1 07             	test   cl,0x7
    2264:	74 3b                	je     22a1 <s141+0x8d>
    2266:	41 0f b6 cb          	movzx  ecx,r11b
    226a:	83 e1 07             	and    ecx,0x7
    226d:	48 c1 e1 0a          	shl    rcx,0xa
    2271:	31 d2                	xor    edx,edx
    2273:	4c 89 e7             	mov    rdi,r12
    2276:	f3 0f 10 04 10       	movss  xmm0,DWORD PTR [rax+rdx*1]
    227b:	89 f3                	mov    ebx,esi
    227d:	f3 0f 58 04 9d 00 00 	addss  xmm0,DWORD PTR [rbx*4+0x0]
    2284:	00 00 
    2286:	f3 0f 11 04 9d 00 00 	movss  DWORD PTR [rbx*4+0x0],xmm0
    228d:	00 00 
    228f:	48 ff c7             	inc    rdi
    2292:	01 fe                	add    esi,edi
    2294:	48 81 c2 00 04 00 00 	add    rdx,0x400
    229b:	39 d1                	cmp    ecx,edx
    229d:	75 d7                	jne    2276 <s141+0x62>
    229f:	eb 03                	jmp    22a4 <s141+0x90>
    22a1:	4c 89 e7             	mov    rdi,r12
    22a4:	4d 8d 4c 24 01       	lea    r9,[r12+0x1]
    22a9:	49 81 fc f8 00 00 00 	cmp    r12,0xf8
    22b0:	0f 87 54 01 00 00    	ja     240a <s141+0x1f6>
    22b6:	48 8d 9f 00 ff ff ff 	lea    rbx,[rdi-0x100]
    22bd:	48 c1 e7 0a          	shl    rdi,0xa
    22c1:	4c 01 d7             	add    rdi,r10
    22c4:	f3 0f 10 87 00 f0 ff 	movss  xmm0,DWORD PTR [rdi-0x1000]
    22cb:	ff 
    22cc:	89 f1                	mov    ecx,esi
    22ce:	f3 0f 58 04 8d 00 00 	addss  xmm0,DWORD PTR [rcx*4+0x0]
    22d5:	00 00 
    22d7:	f3 0f 11 04 8d 00 00 	movss  DWORD PTR [rcx*4+0x0],xmm0
    22de:	00 00 
    22e0:	8d 0c 33             	lea    ecx,[rbx+rsi*1]
    22e3:	8d 94 33 01 01 00 00 	lea    edx,[rbx+rsi*1+0x101]
    22ea:	f3 0f 10 87 00 f4 ff 	movss  xmm0,DWORD PTR [rdi-0xc00]
    22f1:	ff 
    22f2:	f3 0f 58 04 95 00 00 	addss  xmm0,DWORD PTR [rdx*4+0x0]
    22f9:	00 00 
    22fb:	f3 0f 11 04 95 00 00 	movss  DWORD PTR [rdx*4+0x0],xmm0
    2302:	00 00 
    2304:	8d 94 0b 01 01 00 00 	lea    edx,[rbx+rcx*1+0x101]
    230b:	8d 8c 0b 03 02 00 00 	lea    ecx,[rbx+rcx*1+0x203]
    2312:	f3 0f 10 87 00 f8 ff 	movss  xmm0,DWORD PTR [rdi-0x800]
    2319:	ff 
    231a:	f3 0f 58 04 8d 00 00 	addss  xmm0,DWORD PTR [rcx*4+0x0]
    2321:	00 00 
    2323:	f3 0f 11 04 8d 00 00 	movss  DWORD PTR [rcx*4+0x0],xmm0
    232a:	00 00 
    232c:	8d 8c 13 02 01 00 00 	lea    ecx,[rbx+rdx*1+0x102]
    2333:	8d 94 13 05 02 00 00 	lea    edx,[rbx+rdx*1+0x205]
    233a:	f3 0f 10 87 00 fc ff 	movss  xmm0,DWORD PTR [rdi-0x400]
    2341:	ff 
    2342:	f3 0f 58 04 95 00 00 	addss  xmm0,DWORD PTR [rdx*4+0x0]
    2349:	00 00 
    234b:	f3 0f 11 04 95 00 00 	movss  DWORD PTR [rdx*4+0x0],xmm0
    2352:	00 00 
    2354:	8d 94 0b 03 01 00 00 	lea    edx,[rbx+rcx*1+0x103]
    235b:	8d 8c 0b 07 02 00 00 	lea    ecx,[rbx+rcx*1+0x207]
    2362:	f3 0f 10 07          	movss  xmm0,DWORD PTR [rdi]
    2366:	f3 0f 58 04 8d 00 00 	addss  xmm0,DWORD PTR [rcx*4+0x0]
    236d:	00 00 
    236f:	f3 0f 11 04 8d 00 00 	movss  DWORD PTR [rcx*4+0x0],xmm0
    2376:	00 00 
    2378:	8d 8c 13 04 01 00 00 	lea    ecx,[rbx+rdx*1+0x104]
    237f:	8d 94 13 09 02 00 00 	lea    edx,[rbx+rdx*1+0x209]
    2386:	f3 0f 10 87 00 04 00 	movss  xmm0,DWORD PTR [rdi+0x400]
    238d:	00 
    238e:	f3 0f 58 04 95 00 00 	addss  xmm0,DWORD PTR [rdx*4+0x0]
    2395:	00 00 
    2397:	f3 0f 11 04 95 00 00 	movss  DWORD PTR [rdx*4+0x0],xmm0
    239e:	00 00 
    23a0:	8d 94 0b 05 01 00 00 	lea    edx,[rbx+rcx*1+0x105]
    23a7:	8d 8c 0b 0b 02 00 00 	lea    ecx,[rbx+rcx*1+0x20b]
    23ae:	f3 0f 10 87 00 08 00 	movss  xmm0,DWORD PTR [rdi+0x800]
    23b5:	00 
    23b6:	f3 0f 58 04 8d 00 00 	addss  xmm0,DWORD PTR [rcx*4+0x0]
    23bd:	00 00 
    23bf:	f3 0f 11 04 8d 00 00 	movss  DWORD PTR [rcx*4+0x0],xmm0
    23c6:	00 00 
    23c8:	8d 8c 13 06 01 00 00 	lea    ecx,[rbx+rdx*1+0x106]
    23cf:	8d 94 13 0d 02 00 00 	lea    edx,[rbx+rdx*1+0x20d]
    23d6:	f3 0f 10 87 00 0c 00 	movss  xmm0,DWORD PTR [rdi+0xc00]
    23dd:	00 
    23de:	f3 0f 58 04 95 00 00 	addss  xmm0,DWORD PTR [rdx*4+0x0]
    23e5:	00 00 
    23e7:	f3 0f 11 04 95 00 00 	movss  DWORD PTR [rdx*4+0x0],xmm0
    23ee:	00 00 
    23f0:	8d 34 0b             	lea    esi,[rbx+rcx*1]
    23f3:	81 c6 0f 02 00 00    	add    esi,0x20f
    23f9:	48 81 c7 00 20 00 00 	add    rdi,0x2000
    2400:	48 83 c3 08          	add    rbx,0x8
    2404:	0f 85 ba fe ff ff    	jne    22c4 <s141+0xb0>
    240a:	48 05 04 04 00 00    	add    rax,0x404
    2410:	41 80 c3 07          	add    r11b,0x7
    2414:	49 83 c2 04          	add    r10,0x4
    2418:	49 81 f9 00 01 00 00 	cmp    r9,0x100
    241f:	0f 85 25 fe ff ff    	jne    224a <s141+0x36>
    2425:	bf 00 00 00 00       	mov    edi,0x0
    242a:	be 00 00 00 00       	mov    esi,0x0
    242f:	ba 00 00 00 00       	mov    edx,0x0
    2434:	b9 00 00 00 00       	mov    ecx,0x0
    2439:	41 b8 00 00 00 00    	mov    r8d,0x0
    243f:	41 b9 00 00 00 00    	mov    r9d,0x0
    2445:	0f 57 c0             	xorps  xmm0,xmm0
    2448:	68 00 00 00 00       	push   0x0
    244d:	68 00 00 00 00       	push   0x0
    2452:	e8 00 00 00 00       	call   2457 <s141+0x243>
    2457:	48 83 c4 10          	add    rsp,0x10
    245b:	41 ff c7             	inc    r15d
    245e:	41 81 ff b0 30 01 00 	cmp    r15d,0x130b0
    2465:	0f 85 cb fd ff ff    	jne    2236 <s141+0x22>
    246b:	49 83 c6 10          	add    r14,0x10
    246f:	4c 89 f7             	mov    rdi,r14
    2472:	31 f6                	xor    esi,esi
    2474:	e8 00 00 00 00       	call   2479 <s141+0x265>
    2479:	bf 00 00 00 00       	mov    edi,0x0
    247e:	48 83 c4 08          	add    rsp,0x8
    2482:	5b                   	pop    rbx
    2483:	41 5c                	pop    r12
    2485:	41 5e                	pop    r14
    2487:	41 5f                	pop    r15
    2489:	e9 00 00 00 00       	jmp    248e <s151s>

000000000000248e <s151s>:
    248e:	48 63 c2             	movsxd rax,edx
    2491:	48 8d 04 87          	lea    rax,[rdi+rax*4]
    2495:	b9 07 00 00 00       	mov    ecx,0x7
    249a:	f3 0f 10 44 88 e4    	movss  xmm0,DWORD PTR [rax+rcx*4-0x1c]
    24a0:	f3 0f 58 44 8e e4    	addss  xmm0,DWORD PTR [rsi+rcx*4-0x1c]
    24a6:	f3 0f 11 44 8f e4    	movss  DWORD PTR [rdi+rcx*4-0x1c],xmm0
    24ac:	f3 0f 10 44 88 e8    	movss  xmm0,DWORD PTR [rax+rcx*4-0x18]
    24b2:	f3 0f 58 44 8e e8    	addss  xmm0,DWORD PTR [rsi+rcx*4-0x18]
    24b8:	f3 0f 11 44 8f e8    	movss  DWORD PTR [rdi+rcx*4-0x18],xmm0
    24be:	f3 0f 10 44 88 ec    	movss  xmm0,DWORD PTR [rax+rcx*4-0x14]
    24c4:	f3 0f 58 44 8e ec    	addss  xmm0,DWORD PTR [rsi+rcx*4-0x14]
    24ca:	f3 0f 11 44 8f ec    	movss  DWORD PTR [rdi+rcx*4-0x14],xmm0
    24d0:	f3 0f 10 44 88 f0    	movss  xmm0,DWORD PTR [rax+rcx*4-0x10]
    24d6:	f3 0f 58 44 8e f0    	addss  xmm0,DWORD PTR [rsi+rcx*4-0x10]
    24dc:	f3 0f 11 44 8f f0    	movss  DWORD PTR [rdi+rcx*4-0x10],xmm0
    24e2:	f3 0f 10 44 88 f4    	movss  xmm0,DWORD PTR [rax+rcx*4-0xc]
    24e8:	f3 0f 58 44 8e f4    	addss  xmm0,DWORD PTR [rsi+rcx*4-0xc]
    24ee:	f3 0f 11 44 8f f4    	movss  DWORD PTR [rdi+rcx*4-0xc],xmm0
    24f4:	f3 0f 10 44 88 f8    	movss  xmm0,DWORD PTR [rax+rcx*4-0x8]
    24fa:	f3 0f 58 44 8e f8    	addss  xmm0,DWORD PTR [rsi+rcx*4-0x8]
    2500:	f3 0f 11 44 8f f8    	movss  DWORD PTR [rdi+rcx*4-0x8],xmm0
    2506:	f3 0f 10 44 88 fc    	movss  xmm0,DWORD PTR [rax+rcx*4-0x4]
    250c:	f3 0f 58 44 8e fc    	addss  xmm0,DWORD PTR [rsi+rcx*4-0x4]
    2512:	f3 0f 11 44 8f fc    	movss  DWORD PTR [rdi+rcx*4-0x4],xmm0
    2518:	48 81 f9 ff 7c 00 00 	cmp    rcx,0x7cff
    251f:	74 18                	je     2539 <s151s+0xab>
    2521:	f3 0f 10 04 88       	movss  xmm0,DWORD PTR [rax+rcx*4]
    2526:	f3 0f 58 04 8e       	addss  xmm0,DWORD PTR [rsi+rcx*4]
    252b:	f3 0f 11 04 8f       	movss  DWORD PTR [rdi+rcx*4],xmm0
    2530:	48 83 c1 08          	add    rcx,0x8
    2534:	e9 61 ff ff ff       	jmp    249a <s151s+0xc>
    2539:	c3                   	ret    

000000000000253a <s151>:
    253a:	55                   	push   rbp
    253b:	53                   	push   rbx
    253c:	50                   	push   rax
    253d:	48 89 fb             	mov    rbx,rdi
    2540:	bf 00 00 00 00       	mov    edi,0x0
    2545:	e8 00 00 00 00       	call   254a <s151+0x10>
    254a:	48 89 df             	mov    rdi,rbx
    254d:	31 f6                	xor    esi,esi
    254f:	e8 00 00 00 00       	call   2554 <s151+0x1a>
    2554:	bd 20 a1 07 00       	mov    ebp,0x7a120
    2559:	bf 00 00 00 00       	mov    edi,0x0
    255e:	be 00 00 00 00       	mov    esi,0x0
    2563:	ba 01 00 00 00       	mov    edx,0x1
    2568:	e8 00 00 00 00       	call   256d <s151+0x33>
    256d:	bf 00 00 00 00       	mov    edi,0x0
    2572:	be 00 00 00 00       	mov    esi,0x0
    2577:	ba 00 00 00 00       	mov    edx,0x0
    257c:	b9 00 00 00 00       	mov    ecx,0x0
    2581:	41 b8 00 00 00 00    	mov    r8d,0x0
    2587:	41 b9 00 00 00 00    	mov    r9d,0x0
    258d:	0f 57 c0             	xorps  xmm0,xmm0
    2590:	68 00 00 00 00       	push   0x0
    2595:	68 00 00 00 00       	push   0x0
    259a:	e8 00 00 00 00       	call   259f <s151+0x65>
    259f:	48 83 c4 10          	add    rsp,0x10
    25a3:	ff cd                	dec    ebp
    25a5:	75 b2                	jne    2559 <s151+0x1f>
    25a7:	48 83 c3 10          	add    rbx,0x10
    25ab:	48 89 df             	mov    rdi,rbx
    25ae:	31 f6                	xor    esi,esi
    25b0:	e8 00 00 00 00       	call   25b5 <s151+0x7b>
    25b5:	bf 00 00 00 00       	mov    edi,0x0
    25ba:	48 83 c4 08          	add    rsp,0x8
    25be:	5b                   	pop    rbx
    25bf:	5d                   	pop    rbp
    25c0:	e9 00 00 00 00       	jmp    25c5 <s152s>

00000000000025c5 <s152s>:
    25c5:	48 63 c1             	movsxd rax,ecx
    25c8:	f3 0f 10 04 86       	movss  xmm0,DWORD PTR [rsi+rax*4]
    25cd:	f3 0f 59 04 82       	mulss  xmm0,DWORD PTR [rdx+rax*4]
    25d2:	f3 0f 58 04 87       	addss  xmm0,DWORD PTR [rdi+rax*4]
    25d7:	f3 0f 11 04 87       	movss  DWORD PTR [rdi+rax*4],xmm0
    25dc:	c3                   	ret    

00000000000025dd <s152>:
    25dd:	41 56                	push   r14
    25df:	53                   	push   rbx
    25e0:	50                   	push   rax
    25e1:	49 89 fe             	mov    r14,rdi
    25e4:	bf 00 00 00 00       	mov    edi,0x0
    25e9:	e8 00 00 00 00       	call   25ee <s152+0x11>
    25ee:	31 db                	xor    ebx,ebx
    25f0:	4c 89 f7             	mov    rdi,r14
    25f3:	31 f6                	xor    esi,esi
    25f5:	e8 00 00 00 00       	call   25fa <s152+0x1d>
    25fa:	48 c7 c0 00 0c fe ff 	mov    rax,0xfffffffffffe0c00
    2601:	f3 0f 10 80 00 00 00 	movss  xmm0,DWORD PTR [rax+0x0]
    2608:	00 
    2609:	f3 0f 59 80 00 00 00 	mulss  xmm0,DWORD PTR [rax+0x0]
    2610:	00 
    2611:	f3 0f 11 80 00 00 00 	movss  DWORD PTR [rax+0x0],xmm0
    2618:	00 
    2619:	f3 0f 59 80 00 00 00 	mulss  xmm0,DWORD PTR [rax+0x0]
    2620:	00 
    2621:	f3 0f 58 80 00 00 00 	addss  xmm0,DWORD PTR [rax+0x0]
    2628:	00 
    2629:	f3 0f 11 80 00 00 00 	movss  DWORD PTR [rax+0x0],xmm0
    2630:	00 
    2631:	48 83 c0 04          	add    rax,0x4
    2635:	75 ca                	jne    2601 <s152+0x24>
    2637:	bf 00 00 00 00       	mov    edi,0x0
    263c:	be 00 00 00 00       	mov    esi,0x0
    2641:	ba 00 00 00 00       	mov    edx,0x0
    2646:	b9 00 00 00 00       	mov    ecx,0x0
    264b:	41 b8 00 00 00 00    	mov    r8d,0x0
    2651:	41 b9 00 00 00 00    	mov    r9d,0x0
    2657:	0f 57 c0             	xorps  xmm0,xmm0
    265a:	68 00 00 00 00       	push   0x0
    265f:	68 00 00 00 00       	push   0x0
    2664:	e8 00 00 00 00       	call   2669 <s152+0x8c>
    2669:	48 83 c4 10          	add    rsp,0x10
    266d:	ff c3                	inc    ebx
    266f:	81 fb a0 86 01 00    	cmp    ebx,0x186a0
    2675:	75 83                	jne    25fa <s152+0x1d>
    2677:	49 83 c6 10          	add    r14,0x10
    267b:	4c 89 f7             	mov    rdi,r14
    267e:	31 f6                	xor    esi,esi
    2680:	e8 00 00 00 00       	call   2685 <s152+0xa8>
    2685:	bf 00 00 00 00       	mov    edi,0x0
    268a:	48 83 c4 08          	add    rsp,0x8
    268e:	5b                   	pop    rbx
    268f:	41 5e                	pop    r14
    2691:	e9 00 00 00 00       	jmp    2696 <s161>

0000000000002696 <s161>:
    2696:	41 56                	push   r14
    2698:	53                   	push   rbx
    2699:	50                   	push   rax
    269a:	49 89 fe             	mov    r14,rdi
    269d:	bf 00 00 00 00       	mov    edi,0x0
    26a2:	e8 00 00 00 00       	call   26a7 <s161+0x11>
    26a7:	31 db                	xor    ebx,ebx
    26a9:	4c 89 f7             	mov    rdi,r14
    26ac:	31 f6                	xor    esi,esi
    26ae:	e8 00 00 00 00       	call   26b3 <s161+0x1d>
    26b3:	0f 57 c9             	xorps  xmm1,xmm1
    26b6:	31 c0                	xor    eax,eax
    26b8:	0f 2e 0c 85 00 00 00 	ucomiss xmm1,DWORD PTR [rax*4+0x0]
    26bf:	00 
    26c0:	76 21                	jbe    26e3 <s161+0x4d>
    26c2:	f3 0f 10 04 85 00 00 	movss  xmm0,DWORD PTR [rax*4+0x0]
    26c9:	00 00 
    26cb:	f3 0f 59 c0          	mulss  xmm0,xmm0
    26cf:	f3 0f 58 04 85 00 00 	addss  xmm0,DWORD PTR [rax*4+0x0]
    26d6:	00 00 
    26d8:	f3 0f 11 04 85 00 00 	movss  DWORD PTR [rax*4+0x0],xmm0
    26df:	00 00 
    26e1:	eb 24                	jmp    2707 <s161+0x71>
    26e3:	f3 0f 10 04 85 00 00 	movss  xmm0,DWORD PTR [rax*4+0x0]
    26ea:	00 00 
    26ec:	f3 0f 59 04 85 00 00 	mulss  xmm0,DWORD PTR [rax*4+0x0]
    26f3:	00 00 
    26f5:	f3 0f 58 04 85 00 00 	addss  xmm0,DWORD PTR [rax*4+0x0]
    26fc:	00 00 
    26fe:	f3 0f 11 04 85 00 00 	movss  DWORD PTR [rax*4+0x0],xmm0
    2705:	00 00 
    2707:	48 ff c0             	inc    rax
    270a:	0f 2e 0c 85 00 00 00 	ucomiss xmm1,DWORD PTR [rax*4+0x0]
    2711:	00 
    2712:	76 21                	jbe    2735 <s161+0x9f>
    2714:	f3 0f 10 04 85 00 00 	movss  xmm0,DWORD PTR [rax*4+0x0]
    271b:	00 00 
    271d:	f3 0f 59 c0          	mulss  xmm0,xmm0
    2721:	f3 0f 58 04 85 00 00 	addss  xmm0,DWORD PTR [rax*4+0x0]
    2728:	00 00 
    272a:	f3 0f 11 04 85 00 00 	movss  DWORD PTR [rax*4+0x0],xmm0
    2731:	00 00 
    2733:	eb 24                	jmp    2759 <s161+0xc3>
    2735:	f3 0f 10 04 85 00 00 	movss  xmm0,DWORD PTR [rax*4+0x0]
    273c:	00 00 
    273e:	f3 0f 59 04 85 00 00 	mulss  xmm0,DWORD PTR [rax*4+0x0]
    2745:	00 00 
    2747:	f3 0f 58 04 85 00 00 	addss  xmm0,DWORD PTR [rax*4+0x0]
    274e:	00 00 
    2750:	f3 0f 11 04 85 00 00 	movss  DWORD PTR [rax*4+0x0],xmm0
    2757:	00 00 
    2759:	48 ff c0             	inc    rax
    275c:	0f 2e 0c 85 00 00 00 	ucomiss xmm1,DWORD PTR [rax*4+0x0]
    2763:	00 
    2764:	76 21                	jbe    2787 <s161+0xf1>
    2766:	f3 0f 10 04 85 00 00 	movss  xmm0,DWORD PTR [rax*4+0x0]
    276d:	00 00 
    276f:	f3 0f 59 c0          	mulss  xmm0,xmm0
    2773:	f3 0f 58 04 85 00 00 	addss  xmm0,DWORD PTR [rax*4+0x0]
    277a:	00 00 
    277c:	f3 0f 11 04 85 00 00 	movss  DWORD PTR [rax*4+0x0],xmm0
    2783:	00 00 
    2785:	eb 24                	jmp    27ab <s161+0x115>
    2787:	f3 0f 10 04 85 00 00 	movss  xmm0,DWORD PTR [rax*4+0x0]
    278e:	00 00 
    2790:	f3 0f 59 04 85 00 00 	mulss  xmm0,DWORD PTR [rax*4+0x0]
    2797:	00 00 
    2799:	f3 0f 58 04 85 00 00 	addss  xmm0,DWORD PTR [rax*4+0x0]
    27a0:	00 00 
    27a2:	f3 0f 11 04 85 00 00 	movss  DWORD PTR [rax*4+0x0],xmm0
    27a9:	00 00 
    27ab:	48 ff c0             	inc    rax
    27ae:	0f 2e 0c 85 00 00 00 	ucomiss xmm1,DWORD PTR [rax*4+0x0]
    27b5:	00 
    27b6:	76 21                	jbe    27d9 <s161+0x143>
    27b8:	f3 0f 10 04 85 00 00 	movss  xmm0,DWORD PTR [rax*4+0x0]
    27bf:	00 00 
    27c1:	f3 0f 59 c0          	mulss  xmm0,xmm0
    27c5:	f3 0f 58 04 85 00 00 	addss  xmm0,DWORD PTR [rax*4+0x0]
    27cc:	00 00 
    27ce:	f3 0f 11 04 85 00 00 	movss  DWORD PTR [rax*4+0x0],xmm0
    27d5:	00 00 
    27d7:	eb 24                	jmp    27fd <s161+0x167>
    27d9:	f3 0f 10 04 85 00 00 	movss  xmm0,DWORD PTR [rax*4+0x0]
    27e0:	00 00 
    27e2:	f3 0f 59 04 85 00 00 	mulss  xmm0,DWORD PTR [rax*4+0x0]
    27e9:	00 00 
    27eb:	f3 0f 58 04 85 00 00 	addss  xmm0,DWORD PTR [rax*4+0x0]
    27f2:	00 00 
    27f4:	f3 0f 11 04 85 00 00 	movss  DWORD PTR [rax*4+0x0],xmm0
    27fb:	00 00 
    27fd:	48 ff c0             	inc    rax
    2800:	0f 2e 0c 85 00 00 00 	ucomiss xmm1,DWORD PTR [rax*4+0x0]
    2807:	00 
    2808:	76 21                	jbe    282b <s161+0x195>
    280a:	f3 0f 10 04 85 00 00 	movss  xmm0,DWORD PTR [rax*4+0x0]
    2811:	00 00 
    2813:	f3 0f 59 c0          	mulss  xmm0,xmm0
    2817:	f3 0f 58 04 85 00 00 	addss  xmm0,DWORD PTR [rax*4+0x0]
    281e:	00 00 
    2820:	f3 0f 11 04 85 00 00 	movss  DWORD PTR [rax*4+0x0],xmm0
    2827:	00 00 
    2829:	eb 24                	jmp    284f <s161+0x1b9>
    282b:	f3 0f 10 04 85 00 00 	movss  xmm0,DWORD PTR [rax*4+0x0]
    2832:	00 00 
    2834:	f3 0f 59 04 85 00 00 	mulss  xmm0,DWORD PTR [rax*4+0x0]
    283b:	00 00 
    283d:	f3 0f 58 04 85 00 00 	addss  xmm0,DWORD PTR [rax*4+0x0]
    2844:	00 00 
    2846:	f3 0f 11 04 85 00 00 	movss  DWORD PTR [rax*4+0x0],xmm0
    284d:	00 00 
    284f:	48 ff c0             	inc    rax
    2852:	0f 2e 0c 85 00 00 00 	ucomiss xmm1,DWORD PTR [rax*4+0x0]
    2859:	00 
    285a:	76 21                	jbe    287d <s161+0x1e7>
    285c:	f3 0f 10 04 85 00 00 	movss  xmm0,DWORD PTR [rax*4+0x0]
    2863:	00 00 
    2865:	f3 0f 59 c0          	mulss  xmm0,xmm0
    2869:	f3 0f 58 04 85 00 00 	addss  xmm0,DWORD PTR [rax*4+0x0]
    2870:	00 00 
    2872:	f3 0f 11 04 85 00 00 	movss  DWORD PTR [rax*4+0x0],xmm0
    2879:	00 00 
    287b:	eb 24                	jmp    28a1 <s161+0x20b>
    287d:	f3 0f 10 04 85 00 00 	movss  xmm0,DWORD PTR [rax*4+0x0]
    2884:	00 00 
    2886:	f3 0f 59 04 85 00 00 	mulss  xmm0,DWORD PTR [rax*4+0x0]
    288d:	00 00 
    288f:	f3 0f 58 04 85 00 00 	addss  xmm0,DWORD PTR [rax*4+0x0]
    2896:	00 00 
    2898:	f3 0f 11 04 85 00 00 	movss  DWORD PTR [rax*4+0x0],xmm0
    289f:	00 00 
    28a1:	48 ff c0             	inc    rax
    28a4:	0f 2e 0c 85 00 00 00 	ucomiss xmm1,DWORD PTR [rax*4+0x0]
    28ab:	00 
    28ac:	76 21                	jbe    28cf <s161+0x239>
    28ae:	f3 0f 10 04 85 00 00 	movss  xmm0,DWORD PTR [rax*4+0x0]
    28b5:	00 00 
    28b7:	f3 0f 59 c0          	mulss  xmm0,xmm0
    28bb:	f3 0f 58 04 85 00 00 	addss  xmm0,DWORD PTR [rax*4+0x0]
    28c2:	00 00 
    28c4:	f3 0f 11 04 85 00 00 	movss  DWORD PTR [rax*4+0x0],xmm0
    28cb:	00 00 
    28cd:	eb 24                	jmp    28f3 <s161+0x25d>
    28cf:	f3 0f 10 04 85 00 00 	movss  xmm0,DWORD PTR [rax*4+0x0]
    28d6:	00 00 
    28d8:	f3 0f 59 04 85 00 00 	mulss  xmm0,DWORD PTR [rax*4+0x0]
    28df:	00 00 
    28e1:	f3 0f 58 04 85 00 00 	addss  xmm0,DWORD PTR [rax*4+0x0]
    28e8:	00 00 
    28ea:	f3 0f 11 04 85 00 00 	movss  DWORD PTR [rax*4+0x0],xmm0
    28f1:	00 00 
    28f3:	48 ff c0             	inc    rax
    28f6:	48 3d ff 7c 00 00    	cmp    rax,0x7cff
    28fc:	74 5d                	je     295b <s161+0x2c5>
    28fe:	0f 2e 0c 85 00 00 00 	ucomiss xmm1,DWORD PTR [rax*4+0x0]
    2905:	00 
    2906:	76 27                	jbe    292f <s161+0x299>
    2908:	f3 0f 10 04 85 00 00 	movss  xmm0,DWORD PTR [rax*4+0x0]
    290f:	00 00 
    2911:	f3 0f 59 c0          	mulss  xmm0,xmm0
    2915:	f3 0f 58 04 85 00 00 	addss  xmm0,DWORD PTR [rax*4+0x0]
    291c:	00 00 
    291e:	f3 0f 11 04 85 00 00 	movss  DWORD PTR [rax*4+0x0],xmm0
    2925:	00 00 
    2927:	48 ff c0             	inc    rax
    292a:	e9 89 fd ff ff       	jmp    26b8 <s161+0x22>
    292f:	f3 0f 10 04 85 00 00 	movss  xmm0,DWORD PTR [rax*4+0x0]
    2936:	00 00 
    2938:	f3 0f 59 04 85 00 00 	mulss  xmm0,DWORD PTR [rax*4+0x0]
    293f:	00 00 
    2941:	f3 0f 58 04 85 00 00 	addss  xmm0,DWORD PTR [rax*4+0x0]
    2948:	00 00 
    294a:	f3 0f 11 04 85 00 00 	movss  DWORD PTR [rax*4+0x0],xmm0
    2951:	00 00 
    2953:	48 ff c0             	inc    rax
    2956:	e9 5d fd ff ff       	jmp    26b8 <s161+0x22>
    295b:	bf 00 00 00 00       	mov    edi,0x0
    2960:	be 00 00 00 00       	mov    esi,0x0
    2965:	ba 00 00 00 00       	mov    edx,0x0
    296a:	b9 00 00 00 00       	mov    ecx,0x0
    296f:	41 b8 00 00 00 00    	mov    r8d,0x0
    2975:	41 b9 00 00 00 00    	mov    r9d,0x0
    297b:	0f 57 c0             	xorps  xmm0,xmm0
    297e:	68 00 00 00 00       	push   0x0
    2983:	68 00 00 00 00       	push   0x0
    2988:	e8 00 00 00 00       	call   298d <s161+0x2f7>
    298d:	0f 57 c9             	xorps  xmm1,xmm1
    2990:	48 83 c4 10          	add    rsp,0x10
    2994:	ff c3                	inc    ebx
    2996:	81 fb 50 c3 00 00    	cmp    ebx,0xc350
    299c:	0f 85 14 fd ff ff    	jne    26b6 <s161+0x20>
    29a2:	49 83 c6 10          	add    r14,0x10
    29a6:	4c 89 f7             	mov    rdi,r14
    29a9:	31 f6                	xor    esi,esi
    29ab:	e8 00 00 00 00       	call   29b0 <s161+0x31a>
    29b0:	bf 00 00 00 00       	mov    edi,0x0
    29b5:	48 83 c4 08          	add    rsp,0x8
    29b9:	5b                   	pop    rbx
    29ba:	41 5e                	pop    r14
    29bc:	e9 00 00 00 00       	jmp    29c1 <s1161>

00000000000029c1 <s1161>:
    29c1:	41 56                	push   r14
    29c3:	53                   	push   rbx
    29c4:	50                   	push   rax
    29c5:	49 89 fe             	mov    r14,rdi
    29c8:	bf 00 00 00 00       	mov    edi,0x0
    29cd:	e8 00 00 00 00       	call   29d2 <s1161+0x11>
    29d2:	31 db                	xor    ebx,ebx
    29d4:	4c 89 f7             	mov    rdi,r14
    29d7:	31 f6                	xor    esi,esi
    29d9:	e8 00 00 00 00       	call   29de <s1161+0x1d>
    29de:	0f 57 d2             	xorps  xmm2,xmm2
    29e1:	31 c0                	xor    eax,eax
    29e3:	f3 0f 10 80 00 00 00 	movss  xmm0,DWORD PTR [rax+0x0]
    29ea:	00 
    29eb:	0f 2e d0             	ucomiss xmm2,xmm0
    29ee:	76 1b                	jbe    2a0b <s1161+0x4a>
    29f0:	f3 0f 10 80 00 00 00 	movss  xmm0,DWORD PTR [rax+0x0]
    29f7:	00 
    29f8:	f3 0f 10 88 00 00 00 	movss  xmm1,DWORD PTR [rax+0x0]
    29ff:	00 
    2a00:	f3 0f 59 c9          	mulss  xmm1,xmm1
    2a04:	b9 00 00 00 00       	mov    ecx,0x0
    2a09:	eb 15                	jmp    2a20 <s1161+0x5f>
    2a0b:	f3 0f 10 88 00 00 00 	movss  xmm1,DWORD PTR [rax+0x0]
    2a12:	00 
    2a13:	f3 0f 59 88 00 00 00 	mulss  xmm1,DWORD PTR [rax+0x0]
    2a1a:	00 
    2a1b:	b9 00 00 00 00       	mov    ecx,0x0
    2a20:	f3 0f 58 c8          	addss  xmm1,xmm0
    2a24:	f3 0f 11 0c 01       	movss  DWORD PTR [rcx+rax*1],xmm1
    2a29:	f3 0f 10 80 00 00 00 	movss  xmm0,DWORD PTR [rax+0x0]
    2a30:	00 
    2a31:	0f 2e d0             	ucomiss xmm2,xmm0
    2a34:	76 1b                	jbe    2a51 <s1161+0x90>
    2a36:	f3 0f 10 80 00 00 00 	movss  xmm0,DWORD PTR [rax+0x0]
    2a3d:	00 
    2a3e:	f3 0f 10 88 00 00 00 	movss  xmm1,DWORD PTR [rax+0x0]
    2a45:	00 
    2a46:	f3 0f 59 c9          	mulss  xmm1,xmm1
    2a4a:	b9 00 00 00 00       	mov    ecx,0x0
    2a4f:	eb 15                	jmp    2a66 <s1161+0xa5>
    2a51:	f3 0f 10 88 00 00 00 	movss  xmm1,DWORD PTR [rax+0x0]
    2a58:	00 
    2a59:	f3 0f 59 88 00 00 00 	mulss  xmm1,DWORD PTR [rax+0x0]
    2a60:	00 
    2a61:	b9 00 00 00 00       	mov    ecx,0x0
    2a66:	f3 0f 58 c8          	addss  xmm1,xmm0
    2a6a:	f3 0f 11 4c 01 04    	movss  DWORD PTR [rcx+rax*1+0x4],xmm1
    2a70:	f3 0f 10 80 00 00 00 	movss  xmm0,DWORD PTR [rax+0x0]
    2a77:	00 
    2a78:	0f 2e d0             	ucomiss xmm2,xmm0
    2a7b:	76 1b                	jbe    2a98 <s1161+0xd7>
    2a7d:	f3 0f 10 80 00 00 00 	movss  xmm0,DWORD PTR [rax+0x0]
    2a84:	00 
    2a85:	f3 0f 10 88 00 00 00 	movss  xmm1,DWORD PTR [rax+0x0]
    2a8c:	00 
    2a8d:	f3 0f 59 c9          	mulss  xmm1,xmm1
    2a91:	b9 00 00 00 00       	mov    ecx,0x0
    2a96:	eb 15                	jmp    2aad <s1161+0xec>
    2a98:	f3 0f 10 88 00 00 00 	movss  xmm1,DWORD PTR [rax+0x0]
    2a9f:	00 
    2aa0:	f3 0f 59 88 00 00 00 	mulss  xmm1,DWORD PTR [rax+0x0]
    2aa7:	00 
    2aa8:	b9 00 00 00 00       	mov    ecx,0x0
    2aad:	f3 0f 58 c8          	addss  xmm1,xmm0
    2ab1:	f3 0f 11 4c 01 08    	movss  DWORD PTR [rcx+rax*1+0x8],xmm1
    2ab7:	f3 0f 10 80 00 00 00 	movss  xmm0,DWORD PTR [rax+0x0]
    2abe:	00 
    2abf:	0f 2e d0             	ucomiss xmm2,xmm0
    2ac2:	76 1b                	jbe    2adf <s1161+0x11e>
    2ac4:	f3 0f 10 80 00 00 00 	movss  xmm0,DWORD PTR [rax+0x0]
    2acb:	00 
    2acc:	f3 0f 10 88 00 00 00 	movss  xmm1,DWORD PTR [rax+0x0]
    2ad3:	00 
    2ad4:	f3 0f 59 c9          	mulss  xmm1,xmm1
    2ad8:	b9 00 00 00 00       	mov    ecx,0x0
    2add:	eb 15                	jmp    2af4 <s1161+0x133>
    2adf:	f3 0f 10 88 00 00 00 	movss  xmm1,DWORD PTR [rax+0x0]
    2ae6:	00 
    2ae7:	f3 0f 59 88 00 00 00 	mulss  xmm1,DWORD PTR [rax+0x0]
    2aee:	00 
    2aef:	b9 00 00 00 00       	mov    ecx,0x0
    2af4:	f3 0f 58 c8          	addss  xmm1,xmm0
    2af8:	f3 0f 11 4c 01 0c    	movss  DWORD PTR [rcx+rax*1+0xc],xmm1
    2afe:	f3 0f 10 80 00 00 00 	movss  xmm0,DWORD PTR [rax+0x0]
    2b05:	00 
    2b06:	0f 2e d0             	ucomiss xmm2,xmm0
    2b09:	76 1b                	jbe    2b26 <s1161+0x165>
    2b0b:	f3 0f 10 80 00 00 00 	movss  xmm0,DWORD PTR [rax+0x0]
    2b12:	00 
    2b13:	f3 0f 10 88 00 00 00 	movss  xmm1,DWORD PTR [rax+0x0]
    2b1a:	00 
    2b1b:	f3 0f 59 c9          	mulss  xmm1,xmm1
    2b1f:	b9 00 00 00 00       	mov    ecx,0x0
    2b24:	eb 15                	jmp    2b3b <s1161+0x17a>
    2b26:	f3 0f 10 88 00 00 00 	movss  xmm1,DWORD PTR [rax+0x0]
    2b2d:	00 
    2b2e:	f3 0f 59 88 00 00 00 	mulss  xmm1,DWORD PTR [rax+0x0]
    2b35:	00 
    2b36:	b9 00 00 00 00       	mov    ecx,0x0
    2b3b:	f3 0f 58 c8          	addss  xmm1,xmm0
    2b3f:	f3 0f 11 4c 01 10    	movss  DWORD PTR [rcx+rax*1+0x10],xmm1
    2b45:	f3 0f 10 80 00 00 00 	movss  xmm0,DWORD PTR [rax+0x0]
    2b4c:	00 
    2b4d:	0f 2e d0             	ucomiss xmm2,xmm0
    2b50:	76 1b                	jbe    2b6d <s1161+0x1ac>
    2b52:	f3 0f 10 80 00 00 00 	movss  xmm0,DWORD PTR [rax+0x0]
    2b59:	00 
    2b5a:	f3 0f 10 88 00 00 00 	movss  xmm1,DWORD PTR [rax+0x0]
    2b61:	00 
    2b62:	f3 0f 59 c9          	mulss  xmm1,xmm1
    2b66:	b9 00 00 00 00       	mov    ecx,0x0
    2b6b:	eb 15                	jmp    2b82 <s1161+0x1c1>
    2b6d:	f3 0f 10 88 00 00 00 	movss  xmm1,DWORD PTR [rax+0x0]
    2b74:	00 
    2b75:	f3 0f 59 88 00 00 00 	mulss  xmm1,DWORD PTR [rax+0x0]
    2b7c:	00 
    2b7d:	b9 00 00 00 00       	mov    ecx,0x0
    2b82:	f3 0f 58 c8          	addss  xmm1,xmm0
    2b86:	f3 0f 11 4c 01 14    	movss  DWORD PTR [rcx+rax*1+0x14],xmm1
    2b8c:	f3 0f 10 80 00 00 00 	movss  xmm0,DWORD PTR [rax+0x0]
    2b93:	00 
    2b94:	0f 2e d0             	ucomiss xmm2,xmm0
    2b97:	76 1b                	jbe    2bb4 <s1161+0x1f3>
    2b99:	f3 0f 10 80 00 00 00 	movss  xmm0,DWORD PTR [rax+0x0]
    2ba0:	00 
    2ba1:	f3 0f 10 88 00 00 00 	movss  xmm1,DWORD PTR [rax+0x0]
    2ba8:	00 
    2ba9:	f3 0f 59 c9          	mulss  xmm1,xmm1
    2bad:	b9 00 00 00 00       	mov    ecx,0x0
    2bb2:	eb 15                	jmp    2bc9 <s1161+0x208>
    2bb4:	f3 0f 10 88 00 00 00 	movss  xmm1,DWORD PTR [rax+0x0]
    2bbb:	00 
    2bbc:	f3 0f 59 88 00 00 00 	mulss  xmm1,DWORD PTR [rax+0x0]
    2bc3:	00 
    2bc4:	b9 00 00 00 00       	mov    ecx,0x0
    2bc9:	f3 0f 58 c8          	addss  xmm1,xmm0
    2bcd:	f3 0f 11 4c 01 18    	movss  DWORD PTR [rcx+rax*1+0x18],xmm1
    2bd3:	48 3d e0 f3 01 00    	cmp    rax,0x1f3e0
    2bd9:	74 50                	je     2c2b <s1161+0x26a>
    2bdb:	f3 0f 10 80 00 00 00 	movss  xmm0,DWORD PTR [rax+0x0]
    2be2:	00 
    2be3:	0f 2e d0             	ucomiss xmm2,xmm0
    2be6:	76 1b                	jbe    2c03 <s1161+0x242>
    2be8:	f3 0f 10 80 00 00 00 	movss  xmm0,DWORD PTR [rax+0x0]
    2bef:	00 
    2bf0:	f3 0f 10 88 00 00 00 	movss  xmm1,DWORD PTR [rax+0x0]
    2bf7:	00 
    2bf8:	f3 0f 59 c9          	mulss  xmm1,xmm1
    2bfc:	b9 00 00 00 00       	mov    ecx,0x0
    2c01:	eb 15                	jmp    2c18 <s1161+0x257>
    2c03:	f3 0f 10 88 00 00 00 	movss  xmm1,DWORD PTR [rax+0x0]
    2c0a:	00 
    2c0b:	f3 0f 59 88 00 00 00 	mulss  xmm1,DWORD PTR [rax+0x0]
    2c12:	00 
    2c13:	b9 00 00 00 00       	mov    ecx,0x0
    2c18:	f3 0f 58 c8          	addss  xmm1,xmm0
    2c1c:	f3 0f 11 4c 01 1c    	movss  DWORD PTR [rcx+rax*1+0x1c],xmm1
    2c22:	48 83 c0 20          	add    rax,0x20
    2c26:	e9 b8 fd ff ff       	jmp    29e3 <s1161+0x22>
    2c2b:	bf 00 00 00 00       	mov    edi,0x0
    2c30:	be 00 00 00 00       	mov    esi,0x0
    2c35:	ba 00 00 00 00       	mov    edx,0x0
    2c3a:	b9 00 00 00 00       	mov    ecx,0x0
    2c3f:	41 b8 00 00 00 00    	mov    r8d,0x0
    2c45:	41 b9 00 00 00 00    	mov    r9d,0x0
    2c4b:	0f 57 c0             	xorps  xmm0,xmm0
    2c4e:	68 00 00 00 00       	push   0x0
    2c53:	68 00 00 00 00       	push   0x0
    2c58:	e8 00 00 00 00       	call   2c5d <s1161+0x29c>
    2c5d:	0f 57 d2             	xorps  xmm2,xmm2
    2c60:	48 83 c4 10          	add    rsp,0x10
    2c64:	ff c3                	inc    ebx
    2c66:	81 fb a0 86 01 00    	cmp    ebx,0x186a0
    2c6c:	0f 85 6f fd ff ff    	jne    29e1 <s1161+0x20>
    2c72:	49 83 c6 10          	add    r14,0x10
    2c76:	4c 89 f7             	mov    rdi,r14
    2c79:	31 f6                	xor    esi,esi
    2c7b:	e8 00 00 00 00       	call   2c80 <s1161+0x2bf>
    2c80:	bf 00 00 00 00       	mov    edi,0x0
    2c85:	48 83 c4 08          	add    rsp,0x8
    2c89:	5b                   	pop    rbx
    2c8a:	41 5e                	pop    r14
    2c8c:	e9 00 00 00 00       	jmp    2c91 <s162>

0000000000002c91 <s162>:
    2c91:	41 57                	push   r15
    2c93:	41 56                	push   r14
    2c95:	53                   	push   rbx
    2c96:	49 89 fe             	mov    r14,rdi
    2c99:	48 8b 47 20          	mov    rax,QWORD PTR [rdi+0x20]
    2c9d:	48 63 18             	movsxd rbx,DWORD PTR [rax]
    2ca0:	bf 00 00 00 00       	mov    edi,0x0
    2ca5:	e8 00 00 00 00       	call   2caa <s162+0x19>
    2caa:	45 31 ff             	xor    r15d,r15d
    2cad:	4c 89 f7             	mov    rdi,r14
    2cb0:	31 f6                	xor    esi,esi
    2cb2:	e8 00 00 00 00       	call   2cb7 <s162+0x26>
    2cb7:	85 db                	test   ebx,ebx
    2cb9:	0f 8e 1e 01 00 00    	jle    2ddd <s162+0x14c>
    2cbf:	b8 1c 00 00 00       	mov    eax,0x1c
    2cc4:	f3 0f 10 80 00 00 00 	movss  xmm0,DWORD PTR [rax+0x0]
    2ccb:	00 
    2ccc:	f3 0f 59 80 00 00 00 	mulss  xmm0,DWORD PTR [rax+0x0]
    2cd3:	00 
    2cd4:	f3 0f 58 84 98 00 00 	addss  xmm0,DWORD PTR [rax+rbx*4+0x0]
    2cdb:	00 00 
    2cdd:	f3 0f 11 80 00 00 00 	movss  DWORD PTR [rax+0x0],xmm0
    2ce4:	00 
    2ce5:	f3 0f 10 80 00 00 00 	movss  xmm0,DWORD PTR [rax+0x0]
    2cec:	00 
    2ced:	f3 0f 59 80 00 00 00 	mulss  xmm0,DWORD PTR [rax+0x0]
    2cf4:	00 
    2cf5:	f3 0f 58 84 98 00 00 	addss  xmm0,DWORD PTR [rax+rbx*4+0x0]
    2cfc:	00 00 
    2cfe:	f3 0f 11 80 00 00 00 	movss  DWORD PTR [rax+0x0],xmm0
    2d05:	00 
    2d06:	f3 0f 10 80 00 00 00 	movss  xmm0,DWORD PTR [rax+0x0]
    2d0d:	00 
    2d0e:	f3 0f 59 80 00 00 00 	mulss  xmm0,DWORD PTR [rax+0x0]
    2d15:	00 
    2d16:	f3 0f 58 84 98 00 00 	addss  xmm0,DWORD PTR [rax+rbx*4+0x0]
    2d1d:	00 00 
    2d1f:	f3 0f 11 80 00 00 00 	movss  DWORD PTR [rax+0x0],xmm0
    2d26:	00 
    2d27:	f3 0f 10 80 00 00 00 	movss  xmm0,DWORD PTR [rax+0x0]
    2d2e:	00 
    2d2f:	f3 0f 59 80 00 00 00 	mulss  xmm0,DWORD PTR [rax+0x0]
    2d36:	00 
    2d37:	f3 0f 58 84 98 00 00 	addss  xmm0,DWORD PTR [rax+rbx*4+0x0]
    2d3e:	00 00 
    2d40:	f3 0f 11 80 00 00 00 	movss  DWORD PTR [rax+0x0],xmm0
    2d47:	00 
    2d48:	f3 0f 10 80 00 00 00 	movss  xmm0,DWORD PTR [rax+0x0]
    2d4f:	00 
    2d50:	f3 0f 59 80 00 00 00 	mulss  xmm0,DWORD PTR [rax+0x0]
    2d57:	00 
    2d58:	f3 0f 58 84 98 00 00 	addss  xmm0,DWORD PTR [rax+rbx*4+0x0]
    2d5f:	00 00 
    2d61:	f3 0f 11 80 00 00 00 	movss  DWORD PTR [rax+0x0],xmm0
    2d68:	00 
    2d69:	f3 0f 10 80 00 00 00 	movss  xmm0,DWORD PTR [rax+0x0]
    2d70:	00 
    2d71:	f3 0f 59 80 00 00 00 	mulss  xmm0,DWORD PTR [rax+0x0]
    2d78:	00 
    2d79:	f3 0f 58 84 98 00 00 	addss  xmm0,DWORD PTR [rax+rbx*4+0x0]
    2d80:	00 00 
    2d82:	f3 0f 11 80 00 00 00 	movss  DWORD PTR [rax+0x0],xmm0
    2d89:	00 
    2d8a:	f3 0f 10 80 00 00 00 	movss  xmm0,DWORD PTR [rax+0x0]
    2d91:	00 
    2d92:	f3 0f 59 80 00 00 00 	mulss  xmm0,DWORD PTR [rax+0x0]
    2d99:	00 
    2d9a:	f3 0f 58 84 98 00 00 	addss  xmm0,DWORD PTR [rax+rbx*4+0x0]
    2da1:	00 00 
    2da3:	f3 0f 11 80 00 00 00 	movss  DWORD PTR [rax+0x0],xmm0
    2daa:	00 
    2dab:	48 3d fc f3 01 00    	cmp    rax,0x1f3fc
    2db1:	74 2a                	je     2ddd <s162+0x14c>
    2db3:	f3 0f 10 80 00 00 00 	movss  xmm0,DWORD PTR [rax+0x0]
    2dba:	00 
    2dbb:	f3 0f 59 80 00 00 00 	mulss  xmm0,DWORD PTR [rax+0x0]
    2dc2:	00 
    2dc3:	f3 0f 58 84 98 00 00 	addss  xmm0,DWORD PTR [rax+rbx*4+0x0]
    2dca:	00 00 
    2dcc:	f3 0f 11 80 00 00 00 	movss  DWORD PTR [rax+0x0],xmm0
    2dd3:	00 
    2dd4:	48 83 c0 20          	add    rax,0x20
    2dd8:	e9 e7 fe ff ff       	jmp    2cc4 <s162+0x33>
    2ddd:	bf 00 00 00 00       	mov    edi,0x0
    2de2:	be 00 00 00 00       	mov    esi,0x0
    2de7:	ba 00 00 00 00       	mov    edx,0x0
    2dec:	b9 00 00 00 00       	mov    ecx,0x0
    2df1:	41 b8 00 00 00 00    	mov    r8d,0x0
    2df7:	41 b9 00 00 00 00    	mov    r9d,0x0
    2dfd:	0f 57 c0             	xorps  xmm0,xmm0
    2e00:	68 00 00 00 00       	push   0x0
    2e05:	68 00 00 00 00       	push   0x0
    2e0a:	e8 00 00 00 00       	call   2e0f <s162+0x17e>
    2e0f:	48 83 c4 10          	add    rsp,0x10
    2e13:	41 ff c7             	inc    r15d
    2e16:	41 81 ff a0 86 01 00 	cmp    r15d,0x186a0
    2e1d:	0f 85 94 fe ff ff    	jne    2cb7 <s162+0x26>
    2e23:	49 83 c6 10          	add    r14,0x10
    2e27:	4c 89 f7             	mov    rdi,r14
    2e2a:	31 f6                	xor    esi,esi
    2e2c:	e8 00 00 00 00       	call   2e31 <s162+0x1a0>
    2e31:	bf 00 00 00 00       	mov    edi,0x0
    2e36:	5b                   	pop    rbx
    2e37:	41 5e                	pop    r14
    2e39:	41 5f                	pop    r15
    2e3b:	e9 00 00 00 00       	jmp    2e40 <s171>

0000000000002e40 <s171>:
    2e40:	41 57                	push   r15
    2e42:	41 56                	push   r14
    2e44:	53                   	push   rbx
    2e45:	49 89 fe             	mov    r14,rdi
    2e48:	48 8b 47 20          	mov    rax,QWORD PTR [rdi+0x20]
    2e4c:	48 63 18             	movsxd rbx,DWORD PTR [rax]
    2e4f:	bf 00 00 00 00       	mov    edi,0x0
    2e54:	e8 00 00 00 00       	call   2e59 <s171+0x19>
    2e59:	45 31 ff             	xor    r15d,r15d
    2e5c:	4c 89 f7             	mov    rdi,r14
    2e5f:	31 f6                	xor    esi,esi
    2e61:	e8 00 00 00 00       	call   2e66 <s171+0x26>
    2e66:	48 c1 e3 02          	shl    rbx,0x2
    2e6a:	48 c7 c0 00 0c fe ff 	mov    rax,0xfffffffffffe0c00
    2e71:	b9 00 00 00 00       	mov    ecx,0x0
    2e76:	f3 0f 10 80 00 00 00 	movss  xmm0,DWORD PTR [rax+0x0]
    2e7d:	00 
    2e7e:	f3 0f 58 01          	addss  xmm0,DWORD PTR [rcx]
    2e82:	f3 0f 11 01          	movss  DWORD PTR [rcx],xmm0
    2e86:	48 01 d9             	add    rcx,rbx
    2e89:	48 83 c0 04          	add    rax,0x4
    2e8d:	75 e7                	jne    2e76 <s171+0x36>
    2e8f:	bf 00 00 00 00       	mov    edi,0x0
    2e94:	be 00 00 00 00       	mov    esi,0x0
    2e99:	ba 00 00 00 00       	mov    edx,0x0
    2e9e:	b9 00 00 00 00       	mov    ecx,0x0
    2ea3:	41 b8 00 00 00 00    	mov    r8d,0x0
    2ea9:	41 b9 00 00 00 00    	mov    r9d,0x0
    2eaf:	0f 57 c0             	xorps  xmm0,xmm0
    2eb2:	68 00 00 00 00       	push   0x0
    2eb7:	68 00 00 00 00       	push   0x0
    2ebc:	e8 00 00 00 00       	call   2ec1 <s171+0x81>
    2ec1:	48 83 c4 10          	add    rsp,0x10
    2ec5:	41 ff c7             	inc    r15d
    2ec8:	41 81 ff a0 86 01 00 	cmp    r15d,0x186a0
    2ecf:	75 99                	jne    2e6a <s171+0x2a>
    2ed1:	49 83 c6 10          	add    r14,0x10
    2ed5:	4c 89 f7             	mov    rdi,r14
    2ed8:	31 f6                	xor    esi,esi
    2eda:	e8 00 00 00 00       	call   2edf <s171+0x9f>
    2edf:	bf 00 00 00 00       	mov    edi,0x0
    2ee4:	5b                   	pop    rbx
    2ee5:	41 5e                	pop    r14
    2ee7:	41 5f                	pop    r15
    2ee9:	e9 00 00 00 00       	jmp    2eee <s172>

0000000000002eee <s172>:
    2eee:	55                   	push   rbp
    2eef:	41 57                	push   r15
    2ef1:	41 56                	push   r14
    2ef3:	41 55                	push   r13
    2ef5:	41 54                	push   r12
    2ef7:	53                   	push   rbx
    2ef8:	48 83 ec 18          	sub    rsp,0x18
    2efc:	48 89 fb             	mov    rbx,rdi
    2eff:	48 8b 47 20          	mov    rax,QWORD PTR [rdi+0x20]
    2f03:	44 8b 20             	mov    r12d,DWORD PTR [rax]
    2f06:	48 63 68 04          	movsxd rbp,DWORD PTR [rax+0x4]
    2f0a:	bf 00 00 00 00       	mov    edi,0x0
    2f0f:	e8 00 00 00 00       	call   2f14 <s172+0x26>
    2f14:	45 31 ed             	xor    r13d,r13d
    2f17:	48 89 5c 24 10       	mov    QWORD PTR [rsp+0x10],rbx
    2f1c:	48 89 df             	mov    rdi,rbx
    2f1f:	31 f6                	xor    esi,esi
    2f21:	e8 00 00 00 00       	call   2f26 <s172+0x38>
    2f26:	41 8d 44 24 ff       	lea    eax,[r12-0x1]
    2f2b:	41 8d 0c 2c          	lea    ecx,[r12+rbp*1]
    2f2f:	ff c9                	dec    ecx
    2f31:	ba 00 7d 00 00       	mov    edx,0x7d00
    2f36:	39 d1                	cmp    ecx,edx
    2f38:	0f 4f d1             	cmovg  edx,ecx
    2f3b:	48 98                	cdqe   
    2f3d:	48 89 44 24 08       	mov    QWORD PTR [rsp+0x8],rax
    2f42:	44 29 e2             	sub    edx,r12d
    2f45:	89 54 24 04          	mov    DWORD PTR [rsp+0x4],edx
    2f49:	49 89 ee             	mov    r14,rbp
    2f4c:	49 c1 e6 05          	shl    r14,0x5
    2f50:	4c 8d 3c ad 00 00 00 	lea    r15,[rbp*4+0x0]
    2f57:	00 
    2f58:	41 81 fc 00 7d 00 00 	cmp    r12d,0x7d00
    2f5f:	0f 8f 46 01 00 00    	jg     30ab <s172+0x1bd>
    2f65:	8b 44 24 04          	mov    eax,DWORD PTR [rsp+0x4]
    2f69:	31 d2                	xor    edx,edx
    2f6b:	f7 f5                	div    ebp
    2f6d:	8d 50 01             	lea    edx,[rax+0x1]
    2f70:	48 8b 4c 24 08       	mov    rcx,QWORD PTR [rsp+0x8]
    2f75:	83 e2 07             	and    edx,0x7
    2f78:	74 27                	je     2fa1 <s172+0xb3>
    2f7a:	48 8b 4c 24 08       	mov    rcx,QWORD PTR [rsp+0x8]
    2f7f:	f3 0f 10 04 8d 00 00 	movss  xmm0,DWORD PTR [rcx*4+0x0]
    2f86:	00 00 
    2f88:	f3 0f 58 04 8d 00 00 	addss  xmm0,DWORD PTR [rcx*4+0x0]
    2f8f:	00 00 
    2f91:	f3 0f 11 04 8d 00 00 	movss  DWORD PTR [rcx*4+0x0],xmm0
    2f98:	00 00 
    2f9a:	48 01 e9             	add    rcx,rbp
    2f9d:	ff ca                	dec    edx
    2f9f:	75 de                	jne    2f7f <s172+0x91>
    2fa1:	83 f8 07             	cmp    eax,0x7
    2fa4:	0f 82 01 01 00 00    	jb     30ab <s172+0x1bd>
    2faa:	48 8d 04 8d 00 00 00 	lea    rax,[rcx*4+0x0]
    2fb1:	00 
    2fb2:	f3 0f 10 80 00 00 00 	movss  xmm0,DWORD PTR [rax+0x0]
    2fb9:	00 
    2fba:	f3 0f 58 80 00 00 00 	addss  xmm0,DWORD PTR [rax+0x0]
    2fc1:	00 
    2fc2:	f3 0f 11 80 00 00 00 	movss  DWORD PTR [rax+0x0],xmm0
    2fc9:	00 
    2fca:	48 01 e9             	add    rcx,rbp
    2fcd:	4a 8d 34 38          	lea    rsi,[rax+r15*1]
    2fd1:	48 81 c6 00 00 00 00 	add    rsi,0x0
    2fd8:	f3 0f 10 84 a8 00 00 	movss  xmm0,DWORD PTR [rax+rbp*4+0x0]
    2fdf:	00 00 
    2fe1:	4a 8d 3c 38          	lea    rdi,[rax+r15*1]
    2fe5:	48 81 c7 00 00 00 00 	add    rdi,0x0
    2fec:	f3 0f 58 84 a8 00 00 	addss  xmm0,DWORD PTR [rax+rbp*4+0x0]
    2ff3:	00 00 
    2ff5:	f3 0f 11 84 a8 00 00 	movss  DWORD PTR [rax+rbp*4+0x0],xmm0
    2ffc:	00 00 
    2ffe:	48 01 e9             	add    rcx,rbp
    3001:	4c 01 fe             	add    rsi,r15
    3004:	f3 0f 10 84 e8 00 00 	movss  xmm0,DWORD PTR [rax+rbp*8+0x0]
    300b:	00 00 
    300d:	4c 01 ff             	add    rdi,r15
    3010:	f3 0f 58 84 e8 00 00 	addss  xmm0,DWORD PTR [rax+rbp*8+0x0]
    3017:	00 00 
    3019:	f3 0f 11 84 e8 00 00 	movss  DWORD PTR [rax+rbp*8+0x0],xmm0
    3020:	00 00 
    3022:	48 01 e9             	add    rcx,rbp
    3025:	4a 8d 14 3e          	lea    rdx,[rsi+r15*1]
    3029:	f3 0f 10 04 ae       	movss  xmm0,DWORD PTR [rsi+rbp*4]
    302e:	4a 8d 1c 3f          	lea    rbx,[rdi+r15*1]
    3032:	f3 0f 58 04 af       	addss  xmm0,DWORD PTR [rdi+rbp*4]
    3037:	f3 0f 11 04 af       	movss  DWORD PTR [rdi+rbp*4],xmm0
    303c:	48 01 e9             	add    rcx,rbp
    303f:	4c 01 fa             	add    rdx,r15
    3042:	f3 0f 10 04 ee       	movss  xmm0,DWORD PTR [rsi+rbp*8]
    3047:	f3 0f 58 04 ef       	addss  xmm0,DWORD PTR [rdi+rbp*8]
    304c:	4c 01 fb             	add    rbx,r15
    304f:	f3 0f 11 04 ef       	movss  DWORD PTR [rdi+rbp*8],xmm0
    3054:	48 01 e9             	add    rcx,rbp
    3057:	f3 0f 10 04 aa       	movss  xmm0,DWORD PTR [rdx+rbp*4]
    305c:	4c 01 fa             	add    rdx,r15
    305f:	4a 8d 34 3b          	lea    rsi,[rbx+r15*1]
    3063:	f3 0f 58 04 ab       	addss  xmm0,DWORD PTR [rbx+rbp*4]
    3068:	f3 0f 11 04 ab       	movss  DWORD PTR [rbx+rbp*4],xmm0
    306d:	48 01 e9             	add    rcx,rbp
    3070:	f3 0f 10 04 aa       	movss  xmm0,DWORD PTR [rdx+rbp*4]
    3075:	4c 01 fa             	add    rdx,r15
    3078:	4a 8d 3c 3e          	lea    rdi,[rsi+r15*1]
    307c:	f3 0f 58 04 ae       	addss  xmm0,DWORD PTR [rsi+rbp*4]
    3081:	f3 0f 11 04 ae       	movss  DWORD PTR [rsi+rbp*4],xmm0
    3086:	48 01 e9             	add    rcx,rbp
    3089:	f3 0f 10 04 aa       	movss  xmm0,DWORD PTR [rdx+rbp*4]
    308e:	f3 0f 58 04 af       	addss  xmm0,DWORD PTR [rdi+rbp*4]
    3093:	f3 0f 11 04 af       	movss  DWORD PTR [rdi+rbp*4],xmm0
    3098:	48 01 e9             	add    rcx,rbp
    309b:	4c 01 f0             	add    rax,r14
    309e:	48 81 f9 00 7d 00 00 	cmp    rcx,0x7d00
    30a5:	0f 8c 07 ff ff ff    	jl     2fb2 <s172+0xc4>
    30ab:	bf 00 00 00 00       	mov    edi,0x0
    30b0:	be 00 00 00 00       	mov    esi,0x0
    30b5:	ba 00 00 00 00       	mov    edx,0x0
    30ba:	b9 00 00 00 00       	mov    ecx,0x0
    30bf:	41 b8 00 00 00 00    	mov    r8d,0x0
    30c5:	41 b9 00 00 00 00    	mov    r9d,0x0
    30cb:	0f 57 c0             	xorps  xmm0,xmm0
    30ce:	68 00 00 00 00       	push   0x0
    30d3:	68 00 00 00 00       	push   0x0
    30d8:	e8 00 00 00 00       	call   30dd <s172+0x1ef>
    30dd:	48 83 c4 10          	add    rsp,0x10
    30e1:	41 ff c5             	inc    r13d
    30e4:	41 81 fd a0 86 01 00 	cmp    r13d,0x186a0
    30eb:	0f 85 67 fe ff ff    	jne    2f58 <s172+0x6a>
    30f1:	48 8b 7c 24 10       	mov    rdi,QWORD PTR [rsp+0x10]
    30f6:	48 83 c7 10          	add    rdi,0x10
    30fa:	31 f6                	xor    esi,esi
    30fc:	e8 00 00 00 00       	call   3101 <s172+0x213>
    3101:	bf 00 00 00 00       	mov    edi,0x0
    3106:	48 83 c4 18          	add    rsp,0x18
    310a:	5b                   	pop    rbx
    310b:	41 5c                	pop    r12
    310d:	41 5d                	pop    r13
    310f:	41 5e                	pop    r14
    3111:	41 5f                	pop    r15
    3113:	5d                   	pop    rbp
    3114:	e9 00 00 00 00       	jmp    3119 <s173>

0000000000003119 <s173>:
    3119:	41 56                	push   r14
    311b:	53                   	push   rbx
    311c:	50                   	push   rax
    311d:	49 89 fe             	mov    r14,rdi
    3120:	bf 00 00 00 00       	mov    edi,0x0
    3125:	e8 00 00 00 00       	call   312a <s173+0x11>
    312a:	31 db                	xor    ebx,ebx
    312c:	4c 89 f7             	mov    rdi,r14
    312f:	31 f6                	xor    esi,esi
    3131:	e8 00 00 00 00       	call   3136 <s173+0x1d>
    3136:	48 c7 c0 00 06 ff ff 	mov    rax,0xffffffffffff0600
    313d:	f3 0f 10 80 00 00 00 	movss  xmm0,DWORD PTR [rax+0x0]
    3144:	00 
    3145:	f3 0f 58 80 00 00 00 	addss  xmm0,DWORD PTR [rax+0x0]
    314c:	00 
    314d:	f3 0f 11 80 00 00 00 	movss  DWORD PTR [rax+0x0],xmm0
    3154:	00 
    3155:	f3 0f 10 80 00 00 00 	movss  xmm0,DWORD PTR [rax+0x0]
    315c:	00 
    315d:	f3 0f 58 80 00 00 00 	addss  xmm0,DWORD PTR [rax+0x0]
    3164:	00 
    3165:	f3 0f 11 80 00 00 00 	movss  DWORD PTR [rax+0x0],xmm0
    316c:	00 
    316d:	f3 0f 10 80 00 00 00 	movss  xmm0,DWORD PTR [rax+0x0]
    3174:	00 
    3175:	f3 0f 58 80 00 00 00 	addss  xmm0,DWORD PTR [rax+0x0]
    317c:	00 
    317d:	f3 0f 11 80 00 00 00 	movss  DWORD PTR [rax+0x0],xmm0
    3184:	00 
    3185:	f3 0f 10 80 00 00 00 	movss  xmm0,DWORD PTR [rax+0x0]
    318c:	00 
    318d:	f3 0f 58 80 00 00 00 	addss  xmm0,DWORD PTR [rax+0x0]
    3194:	00 
    3195:	f3 0f 11 80 00 00 00 	movss  DWORD PTR [rax+0x0],xmm0
    319c:	00 
    319d:	f3 0f 10 80 00 00 00 	movss  xmm0,DWORD PTR [rax+0x0]
    31a4:	00 
    31a5:	f3 0f 58 80 00 00 00 	addss  xmm0,DWORD PTR [rax+0x0]
    31ac:	00 
    31ad:	f3 0f 11 80 00 00 00 	movss  DWORD PTR [rax+0x0],xmm0
    31b4:	00 
    31b5:	f3 0f 10 80 00 00 00 	movss  xmm0,DWORD PTR [rax+0x0]
    31bc:	00 
    31bd:	f3 0f 58 80 00 00 00 	addss  xmm0,DWORD PTR [rax+0x0]
    31c4:	00 
    31c5:	f3 0f 11 80 00 00 00 	movss  DWORD PTR [rax+0x0],xmm0
    31cc:	00 
    31cd:	f3 0f 10 80 00 00 00 	movss  xmm0,DWORD PTR [rax+0x0]
    31d4:	00 
    31d5:	f3 0f 58 80 00 00 00 	addss  xmm0,DWORD PTR [rax+0x0]
    31dc:	00 
    31dd:	f3 0f 11 80 00 00 00 	movss  DWORD PTR [rax+0x0],xmm0
    31e4:	00 
    31e5:	f3 0f 10 80 00 00 00 	movss  xmm0,DWORD PTR [rax+0x0]
    31ec:	00 
    31ed:	f3 0f 58 80 00 00 00 	addss  xmm0,DWORD PTR [rax+0x0]
    31f4:	00 
    31f5:	f3 0f 11 80 00 00 00 	movss  DWORD PTR [rax+0x0],xmm0
    31fc:	00 
    31fd:	48 83 c0 20          	add    rax,0x20
    3201:	0f 85 36 ff ff ff    	jne    313d <s173+0x24>
    3207:	bf 00 00 00 00       	mov    edi,0x0
    320c:	be 00 00 00 00       	mov    esi,0x0
    3211:	ba 00 00 00 00       	mov    edx,0x0
    3216:	b9 00 00 00 00       	mov    ecx,0x0
    321b:	41 b8 00 00 00 00    	mov    r8d,0x0
    3221:	41 b9 00 00 00 00    	mov    r9d,0x0
    3227:	0f 57 c0             	xorps  xmm0,xmm0
    322a:	68 00 00 00 00       	push   0x0
    322f:	68 00 00 00 00       	push   0x0
    3234:	e8 00 00 00 00       	call   3239 <s173+0x120>
    3239:	48 83 c4 10          	add    rsp,0x10
    323d:	ff c3                	inc    ebx
    323f:	81 fb 40 42 0f 00    	cmp    ebx,0xf4240
    3245:	0f 85 eb fe ff ff    	jne    3136 <s173+0x1d>
    324b:	49 83 c6 10          	add    r14,0x10
    324f:	4c 89 f7             	mov    rdi,r14
    3252:	31 f6                	xor    esi,esi
    3254:	e8 00 00 00 00       	call   3259 <s173+0x140>
    3259:	bf 00 00 00 00       	mov    edi,0x0
    325e:	48 83 c4 08          	add    rsp,0x8
    3262:	5b                   	pop    rbx
    3263:	41 5e                	pop    r14
    3265:	e9 00 00 00 00       	jmp    326a <s174>

000000000000326a <s174>:
    326a:	41 57                	push   r15
    326c:	41 56                	push   r14
    326e:	41 55                	push   r13
    3270:	41 54                	push   r12
    3272:	53                   	push   rbx
    3273:	49 89 fe             	mov    r14,rdi
    3276:	48 8b 47 20          	mov    rax,QWORD PTR [rdi+0x20]
    327a:	44 8b 38             	mov    r15d,DWORD PTR [rax]
    327d:	bf 00 00 00 00       	mov    edi,0x0
    3282:	e8 00 00 00 00       	call   3287 <s174+0x1d>
    3287:	45 31 e4             	xor    r12d,r12d
    328a:	4c 89 f7             	mov    rdi,r14
    328d:	31 f6                	xor    esi,esi
    328f:	e8 00 00 00 00       	call   3294 <s174+0x2a>
    3294:	4d 63 ef             	movsxd r13,r15d
    3297:	4c 89 fb             	mov    rbx,r15
    329a:	48 c1 e3 02          	shl    rbx,0x2
    329e:	45 85 ff             	test   r15d,r15d
    32a1:	7e 25                	jle    32c8 <s174+0x5e>
    32a3:	31 c0                	xor    eax,eax
    32a5:	f3 0f 10 80 00 00 00 	movss  xmm0,DWORD PTR [rax+0x0]
    32ac:	00 
    32ad:	f3 0f 58 80 00 00 00 	addss  xmm0,DWORD PTR [rax+0x0]
    32b4:	00 
    32b5:	f3 42 0f 11 84 a8 00 	movss  DWORD PTR [rax+r13*4+0x0],xmm0
    32bc:	00 00 00 
    32bf:	48 83 c0 04          	add    rax,0x4
    32c3:	48 39 c3             	cmp    rbx,rax
    32c6:	75 dd                	jne    32a5 <s174+0x3b>
    32c8:	bf 00 00 00 00       	mov    edi,0x0
    32cd:	be 00 00 00 00       	mov    esi,0x0
    32d2:	ba 00 00 00 00       	mov    edx,0x0
    32d7:	b9 00 00 00 00       	mov    ecx,0x0
    32dc:	41 b8 00 00 00 00    	mov    r8d,0x0
    32e2:	41 b9 00 00 00 00    	mov    r9d,0x0
    32e8:	0f 57 c0             	xorps  xmm0,xmm0
    32eb:	68 00 00 00 00       	push   0x0
    32f0:	68 00 00 00 00       	push   0x0
    32f5:	e8 00 00 00 00       	call   32fa <s174+0x90>
    32fa:	48 83 c4 10          	add    rsp,0x10
    32fe:	41 ff c4             	inc    r12d
    3301:	41 81 fc 40 42 0f 00 	cmp    r12d,0xf4240
    3308:	75 94                	jne    329e <s174+0x34>
    330a:	49 83 c6 10          	add    r14,0x10
    330e:	4c 89 f7             	mov    rdi,r14
    3311:	31 f6                	xor    esi,esi
    3313:	e8 00 00 00 00       	call   3318 <s174+0xae>
    3318:	bf 00 00 00 00       	mov    edi,0x0
    331d:	5b                   	pop    rbx
    331e:	41 5c                	pop    r12
    3320:	41 5d                	pop    r13
    3322:	41 5e                	pop    r14
    3324:	41 5f                	pop    r15
    3326:	e9 00 00 00 00       	jmp    332b <s175>

000000000000332b <s175>:
    332b:	55                   	push   rbp
    332c:	41 57                	push   r15
    332e:	41 56                	push   r14
    3330:	41 55                	push   r13
    3332:	41 54                	push   r12
    3334:	53                   	push   rbx
    3335:	48 83 ec 38          	sub    rsp,0x38
    3339:	48 89 fd             	mov    rbp,rdi
    333c:	48 8b 47 20          	mov    rax,QWORD PTR [rdi+0x20]
    3340:	48 63 18             	movsxd rbx,DWORD PTR [rax]
    3343:	bf 00 00 00 00       	mov    edi,0x0
    3348:	e8 00 00 00 00       	call   334d <s175+0x22>
    334d:	31 c0                	xor    eax,eax
    334f:	48 89 44 24 08       	mov    QWORD PTR [rsp+0x8],rax
    3354:	48 89 6c 24 10       	mov    QWORD PTR [rsp+0x10],rbp
    3359:	48 89 ef             	mov    rdi,rbp
    335c:	31 f6                	xor    esi,esi
    335e:	e8 00 00 00 00       	call   3363 <s175+0x38>
    3363:	b8 fe 7c 00 00       	mov    eax,0x7cfe
    3368:	31 d2                	xor    edx,edx
    336a:	f7 f3                	div    ebx
    336c:	ff c0                	inc    eax
    336e:	89 c1                	mov    ecx,eax
    3370:	83 e1 07             	and    ecx,0x7
    3373:	89 0c 24             	mov    DWORD PTR [rsp],ecx
    3376:	25 f8 ff 00 00       	and    eax,0xfff8
    337b:	89 44 24 04          	mov    DWORD PTR [rsp+0x4],eax
    337f:	49 89 d8             	mov    r8,rbx
    3382:	49 c1 e0 05          	shl    r8,0x5
    3386:	4c 8d 0c dd 00 00 00 	lea    r9,[rbx*8+0x0]
    338d:	00 
    338e:	4c 89 cd             	mov    rbp,r9
    3391:	48 29 dd             	sub    rbp,rbx
    3394:	4c 8d 14 1b          	lea    r10,[rbx+rbx*1]
    3398:	4f 8d 2c 52          	lea    r13,[r10+r10*2]
    339c:	4c 8d 24 9b          	lea    r12,[rbx+rbx*4]
    33a0:	4c 8d 3c 9d 00 00 00 	lea    r15,[rbx*4+0x0]
    33a7:	00 
    33a8:	4c 8d 34 5b          	lea    r14,[rbx+rbx*2]
    33ac:	48 8d 04 9d 00 00 00 	lea    rax,[rbx*4+0x0]
    33b3:	00 
    33b4:	48 89 44 24 18       	mov    QWORD PTR [rsp+0x18],rax
    33b9:	4c 89 44 24 30       	mov    QWORD PTR [rsp+0x30],r8
    33be:	4c 89 4c 24 28       	mov    QWORD PTR [rsp+0x28],r9
    33c3:	4c 89 54 24 20       	mov    QWORD PTR [rsp+0x20],r10
    33c8:	81 fb db 11 00 00    	cmp    ebx,0x11db
    33ce:	76 07                	jbe    33d7 <s175+0xac>
    33d0:	31 c0                	xor    eax,eax
    33d2:	e9 14 01 00 00       	jmp    34eb <s175+0x1c0>
    33d7:	31 c9                	xor    ecx,ecx
    33d9:	31 c0                	xor    eax,eax
    33db:	8b 54 24 04          	mov    edx,DWORD PTR [rsp+0x4]
    33df:	48 01 d8             	add    rax,rbx
    33e2:	f3 0f 10 84 99 00 00 	movss  xmm0,DWORD PTR [rcx+rbx*4+0x0]
    33e9:	00 00 
    33eb:	f3 0f 58 81 00 00 00 	addss  xmm0,DWORD PTR [rcx+0x0]
    33f2:	00 
    33f3:	f3 0f 11 81 00 00 00 	movss  DWORD PTR [rcx+0x0],xmm0
    33fa:	00 
    33fb:	48 01 d8             	add    rax,rbx
    33fe:	f3 42 0f 10 84 91 00 	movss  xmm0,DWORD PTR [rcx+r10*4+0x0]
    3405:	00 00 00 
    3408:	4a 8d 34 39          	lea    rsi,[rcx+r15*1]
    340c:	48 81 c6 00 00 00 00 	add    rsi,0x0
    3413:	f3 0f 58 84 99 00 00 	addss  xmm0,DWORD PTR [rcx+rbx*4+0x0]
    341a:	00 00 
    341c:	f3 0f 11 84 99 00 00 	movss  DWORD PTR [rcx+rbx*4+0x0],xmm0
    3423:	00 00 
    3425:	48 01 d8             	add    rax,rbx
    3428:	f3 42 0f 10 84 b1 00 	movss  xmm0,DWORD PTR [rcx+r14*4+0x0]
    342f:	00 00 00 
    3432:	4c 01 fe             	add    rsi,r15
    3435:	f3 0f 58 84 d9 00 00 	addss  xmm0,DWORD PTR [rcx+rbx*8+0x0]
    343c:	00 00 
    343e:	f3 42 0f 11 84 91 00 	movss  DWORD PTR [rcx+r10*4+0x0],xmm0
    3445:	00 00 00 
    3448:	48 01 d8             	add    rax,rbx
    344b:	f3 42 0f 10 84 b9 00 	movss  xmm0,DWORD PTR [rcx+r15*4+0x0]
    3452:	00 00 00 
    3455:	4a 8d 3c 3e          	lea    rdi,[rsi+r15*1]
    3459:	f3 0f 58 04 9e       	addss  xmm0,DWORD PTR [rsi+rbx*4]
    345e:	f3 42 0f 11 84 b1 00 	movss  DWORD PTR [rcx+r14*4+0x0],xmm0
    3465:	00 00 00 
    3468:	48 01 d8             	add    rax,rbx
    346b:	f3 42 0f 10 84 a1 00 	movss  xmm0,DWORD PTR [rcx+r12*4+0x0]
    3472:	00 00 00 
    3475:	4c 01 ff             	add    rdi,r15
    3478:	f3 0f 58 04 de       	addss  xmm0,DWORD PTR [rsi+rbx*8]
    347d:	f3 42 0f 11 84 b9 00 	movss  DWORD PTR [rcx+r15*4+0x0],xmm0
    3484:	00 00 00 
    3487:	f3 42 0f 10 84 a9 00 	movss  xmm0,DWORD PTR [rcx+r13*4+0x0]
    348e:	00 00 00 
    3491:	f3 0f 58 04 9f       	addss  xmm0,DWORD PTR [rdi+rbx*4]
    3496:	48 01 d8             	add    rax,rbx
    3499:	4c 01 ff             	add    rdi,r15
    349c:	f3 42 0f 11 84 a1 00 	movss  DWORD PTR [rcx+r12*4+0x0],xmm0
    34a3:	00 00 00 
    34a6:	48 01 d8             	add    rax,rbx
    34a9:	f3 0f 10 84 a9 00 00 	movss  xmm0,DWORD PTR [rcx+rbp*4+0x0]
    34b0:	00 00 
    34b2:	f3 0f 58 04 9f       	addss  xmm0,DWORD PTR [rdi+rbx*4]
    34b7:	4c 01 ff             	add    rdi,r15
    34ba:	f3 42 0f 11 84 a9 00 	movss  DWORD PTR [rcx+r13*4+0x0],xmm0
    34c1:	00 00 00 
    34c4:	f3 42 0f 10 84 89 00 	movss  xmm0,DWORD PTR [rcx+r9*4+0x0]
    34cb:	00 00 00 
    34ce:	f3 0f 58 04 9f       	addss  xmm0,DWORD PTR [rdi+rbx*4]
    34d3:	48 01 d8             	add    rax,rbx
    34d6:	f3 0f 11 84 a9 00 00 	movss  DWORD PTR [rcx+rbp*4+0x0],xmm0
    34dd:	00 00 
    34df:	4c 01 c1             	add    rcx,r8
    34e2:	83 c2 f8             	add    edx,0xfffffff8
    34e5:	0f 85 f4 fe ff ff    	jne    33df <s175+0xb4>
    34eb:	83 3c 24 00          	cmp    DWORD PTR [rsp],0x0
    34ef:	74 30                	je     3521 <s175+0x1f6>
    34f1:	48 8b 4c 24 18       	mov    rcx,QWORD PTR [rsp+0x18]
    34f6:	48 8d 0c 81          	lea    rcx,[rcx+rax*4]
    34fa:	48 c1 e0 02          	shl    rax,0x2
    34fe:	31 d2                	xor    edx,edx
    3500:	8b 34 24             	mov    esi,DWORD PTR [rsp]
    3503:	f3 0f 10 04 11       	movss  xmm0,DWORD PTR [rcx+rdx*1]
    3508:	f3 0f 58 84 10 00 00 	addss  xmm0,DWORD PTR [rax+rdx*1+0x0]
    350f:	00 00 
    3511:	f3 0f 11 84 10 00 00 	movss  DWORD PTR [rax+rdx*1+0x0],xmm0
    3518:	00 00 
    351a:	4c 01 fa             	add    rdx,r15
    351d:	ff ce                	dec    esi
    351f:	75 e2                	jne    3503 <s175+0x1d8>
    3521:	bf 00 00 00 00       	mov    edi,0x0
    3526:	be 00 00 00 00       	mov    esi,0x0
    352b:	ba 00 00 00 00       	mov    edx,0x0
    3530:	b9 00 00 00 00       	mov    ecx,0x0
    3535:	41 b8 00 00 00 00    	mov    r8d,0x0
    353b:	41 b9 00 00 00 00    	mov    r9d,0x0
    3541:	0f 57 c0             	xorps  xmm0,xmm0
    3544:	68 00 00 00 00       	push   0x0
    3549:	68 00 00 00 00       	push   0x0
    354e:	e8 00 00 00 00       	call   3553 <s175+0x228>
    3553:	48 83 c4 10          	add    rsp,0x10
    3557:	48 8b 44 24 08       	mov    rax,QWORD PTR [rsp+0x8]
    355c:	ff c0                	inc    eax
    355e:	48 89 44 24 08       	mov    QWORD PTR [rsp+0x8],rax
    3563:	3d a0 86 01 00       	cmp    eax,0x186a0
    3568:	4c 8b 44 24 30       	mov    r8,QWORD PTR [rsp+0x30]
    356d:	4c 8b 4c 24 28       	mov    r9,QWORD PTR [rsp+0x28]
    3572:	4c 8b 54 24 20       	mov    r10,QWORD PTR [rsp+0x20]
    3577:	0f 85 4b fe ff ff    	jne    33c8 <s175+0x9d>
    357d:	48 8b 7c 24 10       	mov    rdi,QWORD PTR [rsp+0x10]
    3582:	48 83 c7 10          	add    rdi,0x10
    3586:	31 f6                	xor    esi,esi
    3588:	e8 00 00 00 00       	call   358d <s175+0x262>
    358d:	bf 00 00 00 00       	mov    edi,0x0
    3592:	48 83 c4 38          	add    rsp,0x38
    3596:	5b                   	pop    rbx
    3597:	41 5c                	pop    r12
    3599:	41 5d                	pop    r13
    359b:	41 5e                	pop    r14
    359d:	41 5f                	pop    r15
    359f:	5d                   	pop    rbp
    35a0:	e9 00 00 00 00       	jmp    35a5 <s176>

00000000000035a5 <s176>:
    35a5:	41 56                	push   r14
    35a7:	53                   	push   rbx
    35a8:	50                   	push   rax
    35a9:	49 89 fe             	mov    r14,rdi
    35ac:	bf 00 00 00 00       	mov    edi,0x0
    35b1:	e8 00 00 00 00       	call   35b6 <s176+0x11>
    35b6:	31 db                	xor    ebx,ebx
    35b8:	4c 89 f7             	mov    rdi,r14
    35bb:	31 f6                	xor    esi,esi
    35bd:	e8 00 00 00 00       	call   35c2 <s176+0x1d>
    35c2:	b8 00 00 00 00       	mov    eax,0x0
    35c7:	31 c9                	xor    ecx,ecx
    35c9:	f3 0f 10 04 8d 00 00 	movss  xmm0,DWORD PTR [rcx*4+0x0]
    35d0:	00 00 
    35d2:	48 c7 c2 00 06 ff ff 	mov    rdx,0xffffffffffff0600
    35d9:	f3 0f 10 8c 10 00 fa 	movss  xmm1,DWORD PTR [rax+rdx*1+0xfa00]
    35e0:	00 00 
    35e2:	f3 0f 59 c8          	mulss  xmm1,xmm0
    35e6:	f3 0f 58 8a 00 00 00 	addss  xmm1,DWORD PTR [rdx+0x0]
    35ed:	00 
    35ee:	f3 0f 11 8a 00 00 00 	movss  DWORD PTR [rdx+0x0],xmm1
    35f5:	00 
    35f6:	48 83 c2 04          	add    rdx,0x4
    35fa:	75 dd                	jne    35d9 <s176+0x34>
    35fc:	48 ff c1             	inc    rcx
    35ff:	48 83 c0 fc          	add    rax,0xfffffffffffffffc
    3603:	48 81 f9 80 3e 00 00 	cmp    rcx,0x3e80
    360a:	75 bd                	jne    35c9 <s176+0x24>
    360c:	bf 00 00 00 00       	mov    edi,0x0
    3611:	be 00 00 00 00       	mov    esi,0x0
    3616:	ba 00 00 00 00       	mov    edx,0x0
    361b:	b9 00 00 00 00       	mov    ecx,0x0
    3620:	41 b8 00 00 00 00    	mov    r8d,0x0
    3626:	41 b9 00 00 00 00    	mov    r9d,0x0
    362c:	0f 57 c0             	xorps  xmm0,xmm0
    362f:	68 00 00 00 00       	push   0x0
    3634:	68 00 00 00 00       	push   0x0
    3639:	e8 00 00 00 00       	call   363e <s176+0x99>
    363e:	48 83 c4 10          	add    rsp,0x10
    3642:	ff c3                	inc    ebx
    3644:	83 fb 0c             	cmp    ebx,0xc
    3647:	0f 85 75 ff ff ff    	jne    35c2 <s176+0x1d>
    364d:	49 83 c6 10          	add    r14,0x10
    3651:	4c 89 f7             	mov    rdi,r14
    3654:	31 f6                	xor    esi,esi
    3656:	e8 00 00 00 00       	call   365b <s176+0xb6>
    365b:	bf 00 00 00 00       	mov    edi,0x0
    3660:	48 83 c4 08          	add    rsp,0x8
    3664:	5b                   	pop    rbx
    3665:	41 5e                	pop    r14
    3667:	e9 00 00 00 00       	jmp    366c <s211>

000000000000366c <s211>:
    366c:	41 56                	push   r14
    366e:	53                   	push   rbx
    366f:	50                   	push   rax
    3670:	49 89 fe             	mov    r14,rdi
    3673:	bf 00 00 00 00       	mov    edi,0x0
    3678:	e8 00 00 00 00       	call   367d <s211+0x11>
    367d:	31 db                	xor    ebx,ebx
    367f:	4c 89 f7             	mov    rdi,r14
    3682:	31 f6                	xor    esi,esi
    3684:	e8 00 00 00 00       	call   3689 <s211+0x1d>
    3689:	f3 0f 10 05 00 00 00 	movss  xmm0,DWORD PTR [rip+0x0]        # 3691 <s211+0x25>
    3690:	00 
    3691:	31 c0                	xor    eax,eax
    3693:	f3 0f 10 88 00 00 00 	movss  xmm1,DWORD PTR [rax+0x0]
    369a:	00 
    369b:	f3 0f 10 90 00 00 00 	movss  xmm2,DWORD PTR [rax+0x0]
    36a2:	00 
    36a3:	f3 0f 59 d1          	mulss  xmm2,xmm1
    36a7:	f3 0f 58 d0          	addss  xmm2,xmm0
    36ab:	f3 0f 11 90 00 00 00 	movss  DWORD PTR [rax+0x0],xmm2
    36b2:	00 
    36b3:	f3 0f 10 80 00 00 00 	movss  xmm0,DWORD PTR [rax+0x0]
    36ba:	00 
    36bb:	f3 0f 59 88 00 00 00 	mulss  xmm1,DWORD PTR [rax+0x0]
    36c2:	00 
    36c3:	f3 0f 5c c1          	subss  xmm0,xmm1
    36c7:	f3 0f 11 80 00 00 00 	movss  DWORD PTR [rax+0x0],xmm0
    36ce:	00 
    36cf:	f3 0f 10 88 00 00 00 	movss  xmm1,DWORD PTR [rax+0x0]
    36d6:	00 
    36d7:	f3 0f 10 90 00 00 00 	movss  xmm2,DWORD PTR [rax+0x0]
    36de:	00 
    36df:	f3 0f 59 d1          	mulss  xmm2,xmm1
    36e3:	f3 0f 58 d0          	addss  xmm2,xmm0
    36e7:	f3 0f 11 90 00 00 00 	movss  DWORD PTR [rax+0x0],xmm2
    36ee:	00 
    36ef:	f3 0f 59 88 00 00 00 	mulss  xmm1,DWORD PTR [rax+0x0]
    36f6:	00 
    36f7:	f3 0f 10 80 00 00 00 	movss  xmm0,DWORD PTR [rax+0x0]
    36fe:	00 
    36ff:	f3 0f 5c c1          	subss  xmm0,xmm1
    3703:	f3 0f 11 80 00 00 00 	movss  DWORD PTR [rax+0x0],xmm0
    370a:	00 
    370b:	f3 0f 10 88 00 00 00 	movss  xmm1,DWORD PTR [rax+0x0]
    3712:	00 
    3713:	f3 0f 10 90 00 00 00 	movss  xmm2,DWORD PTR [rax+0x0]
    371a:	00 
    371b:	f3 0f 59 d1          	mulss  xmm2,xmm1
    371f:	f3 0f 58 d0          	addss  xmm2,xmm0
    3723:	f3 0f 11 90 00 00 00 	movss  DWORD PTR [rax+0x0],xmm2
    372a:	00 
    372b:	f3 0f 10 80 00 00 00 	movss  xmm0,DWORD PTR [rax+0x0]
    3732:	00 
    3733:	f3 0f 59 88 00 00 00 	mulss  xmm1,DWORD PTR [rax+0x0]
    373a:	00 
    373b:	f3 0f 5c c1          	subss  xmm0,xmm1
    373f:	f3 0f 11 80 00 00 00 	movss  DWORD PTR [rax+0x0],xmm0
    3746:	00 
    3747:	f3 0f 10 88 00 00 00 	movss  xmm1,DWORD PTR [rax+0x0]
    374e:	00 
    374f:	f3 0f 10 90 00 00 00 	movss  xmm2,DWORD PTR [rax+0x0]
    3756:	00 
    3757:	f3 0f 59 d1          	mulss  xmm2,xmm1
    375b:	f3 0f 58 d0          	addss  xmm2,xmm0
    375f:	f3 0f 11 90 00 00 00 	movss  DWORD PTR [rax+0x0],xmm2
    3766:	00 
    3767:	f3 0f 59 88 00 00 00 	mulss  xmm1,DWORD PTR [rax+0x0]
    376e:	00 
    376f:	f3 0f 10 80 00 00 00 	movss  xmm0,DWORD PTR [rax+0x0]
    3776:	00 
    3777:	f3 0f 5c c1          	subss  xmm0,xmm1
    377b:	f3 0f 11 80 00 00 00 	movss  DWORD PTR [rax+0x0],xmm0
    3782:	00 
    3783:	f3 0f 10 88 00 00 00 	movss  xmm1,DWORD PTR [rax+0x0]
    378a:	00 
    378b:	f3 0f 10 90 00 00 00 	movss  xmm2,DWORD PTR [rax+0x0]
    3792:	00 
    3793:	f3 0f 59 d1          	mulss  xmm2,xmm1
    3797:	f3 0f 58 d0          	addss  xmm2,xmm0
    379b:	f3 0f 11 90 00 00 00 	movss  DWORD PTR [rax+0x0],xmm2
    37a2:	00 
    37a3:	f3 0f 10 80 00 00 00 	movss  xmm0,DWORD PTR [rax+0x0]
    37aa:	00 
    37ab:	f3 0f 59 88 00 00 00 	mulss  xmm1,DWORD PTR [rax+0x0]
    37b2:	00 
    37b3:	f3 0f 5c c1          	subss  xmm0,xmm1
    37b7:	f3 0f 11 80 00 00 00 	movss  DWORD PTR [rax+0x0],xmm0
    37be:	00 
    37bf:	f3 0f 10 88 00 00 00 	movss  xmm1,DWORD PTR [rax+0x0]
    37c6:	00 
    37c7:	f3 0f 10 90 00 00 00 	movss  xmm2,DWORD PTR [rax+0x0]
    37ce:	00 
    37cf:	f3 0f 59 d1          	mulss  xmm2,xmm1
    37d3:	f3 0f 58 d0          	addss  xmm2,xmm0
    37d7:	f3 0f 11 90 00 00 00 	movss  DWORD PTR [rax+0x0],xmm2
    37de:	00 
    37df:	f3 0f 59 88 00 00 00 	mulss  xmm1,DWORD PTR [rax+0x0]
    37e6:	00 
    37e7:	f3 0f 10 80 00 00 00 	movss  xmm0,DWORD PTR [rax+0x0]
    37ee:	00 
    37ef:	f3 0f 5c c1          	subss  xmm0,xmm1
    37f3:	f3 0f 11 80 00 00 00 	movss  DWORD PTR [rax+0x0],xmm0
    37fa:	00 
    37fb:	48 3d e0 f3 01 00    	cmp    rax,0x1f3e0
    3801:	0f 84 81 00 00 00    	je     3888 <s211+0x21c>
    3807:	f3 0f 10 88 00 00 00 	movss  xmm1,DWORD PTR [rax+0x0]
    380e:	00 
    380f:	f3 0f 10 90 00 00 00 	movss  xmm2,DWORD PTR [rax+0x0]
    3816:	00 
    3817:	f3 0f 59 d1          	mulss  xmm2,xmm1
    381b:	f3 0f 58 c2          	addss  xmm0,xmm2
    381f:	f3 0f 11 80 00 00 00 	movss  DWORD PTR [rax+0x0],xmm0
    3826:	00 
    3827:	f3 0f 10 80 00 00 00 	movss  xmm0,DWORD PTR [rax+0x0]
    382e:	00 
    382f:	f3 0f 59 88 00 00 00 	mulss  xmm1,DWORD PTR [rax+0x0]
    3836:	00 
    3837:	f3 0f 5c c1          	subss  xmm0,xmm1
    383b:	f3 0f 11 80 00 00 00 	movss  DWORD PTR [rax+0x0],xmm0
    3842:	00 
    3843:	f3 0f 10 88 00 00 00 	movss  xmm1,DWORD PTR [rax+0x0]
    384a:	00 
    384b:	f3 0f 10 90 00 00 00 	movss  xmm2,DWORD PTR [rax+0x0]
    3852:	00 
    3853:	f3 0f 59 d1          	mulss  xmm2,xmm1
    3857:	f3 0f 58 d0          	addss  xmm2,xmm0
    385b:	f3 0f 11 90 00 00 00 	movss  DWORD PTR [rax+0x0],xmm2
    3862:	00 
    3863:	f3 0f 59 88 00 00 00 	mulss  xmm1,DWORD PTR [rax+0x0]
    386a:	00 
    386b:	f3 0f 10 80 00 00 00 	movss  xmm0,DWORD PTR [rax+0x0]
    3872:	00 
    3873:	f3 0f 5c c1          	subss  xmm0,xmm1
    3877:	f3 0f 11 80 00 00 00 	movss  DWORD PTR [rax+0x0],xmm0
    387e:	00 
    387f:	48 83 c0 20          	add    rax,0x20
    3883:	e9 0b fe ff ff       	jmp    3693 <s211+0x27>
    3888:	bf 00 00 00 00       	mov    edi,0x0
    388d:	be 00 00 00 00       	mov    esi,0x0
    3892:	ba 00 00 00 00       	mov    edx,0x0
    3897:	b9 00 00 00 00       	mov    ecx,0x0
    389c:	41 b8 00 00 00 00    	mov    r8d,0x0
    38a2:	41 b9 00 00 00 00    	mov    r9d,0x0
    38a8:	0f 57 c0             	xorps  xmm0,xmm0
    38ab:	68 00 00 00 00       	push   0x0
    38b0:	68 00 00 00 00       	push   0x0
    38b5:	e8 00 00 00 00       	call   38ba <s211+0x24e>
    38ba:	48 83 c4 10          	add    rsp,0x10
    38be:	ff c3                	inc    ebx
    38c0:	81 fb a0 86 01 00    	cmp    ebx,0x186a0
    38c6:	0f 85 bd fd ff ff    	jne    3689 <s211+0x1d>
    38cc:	49 83 c6 10          	add    r14,0x10
    38d0:	4c 89 f7             	mov    rdi,r14
    38d3:	31 f6                	xor    esi,esi
    38d5:	e8 00 00 00 00       	call   38da <s211+0x26e>
    38da:	bf 00 00 00 00       	mov    edi,0x0
    38df:	48 83 c4 08          	add    rsp,0x8
    38e3:	5b                   	pop    rbx
    38e4:	41 5e                	pop    r14
    38e6:	e9 00 00 00 00       	jmp    38eb <s212>

00000000000038eb <s212>:
    38eb:	41 56                	push   r14
    38ed:	53                   	push   rbx
    38ee:	50                   	push   rax
    38ef:	49 89 fe             	mov    r14,rdi
    38f2:	bf 00 00 00 00       	mov    edi,0x0
    38f7:	e8 00 00 00 00       	call   38fc <s212+0x11>
    38fc:	31 db                	xor    ebx,ebx
    38fe:	4c 89 f7             	mov    rdi,r14
    3901:	31 f6                	xor    esi,esi
    3903:	e8 00 00 00 00       	call   3908 <s212+0x1d>
    3908:	48 c7 c0 20 0c fe ff 	mov    rax,0xfffffffffffe0c20
    390f:	f3 0f 10 05 00 00 00 	movss  xmm0,DWORD PTR [rip+0x0]        # 3917 <s212+0x2c>
    3916:	00 
    3917:	f3 0f 59 80 00 00 00 	mulss  xmm0,DWORD PTR [rax+0x0]
    391e:	00 
    391f:	f3 0f 11 80 00 00 00 	movss  DWORD PTR [rax+0x0],xmm0
    3926:	00 
    3927:	f3 0f 10 80 00 00 00 	movss  xmm0,DWORD PTR [rax+0x0]
    392e:	00 
    392f:	f3 0f 10 88 00 00 00 	movss  xmm1,DWORD PTR [rax+0x0]
    3936:	00 
    3937:	f3 0f 59 c8          	mulss  xmm1,xmm0
    393b:	f3 0f 58 88 00 00 00 	addss  xmm1,DWORD PTR [rax+0x0]
    3942:	00 
    3943:	f3 0f 59 80 00 00 00 	mulss  xmm0,DWORD PTR [rax+0x0]
    394a:	00 
    394b:	f3 0f 11 88 00 00 00 	movss  DWORD PTR [rax+0x0],xmm1
    3952:	00 
    3953:	f3 0f 11 80 00 00 00 	movss  DWORD PTR [rax+0x0],xmm0
    395a:	00 
    395b:	f3 0f 10 80 00 00 00 	movss  xmm0,DWORD PTR [rax+0x0]
    3962:	00 
    3963:	f3 0f 10 88 00 00 00 	movss  xmm1,DWORD PTR [rax+0x0]
    396a:	00 
    396b:	f3 0f 59 c8          	mulss  xmm1,xmm0
    396f:	f3 0f 58 88 00 00 00 	addss  xmm1,DWORD PTR [rax+0x0]
    3976:	00 
    3977:	f3 0f 11 88 00 00 00 	movss  DWORD PTR [rax+0x0],xmm1
    397e:	00 
    397f:	f3 0f 59 80 00 00 00 	mulss  xmm0,DWORD PTR [rax+0x0]
    3986:	00 
    3987:	f3 0f 11 80 00 00 00 	movss  DWORD PTR [rax+0x0],xmm0
    398e:	00 
    398f:	f3 0f 10 80 00 00 00 	movss  xmm0,DWORD PTR [rax+0x0]
    3996:	00 
    3997:	f3 0f 10 88 00 00 00 	movss  xmm1,DWORD PTR [rax+0x0]
    399e:	00 
    399f:	f3 0f 59 c8          	mulss  xmm1,xmm0
    39a3:	f3 0f 58 88 00 00 00 	addss  xmm1,DWORD PTR [rax+0x0]
    39aa:	00 
    39ab:	f3 0f 11 88 00 00 00 	movss  DWORD PTR [rax+0x0],xmm1
    39b2:	00 
    39b3:	f3 0f 59 80 00 00 00 	mulss  xmm0,DWORD PTR [rax+0x0]
    39ba:	00 
    39bb:	f3 0f 11 80 00 00 00 	movss  DWORD PTR [rax+0x0],xmm0
    39c2:	00 
    39c3:	f3 0f 10 80 00 00 00 	movss  xmm0,DWORD PTR [rax+0x0]
    39ca:	00 
    39cb:	f3 0f 10 88 00 00 00 	movss  xmm1,DWORD PTR [rax+0x0]
    39d2:	00 
    39d3:	f3 0f 59 c8          	mulss  xmm1,xmm0
    39d7:	f3 0f 58 88 00 00 00 	addss  xmm1,DWORD PTR [rax+0x0]
    39de:	00 
    39df:	f3 0f 59 80 00 00 00 	mulss  xmm0,DWORD PTR [rax+0x0]
    39e6:	00 
    39e7:	f3 0f 11 88 00 00 00 	movss  DWORD PTR [rax+0x0],xmm1
    39ee:	00 
    39ef:	f3 0f 11 80 00 00 00 	movss  DWORD PTR [rax+0x0],xmm0
    39f6:	00 
    39f7:	f3 0f 10 80 00 00 00 	movss  xmm0,DWORD PTR [rax+0x0]
    39fe:	00 
    39ff:	f3 0f 10 88 00 00 00 	movss  xmm1,DWORD PTR [rax+0x0]
    3a06:	00 
    3a07:	f3 0f 59 c8          	mulss  xmm1,xmm0
    3a0b:	f3 0f 58 88 00 00 00 	addss  xmm1,DWORD PTR [rax+0x0]
    3a12:	00 
    3a13:	f3 0f 11 88 00 00 00 	movss  DWORD PTR [rax+0x0],xmm1
    3a1a:	00 
    3a1b:	f3 0f 59 80 00 00 00 	mulss  xmm0,DWORD PTR [rax+0x0]
    3a22:	00 
    3a23:	f3 0f 11 80 00 00 00 	movss  DWORD PTR [rax+0x0],xmm0
    3a2a:	00 
    3a2b:	f3 0f 10 80 00 00 00 	movss  xmm0,DWORD PTR [rax+0x0]
    3a32:	00 
    3a33:	f3 0f 10 88 00 00 00 	movss  xmm1,DWORD PTR [rax+0x0]
    3a3a:	00 
    3a3b:	f3 0f 59 c8          	mulss  xmm1,xmm0
    3a3f:	f3 0f 58 88 00 00 00 	addss  xmm1,DWORD PTR [rax+0x0]
    3a46:	00 
    3a47:	f3 0f 11 88 00 00 00 	movss  DWORD PTR [rax+0x0],xmm1
    3a4e:	00 
    3a4f:	f3 0f 59 80 00 00 00 	mulss  xmm0,DWORD PTR [rax+0x0]
    3a56:	00 
    3a57:	f3 0f 11 80 00 00 00 	movss  DWORD PTR [rax+0x0],xmm0
    3a5e:	00 
    3a5f:	f3 0f 10 80 00 00 00 	movss  xmm0,DWORD PTR [rax+0x0]
    3a66:	00 
    3a67:	f3 0f 10 88 00 00 00 	movss  xmm1,DWORD PTR [rax+0x0]
    3a6e:	00 
    3a6f:	f3 0f 59 c8          	mulss  xmm1,xmm0
    3a73:	f3 0f 58 88 00 00 00 	addss  xmm1,DWORD PTR [rax+0x0]
    3a7a:	00 
    3a7b:	f3 0f 11 88 00 00 00 	movss  DWORD PTR [rax+0x0],xmm1
    3a82:	00 
    3a83:	48 85 c0             	test   rax,rax
    3a86:	74 3d                	je     3ac5 <s212+0x1da>
    3a88:	f3 0f 59 80 00 00 00 	mulss  xmm0,DWORD PTR [rax+0x0]
    3a8f:	00 
    3a90:	f3 0f 11 80 00 00 00 	movss  DWORD PTR [rax+0x0],xmm0
    3a97:	00 
    3a98:	f3 0f 10 80 00 00 00 	movss  xmm0,DWORD PTR [rax+0x0]
    3a9f:	00 
    3aa0:	f3 0f 10 88 00 00 00 	movss  xmm1,DWORD PTR [rax+0x0]
    3aa7:	00 
    3aa8:	f3 0f 59 c8          	mulss  xmm1,xmm0
    3aac:	f3 0f 58 88 00 00 00 	addss  xmm1,DWORD PTR [rax+0x0]
    3ab3:	00 
    3ab4:	f3 0f 11 88 00 00 00 	movss  DWORD PTR [rax+0x0],xmm1
    3abb:	00 
    3abc:	48 83 c0 20          	add    rax,0x20
    3ac0:	e9 52 fe ff ff       	jmp    3917 <s212+0x2c>
    3ac5:	bf 00 00 00 00       	mov    edi,0x0
    3aca:	be 00 00 00 00       	mov    esi,0x0
    3acf:	ba 00 00 00 00       	mov    edx,0x0
    3ad4:	b9 00 00 00 00       	mov    ecx,0x0
    3ad9:	41 b8 00 00 00 00    	mov    r8d,0x0
    3adf:	41 b9 00 00 00 00    	mov    r9d,0x0
    3ae5:	0f 57 c0             	xorps  xmm0,xmm0
    3ae8:	68 00 00 00 00       	push   0x0
    3aed:	68 00 00 00 00       	push   0x0
    3af2:	e8 00 00 00 00       	call   3af7 <s212+0x20c>
    3af7:	48 83 c4 10          	add    rsp,0x10
    3afb:	ff c3                	inc    ebx
    3afd:	81 fb a0 86 01 00    	cmp    ebx,0x186a0
    3b03:	0f 85 ff fd ff ff    	jne    3908 <s212+0x1d>
    3b09:	49 83 c6 10          	add    r14,0x10
    3b0d:	4c 89 f7             	mov    rdi,r14
    3b10:	31 f6                	xor    esi,esi
    3b12:	e8 00 00 00 00       	call   3b17 <s212+0x22c>
    3b17:	bf 00 00 00 00       	mov    edi,0x0
    3b1c:	48 83 c4 08          	add    rsp,0x8
    3b20:	5b                   	pop    rbx
    3b21:	41 5e                	pop    r14
    3b23:	e9 00 00 00 00       	jmp    3b28 <s1213>

0000000000003b28 <s1213>:
    3b28:	41 56                	push   r14
    3b2a:	53                   	push   rbx
    3b2b:	50                   	push   rax
    3b2c:	49 89 fe             	mov    r14,rdi
    3b2f:	bf 00 00 00 00       	mov    edi,0x0
    3b34:	e8 00 00 00 00       	call   3b39 <s1213+0x11>
    3b39:	31 db                	xor    ebx,ebx
    3b3b:	4c 89 f7             	mov    rdi,r14
    3b3e:	31 f6                	xor    esi,esi
    3b40:	e8 00 00 00 00       	call   3b45 <s1213+0x1d>
    3b45:	f3 0f 10 05 00 00 00 	movss  xmm0,DWORD PTR [rip+0x0]        # 3b4d <s1213+0x25>
    3b4c:	00 
    3b4d:	31 c0                	xor    eax,eax
    3b4f:	f3 0f 58 80 00 00 00 	addss  xmm0,DWORD PTR [rax+0x0]
    3b56:	00 
    3b57:	f3 0f 11 80 00 00 00 	movss  DWORD PTR [rax+0x0],xmm0
    3b5e:	00 
    3b5f:	f3 0f 10 80 00 00 00 	movss  xmm0,DWORD PTR [rax+0x0]
    3b66:	00 
    3b67:	f3 0f 59 80 00 00 00 	mulss  xmm0,DWORD PTR [rax+0x0]
    3b6e:	00 
    3b6f:	f3 0f 11 80 00 00 00 	movss  DWORD PTR [rax+0x0],xmm0
    3b76:	00 
    3b77:	f3 0f 58 80 00 00 00 	addss  xmm0,DWORD PTR [rax+0x0]
    3b7e:	00 
    3b7f:	f3 0f 11 80 00 00 00 	movss  DWORD PTR [rax+0x0],xmm0
    3b86:	00 
    3b87:	f3 0f 10 80 00 00 00 	movss  xmm0,DWORD PTR [rax+0x0]
    3b8e:	00 
    3b8f:	f3 0f 59 80 00 00 00 	mulss  xmm0,DWORD PTR [rax+0x0]
    3b96:	00 
    3b97:	f3 0f 11 80 00 00 00 	movss  DWORD PTR [rax+0x0],xmm0
    3b9e:	00 
    3b9f:	f3 0f 58 80 00 00 00 	addss  xmm0,DWORD PTR [rax+0x0]
    3ba6:	00 
    3ba7:	f3 0f 11 80 00 00 00 	movss  DWORD PTR [rax+0x0],xmm0
    3bae:	00 
    3baf:	f3 0f 10 80 00 00 00 	movss  xmm0,DWORD PTR [rax+0x0]
    3bb6:	00 
    3bb7:	f3 0f 59 80 00 00 00 	mulss  xmm0,DWORD PTR [rax+0x0]
    3bbe:	00 
    3bbf:	f3 0f 11 80 00 00 00 	movss  DWORD PTR [rax+0x0],xmm0
    3bc6:	00 
    3bc7:	f3 0f 58 80 00 00 00 	addss  xmm0,DWORD PTR [rax+0x0]
    3bce:	00 
    3bcf:	f3 0f 11 80 00 00 00 	movss  DWORD PTR [rax+0x0],xmm0
    3bd6:	00 
    3bd7:	f3 0f 10 80 00 00 00 	movss  xmm0,DWORD PTR [rax+0x0]
    3bde:	00 
    3bdf:	f3 0f 59 80 00 00 00 	mulss  xmm0,DWORD PTR [rax+0x0]
    3be6:	00 
    3be7:	f3 0f 11 80 00 00 00 	movss  DWORD PTR [rax+0x0],xmm0
    3bee:	00 
    3bef:	f3 0f 58 80 00 00 00 	addss  xmm0,DWORD PTR [rax+0x0]
    3bf6:	00 
    3bf7:	f3 0f 11 80 00 00 00 	movss  DWORD PTR [rax+0x0],xmm0
    3bfe:	00 
    3bff:	f3 0f 10 80 00 00 00 	movss  xmm0,DWORD PTR [rax+0x0]
    3c06:	00 
    3c07:	f3 0f 59 80 00 00 00 	mulss  xmm0,DWORD PTR [rax+0x0]
    3c0e:	00 
    3c0f:	f3 0f 11 80 00 00 00 	movss  DWORD PTR [rax+0x0],xmm0
    3c16:	00 
    3c17:	f3 0f 58 80 00 00 00 	addss  xmm0,DWORD PTR [rax+0x0]
    3c1e:	00 
    3c1f:	f3 0f 11 80 00 00 00 	movss  DWORD PTR [rax+0x0],xmm0
    3c26:	00 
    3c27:	f3 0f 10 80 00 00 00 	movss  xmm0,DWORD PTR [rax+0x0]
    3c2e:	00 
    3c2f:	f3 0f 59 80 00 00 00 	mulss  xmm0,DWORD PTR [rax+0x0]
    3c36:	00 
    3c37:	f3 0f 11 80 00 00 00 	movss  DWORD PTR [rax+0x0],xmm0
    3c3e:	00 
    3c3f:	48 3d e0 f3 01 00    	cmp    rax,0x1f3e0
    3c45:	74 59                	je     3ca0 <s1213+0x178>
    3c47:	f3 0f 58 80 00 00 00 	addss  xmm0,DWORD PTR [rax+0x0]
    3c4e:	00 
    3c4f:	f3 0f 11 80 00 00 00 	movss  DWORD PTR [rax+0x0],xmm0
    3c56:	00 
    3c57:	f3 0f 10 80 00 00 00 	movss  xmm0,DWORD PTR [rax+0x0]
    3c5e:	00 
    3c5f:	f3 0f 59 80 00 00 00 	mulss  xmm0,DWORD PTR [rax+0x0]
    3c66:	00 
    3c67:	f3 0f 11 80 00 00 00 	movss  DWORD PTR [rax+0x0],xmm0
    3c6e:	00 
    3c6f:	f3 0f 58 80 00 00 00 	addss  xmm0,DWORD PTR [rax+0x0]
    3c76:	00 
    3c77:	f3 0f 11 80 00 00 00 	movss  DWORD PTR [rax+0x0],xmm0
    3c7e:	00 
    3c7f:	f3 0f 10 80 00 00 00 	movss  xmm0,DWORD PTR [rax+0x0]
    3c86:	00 
    3c87:	f3 0f 59 80 00 00 00 	mulss  xmm0,DWORD PTR [rax+0x0]
    3c8e:	00 
    3c8f:	f3 0f 11 80 00 00 00 	movss  DWORD PTR [rax+0x0],xmm0
    3c96:	00 
    3c97:	48 83 c0 20          	add    rax,0x20
    3c9b:	e9 af fe ff ff       	jmp    3b4f <s1213+0x27>
    3ca0:	bf 00 00 00 00       	mov    edi,0x0
    3ca5:	be 00 00 00 00       	mov    esi,0x0
    3caa:	ba 00 00 00 00       	mov    edx,0x0
    3caf:	b9 00 00 00 00       	mov    ecx,0x0
    3cb4:	41 b8 00 00 00 00    	mov    r8d,0x0
    3cba:	41 b9 00 00 00 00    	mov    r9d,0x0
    3cc0:	0f 57 c0             	xorps  xmm0,xmm0
    3cc3:	68 00 00 00 00       	push   0x0
    3cc8:	68 00 00 00 00       	push   0x0
    3ccd:	e8 00 00 00 00       	call   3cd2 <s1213+0x1aa>
    3cd2:	48 83 c4 10          	add    rsp,0x10
    3cd6:	ff c3                	inc    ebx
    3cd8:	81 fb a0 86 01 00    	cmp    ebx,0x186a0
    3cde:	0f 85 61 fe ff ff    	jne    3b45 <s1213+0x1d>
    3ce4:	49 83 c6 10          	add    r14,0x10
    3ce8:	4c 89 f7             	mov    rdi,r14
    3ceb:	31 f6                	xor    esi,esi
    3ced:	e8 00 00 00 00       	call   3cf2 <s1213+0x1ca>
    3cf2:	bf 00 00 00 00       	mov    edi,0x0
    3cf7:	48 83 c4 08          	add    rsp,0x8
    3cfb:	5b                   	pop    rbx
    3cfc:	41 5e                	pop    r14
    3cfe:	e9 00 00 00 00       	jmp    3d03 <s221>

0000000000003d03 <s221>:
    3d03:	41 56                	push   r14
    3d05:	53                   	push   rbx
    3d06:	50                   	push   rax
    3d07:	49 89 fe             	mov    r14,rdi
    3d0a:	bf 00 00 00 00       	mov    edi,0x0
    3d0f:	e8 00 00 00 00       	call   3d14 <s221+0x11>
    3d14:	31 db                	xor    ebx,ebx
    3d16:	4c 89 f7             	mov    rdi,r14
    3d19:	31 f6                	xor    esi,esi
    3d1b:	e8 00 00 00 00       	call   3d20 <s221+0x1d>
    3d20:	48 c7 c0 20 0c fe ff 	mov    rax,0xfffffffffffe0c20
    3d27:	f3 0f 10 05 00 00 00 	movss  xmm0,DWORD PTR [rip+0x0]        # 3d2f <s221+0x2c>
    3d2e:	00 
    3d2f:	f3 0f 10 88 00 00 00 	movss  xmm1,DWORD PTR [rax+0x0]
    3d36:	00 
    3d37:	f3 0f 10 90 00 00 00 	movss  xmm2,DWORD PTR [rax+0x0]
    3d3e:	00 
    3d3f:	f3 0f 59 d1          	mulss  xmm2,xmm1
    3d43:	f3 0f 58 90 00 00 00 	addss  xmm2,DWORD PTR [rax+0x0]
    3d4a:	00 
    3d4b:	f3 0f 11 90 00 00 00 	movss  DWORD PTR [rax+0x0],xmm2
    3d52:	00 
    3d53:	f3 0f 58 d0          	addss  xmm2,xmm0
    3d57:	f3 0f 58 d1          	addss  xmm2,xmm1
    3d5b:	f3 0f 11 90 00 00 00 	movss  DWORD PTR [rax+0x0],xmm2
    3d62:	00 
    3d63:	f3 0f 10 80 00 00 00 	movss  xmm0,DWORD PTR [rax+0x0]
    3d6a:	00 
    3d6b:	f3 0f 10 88 00 00 00 	movss  xmm1,DWORD PTR [rax+0x0]
    3d72:	00 
    3d73:	f3 0f 59 c8          	mulss  xmm1,xmm0
    3d77:	f3 0f 58 88 00 00 00 	addss  xmm1,DWORD PTR [rax+0x0]
    3d7e:	00 
    3d7f:	f3 0f 11 88 00 00 00 	movss  DWORD PTR [rax+0x0],xmm1
    3d86:	00 
    3d87:	f3 0f 58 ca          	addss  xmm1,xmm2
    3d8b:	f3 0f 58 c8          	addss  xmm1,xmm0
    3d8f:	f3 0f 11 88 00 00 00 	movss  DWORD PTR [rax+0x0],xmm1
    3d96:	00 
    3d97:	f3 0f 10 80 00 00 00 	movss  xmm0,DWORD PTR [rax+0x0]
    3d9e:	00 
    3d9f:	f3 0f 10 90 00 00 00 	movss  xmm2,DWORD PTR [rax+0x0]
    3da6:	00 
    3da7:	f3 0f 59 d0          	mulss  xmm2,xmm0
    3dab:	f3 0f 58 90 00 00 00 	addss  xmm2,DWORD PTR [rax+0x0]
    3db2:	00 
    3db3:	f3 0f 11 90 00 00 00 	movss  DWORD PTR [rax+0x0],xmm2
    3dba:	00 
    3dbb:	f3 0f 58 d1          	addss  xmm2,xmm1
    3dbf:	f3 0f 58 d0          	addss  xmm2,xmm0
    3dc3:	f3 0f 11 90 00 00 00 	movss  DWORD PTR [rax+0x0],xmm2
    3dca:	00 
    3dcb:	f3 0f 10 80 00 00 00 	movss  xmm0,DWORD PTR [rax+0x0]
    3dd2:	00 
    3dd3:	f3 0f 10 88 00 00 00 	movss  xmm1,DWORD PTR [rax+0x0]
    3dda:	00 
    3ddb:	f3 0f 59 c8          	mulss  xmm1,xmm0
    3ddf:	f3 0f 58 88 00 00 00 	addss  xmm1,DWORD PTR [rax+0x0]
    3de6:	00 
    3de7:	f3 0f 11 88 00 00 00 	movss  DWORD PTR [rax+0x0],xmm1
    3dee:	00 
    3def:	f3 0f 58 ca          	addss  xmm1,xmm2
    3df3:	f3 0f 58 c8          	addss  xmm1,xmm0
    3df7:	f3 0f 10 80 00 00 00 	movss  xmm0,DWORD PTR [rax+0x0]
    3dfe:	00 
    3dff:	f3 0f 10 90 00 00 00 	movss  xmm2,DWORD PTR [rax+0x0]
    3e06:	00 
    3e07:	f3 0f 59 d0          	mulss  xmm2,xmm0
    3e0b:	f3 0f 58 90 00 00 00 	addss  xmm2,DWORD PTR [rax+0x0]
    3e12:	00 
    3e13:	f3 0f 11 88 00 00 00 	movss  DWORD PTR [rax+0x0],xmm1
    3e1a:	00 
    3e1b:	f3 0f 11 90 00 00 00 	movss  DWORD PTR [rax+0x0],xmm2
    3e22:	00 
    3e23:	f3 0f 58 d1          	addss  xmm2,xmm1
    3e27:	f3 0f 58 d0          	addss  xmm2,xmm0
    3e2b:	f3 0f 11 90 00 00 00 	movss  DWORD PTR [rax+0x0],xmm2
    3e32:	00 
    3e33:	f3 0f 10 80 00 00 00 	movss  xmm0,DWORD PTR [rax+0x0]
    3e3a:	00 
    3e3b:	f3 0f 10 88 00 00 00 	movss  xmm1,DWORD PTR [rax+0x0]
    3e42:	00 
    3e43:	f3 0f 59 c8          	mulss  xmm1,xmm0
    3e47:	f3 0f 58 88 00 00 00 	addss  xmm1,DWORD PTR [rax+0x0]
    3e4e:	00 
    3e4f:	f3 0f 11 88 00 00 00 	movss  DWORD PTR [rax+0x0],xmm1
    3e56:	00 
    3e57:	f3 0f 58 ca          	addss  xmm1,xmm2
    3e5b:	f3 0f 58 c8          	addss  xmm1,xmm0
    3e5f:	f3 0f 11 88 00 00 00 	movss  DWORD PTR [rax+0x0],xmm1
    3e66:	00 
    3e67:	f3 0f 10 90 00 00 00 	movss  xmm2,DWORD PTR [rax+0x0]
    3e6e:	00 
    3e6f:	f3 0f 10 80 00 00 00 	movss  xmm0,DWORD PTR [rax+0x0]
    3e76:	00 
    3e77:	f3 0f 59 c2          	mulss  xmm0,xmm2
    3e7b:	f3 0f 58 80 00 00 00 	addss  xmm0,DWORD PTR [rax+0x0]
    3e82:	00 
    3e83:	f3 0f 11 80 00 00 00 	movss  DWORD PTR [rax+0x0],xmm0
    3e8a:	00 
    3e8b:	f3 0f 58 c1          	addss  xmm0,xmm1
    3e8f:	f3 0f 58 c2          	addss  xmm0,xmm2
    3e93:	f3 0f 11 80 00 00 00 	movss  DWORD PTR [rax+0x0],xmm0
    3e9a:	00 
    3e9b:	48 85 c0             	test   rax,rax
    3e9e:	74 3d                	je     3edd <s221+0x1da>
    3ea0:	f3 0f 10 88 00 00 00 	movss  xmm1,DWORD PTR [rax+0x0]
    3ea7:	00 
    3ea8:	f3 0f 10 90 00 00 00 	movss  xmm2,DWORD PTR [rax+0x0]
    3eaf:	00 
    3eb0:	f3 0f 59 d1          	mulss  xmm2,xmm1
    3eb4:	f3 0f 58 90 00 00 00 	addss  xmm2,DWORD PTR [rax+0x0]
    3ebb:	00 
    3ebc:	f3 0f 11 90 00 00 00 	movss  DWORD PTR [rax+0x0],xmm2
    3ec3:	00 
    3ec4:	f3 0f 58 c2          	addss  xmm0,xmm2
    3ec8:	f3 0f 58 c1          	addss  xmm0,xmm1
    3ecc:	f3 0f 11 80 00 00 00 	movss  DWORD PTR [rax+0x0],xmm0
    3ed3:	00 
    3ed4:	48 83 c0 20          	add    rax,0x20
    3ed8:	e9 52 fe ff ff       	jmp    3d2f <s221+0x2c>
    3edd:	bf 00 00 00 00       	mov    edi,0x0
    3ee2:	be 00 00 00 00       	mov    esi,0x0
    3ee7:	ba 00 00 00 00       	mov    edx,0x0
    3eec:	b9 00 00 00 00       	mov    ecx,0x0
    3ef1:	41 b8 00 00 00 00    	mov    r8d,0x0
    3ef7:	41 b9 00 00 00 00    	mov    r9d,0x0
    3efd:	0f 57 c0             	xorps  xmm0,xmm0
    3f00:	68 00 00 00 00       	push   0x0
    3f05:	68 00 00 00 00       	push   0x0
    3f0a:	e8 00 00 00 00       	call   3f0f <s221+0x20c>
    3f0f:	48 83 c4 10          	add    rsp,0x10
    3f13:	ff c3                	inc    ebx
    3f15:	81 fb 50 c3 00 00    	cmp    ebx,0xc350
    3f1b:	0f 85 ff fd ff ff    	jne    3d20 <s221+0x1d>
    3f21:	49 83 c6 10          	add    r14,0x10
    3f25:	4c 89 f7             	mov    rdi,r14
    3f28:	31 f6                	xor    esi,esi
    3f2a:	e8 00 00 00 00       	call   3f2f <s221+0x22c>
    3f2f:	bf 00 00 00 00       	mov    edi,0x0
    3f34:	48 83 c4 08          	add    rsp,0x8
    3f38:	5b                   	pop    rbx
    3f39:	41 5e                	pop    r14
    3f3b:	e9 00 00 00 00       	jmp    3f40 <s1221>

0000000000003f40 <s1221>:
    3f40:	41 56                	push   r14
    3f42:	53                   	push   rbx
    3f43:	50                   	push   rax
    3f44:	49 89 fe             	mov    r14,rdi
    3f47:	bf 00 00 00 00       	mov    edi,0x0
    3f4c:	e8 00 00 00 00       	call   3f51 <s1221+0x11>
    3f51:	31 db                	xor    ebx,ebx
    3f53:	4c 89 f7             	mov    rdi,r14
    3f56:	31 f6                	xor    esi,esi
    3f58:	e8 00 00 00 00       	call   3f5d <s1221+0x1d>
    3f5d:	f3 0f 10 05 00 00 00 	movss  xmm0,DWORD PTR [rip+0x0]        # 3f65 <s1221+0x25>
    3f64:	00 
    3f65:	f3 0f 10 0d 00 00 00 	movss  xmm1,DWORD PTR [rip+0x0]        # 3f6d <s1221+0x2d>
    3f6c:	00 
    3f6d:	f3 0f 10 15 00 00 00 	movss  xmm2,DWORD PTR [rip+0x0]        # 3f75 <s1221+0x35>
    3f74:	00 
    3f75:	48 c7 c0 20 0c fe ff 	mov    rax,0xfffffffffffe0c20
    3f7c:	f3 0f 10 1d 00 00 00 	movss  xmm3,DWORD PTR [rip+0x0]        # 3f84 <s1221+0x44>
    3f83:	00 
    3f84:	f3 0f 58 80 00 00 00 	addss  xmm0,DWORD PTR [rax+0x0]
    3f8b:	00 
    3f8c:	f3 0f 11 80 00 00 00 	movss  DWORD PTR [rax+0x0],xmm0
    3f93:	00 
    3f94:	f3 0f 58 88 00 00 00 	addss  xmm1,DWORD PTR [rax+0x0]
    3f9b:	00 
    3f9c:	f3 0f 11 88 00 00 00 	movss  DWORD PTR [rax+0x0],xmm1
    3fa3:	00 
    3fa4:	f3 0f 58 90 00 00 00 	addss  xmm2,DWORD PTR [rax+0x0]
    3fab:	00 
    3fac:	f3 0f 11 90 00 00 00 	movss  DWORD PTR [rax+0x0],xmm2
    3fb3:	00 
    3fb4:	f3 0f 58 98 00 00 00 	addss  xmm3,DWORD PTR [rax+0x0]
    3fbb:	00 
    3fbc:	f3 0f 11 98 00 00 00 	movss  DWORD PTR [rax+0x0],xmm3
    3fc3:	00 
    3fc4:	48 85 c0             	test   rax,rax
    3fc7:	74 49                	je     4012 <s1221+0xd2>
    3fc9:	f3 0f 58 80 00 00 00 	addss  xmm0,DWORD PTR [rax+0x0]
    3fd0:	00 
    3fd1:	f3 0f 11 80 00 00 00 	movss  DWORD PTR [rax+0x0],xmm0
    3fd8:	00 
    3fd9:	f3 0f 58 88 00 00 00 	addss  xmm1,DWORD PTR [rax+0x0]
    3fe0:	00 
    3fe1:	f3 0f 11 88 00 00 00 	movss  DWORD PTR [rax+0x0],xmm1
    3fe8:	00 
    3fe9:	f3 0f 58 90 00 00 00 	addss  xmm2,DWORD PTR [rax+0x0]
    3ff0:	00 
    3ff1:	f3 0f 11 90 00 00 00 	movss  DWORD PTR [rax+0x0],xmm2
    3ff8:	00 
    3ff9:	f3 0f 58 98 00 00 00 	addss  xmm3,DWORD PTR [rax+0x0]
    4000:	00 
    4001:	f3 0f 11 98 00 00 00 	movss  DWORD PTR [rax+0x0],xmm3
    4008:	00 
    4009:	48 83 c0 20          	add    rax,0x20
    400d:	e9 72 ff ff ff       	jmp    3f84 <s1221+0x44>
    4012:	bf 00 00 00 00       	mov    edi,0x0
    4017:	be 00 00 00 00       	mov    esi,0x0
    401c:	ba 00 00 00 00       	mov    edx,0x0
    4021:	b9 00 00 00 00       	mov    ecx,0x0
    4026:	41 b8 00 00 00 00    	mov    r8d,0x0
    402c:	41 b9 00 00 00 00    	mov    r9d,0x0
    4032:	0f 57 c0             	xorps  xmm0,xmm0
    4035:	68 00 00 00 00       	push   0x0
    403a:	68 00 00 00 00       	push   0x0
    403f:	e8 00 00 00 00       	call   4044 <s1221+0x104>
    4044:	48 83 c4 10          	add    rsp,0x10
    4048:	ff c3                	inc    ebx
    404a:	81 fb a0 86 01 00    	cmp    ebx,0x186a0
    4050:	0f 85 07 ff ff ff    	jne    3f5d <s1221+0x1d>
    4056:	49 83 c6 10          	add    r14,0x10
    405a:	4c 89 f7             	mov    rdi,r14
    405d:	31 f6                	xor    esi,esi
    405f:	e8 00 00 00 00       	call   4064 <s1221+0x124>
    4064:	bf 00 00 00 00       	mov    edi,0x0
    4069:	48 83 c4 08          	add    rsp,0x8
    406d:	5b                   	pop    rbx
    406e:	41 5e                	pop    r14
    4070:	e9 00 00 00 00       	jmp    4075 <s222>

0000000000004075 <s222>:
    4075:	41 56                	push   r14
    4077:	53                   	push   rbx
    4078:	50                   	push   rax
    4079:	49 89 fe             	mov    r14,rdi
    407c:	bf 00 00 00 00       	mov    edi,0x0
    4081:	e8 00 00 00 00       	call   4086 <s222+0x11>
    4086:	31 db                	xor    ebx,ebx
    4088:	4c 89 f7             	mov    rdi,r14
    408b:	31 f6                	xor    esi,esi
    408d:	e8 00 00 00 00       	call   4092 <s222+0x1d>
    4092:	48 c7 c0 20 0c fe ff 	mov    rax,0xfffffffffffe0c20
    4099:	f3 0f 10 05 00 00 00 	movss  xmm0,DWORD PTR [rip+0x0]        # 40a1 <s222+0x2c>
    40a0:	00 
    40a1:	f3 0f 10 88 00 00 00 	movss  xmm1,DWORD PTR [rax+0x0]
    40a8:	00 
    40a9:	f3 0f 59 88 00 00 00 	mulss  xmm1,DWORD PTR [rax+0x0]
    40b0:	00 
    40b1:	f3 0f 10 90 00 00 00 	movss  xmm2,DWORD PTR [rax+0x0]
    40b8:	00 
    40b9:	f3 0f 58 d1          	addss  xmm2,xmm1
    40bd:	f3 0f 59 c0          	mulss  xmm0,xmm0
    40c1:	f3 0f 11 80 00 00 00 	movss  DWORD PTR [rax+0x0],xmm0
    40c8:	00 
    40c9:	f3 0f 5c d1          	subss  xmm2,xmm1
    40cd:	f3 0f 11 90 00 00 00 	movss  DWORD PTR [rax+0x0],xmm2
    40d4:	00 
    40d5:	f3 0f 10 88 00 00 00 	movss  xmm1,DWORD PTR [rax+0x0]
    40dc:	00 
    40dd:	f3 0f 59 88 00 00 00 	mulss  xmm1,DWORD PTR [rax+0x0]
    40e4:	00 
    40e5:	f3 0f 10 90 00 00 00 	movss  xmm2,DWORD PTR [rax+0x0]
    40ec:	00 
    40ed:	f3 0f 58 d1          	addss  xmm2,xmm1
    40f1:	f3 0f 59 c0          	mulss  xmm0,xmm0
    40f5:	f3 0f 11 80 00 00 00 	movss  DWORD PTR [rax+0x0],xmm0
    40fc:	00 
    40fd:	f3 0f 5c d1          	subss  xmm2,xmm1
    4101:	f3 0f 10 88 00 00 00 	movss  xmm1,DWORD PTR [rax+0x0]
    4108:	00 
    4109:	f3 0f 59 88 00 00 00 	mulss  xmm1,DWORD PTR [rax+0x0]
    4110:	00 
    4111:	f3 0f 11 90 00 00 00 	movss  DWORD PTR [rax+0x0],xmm2
    4118:	00 
    4119:	f3 0f 10 90 00 00 00 	movss  xmm2,DWORD PTR [rax+0x0]
    4120:	00 
    4121:	f3 0f 58 d1          	addss  xmm2,xmm1
    4125:	f3 0f 59 c0          	mulss  xmm0,xmm0
    4129:	f3 0f 11 80 00 00 00 	movss  DWORD PTR [rax+0x0],xmm0
    4130:	00 
    4131:	f3 0f 5c d1          	subss  xmm2,xmm1
    4135:	f3 0f 11 90 00 00 00 	movss  DWORD PTR [rax+0x0],xmm2
    413c:	00 
    413d:	f3 0f 10 88 00 00 00 	movss  xmm1,DWORD PTR [rax+0x0]
    4144:	00 
    4145:	f3 0f 59 88 00 00 00 	mulss  xmm1,DWORD PTR [rax+0x0]
    414c:	00 
    414d:	f3 0f 10 90 00 00 00 	movss  xmm2,DWORD PTR [rax+0x0]
    4154:	00 
    4155:	f3 0f 58 d1          	addss  xmm2,xmm1
    4159:	f3 0f 59 c0          	mulss  xmm0,xmm0
    415d:	f3 0f 11 80 00 00 00 	movss  DWORD PTR [rax+0x0],xmm0
    4164:	00 
    4165:	f3 0f 5c d1          	subss  xmm2,xmm1
    4169:	f3 0f 11 90 00 00 00 	movss  DWORD PTR [rax+0x0],xmm2
    4170:	00 
    4171:	f3 0f 10 88 00 00 00 	movss  xmm1,DWORD PTR [rax+0x0]
    4178:	00 
    4179:	f3 0f 59 88 00 00 00 	mulss  xmm1,DWORD PTR [rax+0x0]
    4180:	00 
    4181:	f3 0f 10 90 00 00 00 	movss  xmm2,DWORD PTR [rax+0x0]
    4188:	00 
    4189:	f3 0f 58 d1          	addss  xmm2,xmm1
    418d:	f3 0f 59 c0          	mulss  xmm0,xmm0
    4191:	f3 0f 11 80 00 00 00 	movss  DWORD PTR [rax+0x0],xmm0
    4198:	00 
    4199:	f3 0f 5c d1          	subss  xmm2,xmm1
    419d:	f3 0f 11 90 00 00 00 	movss  DWORD PTR [rax+0x0],xmm2
    41a4:	00 
    41a5:	f3 0f 10 88 00 00 00 	movss  xmm1,DWORD PTR [rax+0x0]
    41ac:	00 
    41ad:	f3 0f 59 88 00 00 00 	mulss  xmm1,DWORD PTR [rax+0x0]
    41b4:	00 
    41b5:	f3 0f 10 90 00 00 00 	movss  xmm2,DWORD PTR [rax+0x0]
    41bc:	00 
    41bd:	f3 0f 58 d1          	addss  xmm2,xmm1
    41c1:	f3 0f 59 c0          	mulss  xmm0,xmm0
    41c5:	f3 0f 11 80 00 00 00 	movss  DWORD PTR [rax+0x0],xmm0
    41cc:	00 
    41cd:	f3 0f 5c d1          	subss  xmm2,xmm1
    41d1:	f3 0f 10 88 00 00 00 	movss  xmm1,DWORD PTR [rax+0x0]
    41d8:	00 
    41d9:	f3 0f 59 88 00 00 00 	mulss  xmm1,DWORD PTR [rax+0x0]
    41e0:	00 
    41e1:	f3 0f 11 90 00 00 00 	movss  DWORD PTR [rax+0x0],xmm2
    41e8:	00 
    41e9:	f3 0f 10 90 00 00 00 	movss  xmm2,DWORD PTR [rax+0x0]
    41f0:	00 
    41f1:	f3 0f 58 d1          	addss  xmm2,xmm1
    41f5:	f3 0f 59 c0          	mulss  xmm0,xmm0
    41f9:	f3 0f 11 80 00 00 00 	movss  DWORD PTR [rax+0x0],xmm0
    4200:	00 
    4201:	f3 0f 5c d1          	subss  xmm2,xmm1
    4205:	f3 0f 11 90 00 00 00 	movss  DWORD PTR [rax+0x0],xmm2
    420c:	00 
    420d:	48 85 c0             	test   rax,rax
    4210:	74 3d                	je     424f <s222+0x1da>
    4212:	f3 0f 10 88 00 00 00 	movss  xmm1,DWORD PTR [rax+0x0]
    4219:	00 
    421a:	f3 0f 59 88 00 00 00 	mulss  xmm1,DWORD PTR [rax+0x0]
    4221:	00 
    4222:	f3 0f 10 90 00 00 00 	movss  xmm2,DWORD PTR [rax+0x0]
    4229:	00 
    422a:	f3 0f 58 d1          	addss  xmm2,xmm1
    422e:	f3 0f 59 c0          	mulss  xmm0,xmm0
    4232:	f3 0f 11 80 00 00 00 	movss  DWORD PTR [rax+0x0],xmm0
    4239:	00 
    423a:	f3 0f 5c d1          	subss  xmm2,xmm1
    423e:	f3 0f 11 90 00 00 00 	movss  DWORD PTR [rax+0x0],xmm2
    4245:	00 
    4246:	48 83 c0 20          	add    rax,0x20
    424a:	e9 52 fe ff ff       	jmp    40a1 <s222+0x2c>
    424f:	bf 00 00 00 00       	mov    edi,0x0
    4254:	be 00 00 00 00       	mov    esi,0x0
    4259:	ba 00 00 00 00       	mov    edx,0x0
    425e:	b9 00 00 00 00       	mov    ecx,0x0
    4263:	41 b8 00 00 00 00    	mov    r8d,0x0
    4269:	41 b9 00 00 00 00    	mov    r9d,0x0
    426f:	0f 57 c0             	xorps  xmm0,xmm0
    4272:	68 00 00 00 00       	push   0x0
    4277:	68 00 00 00 00       	push   0x0
    427c:	e8 00 00 00 00       	call   4281 <s222+0x20c>
    4281:	48 83 c4 10          	add    rsp,0x10
    4285:	ff c3                	inc    ebx
    4287:	81 fb 50 c3 00 00    	cmp    ebx,0xc350
    428d:	0f 85 ff fd ff ff    	jne    4092 <s222+0x1d>
    4293:	49 83 c6 10          	add    r14,0x10
    4297:	4c 89 f7             	mov    rdi,r14
    429a:	31 f6                	xor    esi,esi
    429c:	e8 00 00 00 00       	call   42a1 <s222+0x22c>
    42a1:	bf 00 00 00 00       	mov    edi,0x0
    42a6:	48 83 c4 08          	add    rsp,0x8
    42aa:	5b                   	pop    rbx
    42ab:	41 5e                	pop    r14
    42ad:	e9 00 00 00 00       	jmp    42b2 <s231>

00000000000042b2 <s231>:
    42b2:	41 56                	push   r14
    42b4:	53                   	push   rbx
    42b5:	50                   	push   rax
    42b6:	49 89 fe             	mov    r14,rdi
    42b9:	bf 00 00 00 00       	mov    edi,0x0
    42be:	e8 00 00 00 00       	call   42c3 <s231+0x11>
    42c3:	31 db                	xor    ebx,ebx
    42c5:	4c 89 f7             	mov    rdi,r14
    42c8:	31 f6                	xor    esi,esi
    42ca:	e8 00 00 00 00       	call   42cf <s231+0x1d>
    42cf:	b8 00 20 00 00       	mov    eax,0x2000
    42d4:	31 c9                	xor    ecx,ecx
    42d6:	f3 0f 10 04 8d 00 00 	movss  xmm0,DWORD PTR [rcx*4+0x0]
    42dd:	00 00 
    42df:	48 c7 c2 00 20 fc ff 	mov    rdx,0xfffffffffffc2000
    42e6:	f3 0f 58 84 10 00 00 	addss  xmm0,DWORD PTR [rax+rdx*1+0x0]
    42ed:	00 00 
    42ef:	f3 0f 11 84 10 00 00 	movss  DWORD PTR [rax+rdx*1+0x0],xmm0
    42f6:	00 00 
    42f8:	f3 0f 58 84 10 00 00 	addss  xmm0,DWORD PTR [rax+rdx*1+0x0]
    42ff:	00 00 
    4301:	f3 0f 11 84 10 00 00 	movss  DWORD PTR [rax+rdx*1+0x0],xmm0
    4308:	00 00 
    430a:	f3 0f 58 84 10 00 00 	addss  xmm0,DWORD PTR [rax+rdx*1+0x0]
    4311:	00 00 
    4313:	f3 0f 11 84 10 00 00 	movss  DWORD PTR [rax+rdx*1+0x0],xmm0
    431a:	00 00 
    431c:	f3 0f 58 84 10 00 00 	addss  xmm0,DWORD PTR [rax+rdx*1+0x0]
    4323:	00 00 
    4325:	f3 0f 11 84 10 00 00 	movss  DWORD PTR [rax+rdx*1+0x0],xmm0
    432c:	00 00 
    432e:	f3 0f 58 84 10 00 00 	addss  xmm0,DWORD PTR [rax+rdx*1+0x0]
    4335:	00 00 
    4337:	f3 0f 11 84 10 00 00 	movss  DWORD PTR [rax+rdx*1+0x0],xmm0
    433e:	00 00 
    4340:	f3 0f 58 84 10 00 00 	addss  xmm0,DWORD PTR [rax+rdx*1+0x0]
    4347:	00 00 
    4349:	f3 0f 11 84 10 00 00 	movss  DWORD PTR [rax+rdx*1+0x0],xmm0
    4350:	00 00 
    4352:	f3 0f 58 84 10 00 00 	addss  xmm0,DWORD PTR [rax+rdx*1+0x0]
    4359:	00 00 
    435b:	f3 0f 11 84 10 00 00 	movss  DWORD PTR [rax+rdx*1+0x0],xmm0
    4362:	00 00 
    4364:	48 85 d2             	test   rdx,rdx
    4367:	74 1e                	je     4387 <s231+0xd5>
    4369:	f3 0f 58 84 10 00 00 	addss  xmm0,DWORD PTR [rax+rdx*1+0x0]
    4370:	00 00 
    4372:	f3 0f 11 84 10 00 00 	movss  DWORD PTR [rax+rdx*1+0x0],xmm0
    4379:	00 00 
    437b:	48 81 c2 00 20 00 00 	add    rdx,0x2000
    4382:	e9 5f ff ff ff       	jmp    42e6 <s231+0x34>
    4387:	48 ff c1             	inc    rcx
    438a:	48 83 c0 04          	add    rax,0x4
    438e:	48 81 f9 00 01 00 00 	cmp    rcx,0x100
    4395:	0f 85 3b ff ff ff    	jne    42d6 <s231+0x24>
    439b:	bf 00 00 00 00       	mov    edi,0x0
    43a0:	be 00 00 00 00       	mov    esi,0x0
    43a5:	ba 00 00 00 00       	mov    edx,0x0
    43aa:	b9 00 00 00 00       	mov    ecx,0x0
    43af:	41 b8 00 00 00 00    	mov    r8d,0x0
    43b5:	41 b9 00 00 00 00    	mov    r9d,0x0
    43bb:	0f 57 c0             	xorps  xmm0,xmm0
    43be:	68 00 00 00 00       	push   0x0
    43c3:	68 00 00 00 00       	push   0x0
    43c8:	e8 00 00 00 00       	call   43cd <s231+0x11b>
    43cd:	48 83 c4 10          	add    rsp,0x10
    43d1:	ff c3                	inc    ebx
    43d3:	81 fb 58 98 00 00    	cmp    ebx,0x9858
    43d9:	0f 85 f0 fe ff ff    	jne    42cf <s231+0x1d>
    43df:	49 83 c6 10          	add    r14,0x10
    43e3:	4c 89 f7             	mov    rdi,r14
    43e6:	31 f6                	xor    esi,esi
    43e8:	e8 00 00 00 00       	call   43ed <s231+0x13b>
    43ed:	bf 00 00 00 00       	mov    edi,0x0
    43f2:	48 83 c4 08          	add    rsp,0x8
    43f6:	5b                   	pop    rbx
    43f7:	41 5e                	pop    r14
    43f9:	e9 00 00 00 00       	jmp    43fe <s232>

00000000000043fe <s232>:
    43fe:	41 56                	push   r14
    4400:	53                   	push   rbx
    4401:	50                   	push   rax
    4402:	49 89 fe             	mov    r14,rdi
    4405:	bf 00 00 00 00       	mov    edi,0x0
    440a:	e8 00 00 00 00       	call   440f <s232+0x11>
    440f:	31 db                	xor    ebx,ebx
    4411:	4c 89 f7             	mov    rdi,r14
    4414:	31 f6                	xor    esi,esi
    4416:	e8 00 00 00 00       	call   441b <s232+0x1d>
    441b:	b8 01 00 00 00       	mov    eax,0x1
    4420:	31 c9                	xor    ecx,ecx
    4422:	48 89 c2             	mov    rdx,rax
    4425:	48 c1 e2 0a          	shl    rdx,0xa
    4429:	f3 0f 10 82 00 00 00 	movss  xmm0,DWORD PTR [rdx+0x0]
    4430:	00 
    4431:	31 d2                	xor    edx,edx
    4433:	f3 0f 59 c0          	mulss  xmm0,xmm0
    4437:	f3 0f 58 84 91 00 00 	addss  xmm0,DWORD PTR [rcx+rdx*4+0x0]
    443e:	00 00 
    4440:	f3 0f 11 84 91 00 00 	movss  DWORD PTR [rcx+rdx*4+0x0],xmm0
    4447:	00 00 
    4449:	48 ff c2             	inc    rdx
    444c:	48 39 d0             	cmp    rax,rdx
    444f:	75 e2                	jne    4433 <s232+0x35>
    4451:	48 ff c0             	inc    rax
    4454:	48 81 c1 00 04 00 00 	add    rcx,0x400
    445b:	48 3d 00 01 00 00    	cmp    rax,0x100
    4461:	75 bf                	jne    4422 <s232+0x24>
    4463:	bf 00 00 00 00       	mov    edi,0x0
    4468:	be 00 00 00 00       	mov    esi,0x0
    446d:	ba 00 00 00 00       	mov    edx,0x0
    4472:	b9 00 00 00 00       	mov    ecx,0x0
    4477:	41 b8 00 00 00 00    	mov    r8d,0x0
    447d:	41 b9 00 00 00 00    	mov    r9d,0x0
    4483:	f3 0f 10 05 00 00 00 	movss  xmm0,DWORD PTR [rip+0x0]        # 448b <s232+0x8d>
    448a:	00 
    448b:	68 00 00 00 00       	push   0x0
    4490:	68 00 00 00 00       	push   0x0
    4495:	e8 00 00 00 00       	call   449a <s232+0x9c>
    449a:	48 83 c4 10          	add    rsp,0x10
    449e:	ff c3                	inc    ebx
    44a0:	81 fb 58 98 00 00    	cmp    ebx,0x9858
    44a6:	0f 85 6f ff ff ff    	jne    441b <s232+0x1d>
    44ac:	49 83 c6 10          	add    r14,0x10
    44b0:	4c 89 f7             	mov    rdi,r14
    44b3:	31 f6                	xor    esi,esi
    44b5:	e8 00 00 00 00       	call   44ba <s232+0xbc>
    44ba:	bf 00 00 00 00       	mov    edi,0x0
    44bf:	48 83 c4 08          	add    rsp,0x8
    44c3:	5b                   	pop    rbx
    44c4:	41 5e                	pop    r14
    44c6:	e9 00 00 00 00       	jmp    44cb <s1232>

00000000000044cb <s1232>:
    44cb:	41 57                	push   r15
    44cd:	41 56                	push   r14
    44cf:	53                   	push   rbx
    44d0:	49 89 fe             	mov    r14,rdi
    44d3:	bf 00 00 00 00       	mov    edi,0x0
    44d8:	e8 00 00 00 00       	call   44dd <s1232+0x12>
    44dd:	45 31 ff             	xor    r15d,r15d
    44e0:	4c 89 f7             	mov    rdi,r14
    44e3:	31 f6                	xor    esi,esi
    44e5:	e8 00 00 00 00       	call   44ea <s1232+0x1f>
    44ea:	45 31 c0             	xor    r8d,r8d
    44ed:	31 c9                	xor    ecx,ecx
    44ef:	31 c0                	xor    eax,eax
    44f1:	31 f6                	xor    esi,esi
    44f3:	89 f2                	mov    edx,esi
    44f5:	f7 da                	neg    edx
    44f7:	48 89 f7             	mov    rdi,rsi
    44fa:	f6 c2 07             	test   dl,0x7
    44fd:	74 39                	je     4538 <s1232+0x6d>
    44ff:	0f b6 f9             	movzx  edi,cl
    4502:	83 e7 07             	and    edi,0x7
    4505:	f7 df                	neg    edi
    4507:	48 89 c2             	mov    rdx,rax
    450a:	31 db                	xor    ebx,ebx
    450c:	f3 0f 10 82 00 00 00 	movss  xmm0,DWORD PTR [rdx+0x0]
    4513:	00 
    4514:	f3 0f 58 82 00 00 00 	addss  xmm0,DWORD PTR [rdx+0x0]
    451b:	00 
    451c:	f3 0f 11 82 00 00 00 	movss  DWORD PTR [rdx+0x0],xmm0
    4523:	00 
    4524:	48 ff cb             	dec    rbx
    4527:	48 81 c2 00 04 00 00 	add    rdx,0x400
    452e:	39 df                	cmp    edi,ebx
    4530:	75 da                	jne    450c <s1232+0x41>
    4532:	48 89 f7             	mov    rdi,rsi
    4535:	48 29 df             	sub    rdi,rbx
    4538:	48 81 fe f8 00 00 00 	cmp    rsi,0xf8
    453f:	77 3a                	ja     457b <s1232+0xb0>
    4541:	bb f8 00 00 00       	mov    ebx,0xf8
    4546:	48 29 fb             	sub    rbx,rdi
    4549:	48 83 cb 07          	or     rbx,0x7
    454d:	48 ff c3             	inc    rbx
    4550:	48 c1 e7 0a          	shl    rdi,0xa
    4554:	4c 01 c7             	add    rdi,r8
    4557:	f3 0f 10 87 00 00 00 	movss  xmm0,DWORD PTR [rdi+0x0]
    455e:	00 
    455f:	f3 0f 58 87 00 00 00 	addss  xmm0,DWORD PTR [rdi+0x0]
    4566:	00 
    4567:	f3 0f 11 87 00 00 00 	movss  DWORD PTR [rdi+0x0],xmm0
    456e:	00 
    456f:	48 81 c7 00 04 00 00 	add    rdi,0x400
    4576:	48 ff cb             	dec    rbx
    4579:	75 dc                	jne    4557 <s1232+0x8c>
    457b:	48 ff c6             	inc    rsi
    457e:	48 05 04 04 00 00    	add    rax,0x404
    4584:	80 c1 07             	add    cl,0x7
    4587:	49 83 c0 04          	add    r8,0x4
    458b:	48 81 fe 00 01 00 00 	cmp    rsi,0x100
    4592:	0f 85 5b ff ff ff    	jne    44f3 <s1232+0x28>
    4598:	bf 00 00 00 00       	mov    edi,0x0
    459d:	be 00 00 00 00       	mov    esi,0x0
    45a2:	ba 00 00 00 00       	mov    edx,0x0
    45a7:	b9 00 00 00 00       	mov    ecx,0x0
    45ac:	41 b8 00 00 00 00    	mov    r8d,0x0
    45b2:	41 b9 00 00 00 00    	mov    r9d,0x0
    45b8:	f3 0f 10 05 00 00 00 	movss  xmm0,DWORD PTR [rip+0x0]        # 45c0 <s1232+0xf5>
    45bf:	00 
    45c0:	68 00 00 00 00       	push   0x0
    45c5:	68 00 00 00 00       	push   0x0
    45ca:	e8 00 00 00 00       	call   45cf <s1232+0x104>
    45cf:	48 83 c4 10          	add    rsp,0x10
    45d3:	41 ff c7             	inc    r15d
    45d6:	41 81 ff 58 98 00 00 	cmp    r15d,0x9858
    45dd:	0f 85 07 ff ff ff    	jne    44ea <s1232+0x1f>
    45e3:	49 83 c6 10          	add    r14,0x10
    45e7:	4c 89 f7             	mov    rdi,r14
    45ea:	31 f6                	xor    esi,esi
    45ec:	e8 00 00 00 00       	call   45f1 <s1232+0x126>
    45f1:	bf 00 00 00 00       	mov    edi,0x0
    45f6:	5b                   	pop    rbx
    45f7:	41 5e                	pop    r14
    45f9:	41 5f                	pop    r15
    45fb:	e9 00 00 00 00       	jmp    4600 <s233>

0000000000004600 <s233>:
    4600:	41 56                	push   r14
    4602:	53                   	push   rbx
    4603:	50                   	push   rax
    4604:	49 89 fe             	mov    r14,rdi
    4607:	bf 00 00 00 00       	mov    edi,0x0
    460c:	e8 00 00 00 00       	call   4611 <s233+0x11>
    4611:	31 db                	xor    ebx,ebx
    4613:	4c 89 f7             	mov    rdi,r14
    4616:	31 f6                	xor    esi,esi
    4618:	e8 00 00 00 00       	call   461d <s233+0x1d>
    461d:	b8 01 00 00 00       	mov    eax,0x1
    4622:	b9 04 20 00 00       	mov    ecx,0x2004
    4627:	f3 0f 10 04 85 00 00 	movss  xmm0,DWORD PTR [rax*4+0x0]
    462e:	00 00 
    4630:	48 c7 c2 00 20 fc ff 	mov    rdx,0xfffffffffffc2000
    4637:	f3 0f 58 84 11 00 00 	addss  xmm0,DWORD PTR [rcx+rdx*1+0x0]
    463e:	00 00 
    4640:	f3 0f 11 84 11 00 00 	movss  DWORD PTR [rcx+rdx*1+0x0],xmm0
    4647:	00 00 
    4649:	f3 0f 58 84 11 00 00 	addss  xmm0,DWORD PTR [rcx+rdx*1+0x0]
    4650:	00 00 
    4652:	f3 0f 11 84 11 00 00 	movss  DWORD PTR [rcx+rdx*1+0x0],xmm0
    4659:	00 00 
    465b:	f3 0f 58 84 11 00 00 	addss  xmm0,DWORD PTR [rcx+rdx*1+0x0]
    4662:	00 00 
    4664:	f3 0f 11 84 11 00 00 	movss  DWORD PTR [rcx+rdx*1+0x0],xmm0
    466b:	00 00 
    466d:	f3 0f 58 84 11 00 00 	addss  xmm0,DWORD PTR [rcx+rdx*1+0x0]
    4674:	00 00 
    4676:	f3 0f 11 84 11 00 00 	movss  DWORD PTR [rcx+rdx*1+0x0],xmm0
    467d:	00 00 
    467f:	f3 0f 58 84 11 00 00 	addss  xmm0,DWORD PTR [rcx+rdx*1+0x0]
    4686:	00 00 
    4688:	f3 0f 11 84 11 00 00 	movss  DWORD PTR [rcx+rdx*1+0x0],xmm0
    468f:	00 00 
    4691:	f3 0f 58 84 11 00 00 	addss  xmm0,DWORD PTR [rcx+rdx*1+0x0]
    4698:	00 00 
    469a:	f3 0f 11 84 11 00 00 	movss  DWORD PTR [rcx+rdx*1+0x0],xmm0
    46a1:	00 00 
    46a3:	f3 0f 58 84 11 00 00 	addss  xmm0,DWORD PTR [rcx+rdx*1+0x0]
    46aa:	00 00 
    46ac:	f3 0f 11 84 11 00 00 	movss  DWORD PTR [rcx+rdx*1+0x0],xmm0
    46b3:	00 00 
    46b5:	48 85 d2             	test   rdx,rdx
    46b8:	74 1e                	je     46d8 <s233+0xd8>
    46ba:	f3 0f 58 84 11 00 00 	addss  xmm0,DWORD PTR [rcx+rdx*1+0x0]
    46c1:	00 00 
    46c3:	f3 0f 11 84 11 00 00 	movss  DWORD PTR [rcx+rdx*1+0x0],xmm0
    46ca:	00 00 
    46cc:	48 81 c2 00 20 00 00 	add    rdx,0x2000
    46d3:	e9 5f ff ff ff       	jmp    4637 <s233+0x37>
    46d8:	48 c7 c2 00 20 fc ff 	mov    rdx,0xfffffffffffc2000
    46df:	f3 0f 10 84 11 00 00 	movss  xmm0,DWORD PTR [rcx+rdx*1+0x0]
    46e6:	00 00 
    46e8:	f3 0f 58 84 11 00 00 	addss  xmm0,DWORD PTR [rcx+rdx*1+0x0]
    46ef:	00 00 
    46f1:	f3 0f 11 84 11 00 00 	movss  DWORD PTR [rcx+rdx*1+0x0],xmm0
    46f8:	00 00 
    46fa:	f3 0f 10 84 11 00 00 	movss  xmm0,DWORD PTR [rcx+rdx*1+0x0]
    4701:	00 00 
    4703:	f3 0f 58 84 11 00 00 	addss  xmm0,DWORD PTR [rcx+rdx*1+0x0]
    470a:	00 00 
    470c:	f3 0f 11 84 11 00 00 	movss  DWORD PTR [rcx+rdx*1+0x0],xmm0
    4713:	00 00 
    4715:	f3 0f 10 84 11 00 00 	movss  xmm0,DWORD PTR [rcx+rdx*1+0x0]
    471c:	00 00 
    471e:	f3 0f 58 84 11 00 00 	addss  xmm0,DWORD PTR [rcx+rdx*1+0x0]
    4725:	00 00 
    4727:	f3 0f 11 84 11 00 00 	movss  DWORD PTR [rcx+rdx*1+0x0],xmm0
    472e:	00 00 
    4730:	f3 0f 10 84 11 00 00 	movss  xmm0,DWORD PTR [rcx+rdx*1+0x0]
    4737:	00 00 
    4739:	f3 0f 58 84 11 00 00 	addss  xmm0,DWORD PTR [rcx+rdx*1+0x0]
    4740:	00 00 
    4742:	f3 0f 11 84 11 00 00 	movss  DWORD PTR [rcx+rdx*1+0x0],xmm0
    4749:	00 00 
    474b:	f3 0f 10 84 11 00 00 	movss  xmm0,DWORD PTR [rcx+rdx*1+0x0]
    4752:	00 00 
    4754:	f3 0f 58 84 11 00 00 	addss  xmm0,DWORD PTR [rcx+rdx*1+0x0]
    475b:	00 00 
    475d:	f3 0f 11 84 11 00 00 	movss  DWORD PTR [rcx+rdx*1+0x0],xmm0
    4764:	00 00 
    4766:	f3 0f 10 84 11 00 00 	movss  xmm0,DWORD PTR [rcx+rdx*1+0x0]
    476d:	00 00 
    476f:	f3 0f 58 84 11 00 00 	addss  xmm0,DWORD PTR [rcx+rdx*1+0x0]
    4776:	00 00 
    4778:	f3 0f 11 84 11 00 00 	movss  DWORD PTR [rcx+rdx*1+0x0],xmm0
    477f:	00 00 
    4781:	f3 0f 10 84 11 00 00 	movss  xmm0,DWORD PTR [rcx+rdx*1+0x0]
    4788:	00 00 
    478a:	f3 0f 58 84 11 00 00 	addss  xmm0,DWORD PTR [rcx+rdx*1+0x0]
    4791:	00 00 
    4793:	f3 0f 11 84 11 00 00 	movss  DWORD PTR [rcx+rdx*1+0x0],xmm0
    479a:	00 00 
    479c:	48 85 d2             	test   rdx,rdx
    479f:	74 27                	je     47c8 <s233+0x1c8>
    47a1:	f3 0f 10 84 11 00 00 	movss  xmm0,DWORD PTR [rcx+rdx*1+0x0]
    47a8:	00 00 
    47aa:	f3 0f 58 84 11 00 00 	addss  xmm0,DWORD PTR [rcx+rdx*1+0x0]
    47b1:	00 00 
    47b3:	f3 0f 11 84 11 00 00 	movss  DWORD PTR [rcx+rdx*1+0x0],xmm0
    47ba:	00 00 
    47bc:	48 81 c2 00 20 00 00 	add    rdx,0x2000
    47c3:	e9 17 ff ff ff       	jmp    46df <s233+0xdf>
    47c8:	48 ff c0             	inc    rax
    47cb:	48 83 c1 04          	add    rcx,0x4
    47cf:	48 3d 00 01 00 00    	cmp    rax,0x100
    47d5:	0f 85 4c fe ff ff    	jne    4627 <s233+0x27>
    47db:	bf 00 00 00 00       	mov    edi,0x0
    47e0:	be 00 00 00 00       	mov    esi,0x0
    47e5:	ba 00 00 00 00       	mov    edx,0x0
    47ea:	b9 00 00 00 00       	mov    ecx,0x0
    47ef:	41 b8 00 00 00 00    	mov    r8d,0x0
    47f5:	41 b9 00 00 00 00    	mov    r9d,0x0
    47fb:	0f 57 c0             	xorps  xmm0,xmm0
    47fe:	68 00 00 00 00       	push   0x0
    4803:	68 00 00 00 00       	push   0x0
    4808:	e8 00 00 00 00       	call   480d <s233+0x20d>
    480d:	48 83 c4 10          	add    rsp,0x10
    4811:	ff c3                	inc    ebx
    4813:	81 fb 58 98 00 00    	cmp    ebx,0x9858
    4819:	0f 85 fe fd ff ff    	jne    461d <s233+0x1d>
    481f:	49 83 c6 10          	add    r14,0x10
    4823:	4c 89 f7             	mov    rdi,r14
    4826:	31 f6                	xor    esi,esi
    4828:	e8 00 00 00 00       	call   482d <s233+0x22d>
    482d:	bf 00 00 00 00       	mov    edi,0x0
    4832:	48 83 c4 08          	add    rsp,0x8
    4836:	5b                   	pop    rbx
    4837:	41 5e                	pop    r14
    4839:	e9 00 00 00 00       	jmp    483e <s2233>

000000000000483e <s2233>:
    483e:	41 56                	push   r14
    4840:	53                   	push   rbx
    4841:	50                   	push   rax
    4842:	49 89 fe             	mov    r14,rdi
    4845:	bf 00 00 00 00       	mov    edi,0x0
    484a:	e8 00 00 00 00       	call   484f <s2233+0x11>
    484f:	31 db                	xor    ebx,ebx
    4851:	4c 89 f7             	mov    rdi,r14
    4854:	31 f6                	xor    esi,esi
    4856:	e8 00 00 00 00       	call   485b <s2233+0x1d>
    485b:	b8 01 00 00 00       	mov    eax,0x1
    4860:	b9 04 20 00 00       	mov    ecx,0x2004
    4865:	ba 04 04 00 00       	mov    edx,0x404
    486a:	f3 0f 10 04 85 00 00 	movss  xmm0,DWORD PTR [rax*4+0x0]
    4871:	00 00 
    4873:	48 c7 c6 00 20 fc ff 	mov    rsi,0xfffffffffffc2000
    487a:	f3 0f 58 84 31 00 00 	addss  xmm0,DWORD PTR [rcx+rsi*1+0x0]
    4881:	00 00 
    4883:	f3 0f 11 84 31 00 00 	movss  DWORD PTR [rcx+rsi*1+0x0],xmm0
    488a:	00 00 
    488c:	f3 0f 58 84 31 00 00 	addss  xmm0,DWORD PTR [rcx+rsi*1+0x0]
    4893:	00 00 
    4895:	f3 0f 11 84 31 00 00 	movss  DWORD PTR [rcx+rsi*1+0x0],xmm0
    489c:	00 00 
    489e:	f3 0f 58 84 31 00 00 	addss  xmm0,DWORD PTR [rcx+rsi*1+0x0]
    48a5:	00 00 
    48a7:	f3 0f 11 84 31 00 00 	movss  DWORD PTR [rcx+rsi*1+0x0],xmm0
    48ae:	00 00 
    48b0:	f3 0f 58 84 31 00 00 	addss  xmm0,DWORD PTR [rcx+rsi*1+0x0]
    48b7:	00 00 
    48b9:	f3 0f 11 84 31 00 00 	movss  DWORD PTR [rcx+rsi*1+0x0],xmm0
    48c0:	00 00 
    48c2:	f3 0f 58 84 31 00 00 	addss  xmm0,DWORD PTR [rcx+rsi*1+0x0]
    48c9:	00 00 
    48cb:	f3 0f 11 84 31 00 00 	movss  DWORD PTR [rcx+rsi*1+0x0],xmm0
    48d2:	00 00 
    48d4:	f3 0f 58 84 31 00 00 	addss  xmm0,DWORD PTR [rcx+rsi*1+0x0]
    48db:	00 00 
    48dd:	f3 0f 11 84 31 00 00 	movss  DWORD PTR [rcx+rsi*1+0x0],xmm0
    48e4:	00 00 
    48e6:	f3 0f 58 84 31 00 00 	addss  xmm0,DWORD PTR [rcx+rsi*1+0x0]
    48ed:	00 00 
    48ef:	f3 0f 11 84 31 00 00 	movss  DWORD PTR [rcx+rsi*1+0x0],xmm0
    48f6:	00 00 
    48f8:	48 85 f6             	test   rsi,rsi
    48fb:	74 1e                	je     491b <s2233+0xdd>
    48fd:	f3 0f 58 84 31 00 00 	addss  xmm0,DWORD PTR [rcx+rsi*1+0x0]
    4904:	00 00 
    4906:	f3 0f 11 84 31 00 00 	movss  DWORD PTR [rcx+rsi*1+0x0],xmm0
    490d:	00 00 
    490f:	48 81 c6 00 20 00 00 	add    rsi,0x2000
    4916:	e9 5f ff ff ff       	jmp    487a <s2233+0x3c>
    491b:	48 c7 c6 08 ff ff ff 	mov    rsi,0xffffffffffffff08
    4922:	f3 0f 10 84 b2 00 00 	movss  xmm0,DWORD PTR [rdx+rsi*4+0x0]
    4929:	00 00 
    492b:	f3 0f 58 84 b2 00 00 	addss  xmm0,DWORD PTR [rdx+rsi*4+0x0]
    4932:	00 00 
    4934:	f3 0f 11 84 b2 00 00 	movss  DWORD PTR [rdx+rsi*4+0x0],xmm0
    493b:	00 00 
    493d:	f3 0f 10 84 b2 00 00 	movss  xmm0,DWORD PTR [rdx+rsi*4+0x0]
    4944:	00 00 
    4946:	f3 0f 58 84 b2 00 00 	addss  xmm0,DWORD PTR [rdx+rsi*4+0x0]
    494d:	00 00 
    494f:	f3 0f 11 84 b2 00 00 	movss  DWORD PTR [rdx+rsi*4+0x0],xmm0
    4956:	00 00 
    4958:	f3 0f 10 84 b2 00 00 	movss  xmm0,DWORD PTR [rdx+rsi*4+0x0]
    495f:	00 00 
    4961:	f3 0f 58 84 b2 00 00 	addss  xmm0,DWORD PTR [rdx+rsi*4+0x0]
    4968:	00 00 
    496a:	f3 0f 11 84 b2 00 00 	movss  DWORD PTR [rdx+rsi*4+0x0],xmm0
    4971:	00 00 
    4973:	f3 0f 10 84 b2 00 00 	movss  xmm0,DWORD PTR [rdx+rsi*4+0x0]
    497a:	00 00 
    497c:	f3 0f 58 84 b2 00 00 	addss  xmm0,DWORD PTR [rdx+rsi*4+0x0]
    4983:	00 00 
    4985:	f3 0f 11 84 b2 00 00 	movss  DWORD PTR [rdx+rsi*4+0x0],xmm0
    498c:	00 00 
    498e:	f3 0f 10 84 b2 00 00 	movss  xmm0,DWORD PTR [rdx+rsi*4+0x0]
    4995:	00 00 
    4997:	f3 0f 58 84 b2 00 00 	addss  xmm0,DWORD PTR [rdx+rsi*4+0x0]
    499e:	00 00 
    49a0:	f3 0f 11 84 b2 00 00 	movss  DWORD PTR [rdx+rsi*4+0x0],xmm0
    49a7:	00 00 
    49a9:	f3 0f 10 84 b2 00 00 	movss  xmm0,DWORD PTR [rdx+rsi*4+0x0]
    49b0:	00 00 
    49b2:	f3 0f 58 84 b2 00 00 	addss  xmm0,DWORD PTR [rdx+rsi*4+0x0]
    49b9:	00 00 
    49bb:	f3 0f 11 84 b2 00 00 	movss  DWORD PTR [rdx+rsi*4+0x0],xmm0
    49c2:	00 00 
    49c4:	f3 0f 10 84 b2 00 00 	movss  xmm0,DWORD PTR [rdx+rsi*4+0x0]
    49cb:	00 00 
    49cd:	f3 0f 58 84 b2 00 00 	addss  xmm0,DWORD PTR [rdx+rsi*4+0x0]
    49d4:	00 00 
    49d6:	f3 0f 11 84 b2 00 00 	movss  DWORD PTR [rdx+rsi*4+0x0],xmm0
    49dd:	00 00 
    49df:	48 85 f6             	test   rsi,rsi
    49e2:	74 24                	je     4a08 <s2233+0x1ca>
    49e4:	f3 0f 10 84 b2 00 00 	movss  xmm0,DWORD PTR [rdx+rsi*4+0x0]
    49eb:	00 00 
    49ed:	f3 0f 58 84 b2 00 00 	addss  xmm0,DWORD PTR [rdx+rsi*4+0x0]
    49f4:	00 00 
    49f6:	f3 0f 11 84 b2 00 00 	movss  DWORD PTR [rdx+rsi*4+0x0],xmm0
    49fd:	00 00 
    49ff:	48 83 c6 08          	add    rsi,0x8
    4a03:	e9 1a ff ff ff       	jmp    4922 <s2233+0xe4>
    4a08:	48 ff c0             	inc    rax
    4a0b:	48 83 c1 04          	add    rcx,0x4
    4a0f:	48 81 c2 00 04 00 00 	add    rdx,0x400
    4a16:	48 3d 00 01 00 00    	cmp    rax,0x100
    4a1c:	0f 85 48 fe ff ff    	jne    486a <s2233+0x2c>
    4a22:	bf 00 00 00 00       	mov    edi,0x0
    4a27:	be 00 00 00 00       	mov    esi,0x0
    4a2c:	ba 00 00 00 00       	mov    edx,0x0
    4a31:	b9 00 00 00 00       	mov    ecx,0x0
    4a36:	41 b8 00 00 00 00    	mov    r8d,0x0
    4a3c:	41 b9 00 00 00 00    	mov    r9d,0x0
    4a42:	0f 57 c0             	xorps  xmm0,xmm0
    4a45:	68 00 00 00 00       	push   0x0
    4a4a:	68 00 00 00 00       	push   0x0
    4a4f:	e8 00 00 00 00       	call   4a54 <s2233+0x216>
    4a54:	48 83 c4 10          	add    rsp,0x10
    4a58:	ff c3                	inc    ebx
    4a5a:	81 fb 58 98 00 00    	cmp    ebx,0x9858
    4a60:	0f 85 f5 fd ff ff    	jne    485b <s2233+0x1d>
    4a66:	49 83 c6 10          	add    r14,0x10
    4a6a:	4c 89 f7             	mov    rdi,r14
    4a6d:	31 f6                	xor    esi,esi
    4a6f:	e8 00 00 00 00       	call   4a74 <s2233+0x236>
    4a74:	bf 00 00 00 00       	mov    edi,0x0
    4a79:	48 83 c4 08          	add    rsp,0x8
    4a7d:	5b                   	pop    rbx
    4a7e:	41 5e                	pop    r14
    4a80:	e9 00 00 00 00       	jmp    4a85 <s235>

0000000000004a85 <s235>:
    4a85:	41 56                	push   r14
    4a87:	53                   	push   rbx
    4a88:	50                   	push   rax
    4a89:	49 89 fe             	mov    r14,rdi
    4a8c:	bf 00 00 00 00       	mov    edi,0x0
    4a91:	e8 00 00 00 00       	call   4a96 <s235+0x11>
    4a96:	31 db                	xor    ebx,ebx
    4a98:	4c 89 f7             	mov    rdi,r14
    4a9b:	31 f6                	xor    esi,esi
    4a9d:	e8 00 00 00 00       	call   4aa2 <s235+0x1d>
    4aa2:	b8 00 20 00 00       	mov    eax,0x2000
    4aa7:	31 c9                	xor    ecx,ecx
    4aa9:	f3 0f 10 04 8d 00 00 	movss  xmm0,DWORD PTR [rcx*4+0x0]
    4ab0:	00 00 
    4ab2:	f3 0f 59 04 8d 00 00 	mulss  xmm0,DWORD PTR [rcx*4+0x0]
    4ab9:	00 00 
    4abb:	f3 0f 58 04 8d 00 00 	addss  xmm0,DWORD PTR [rcx*4+0x0]
    4ac2:	00 00 
    4ac4:	f3 0f 11 04 8d 00 00 	movss  DWORD PTR [rcx*4+0x0],xmm0
    4acb:	00 00 
    4acd:	f3 0f 10 0c 8d 00 00 	movss  xmm1,DWORD PTR [rcx*4+0x0]
    4ad4:	00 00 
    4ad6:	48 c7 c2 00 20 fc ff 	mov    rdx,0xfffffffffffc2000
    4add:	f3 0f 10 94 10 00 00 	movss  xmm2,DWORD PTR [rax+rdx*1+0x0]
    4ae4:	00 00 
    4ae6:	f3 0f 59 d0          	mulss  xmm2,xmm0
    4aea:	f3 0f 58 d1          	addss  xmm2,xmm1
    4aee:	f3 0f 11 94 10 00 00 	movss  DWORD PTR [rax+rdx*1+0x0],xmm2
    4af5:	00 00 
    4af7:	f3 0f 10 8c 10 00 00 	movss  xmm1,DWORD PTR [rax+rdx*1+0x0]
    4afe:	00 00 
    4b00:	f3 0f 59 c8          	mulss  xmm1,xmm0
    4b04:	f3 0f 58 ca          	addss  xmm1,xmm2
    4b08:	f3 0f 11 8c 10 00 00 	movss  DWORD PTR [rax+rdx*1+0x0],xmm1
    4b0f:	00 00 
    4b11:	f3 0f 10 94 10 00 00 	movss  xmm2,DWORD PTR [rax+rdx*1+0x0]
    4b18:	00 00 
    4b1a:	f3 0f 59 d0          	mulss  xmm2,xmm0
    4b1e:	f3 0f 58 d1          	addss  xmm2,xmm1
    4b22:	f3 0f 11 94 10 00 00 	movss  DWORD PTR [rax+rdx*1+0x0],xmm2
    4b29:	00 00 
    4b2b:	f3 0f 10 8c 10 00 00 	movss  xmm1,DWORD PTR [rax+rdx*1+0x0]
    4b32:	00 00 
    4b34:	f3 0f 59 c8          	mulss  xmm1,xmm0
    4b38:	f3 0f 58 ca          	addss  xmm1,xmm2
    4b3c:	f3 0f 11 8c 10 00 00 	movss  DWORD PTR [rax+rdx*1+0x0],xmm1
    4b43:	00 00 
    4b45:	f3 0f 10 94 10 00 00 	movss  xmm2,DWORD PTR [rax+rdx*1+0x0]
    4b4c:	00 00 
    4b4e:	f3 0f 59 d0          	mulss  xmm2,xmm0
    4b52:	f3 0f 58 d1          	addss  xmm2,xmm1
    4b56:	f3 0f 11 94 10 00 00 	movss  DWORD PTR [rax+rdx*1+0x0],xmm2
    4b5d:	00 00 
    4b5f:	f3 0f 10 9c 10 00 00 	movss  xmm3,DWORD PTR [rax+rdx*1+0x0]
    4b66:	00 00 
    4b68:	f3 0f 59 d8          	mulss  xmm3,xmm0
    4b6c:	f3 0f 58 da          	addss  xmm3,xmm2
    4b70:	f3 0f 11 9c 10 00 00 	movss  DWORD PTR [rax+rdx*1+0x0],xmm3
    4b77:	00 00 
    4b79:	f3 0f 10 8c 10 00 00 	movss  xmm1,DWORD PTR [rax+rdx*1+0x0]
    4b80:	00 00 
    4b82:	f3 0f 59 c8          	mulss  xmm1,xmm0
    4b86:	f3 0f 58 cb          	addss  xmm1,xmm3
    4b8a:	f3 0f 11 8c 10 00 00 	movss  DWORD PTR [rax+rdx*1+0x0],xmm1
    4b91:	00 00 
    4b93:	48 85 d2             	test   rdx,rdx
    4b96:	74 26                	je     4bbe <s235+0x139>
    4b98:	f3 0f 10 94 10 00 00 	movss  xmm2,DWORD PTR [rax+rdx*1+0x0]
    4b9f:	00 00 
    4ba1:	f3 0f 59 d0          	mulss  xmm2,xmm0
    4ba5:	f3 0f 58 ca          	addss  xmm1,xmm2
    4ba9:	f3 0f 11 8c 10 00 00 	movss  DWORD PTR [rax+rdx*1+0x0],xmm1
    4bb0:	00 00 
    4bb2:	48 81 c2 00 20 00 00 	add    rdx,0x2000
    4bb9:	e9 1f ff ff ff       	jmp    4add <s235+0x58>
    4bbe:	48 ff c1             	inc    rcx
    4bc1:	48 83 c0 04          	add    rax,0x4
    4bc5:	48 81 f9 00 01 00 00 	cmp    rcx,0x100
    4bcc:	0f 85 d7 fe ff ff    	jne    4aa9 <s235+0x24>
    4bd2:	bf 00 00 00 00       	mov    edi,0x0
    4bd7:	be 00 00 00 00       	mov    esi,0x0
    4bdc:	ba 00 00 00 00       	mov    edx,0x0
    4be1:	b9 00 00 00 00       	mov    ecx,0x0
    4be6:	41 b8 00 00 00 00    	mov    r8d,0x0
    4bec:	41 b9 00 00 00 00    	mov    r9d,0x0
    4bf2:	0f 57 c0             	xorps  xmm0,xmm0
    4bf5:	68 00 00 00 00       	push   0x0
    4bfa:	68 00 00 00 00       	push   0x0
    4bff:	e8 00 00 00 00       	call   4c04 <s235+0x17f>
    4c04:	48 83 c4 10          	add    rsp,0x10
    4c08:	ff c3                	inc    ebx
    4c0a:	81 fb b0 30 01 00    	cmp    ebx,0x130b0
    4c10:	0f 85 8c fe ff ff    	jne    4aa2 <s235+0x1d>
    4c16:	49 83 c6 10          	add    r14,0x10
    4c1a:	4c 89 f7             	mov    rdi,r14
    4c1d:	31 f6                	xor    esi,esi
    4c1f:	e8 00 00 00 00       	call   4c24 <s235+0x19f>
    4c24:	bf 00 00 00 00       	mov    edi,0x0
    4c29:	48 83 c4 08          	add    rsp,0x8
    4c2d:	5b                   	pop    rbx
    4c2e:	41 5e                	pop    r14
    4c30:	e9 00 00 00 00       	jmp    4c35 <s241>

0000000000004c35 <s241>:
    4c35:	41 56                	push   r14
    4c37:	53                   	push   rbx
    4c38:	50                   	push   rax
    4c39:	49 89 fe             	mov    r14,rdi
    4c3c:	bf 00 00 00 00       	mov    edi,0x0
    4c41:	e8 00 00 00 00       	call   4c46 <s241+0x11>
    4c46:	31 db                	xor    ebx,ebx
    4c48:	4c 89 f7             	mov    rdi,r14
    4c4b:	31 f6                	xor    esi,esi
    4c4d:	e8 00 00 00 00       	call   4c52 <s241+0x1d>
    4c52:	48 c7 c0 20 0c fe ff 	mov    rax,0xfffffffffffe0c20
    4c59:	f3 0f 10 80 00 00 00 	movss  xmm0,DWORD PTR [rax+0x0]
    4c60:	00 
    4c61:	f3 0f 59 80 00 00 00 	mulss  xmm0,DWORD PTR [rax+0x0]
    4c68:	00 
    4c69:	f3 0f 10 88 00 00 00 	movss  xmm1,DWORD PTR [rax+0x0]
    4c70:	00 
    4c71:	f3 0f 59 c1          	mulss  xmm0,xmm1
    4c75:	f3 0f 11 80 00 00 00 	movss  DWORD PTR [rax+0x0],xmm0
    4c7c:	00 
    4c7d:	f3 0f 59 80 00 00 00 	mulss  xmm0,DWORD PTR [rax+0x0]
    4c84:	00 
    4c85:	f3 0f 59 c1          	mulss  xmm0,xmm1
    4c89:	f3 0f 11 80 00 00 00 	movss  DWORD PTR [rax+0x0],xmm0
    4c90:	00 
    4c91:	f3 0f 10 80 00 00 00 	movss  xmm0,DWORD PTR [rax+0x0]
    4c98:	00 
    4c99:	f3 0f 59 80 00 00 00 	mulss  xmm0,DWORD PTR [rax+0x0]
    4ca0:	00 
    4ca1:	f3 0f 10 88 00 00 00 	movss  xmm1,DWORD PTR [rax+0x0]
    4ca8:	00 
    4ca9:	f3 0f 59 c1          	mulss  xmm0,xmm1
    4cad:	f3 0f 11 80 00 00 00 	movss  DWORD PTR [rax+0x0],xmm0
    4cb4:	00 
    4cb5:	f3 0f 59 80 00 00 00 	mulss  xmm0,DWORD PTR [rax+0x0]
    4cbc:	00 
    4cbd:	f3 0f 59 c1          	mulss  xmm0,xmm1
    4cc1:	f3 0f 11 80 00 00 00 	movss  DWORD PTR [rax+0x0],xmm0
    4cc8:	00 
    4cc9:	f3 0f 10 80 00 00 00 	movss  xmm0,DWORD PTR [rax+0x0]
    4cd0:	00 
    4cd1:	f3 0f 59 80 00 00 00 	mulss  xmm0,DWORD PTR [rax+0x0]
    4cd8:	00 
    4cd9:	f3 0f 10 88 00 00 00 	movss  xmm1,DWORD PTR [rax+0x0]
    4ce0:	00 
    4ce1:	f3 0f 59 c1          	mulss  xmm0,xmm1
    4ce5:	f3 0f 11 80 00 00 00 	movss  DWORD PTR [rax+0x0],xmm0
    4cec:	00 
    4ced:	f3 0f 59 80 00 00 00 	mulss  xmm0,DWORD PTR [rax+0x0]
    4cf4:	00 
    4cf5:	f3 0f 59 c1          	mulss  xmm0,xmm1
    4cf9:	f3 0f 11 80 00 00 00 	movss  DWORD PTR [rax+0x0],xmm0
    4d00:	00 
    4d01:	f3 0f 10 80 00 00 00 	movss  xmm0,DWORD PTR [rax+0x0]
    4d08:	00 
    4d09:	f3 0f 59 80 00 00 00 	mulss  xmm0,DWORD PTR [rax+0x0]
    4d10:	00 
    4d11:	f3 0f 10 88 00 00 00 	movss  xmm1,DWORD PTR [rax+0x0]
    4d18:	00 
    4d19:	f3 0f 59 c1          	mulss  xmm0,xmm1
    4d1d:	f3 0f 11 80 00 00 00 	movss  DWORD PTR [rax+0x0],xmm0
    4d24:	00 
    4d25:	f3 0f 59 80 00 00 00 	mulss  xmm0,DWORD PTR [rax+0x0]
    4d2c:	00 
    4d2d:	f3 0f 59 c1          	mulss  xmm0,xmm1
    4d31:	f3 0f 11 80 00 00 00 	movss  DWORD PTR [rax+0x0],xmm0
    4d38:	00 
    4d39:	f3 0f 10 80 00 00 00 	movss  xmm0,DWORD PTR [rax+0x0]
    4d40:	00 
    4d41:	f3 0f 59 80 00 00 00 	mulss  xmm0,DWORD PTR [rax+0x0]
    4d48:	00 
    4d49:	f3 0f 10 88 00 00 00 	movss  xmm1,DWORD PTR [rax+0x0]
    4d50:	00 
    4d51:	f3 0f 59 c1          	mulss  xmm0,xmm1
    4d55:	f3 0f 11 80 00 00 00 	movss  DWORD PTR [rax+0x0],xmm0
    4d5c:	00 
    4d5d:	f3 0f 59 80 00 00 00 	mulss  xmm0,DWORD PTR [rax+0x0]
    4d64:	00 
    4d65:	f3 0f 59 c1          	mulss  xmm0,xmm1
    4d69:	f3 0f 11 80 00 00 00 	movss  DWORD PTR [rax+0x0],xmm0
    4d70:	00 
    4d71:	f3 0f 10 80 00 00 00 	movss  xmm0,DWORD PTR [rax+0x0]
    4d78:	00 
    4d79:	f3 0f 59 80 00 00 00 	mulss  xmm0,DWORD PTR [rax+0x0]
    4d80:	00 
    4d81:	f3 0f 10 88 00 00 00 	movss  xmm1,DWORD PTR [rax+0x0]
    4d88:	00 
    4d89:	f3 0f 59 c1          	mulss  xmm0,xmm1
    4d8d:	f3 0f 11 80 00 00 00 	movss  DWORD PTR [rax+0x0],xmm0
    4d94:	00 
    4d95:	f3 0f 59 80 00 00 00 	mulss  xmm0,DWORD PTR [rax+0x0]
    4d9c:	00 
    4d9d:	f3 0f 59 c1          	mulss  xmm0,xmm1
    4da1:	f3 0f 11 80 00 00 00 	movss  DWORD PTR [rax+0x0],xmm0
    4da8:	00 
    4da9:	f3 0f 10 80 00 00 00 	movss  xmm0,DWORD PTR [rax+0x0]
    4db0:	00 
    4db1:	f3 0f 59 80 00 00 00 	mulss  xmm0,DWORD PTR [rax+0x0]
    4db8:	00 
    4db9:	f3 0f 10 88 00 00 00 	movss  xmm1,DWORD PTR [rax+0x0]
    4dc0:	00 
    4dc1:	f3 0f 59 c1          	mulss  xmm0,xmm1
    4dc5:	f3 0f 11 80 00 00 00 	movss  DWORD PTR [rax+0x0],xmm0
    4dcc:	00 
    4dcd:	f3 0f 59 80 00 00 00 	mulss  xmm0,DWORD PTR [rax+0x0]
    4dd4:	00 
    4dd5:	f3 0f 59 c1          	mulss  xmm0,xmm1
    4dd9:	f3 0f 11 80 00 00 00 	movss  DWORD PTR [rax+0x0],xmm0
    4de0:	00 
    4de1:	48 85 c0             	test   rax,rax
    4de4:	74 41                	je     4e27 <s241+0x1f2>
    4de6:	f3 0f 10 80 00 00 00 	movss  xmm0,DWORD PTR [rax+0x0]
    4ded:	00 
    4dee:	f3 0f 59 80 00 00 00 	mulss  xmm0,DWORD PTR [rax+0x0]
    4df5:	00 
    4df6:	f3 0f 10 88 00 00 00 	movss  xmm1,DWORD PTR [rax+0x0]
    4dfd:	00 
    4dfe:	f3 0f 59 c1          	mulss  xmm0,xmm1
    4e02:	f3 0f 11 80 00 00 00 	movss  DWORD PTR [rax+0x0],xmm0
    4e09:	00 
    4e0a:	f3 0f 59 80 00 00 00 	mulss  xmm0,DWORD PTR [rax+0x0]
    4e11:	00 
    4e12:	f3 0f 59 c1          	mulss  xmm0,xmm1
    4e16:	f3 0f 11 80 00 00 00 	movss  DWORD PTR [rax+0x0],xmm0
    4e1d:	00 
    4e1e:	48 83 c0 20          	add    rax,0x20
    4e22:	e9 32 fe ff ff       	jmp    4c59 <s241+0x24>
    4e27:	bf 00 00 00 00       	mov    edi,0x0
    4e2c:	be 00 00 00 00       	mov    esi,0x0
    4e31:	ba 00 00 00 00       	mov    edx,0x0
    4e36:	b9 00 00 00 00       	mov    ecx,0x0
    4e3b:	41 b8 00 00 00 00    	mov    r8d,0x0
    4e41:	41 b9 00 00 00 00    	mov    r9d,0x0
    4e47:	0f 57 c0             	xorps  xmm0,xmm0
    4e4a:	68 00 00 00 00       	push   0x0
    4e4f:	68 00 00 00 00       	push   0x0
    4e54:	e8 00 00 00 00       	call   4e59 <s241+0x224>
    4e59:	48 83 c4 10          	add    rsp,0x10
    4e5d:	ff c3                	inc    ebx
    4e5f:	81 fb 40 0d 03 00    	cmp    ebx,0x30d40
    4e65:	0f 85 e7 fd ff ff    	jne    4c52 <s241+0x1d>
    4e6b:	49 83 c6 10          	add    r14,0x10
    4e6f:	4c 89 f7             	mov    rdi,r14
    4e72:	31 f6                	xor    esi,esi
    4e74:	e8 00 00 00 00       	call   4e79 <s241+0x244>
    4e79:	bf 00 00 00 00       	mov    edi,0x0
    4e7e:	48 83 c4 08          	add    rsp,0x8
    4e82:	5b                   	pop    rbx
    4e83:	41 5e                	pop    r14
    4e85:	e9 00 00 00 00       	jmp    4e8a <s242>

0000000000004e8a <s242>:
    4e8a:	41 56                	push   r14
    4e8c:	53                   	push   rbx
    4e8d:	50                   	push   rax
    4e8e:	49 89 fe             	mov    r14,rdi
    4e91:	48 8b 47 20          	mov    rax,QWORD PTR [rdi+0x20]
    4e95:	f3 0f 10 00          	movss  xmm0,DWORD PTR [rax]
    4e99:	f3 0f 11 44 24 04    	movss  DWORD PTR [rsp+0x4],xmm0
    4e9f:	f3 0f 10 40 04       	movss  xmm0,DWORD PTR [rax+0x4]
    4ea4:	f3 0f 11 04 24       	movss  DWORD PTR [rsp],xmm0
    4ea9:	bf 00 00 00 00       	mov    edi,0x0
    4eae:	e8 00 00 00 00       	call   4eb3 <s242+0x29>
    4eb3:	31 db                	xor    ebx,ebx
    4eb5:	4c 89 f7             	mov    rdi,r14
    4eb8:	31 f6                	xor    esi,esi
    4eba:	e8 00 00 00 00       	call   4ebf <s242+0x35>
    4ebf:	48 c7 c0 20 0c fe ff 	mov    rax,0xfffffffffffe0c20
    4ec6:	f3 0f 10 05 00 00 00 	movss  xmm0,DWORD PTR [rip+0x0]        # 4ece <s242+0x44>
    4ecd:	00 
    4ece:	f3 0f 10 4c 24 04    	movss  xmm1,DWORD PTR [rsp+0x4]
    4ed4:	f3 0f 10 14 24       	movss  xmm2,DWORD PTR [rsp]
    4ed9:	f3 0f 58 c1          	addss  xmm0,xmm1
    4edd:	f3 0f 58 c2          	addss  xmm0,xmm2
    4ee1:	f3 0f 58 80 00 00 00 	addss  xmm0,DWORD PTR [rax+0x0]
    4ee8:	00 
    4ee9:	f3 0f 58 80 00 00 00 	addss  xmm0,DWORD PTR [rax+0x0]
    4ef0:	00 
    4ef1:	f3 0f 58 80 00 00 00 	addss  xmm0,DWORD PTR [rax+0x0]
    4ef8:	00 
    4ef9:	f3 0f 11 80 00 00 00 	movss  DWORD PTR [rax+0x0],xmm0
    4f00:	00 
    4f01:	f3 0f 58 c1          	addss  xmm0,xmm1
    4f05:	f3 0f 58 c2          	addss  xmm0,xmm2
    4f09:	f3 0f 58 80 00 00 00 	addss  xmm0,DWORD PTR [rax+0x0]
    4f10:	00 
    4f11:	f3 0f 58 80 00 00 00 	addss  xmm0,DWORD PTR [rax+0x0]
    4f18:	00 
    4f19:	f3 0f 58 80 00 00 00 	addss  xmm0,DWORD PTR [rax+0x0]
    4f20:	00 
    4f21:	f3 0f 11 80 00 00 00 	movss  DWORD PTR [rax+0x0],xmm0
    4f28:	00 
    4f29:	f3 0f 58 c1          	addss  xmm0,xmm1
    4f2d:	f3 0f 58 c2          	addss  xmm0,xmm2
    4f31:	f3 0f 58 80 00 00 00 	addss  xmm0,DWORD PTR [rax+0x0]
    4f38:	00 
    4f39:	f3 0f 58 80 00 00 00 	addss  xmm0,DWORD PTR [rax+0x0]
    4f40:	00 
    4f41:	f3 0f 58 80 00 00 00 	addss  xmm0,DWORD PTR [rax+0x0]
    4f48:	00 
    4f49:	f3 0f 11 80 00 00 00 	movss  DWORD PTR [rax+0x0],xmm0
    4f50:	00 
    4f51:	f3 0f 58 c1          	addss  xmm0,xmm1
    4f55:	f3 0f 58 c2          	addss  xmm0,xmm2
    4f59:	f3 0f 58 80 00 00 00 	addss  xmm0,DWORD PTR [rax+0x0]
    4f60:	00 
    4f61:	f3 0f 58 80 00 00 00 	addss  xmm0,DWORD PTR [rax+0x0]
    4f68:	00 
    4f69:	f3 0f 58 80 00 00 00 	addss  xmm0,DWORD PTR [rax+0x0]
    4f70:	00 
    4f71:	f3 0f 11 80 00 00 00 	movss  DWORD PTR [rax+0x0],xmm0
    4f78:	00 
    4f79:	f3 0f 58 c1          	addss  xmm0,xmm1
    4f7d:	f3 0f 58 c2          	addss  xmm0,xmm2
    4f81:	f3 0f 58 80 00 00 00 	addss  xmm0,DWORD PTR [rax+0x0]
    4f88:	00 
    4f89:	f3 0f 58 80 00 00 00 	addss  xmm0,DWORD PTR [rax+0x0]
    4f90:	00 
    4f91:	f3 0f 58 80 00 00 00 	addss  xmm0,DWORD PTR [rax+0x0]
    4f98:	00 
    4f99:	f3 0f 11 80 00 00 00 	movss  DWORD PTR [rax+0x0],xmm0
    4fa0:	00 
    4fa1:	f3 0f 58 c1          	addss  xmm0,xmm1
    4fa5:	f3 0f 58 c2          	addss  xmm0,xmm2
    4fa9:	f3 0f 58 80 00 00 00 	addss  xmm0,DWORD PTR [rax+0x0]
    4fb0:	00 
    4fb1:	f3 0f 58 80 00 00 00 	addss  xmm0,DWORD PTR [rax+0x0]
    4fb8:	00 
    4fb9:	f3 0f 58 80 00 00 00 	addss  xmm0,DWORD PTR [rax+0x0]
    4fc0:	00 
    4fc1:	f3 0f 11 80 00 00 00 	movss  DWORD PTR [rax+0x0],xmm0
    4fc8:	00 
    4fc9:	f3 0f 58 c1          	addss  xmm0,xmm1
    4fcd:	f3 0f 58 c2          	addss  xmm0,xmm2
    4fd1:	f3 0f 58 80 00 00 00 	addss  xmm0,DWORD PTR [rax+0x0]
    4fd8:	00 
    4fd9:	f3 0f 58 80 00 00 00 	addss  xmm0,DWORD PTR [rax+0x0]
    4fe0:	00 
    4fe1:	f3 0f 58 80 00 00 00 	addss  xmm0,DWORD PTR [rax+0x0]
    4fe8:	00 
    4fe9:	f3 0f 11 80 00 00 00 	movss  DWORD PTR [rax+0x0],xmm0
    4ff0:	00 
    4ff1:	48 85 c0             	test   rax,rax
    4ff4:	74 31                	je     5027 <s242+0x19d>
    4ff6:	f3 0f 58 c1          	addss  xmm0,xmm1
    4ffa:	f3 0f 58 c2          	addss  xmm0,xmm2
    4ffe:	f3 0f 58 80 00 00 00 	addss  xmm0,DWORD PTR [rax+0x0]
    5005:	00 
    5006:	f3 0f 58 80 00 00 00 	addss  xmm0,DWORD PTR [rax+0x0]
    500d:	00 
    500e:	f3 0f 58 80 00 00 00 	addss  xmm0,DWORD PTR [rax+0x0]
    5015:	00 
    5016:	f3 0f 11 80 00 00 00 	movss  DWORD PTR [rax+0x0],xmm0
    501d:	00 
    501e:	48 83 c0 20          	add    rax,0x20
    5022:	e9 b2 fe ff ff       	jmp    4ed9 <s242+0x4f>
    5027:	bf 00 00 00 00       	mov    edi,0x0
    502c:	be 00 00 00 00       	mov    esi,0x0
    5031:	ba 00 00 00 00       	mov    edx,0x0
    5036:	b9 00 00 00 00       	mov    ecx,0x0
    503b:	41 b8 00 00 00 00    	mov    r8d,0x0
    5041:	41 b9 00 00 00 00    	mov    r9d,0x0
    5047:	0f 57 c0             	xorps  xmm0,xmm0
    504a:	68 00 00 00 00       	push   0x0
    504f:	68 00 00 00 00       	push   0x0
    5054:	e8 00 00 00 00       	call   5059 <s242+0x1cf>
    5059:	48 83 c4 10          	add    rsp,0x10
    505d:	ff c3                	inc    ebx
    505f:	81 fb 20 4e 00 00    	cmp    ebx,0x4e20
    5065:	0f 85 54 fe ff ff    	jne    4ebf <s242+0x35>
    506b:	49 83 c6 10          	add    r14,0x10
    506f:	4c 89 f7             	mov    rdi,r14
    5072:	31 f6                	xor    esi,esi
    5074:	e8 00 00 00 00       	call   5079 <s242+0x1ef>
    5079:	bf 00 00 00 00       	mov    edi,0x0
    507e:	48 83 c4 08          	add    rsp,0x8
    5082:	5b                   	pop    rbx
    5083:	41 5e                	pop    r14
    5085:	e9 00 00 00 00       	jmp    508a <s243>

000000000000508a <s243>:
    508a:	41 56                	push   r14
    508c:	53                   	push   rbx
    508d:	50                   	push   rax
    508e:	49 89 fe             	mov    r14,rdi
    5091:	bf 00 00 00 00       	mov    edi,0x0
    5096:	e8 00 00 00 00       	call   509b <s243+0x11>
    509b:	31 db                	xor    ebx,ebx
    509d:	4c 89 f7             	mov    rdi,r14
    50a0:	31 f6                	xor    esi,esi
    50a2:	e8 00 00 00 00       	call   50a7 <s243+0x1d>
    50a7:	31 c0                	xor    eax,eax
    50a9:	f3 0f 10 80 00 00 00 	movss  xmm0,DWORD PTR [rax+0x0]
    50b0:	00 
    50b1:	f3 0f 10 88 00 00 00 	movss  xmm1,DWORD PTR [rax+0x0]
    50b8:	00 
    50b9:	f3 0f 59 c8          	mulss  xmm1,xmm0
    50bd:	f3 0f 58 88 00 00 00 	addss  xmm1,DWORD PTR [rax+0x0]
    50c4:	00 
    50c5:	f3 0f 10 90 00 00 00 	movss  xmm2,DWORD PTR [rax+0x0]
    50cc:	00 
    50cd:	f3 0f 59 d0          	mulss  xmm2,xmm0
    50d1:	f3 0f 58 d1          	addss  xmm2,xmm1
    50d5:	f3 0f 11 90 00 00 00 	movss  DWORD PTR [rax+0x0],xmm2
    50dc:	00 
    50dd:	f3 0f 59 80 00 00 00 	mulss  xmm0,DWORD PTR [rax+0x0]
    50e4:	00 
    50e5:	f3 0f 58 c2          	addss  xmm0,xmm2
    50e9:	f3 0f 11 80 00 00 00 	movss  DWORD PTR [rax+0x0],xmm0
    50f0:	00 
    50f1:	f3 0f 10 80 00 00 00 	movss  xmm0,DWORD PTR [rax+0x0]
    50f8:	00 
    50f9:	f3 0f 10 88 00 00 00 	movss  xmm1,DWORD PTR [rax+0x0]
    5100:	00 
    5101:	f3 0f 59 c8          	mulss  xmm1,xmm0
    5105:	f3 0f 58 88 00 00 00 	addss  xmm1,DWORD PTR [rax+0x0]
    510c:	00 
    510d:	f3 0f 10 90 00 00 00 	movss  xmm2,DWORD PTR [rax+0x0]
    5114:	00 
    5115:	f3 0f 59 d0          	mulss  xmm2,xmm0
    5119:	f3 0f 58 d1          	addss  xmm2,xmm1
    511d:	f3 0f 11 90 00 00 00 	movss  DWORD PTR [rax+0x0],xmm2
    5124:	00 
    5125:	f3 0f 59 80 00 00 00 	mulss  xmm0,DWORD PTR [rax+0x0]
    512c:	00 
    512d:	f3 0f 58 c2          	addss  xmm0,xmm2
    5131:	f3 0f 11 80 00 00 00 	movss  DWORD PTR [rax+0x0],xmm0
    5138:	00 
    5139:	f3 0f 10 80 00 00 00 	movss  xmm0,DWORD PTR [rax+0x0]
    5140:	00 
    5141:	f3 0f 10 88 00 00 00 	movss  xmm1,DWORD PTR [rax+0x0]
    5148:	00 
    5149:	f3 0f 59 c8          	mulss  xmm1,xmm0
    514d:	f3 0f 58 88 00 00 00 	addss  xmm1,DWORD PTR [rax+0x0]
    5154:	00 
    5155:	f3 0f 10 90 00 00 00 	movss  xmm2,DWORD PTR [rax+0x0]
    515c:	00 
    515d:	f3 0f 59 d0          	mulss  xmm2,xmm0
    5161:	f3 0f 58 d1          	addss  xmm2,xmm1
    5165:	f3 0f 59 80 00 00 00 	mulss  xmm0,DWORD PTR [rax+0x0]
    516c:	00 
    516d:	f3 0f 11 90 00 00 00 	movss  DWORD PTR [rax+0x0],xmm2
    5174:	00 
    5175:	f3 0f 58 c2          	addss  xmm0,xmm2
    5179:	f3 0f 11 80 00 00 00 	movss  DWORD PTR [rax+0x0],xmm0
    5180:	00 
    5181:	f3 0f 10 80 00 00 00 	movss  xmm0,DWORD PTR [rax+0x0]
    5188:	00 
    5189:	f3 0f 10 88 00 00 00 	movss  xmm1,DWORD PTR [rax+0x0]
    5190:	00 
    5191:	f3 0f 59 c8          	mulss  xmm1,xmm0
    5195:	f3 0f 58 88 00 00 00 	addss  xmm1,DWORD PTR [rax+0x0]
    519c:	00 
    519d:	f3 0f 10 90 00 00 00 	movss  xmm2,DWORD PTR [rax+0x0]
    51a4:	00 
    51a5:	f3 0f 59 d0          	mulss  xmm2,xmm0
    51a9:	f3 0f 58 d1          	addss  xmm2,xmm1
    51ad:	f3 0f 11 90 00 00 00 	movss  DWORD PTR [rax+0x0],xmm2
    51b4:	00 
    51b5:	f3 0f 59 80 00 00 00 	mulss  xmm0,DWORD PTR [rax+0x0]
    51bc:	00 
    51bd:	f3 0f 58 c2          	addss  xmm0,xmm2
    51c1:	f3 0f 10 88 00 00 00 	movss  xmm1,DWORD PTR [rax+0x0]
    51c8:	00 
    51c9:	f3 0f 10 90 00 00 00 	movss  xmm2,DWORD PTR [rax+0x0]
    51d0:	00 
    51d1:	f3 0f 59 d1          	mulss  xmm2,xmm1
    51d5:	f3 0f 58 90 00 00 00 	addss  xmm2,DWORD PTR [rax+0x0]
    51dc:	00 
    51dd:	f3 0f 11 80 00 00 00 	movss  DWORD PTR [rax+0x0],xmm0
    51e4:	00 
    51e5:	f3 0f 10 80 00 00 00 	movss  xmm0,DWORD PTR [rax+0x0]
    51ec:	00 
    51ed:	f3 0f 59 c1          	mulss  xmm0,xmm1
    51f1:	f3 0f 58 c2          	addss  xmm0,xmm2
    51f5:	f3 0f 11 80 00 00 00 	movss  DWORD PTR [rax+0x0],xmm0
    51fc:	00 
    51fd:	f3 0f 59 88 00 00 00 	mulss  xmm1,DWORD PTR [rax+0x0]
    5204:	00 
    5205:	f3 0f 58 c8          	addss  xmm1,xmm0
    5209:	f3 0f 11 88 00 00 00 	movss  DWORD PTR [rax+0x0],xmm1
    5210:	00 
    5211:	f3 0f 10 80 00 00 00 	movss  xmm0,DWORD PTR [rax+0x0]
    5218:	00 
    5219:	f3 0f 10 88 00 00 00 	movss  xmm1,DWORD PTR [rax+0x0]
    5220:	00 
    5221:	f3 0f 59 c8          	mulss  xmm1,xmm0
    5225:	f3 0f 58 88 00 00 00 	addss  xmm1,DWORD PTR [rax+0x0]
    522c:	00 
    522d:	f3 0f 10 90 00 00 00 	movss  xmm2,DWORD PTR [rax+0x0]
    5234:	00 
    5235:	f3 0f 59 d0          	mulss  xmm2,xmm0
    5239:	f3 0f 58 d1          	addss  xmm2,xmm1
    523d:	f3 0f 11 90 00 00 00 	movss  DWORD PTR [rax+0x0],xmm2
    5244:	00 
    5245:	f3 0f 59 80 00 00 00 	mulss  xmm0,DWORD PTR [rax+0x0]
    524c:	00 
    524d:	f3 0f 58 c2          	addss  xmm0,xmm2
    5251:	f3 0f 11 80 00 00 00 	movss  DWORD PTR [rax+0x0],xmm0
    5258:	00 
    5259:	f3 0f 10 80 00 00 00 	movss  xmm0,DWORD PTR [rax+0x0]
    5260:	00 
    5261:	f3 0f 10 88 00 00 00 	movss  xmm1,DWORD PTR [rax+0x0]
    5268:	00 
    5269:	f3 0f 59 c8          	mulss  xmm1,xmm0
    526d:	f3 0f 58 88 00 00 00 	addss  xmm1,DWORD PTR [rax+0x0]
    5274:	00 
    5275:	f3 0f 10 90 00 00 00 	movss  xmm2,DWORD PTR [rax+0x0]
    527c:	00 
    527d:	f3 0f 59 d0          	mulss  xmm2,xmm0
    5281:	f3 0f 58 d1          	addss  xmm2,xmm1
    5285:	f3 0f 59 80 00 00 00 	mulss  xmm0,DWORD PTR [rax+0x0]
    528c:	00 
    528d:	f3 0f 11 90 00 00 00 	movss  DWORD PTR [rax+0x0],xmm2
    5294:	00 
    5295:	f3 0f 58 c2          	addss  xmm0,xmm2
    5299:	f3 0f 11 80 00 00 00 	movss  DWORD PTR [rax+0x0],xmm0
    52a0:	00 
    52a1:	48 3d e0 f3 01 00    	cmp    rax,0x1f3e0
    52a7:	74 51                	je     52fa <s243+0x270>
    52a9:	f3 0f 10 80 00 00 00 	movss  xmm0,DWORD PTR [rax+0x0]
    52b0:	00 
    52b1:	f3 0f 10 88 00 00 00 	movss  xmm1,DWORD PTR [rax+0x0]
    52b8:	00 
    52b9:	f3 0f 59 c8          	mulss  xmm1,xmm0
    52bd:	f3 0f 58 88 00 00 00 	addss  xmm1,DWORD PTR [rax+0x0]
    52c4:	00 
    52c5:	f3 0f 10 90 00 00 00 	movss  xmm2,DWORD PTR [rax+0x0]
    52cc:	00 
    52cd:	f3 0f 59 d0          	mulss  xmm2,xmm0
    52d1:	f3 0f 58 d1          	addss  xmm2,xmm1
    52d5:	f3 0f 59 80 00 00 00 	mulss  xmm0,DWORD PTR [rax+0x0]
    52dc:	00 
    52dd:	f3 0f 11 90 00 00 00 	movss  DWORD PTR [rax+0x0],xmm2
    52e4:	00 
    52e5:	f3 0f 58 c2          	addss  xmm0,xmm2
    52e9:	f3 0f 11 80 00 00 00 	movss  DWORD PTR [rax+0x0],xmm0
    52f0:	00 
    52f1:	48 83 c0 20          	add    rax,0x20
    52f5:	e9 af fd ff ff       	jmp    50a9 <s243+0x1f>
    52fa:	bf 00 00 00 00       	mov    edi,0x0
    52ff:	be 00 00 00 00       	mov    esi,0x0
    5304:	ba 00 00 00 00       	mov    edx,0x0
    5309:	b9 00 00 00 00       	mov    ecx,0x0
    530e:	41 b8 00 00 00 00    	mov    r8d,0x0
    5314:	41 b9 00 00 00 00    	mov    r9d,0x0
    531a:	0f 57 c0             	xorps  xmm0,xmm0
    531d:	68 00 00 00 00       	push   0x0
    5322:	68 00 00 00 00       	push   0x0
    5327:	e8 00 00 00 00       	call   532c <s243+0x2a2>
    532c:	48 83 c4 10          	add    rsp,0x10
    5330:	ff c3                	inc    ebx
    5332:	81 fb a0 86 01 00    	cmp    ebx,0x186a0
    5338:	0f 85 69 fd ff ff    	jne    50a7 <s243+0x1d>
    533e:	49 83 c6 10          	add    r14,0x10
    5342:	4c 89 f7             	mov    rdi,r14
    5345:	31 f6                	xor    esi,esi
    5347:	e8 00 00 00 00       	call   534c <s243+0x2c2>
    534c:	bf 00 00 00 00       	mov    edi,0x0
    5351:	48 83 c4 08          	add    rsp,0x8
    5355:	5b                   	pop    rbx
    5356:	41 5e                	pop    r14
    5358:	e9 00 00 00 00       	jmp    535d <s244>

000000000000535d <s244>:
    535d:	41 56                	push   r14
    535f:	53                   	push   rbx
    5360:	50                   	push   rax
    5361:	49 89 fe             	mov    r14,rdi
    5364:	bf 00 00 00 00       	mov    edi,0x0
    5369:	e8 00 00 00 00       	call   536e <s244+0x11>
    536e:	31 db                	xor    ebx,ebx
    5370:	4c 89 f7             	mov    rdi,r14
    5373:	31 f6                	xor    esi,esi
    5375:	e8 00 00 00 00       	call   537a <s244+0x1d>
    537a:	48 c7 c0 20 0c fe ff 	mov    rax,0xfffffffffffe0c20
    5381:	f3 0f 10 80 00 00 00 	movss  xmm0,DWORD PTR [rax+0x0]
    5388:	00 
    5389:	f3 0f 10 88 00 00 00 	movss  xmm1,DWORD PTR [rax+0x0]
    5390:	00 
    5391:	f3 0f 10 90 00 00 00 	movss  xmm2,DWORD PTR [rax+0x0]
    5398:	00 
    5399:	f3 0f 59 d1          	mulss  xmm2,xmm1
    539d:	f3 0f 58 d0          	addss  xmm2,xmm0
    53a1:	f3 0f 11 90 00 00 00 	movss  DWORD PTR [rax+0x0],xmm2
    53a8:	00 
    53a9:	f3 0f 58 c1          	addss  xmm0,xmm1
    53ad:	f3 0f 11 80 00 00 00 	movss  DWORD PTR [rax+0x0],xmm0
    53b4:	00 
    53b5:	f3 0f 10 80 00 00 00 	movss  xmm0,DWORD PTR [rax+0x0]
    53bc:	00 
    53bd:	f3 0f 10 88 00 00 00 	movss  xmm1,DWORD PTR [rax+0x0]
    53c4:	00 
    53c5:	f3 0f 10 90 00 00 00 	movss  xmm2,DWORD PTR [rax+0x0]
    53cc:	00 
    53cd:	f3 0f 59 d1          	mulss  xmm2,xmm1
    53d1:	f3 0f 58 d0          	addss  xmm2,xmm0
    53d5:	f3 0f 11 90 00 00 00 	movss  DWORD PTR [rax+0x0],xmm2
    53dc:	00 
    53dd:	f3 0f 58 c1          	addss  xmm0,xmm1
    53e1:	f3 0f 11 80 00 00 00 	movss  DWORD PTR [rax+0x0],xmm0
    53e8:	00 
    53e9:	f3 0f 10 80 00 00 00 	movss  xmm0,DWORD PTR [rax+0x0]
    53f0:	00 
    53f1:	f3 0f 10 88 00 00 00 	movss  xmm1,DWORD PTR [rax+0x0]
    53f8:	00 
    53f9:	f3 0f 10 90 00 00 00 	movss  xmm2,DWORD PTR [rax+0x0]
    5400:	00 
    5401:	f3 0f 59 d1          	mulss  xmm2,xmm1
    5405:	f3 0f 58 d0          	addss  xmm2,xmm0
    5409:	f3 0f 11 90 00 00 00 	movss  DWORD PTR [rax+0x0],xmm2
    5410:	00 
    5411:	f3 0f 58 c1          	addss  xmm0,xmm1
    5415:	f3 0f 11 80 00 00 00 	movss  DWORD PTR [rax+0x0],xmm0
    541c:	00 
    541d:	f3 0f 10 80 00 00 00 	movss  xmm0,DWORD PTR [rax+0x0]
    5424:	00 
    5425:	f3 0f 10 88 00 00 00 	movss  xmm1,DWORD PTR [rax+0x0]
    542c:	00 
    542d:	f3 0f 10 90 00 00 00 	movss  xmm2,DWORD PTR [rax+0x0]
    5434:	00 
    5435:	f3 0f 59 d1          	mulss  xmm2,xmm1
    5439:	f3 0f 58 d0          	addss  xmm2,xmm0
    543d:	f3 0f 11 90 00 00 00 	movss  DWORD PTR [rax+0x0],xmm2
    5444:	00 
    5445:	f3 0f 58 c1          	addss  xmm0,xmm1
    5449:	f3 0f 11 80 00 00 00 	movss  DWORD PTR [rax+0x0],xmm0
    5450:	00 
    5451:	f3 0f 10 80 00 00 00 	movss  xmm0,DWORD PTR [rax+0x0]
    5458:	00 
    5459:	f3 0f 10 88 00 00 00 	movss  xmm1,DWORD PTR [rax+0x0]
    5460:	00 
    5461:	f3 0f 10 90 00 00 00 	movss  xmm2,DWORD PTR [rax+0x0]
    5468:	00 
    5469:	f3 0f 59 d1          	mulss  xmm2,xmm1
    546d:	f3 0f 58 d0          	addss  xmm2,xmm0
    5471:	f3 0f 11 90 00 00 00 	movss  DWORD PTR [rax+0x0],xmm2
    5478:	00 
    5479:	f3 0f 58 c1          	addss  xmm0,xmm1
    547d:	f3 0f 11 80 00 00 00 	movss  DWORD PTR [rax+0x0],xmm0
    5484:	00 
    5485:	f3 0f 10 80 00 00 00 	movss  xmm0,DWORD PTR [rax+0x0]
    548c:	00 
    548d:	f3 0f 10 88 00 00 00 	movss  xmm1,DWORD PTR [rax+0x0]
    5494:	00 
    5495:	f3 0f 10 90 00 00 00 	movss  xmm2,DWORD PTR [rax+0x0]
    549c:	00 
    549d:	f3 0f 59 d1          	mulss  xmm2,xmm1
    54a1:	f3 0f 58 d0          	addss  xmm2,xmm0
    54a5:	f3 0f 11 90 00 00 00 	movss  DWORD PTR [rax+0x0],xmm2
    54ac:	00 
    54ad:	f3 0f 58 c1          	addss  xmm0,xmm1
    54b1:	f3 0f 11 80 00 00 00 	movss  DWORD PTR [rax+0x0],xmm0
    54b8:	00 
    54b9:	f3 0f 10 80 00 00 00 	movss  xmm0,DWORD PTR [rax+0x0]
    54c0:	00 
    54c1:	f3 0f 10 88 00 00 00 	movss  xmm1,DWORD PTR [rax+0x0]
    54c8:	00 
    54c9:	f3 0f 10 90 00 00 00 	movss  xmm2,DWORD PTR [rax+0x0]
    54d0:	00 
    54d1:	0f 28 d9             	movaps xmm3,xmm1
    54d4:	f3 0f 59 da          	mulss  xmm3,xmm2
    54d8:	f3 0f 58 d8          	addss  xmm3,xmm0
    54dc:	f3 0f 11 98 00 00 00 	movss  DWORD PTR [rax+0x0],xmm3
    54e3:	00 
    54e4:	f3 0f 58 c1          	addss  xmm0,xmm1
    54e8:	f3 0f 59 90 00 00 00 	mulss  xmm2,DWORD PTR [rax+0x0]
    54ef:	00 
    54f0:	f3 0f 11 80 00 00 00 	movss  DWORD PTR [rax+0x0],xmm0
    54f7:	00 
    54f8:	f3 0f 58 d0          	addss  xmm2,xmm0
    54fc:	f3 0f 11 90 00 00 00 	movss  DWORD PTR [rax+0x0],xmm2
    5503:	00 
    5504:	48 85 c0             	test   rax,rax
    5507:	74 54                	je     555d <s244+0x200>
    5509:	f3 0f 10 80 00 00 00 	movss  xmm0,DWORD PTR [rax+0x0]
    5510:	00 
    5511:	f3 0f 10 88 00 00 00 	movss  xmm1,DWORD PTR [rax+0x0]
    5518:	00 
    5519:	f3 0f 10 90 00 00 00 	movss  xmm2,DWORD PTR [rax+0x0]
    5520:	00 
    5521:	0f 28 d9             	movaps xmm3,xmm1
    5524:	f3 0f 59 da          	mulss  xmm3,xmm2
    5528:	f3 0f 58 d8          	addss  xmm3,xmm0
    552c:	f3 0f 11 98 00 00 00 	movss  DWORD PTR [rax+0x0],xmm3
    5533:	00 
    5534:	f3 0f 58 c1          	addss  xmm0,xmm1
    5538:	f3 0f 59 90 00 00 00 	mulss  xmm2,DWORD PTR [rax+0x0]
    553f:	00 
    5540:	f3 0f 11 80 00 00 00 	movss  DWORD PTR [rax+0x0],xmm0
    5547:	00 
    5548:	f3 0f 58 d0          	addss  xmm2,xmm0
    554c:	f3 0f 11 90 00 00 00 	movss  DWORD PTR [rax+0x0],xmm2
    5553:	00 
    5554:	48 83 c0 20          	add    rax,0x20
    5558:	e9 24 fe ff ff       	jmp    5381 <s244+0x24>
    555d:	bf 00 00 00 00       	mov    edi,0x0
    5562:	be 00 00 00 00       	mov    esi,0x0
    5567:	ba 00 00 00 00       	mov    edx,0x0
    556c:	b9 00 00 00 00       	mov    ecx,0x0
    5571:	41 b8 00 00 00 00    	mov    r8d,0x0
    5577:	41 b9 00 00 00 00    	mov    r9d,0x0
    557d:	0f 57 c0             	xorps  xmm0,xmm0
    5580:	68 00 00 00 00       	push   0x0
    5585:	68 00 00 00 00       	push   0x0
    558a:	e8 00 00 00 00       	call   558f <s244+0x232>
    558f:	48 83 c4 10          	add    rsp,0x10
    5593:	ff c3                	inc    ebx
    5595:	81 fb a0 86 01 00    	cmp    ebx,0x186a0
    559b:	0f 85 d9 fd ff ff    	jne    537a <s244+0x1d>
    55a1:	49 83 c6 10          	add    r14,0x10
    55a5:	4c 89 f7             	mov    rdi,r14
    55a8:	31 f6                	xor    esi,esi
    55aa:	e8 00 00 00 00       	call   55af <s244+0x252>
    55af:	bf 00 00 00 00       	mov    edi,0x0
    55b4:	48 83 c4 08          	add    rsp,0x8
    55b8:	5b                   	pop    rbx
    55b9:	41 5e                	pop    r14
    55bb:	e9 00 00 00 00       	jmp    55c0 <s1244>

00000000000055c0 <s1244>:
    55c0:	41 56                	push   r14
    55c2:	53                   	push   rbx
    55c3:	50                   	push   rax
    55c4:	49 89 fe             	mov    r14,rdi
    55c7:	bf 00 00 00 00       	mov    edi,0x0
    55cc:	e8 00 00 00 00       	call   55d1 <s1244+0x11>
    55d1:	31 db                	xor    ebx,ebx
    55d3:	4c 89 f7             	mov    rdi,r14
    55d6:	31 f6                	xor    esi,esi
    55d8:	e8 00 00 00 00       	call   55dd <s1244+0x1d>
    55dd:	48 c7 c0 20 0c fe ff 	mov    rax,0xfffffffffffe0c20
    55e4:	f3 0f 10 80 00 00 00 	movss  xmm0,DWORD PTR [rax+0x0]
    55eb:	00 
    55ec:	f3 0f 10 88 00 00 00 	movss  xmm1,DWORD PTR [rax+0x0]
    55f3:	00 
    55f4:	0f 28 d1             	movaps xmm2,xmm1
    55f7:	f3 0f 59 d1          	mulss  xmm2,xmm1
    55fb:	f3 0f 58 d0          	addss  xmm2,xmm0
    55ff:	f3 0f 59 c0          	mulss  xmm0,xmm0
    5603:	f3 0f 58 c2          	addss  xmm0,xmm2
    5607:	f3 0f 58 c1          	addss  xmm0,xmm1
    560b:	f3 0f 11 80 00 00 00 	movss  DWORD PTR [rax+0x0],xmm0
    5612:	00 
    5613:	f3 0f 58 80 00 00 00 	addss  xmm0,DWORD PTR [rax+0x0]
    561a:	00 
    561b:	f3 0f 11 80 00 00 00 	movss  DWORD PTR [rax+0x0],xmm0
    5622:	00 
    5623:	f3 0f 10 80 00 00 00 	movss  xmm0,DWORD PTR [rax+0x0]
    562a:	00 
    562b:	f3 0f 10 88 00 00 00 	movss  xmm1,DWORD PTR [rax+0x0]
    5632:	00 
