
tsvc.region.o:     file format elf64-x86-64


Disassembly of section .text:

0000000000000000 <s000>:
       0:	41 56                	push   r14
       2:	53                   	push   rbx
       3:	50                   	push   rax
       4:	49 89 fe             	mov    r14,rdi
       7:	bf 00 00 00 00       	mov    edi,0x0
       c:	e8 00 00 00 00       	call   11 <s000+0x11>
      11:	31 db                	xor    ebx,ebx
      13:	4c 89 f7             	mov    rdi,r14
      16:	31 f6                	xor    esi,esi
      18:	e8 00 00 00 00       	call   1d <s000+0x1d>
      1d:	f3 0f 10 0d 00 00 00 	movss  xmm1,DWORD PTR [rip+0x0]        # 25 <s000+0x25>
      24:	00 
      25:	31 c0                	xor    eax,eax
      27:	31 c9                	xor    ecx,ecx
      29:	48 89 c2             	mov    rdx,rax
      2c:	48 09 ca             	or     rdx,rcx
      2f:	f3 0f 10 04 95 00 00 	movss  xmm0,DWORD PTR [rdx*4+0x0]
      36:	00 00 
      38:	f3 0f 58 c1          	addss  xmm0,xmm1
      3c:	f3 0f 11 04 95 00 00 	movss  DWORD PTR [rdx*4+0x0],xmm0
      43:	00 00 
      45:	48 ff c1             	inc    rcx
      48:	48 83 f9 08          	cmp    rcx,0x8
      4c:	75 db                	jne    29 <s000+0x29>
      4e:	48 83 c0 08          	add    rax,0x8
      52:	48 3d 00 7d 00 00    	cmp    rax,0x7d00
      58:	75 cd                	jne    27 <s000+0x27>
      5a:	bf 00 00 00 00       	mov    edi,0x0
      5f:	be 00 00 00 00       	mov    esi,0x0
      64:	ba 00 00 00 00       	mov    edx,0x0
      69:	b9 00 00 00 00       	mov    ecx,0x0
      6e:	41 b8 00 00 00 00    	mov    r8d,0x0
      74:	41 b9 00 00 00 00    	mov    r9d,0x0
      7a:	0f 57 c0             	xorps  xmm0,xmm0
      7d:	68 00 00 00 00       	push   0x0
      82:	68 00 00 00 00       	push   0x0
      87:	e8 00 00 00 00       	call   8c <s000+0x8c>
      8c:	f3 0f 10 0d 00 00 00 	movss  xmm1,DWORD PTR [rip+0x0]        # 94 <s000+0x94>
      93:	00 
      94:	48 83 c4 10          	add    rsp,0x10
      98:	ff c3                	inc    ebx
      9a:	81 fb 40 0d 03 00    	cmp    ebx,0x30d40
      a0:	75 83                	jne    25 <s000+0x25>
      a2:	49 83 c6 10          	add    r14,0x10
      a6:	4c 89 f7             	mov    rdi,r14
      a9:	31 f6                	xor    esi,esi
      ab:	e8 00 00 00 00       	call   b0 <s000+0xb0>
      b0:	bf 00 00 00 00       	mov    edi,0x0
      b5:	48 83 c4 08          	add    rsp,0x8
      b9:	5b                   	pop    rbx
      ba:	41 5e                	pop    r14
      bc:	e9 00 00 00 00       	jmp    c1 <s111>

00000000000000c1 <s111>:
      c1:	41 56                	push   r14
      c3:	53                   	push   rbx
      c4:	50                   	push   rax
      c5:	49 89 fe             	mov    r14,rdi
      c8:	bf 00 00 00 00       	mov    edi,0x0
      cd:	e8 00 00 00 00       	call   d2 <s111+0x11>
      d2:	31 db                	xor    ebx,ebx
      d4:	4c 89 f7             	mov    rdi,r14
      d7:	31 f6                	xor    esi,esi
      d9:	e8 00 00 00 00       	call   de <s111+0x1d>
      de:	b9 01 00 00 00       	mov    ecx,0x1
      e3:	b8 04 00 00 00       	mov    eax,0x4
      e8:	48 c7 c2 f8 ff ff ff 	mov    rdx,0xfffffffffffffff8
      ef:	f3 0f 10 84 d0 00 00 	movss  xmm0,DWORD PTR [rax+rdx*8+0x0]
      f6:	00 00 
      f8:	f3 0f 58 84 d0 00 00 	addss  xmm0,DWORD PTR [rax+rdx*8+0x0]
      ff:	00 00 
     101:	f3 0f 11 84 d0 00 00 	movss  DWORD PTR [rax+rdx*8+0x0],xmm0
     108:	00 00 
     10a:	48 ff c2             	inc    rdx
     10d:	75 e0                	jne    ef <s111+0x2e>
     10f:	48 8d 51 10          	lea    rdx,[rcx+0x10]
     113:	48 83 c0 40          	add    rax,0x40
     117:	48 81 f9 f0 7c 00 00 	cmp    rcx,0x7cf0
     11e:	48 89 d1             	mov    rcx,rdx
     121:	72 c5                	jb     e8 <s111+0x27>
     123:	bf 00 00 00 00       	mov    edi,0x0
     128:	be 00 00 00 00       	mov    esi,0x0
     12d:	ba 00 00 00 00       	mov    edx,0x0
     132:	b9 00 00 00 00       	mov    ecx,0x0
     137:	41 b8 00 00 00 00    	mov    r8d,0x0
     13d:	41 b9 00 00 00 00    	mov    r9d,0x0
     143:	0f 57 c0             	xorps  xmm0,xmm0
     146:	68 00 00 00 00       	push   0x0
     14b:	68 00 00 00 00       	push   0x0
     150:	e8 00 00 00 00       	call   155 <s111+0x94>
     155:	48 83 c4 10          	add    rsp,0x10
     159:	ff c3                	inc    ebx
     15b:	81 fb 40 0d 03 00    	cmp    ebx,0x30d40
     161:	0f 85 77 ff ff ff    	jne    de <s111+0x1d>
     167:	49 83 c6 10          	add    r14,0x10
     16b:	4c 89 f7             	mov    rdi,r14
     16e:	31 f6                	xor    esi,esi
     170:	e8 00 00 00 00       	call   175 <s111+0xb4>
     175:	bf 00 00 00 00       	mov    edi,0x0
     17a:	48 83 c4 08          	add    rsp,0x8
     17e:	5b                   	pop    rbx
     17f:	41 5e                	pop    r14
     181:	e9 00 00 00 00       	jmp    186 <s1111>

0000000000000186 <s1111>:
     186:	41 56                	push   r14
     188:	53                   	push   rbx
     189:	50                   	push   rax
     18a:	49 89 fe             	mov    r14,rdi
     18d:	bf 00 00 00 00       	mov    edi,0x0
     192:	e8 00 00 00 00       	call   197 <s1111+0x11>
     197:	31 db                	xor    ebx,ebx
     199:	4c 89 f7             	mov    rdi,r14
     19c:	31 f6                	xor    esi,esi
     19e:	e8 00 00 00 00       	call   1a3 <s1111+0x1d>
     1a3:	31 c0                	xor    eax,eax
     1a5:	31 c9                	xor    ecx,ecx
     1a7:	48 89 c2             	mov    rdx,rax
     1aa:	48 09 ca             	or     rdx,rcx
     1ad:	f3 0f 10 04 95 00 00 	movss  xmm0,DWORD PTR [rdx*4+0x0]
     1b4:	00 00 
     1b6:	f3 0f 10 0c 95 00 00 	movss  xmm1,DWORD PTR [rdx*4+0x0]
     1bd:	00 00 
     1bf:	0f 28 d0             	movaps xmm2,xmm0
     1c2:	f3 0f 59 d1          	mulss  xmm2,xmm1
     1c6:	f3 0f 10 1c 95 00 00 	movss  xmm3,DWORD PTR [rdx*4+0x0]
     1cd:	00 00 
     1cf:	f3 0f 59 cb          	mulss  xmm1,xmm3
     1d3:	f3 0f 58 d1          	addss  xmm2,xmm1
     1d7:	0f 28 e0             	movaps xmm4,xmm0
     1da:	f3 0f 59 e0          	mulss  xmm4,xmm0
     1de:	f3 0f 58 e2          	addss  xmm4,xmm2
     1e2:	f3 0f 58 e1          	addss  xmm4,xmm1
     1e6:	f3 0f 59 c3          	mulss  xmm0,xmm3
     1ea:	f3 0f 58 c4          	addss  xmm0,xmm4
     1ee:	f3 0f 11 04 d5 00 00 	movss  DWORD PTR [rdx*8+0x0],xmm0
     1f5:	00 00 
     1f7:	48 ff c1             	inc    rcx
     1fa:	48 83 f9 08          	cmp    rcx,0x8
     1fe:	75 a7                	jne    1a7 <s1111+0x21>
     200:	48 83 c0 08          	add    rax,0x8
     204:	48 3d 80 3e 00 00    	cmp    rax,0x3e80
     20a:	75 99                	jne    1a5 <s1111+0x1f>
     20c:	bf 00 00 00 00       	mov    edi,0x0
     211:	be 00 00 00 00       	mov    esi,0x0
     216:	ba 00 00 00 00       	mov    edx,0x0
     21b:	b9 00 00 00 00       	mov    ecx,0x0
     220:	41 b8 00 00 00 00    	mov    r8d,0x0
     226:	41 b9 00 00 00 00    	mov    r9d,0x0
     22c:	0f 57 c0             	xorps  xmm0,xmm0
     22f:	68 00 00 00 00       	push   0x0
     234:	68 00 00 00 00       	push   0x0
     239:	e8 00 00 00 00       	call   23e <s1111+0xb8>
     23e:	48 83 c4 10          	add    rsp,0x10
     242:	ff c3                	inc    ebx
     244:	81 fb 40 0d 03 00    	cmp    ebx,0x30d40
     24a:	0f 85 53 ff ff ff    	jne    1a3 <s1111+0x1d>
     250:	49 83 c6 10          	add    r14,0x10
     254:	4c 89 f7             	mov    rdi,r14
     257:	31 f6                	xor    esi,esi
     259:	e8 00 00 00 00       	call   25e <s1111+0xd8>
     25e:	bf 00 00 00 00       	mov    edi,0x0
     263:	48 83 c4 08          	add    rsp,0x8
     267:	5b                   	pop    rbx
     268:	41 5e                	pop    r14
     26a:	e9 00 00 00 00       	jmp    26f <s112>

000000000000026f <s112>:
     26f:	41 57                	push   r15
     271:	41 56                	push   r14
     273:	53                   	push   rbx
     274:	48 83 ec 70          	sub    rsp,0x70
     278:	49 89 fe             	mov    r14,rdi
     27b:	bf 00 00 00 00       	mov    edi,0x0
     280:	e8 00 00 00 00       	call   285 <s112+0x16>
     285:	45 31 ff             	xor    r15d,r15d
     288:	4c 89 f7             	mov    rdi,r14
     28b:	31 f6                	xor    esi,esi
     28d:	e8 00 00 00 00       	call   292 <s112+0x23>
     292:	b8 fe 7c 00 00       	mov    eax,0x7cfe
     297:	b9 f8 f3 01 00       	mov    ecx,0x1f3f8
     29c:	ba 00 00 00 00       	mov    edx,0x0
     2a1:	31 f6                	xor    esi,esi
     2a3:	31 ff                	xor    edi,edi
     2a5:	48 8d 1c 30          	lea    rbx,[rax+rsi*1]
     2a9:	48 89 1c 3c          	mov    QWORD PTR [rsp+rdi*1],rbx
     2ad:	48 8d 1c 0a          	lea    rbx,[rdx+rcx*1]
     2b1:	48 89 5c 3c 38       	mov    QWORD PTR [rsp+rdi*1+0x38],rbx
     2b6:	f3 0f 10 84 b1 00 00 	movss  xmm0,DWORD PTR [rcx+rsi*4+0x0]
     2bd:	00 00 
     2bf:	f3 0f 58 84 b1 00 00 	addss  xmm0,DWORD PTR [rcx+rsi*4+0x0]
     2c6:	00 00 
     2c8:	f3 0f 11 84 b1 00 00 	movss  DWORD PTR [rcx+rsi*4+0x0],xmm0
     2cf:	00 00 
     2d1:	48 83 c7 08          	add    rdi,0x8
     2d5:	48 ff ce             	dec    rsi
     2d8:	48 83 c2 fc          	add    rdx,0xfffffffffffffffc
     2dc:	48 83 fe f9          	cmp    rsi,0xfffffffffffffff9
     2e0:	75 c3                	jne    2a5 <s112+0x36>
     2e2:	48 83 7c 24 30 00    	cmp    QWORD PTR [rsp+0x30],0x0
     2e8:	74 25                	je     30f <s112+0xa0>
     2ea:	f3 0f 10 04 85 00 00 	movss  xmm0,DWORD PTR [rax*4+0x0]
     2f1:	00 00 
     2f3:	f3 0f 58 04 85 00 00 	addss  xmm0,DWORD PTR [rax*4+0x0]
     2fa:	00 00 
     2fc:	48 8b 54 24 68       	mov    rdx,QWORD PTR [rsp+0x68]
     301:	f3 0f 11 02          	movss  DWORD PTR [rdx],xmm0
     305:	48 83 c0 f8          	add    rax,0xfffffffffffffff8
     309:	48 83 c1 e0          	add    rcx,0xffffffffffffffe0
     30d:	eb 8d                	jmp    29c <s112+0x2d>
     30f:	bf 00 00 00 00       	mov    edi,0x0
     314:	be 00 00 00 00       	mov    esi,0x0
     319:	ba 00 00 00 00       	mov    edx,0x0
     31e:	b9 00 00 00 00       	mov    ecx,0x0
     323:	41 b8 00 00 00 00    	mov    r8d,0x0
     329:	41 b9 00 00 00 00    	mov    r9d,0x0
     32f:	0f 57 c0             	xorps  xmm0,xmm0
     332:	68 00 00 00 00       	push   0x0
     337:	68 00 00 00 00       	push   0x0
     33c:	e8 00 00 00 00       	call   341 <s112+0xd2>
     341:	48 83 c4 10          	add    rsp,0x10
     345:	41 ff c7             	inc    r15d
     348:	41 81 ff e0 93 04 00 	cmp    r15d,0x493e0
     34f:	0f 85 3d ff ff ff    	jne    292 <s112+0x23>
     355:	49 83 c6 10          	add    r14,0x10
     359:	4c 89 f7             	mov    rdi,r14
     35c:	31 f6                	xor    esi,esi
     35e:	e8 00 00 00 00       	call   363 <s112+0xf4>
     363:	bf 00 00 00 00       	mov    edi,0x0
     368:	48 83 c4 70          	add    rsp,0x70
     36c:	5b                   	pop    rbx
     36d:	41 5e                	pop    r14
     36f:	41 5f                	pop    r15
     371:	e9 00 00 00 00       	jmp    376 <s1112>

0000000000000376 <s1112>:
     376:	41 57                	push   r15
     378:	41 56                	push   r14
     37a:	53                   	push   rbx
     37b:	48 83 ec 40          	sub    rsp,0x40
     37f:	49 89 fe             	mov    r14,rdi
     382:	bf 00 00 00 00       	mov    edi,0x0
     387:	e8 00 00 00 00       	call   38c <s1112+0x16>
     38c:	45 31 ff             	xor    r15d,r15d
     38f:	4c 89 f7             	mov    rdi,r14
     392:	31 f6                	xor    esi,esi
     394:	e8 00 00 00 00       	call   399 <s1112+0x23>
     399:	48 89 e3             	mov    rbx,rsp
     39c:	f3 0f 10 0d 00 00 00 	movss  xmm1,DWORD PTR [rip+0x0]        # 3a4 <s1112+0x2e>
     3a3:	00 
     3a4:	b8 ff 7c 00 00       	mov    eax,0x7cff
     3a9:	b9 fc f3 01 00       	mov    ecx,0x1f3fc
     3ae:	31 d2                	xor    edx,edx
     3b0:	48 89 de             	mov    rsi,rbx
     3b3:	48 8d 3c 10          	lea    rdi,[rax+rdx*1]
     3b7:	48 89 3e             	mov    QWORD PTR [rsi],rdi
     3ba:	f3 0f 10 84 91 00 00 	movss  xmm0,DWORD PTR [rcx+rdx*4+0x0]
     3c1:	00 00 
     3c3:	f3 0f 58 c1          	addss  xmm0,xmm1
     3c7:	f3 0f 11 84 91 00 00 	movss  DWORD PTR [rcx+rdx*4+0x0],xmm0
     3ce:	00 00 
     3d0:	48 83 c6 08          	add    rsi,0x8
     3d4:	48 ff ca             	dec    rdx
     3d7:	48 83 fa f8          	cmp    rdx,0xfffffffffffffff8
     3db:	75 d6                	jne    3b3 <s1112+0x3d>
     3dd:	48 83 c0 f8          	add    rax,0xfffffffffffffff8
     3e1:	48 83 c1 e0          	add    rcx,0xffffffffffffffe0
     3e5:	48 83 7c 24 38 00    	cmp    QWORD PTR [rsp+0x38],0x0
     3eb:	75 c1                	jne    3ae <s1112+0x38>
     3ed:	bf 00 00 00 00       	mov    edi,0x0
     3f2:	be 00 00 00 00       	mov    esi,0x0
     3f7:	ba 00 00 00 00       	mov    edx,0x0
     3fc:	b9 00 00 00 00       	mov    ecx,0x0
     401:	41 b8 00 00 00 00    	mov    r8d,0x0
     407:	41 b9 00 00 00 00    	mov    r9d,0x0
     40d:	0f 57 c0             	xorps  xmm0,xmm0
     410:	68 00 00 00 00       	push   0x0
     415:	68 00 00 00 00       	push   0x0
     41a:	e8 00 00 00 00       	call   41f <s1112+0xa9>
     41f:	f3 0f 10 0d 00 00 00 	movss  xmm1,DWORD PTR [rip+0x0]        # 427 <s1112+0xb1>
     426:	00 
     427:	48 83 c4 10          	add    rsp,0x10
     42b:	41 ff c7             	inc    r15d
     42e:	41 81 ff e0 93 04 00 	cmp    r15d,0x493e0
     435:	0f 85 69 ff ff ff    	jne    3a4 <s1112+0x2e>
     43b:	49 83 c6 10          	add    r14,0x10
     43f:	4c 89 f7             	mov    rdi,r14
     442:	31 f6                	xor    esi,esi
     444:	e8 00 00 00 00       	call   449 <s1112+0xd3>
     449:	bf 00 00 00 00       	mov    edi,0x0
     44e:	48 83 c4 40          	add    rsp,0x40
     452:	5b                   	pop    rbx
     453:	41 5e                	pop    r14
     455:	41 5f                	pop    r15
     457:	e9 00 00 00 00       	jmp    45c <s113>

000000000000045c <s113>:
     45c:	41 56                	push   r14
     45e:	53                   	push   rbx
     45f:	50                   	push   rax
     460:	49 89 fe             	mov    r14,rdi
     463:	bf 00 00 00 00       	mov    edi,0x0
     468:	e8 00 00 00 00       	call   46d <s113+0x11>
     46d:	31 db                	xor    ebx,ebx
     46f:	4c 89 f7             	mov    rdi,r14
     472:	31 f6                	xor    esi,esi
     474:	e8 00 00 00 00       	call   479 <s113+0x1d>
     479:	b8 01 00 00 00       	mov    eax,0x1
     47e:	b9 04 00 00 00       	mov    ecx,0x4
     483:	48 c7 c2 f9 ff ff ff 	mov    rdx,0xfffffffffffffff9
     48a:	f3 0f 10 05 00 00 00 	movss  xmm0,DWORD PTR [rip+0x0]        # 492 <s113+0x36>
     491:	00 
     492:	f3 0f 58 84 91 00 00 	addss  xmm0,DWORD PTR [rcx+rdx*4+0x0]
     499:	00 00 
     49b:	f3 0f 11 84 91 00 00 	movss  DWORD PTR [rcx+rdx*4+0x0],xmm0
     4a2:	00 00 
     4a4:	48 ff c2             	inc    rdx
     4a7:	75 e1                	jne    48a <s113+0x2e>
     4a9:	48 3d f9 7c 00 00    	cmp    rax,0x7cf9
     4af:	74 24                	je     4d5 <s113+0x79>
     4b1:	f3 0f 10 05 00 00 00 	movss  xmm0,DWORD PTR [rip+0x0]        # 4b9 <s113+0x5d>
     4b8:	00 
     4b9:	f3 0f 58 04 85 00 00 	addss  xmm0,DWORD PTR [rax*4+0x0]
     4c0:	00 00 
     4c2:	f3 0f 11 04 85 00 00 	movss  DWORD PTR [rax*4+0x0],xmm0
     4c9:	00 00 
     4cb:	48 83 c0 08          	add    rax,0x8
     4cf:	48 83 c1 20          	add    rcx,0x20
     4d3:	eb ae                	jmp    483 <s113+0x27>
     4d5:	bf 00 00 00 00       	mov    edi,0x0
     4da:	be 00 00 00 00       	mov    esi,0x0
     4df:	ba 00 00 00 00       	mov    edx,0x0
     4e4:	b9 00 00 00 00       	mov    ecx,0x0
     4e9:	41 b8 00 00 00 00    	mov    r8d,0x0
     4ef:	41 b9 00 00 00 00    	mov    r9d,0x0
     4f5:	0f 57 c0             	xorps  xmm0,xmm0
     4f8:	68 00 00 00 00       	push   0x0
     4fd:	68 00 00 00 00       	push   0x0
     502:	e8 00 00 00 00       	call   507 <s113+0xab>
     507:	48 83 c4 10          	add    rsp,0x10
     50b:	ff c3                	inc    ebx
     50d:	81 fb 80 1a 06 00    	cmp    ebx,0x61a80
     513:	0f 85 60 ff ff ff    	jne    479 <s113+0x1d>
     519:	49 83 c6 10          	add    r14,0x10
     51d:	4c 89 f7             	mov    rdi,r14
     520:	31 f6                	xor    esi,esi
     522:	e8 00 00 00 00       	call   527 <s113+0xcb>
     527:	bf 00 00 00 00       	mov    edi,0x0
     52c:	48 83 c4 08          	add    rsp,0x8
     530:	5b                   	pop    rbx
     531:	41 5e                	pop    r14
     533:	e9 00 00 00 00       	jmp    538 <s1113>

0000000000000538 <s1113>:
     538:	41 56                	push   r14
     53a:	53                   	push   rbx
     53b:	50                   	push   rax
     53c:	49 89 fe             	mov    r14,rdi
     53f:	bf 00 00 00 00       	mov    edi,0x0
     544:	e8 00 00 00 00       	call   549 <s1113+0x11>
     549:	31 db                	xor    ebx,ebx
     54b:	4c 89 f7             	mov    rdi,r14
     54e:	31 f6                	xor    esi,esi
     550:	e8 00 00 00 00       	call   555 <s1113+0x1d>
     555:	31 c0                	xor    eax,eax
     557:	31 c9                	xor    ecx,ecx
     559:	f3 0f 10 05 00 00 00 	movss  xmm0,DWORD PTR [rip+0x0]        # 561 <s1113+0x29>
     560:	00 
     561:	48 89 c2             	mov    rdx,rax
     564:	48 09 ca             	or     rdx,rcx
     567:	f3 0f 58 04 95 00 00 	addss  xmm0,DWORD PTR [rdx*4+0x0]
     56e:	00 00 
     570:	f3 0f 11 04 95 00 00 	movss  DWORD PTR [rdx*4+0x0],xmm0
     577:	00 00 
     579:	48 ff c1             	inc    rcx
     57c:	48 83 f9 08          	cmp    rcx,0x8
     580:	75 d7                	jne    559 <s1113+0x21>
     582:	48 83 c0 08          	add    rax,0x8
     586:	48 3d 00 7d 00 00    	cmp    rax,0x7d00
     58c:	75 c9                	jne    557 <s1113+0x1f>
     58e:	bf 00 00 00 00       	mov    edi,0x0
     593:	be 00 00 00 00       	mov    esi,0x0
     598:	ba 00 00 00 00       	mov    edx,0x0
     59d:	b9 00 00 00 00       	mov    ecx,0x0
     5a2:	41 b8 00 00 00 00    	mov    r8d,0x0
     5a8:	41 b9 00 00 00 00    	mov    r9d,0x0
     5ae:	0f 57 c0             	xorps  xmm0,xmm0
     5b1:	68 00 00 00 00       	push   0x0
     5b6:	68 00 00 00 00       	push   0x0
     5bb:	e8 00 00 00 00       	call   5c0 <s1113+0x88>
     5c0:	48 83 c4 10          	add    rsp,0x10
     5c4:	ff c3                	inc    ebx
     5c6:	81 fb 40 0d 03 00    	cmp    ebx,0x30d40
     5cc:	75 87                	jne    555 <s1113+0x1d>
     5ce:	49 83 c6 10          	add    r14,0x10
     5d2:	4c 89 f7             	mov    rdi,r14
     5d5:	31 f6                	xor    esi,esi
     5d7:	e8 00 00 00 00       	call   5dc <s1113+0xa4>
     5dc:	bf 00 00 00 00       	mov    edi,0x0
     5e1:	48 83 c4 08          	add    rsp,0x8
     5e5:	5b                   	pop    rbx
     5e6:	41 5e                	pop    r14
     5e8:	e9 00 00 00 00       	jmp    5ed <s114>

00000000000005ed <s114>:
     5ed:	41 56                	push   r14
     5ef:	53                   	push   rbx
     5f0:	50                   	push   rax
     5f1:	49 89 fe             	mov    r14,rdi
     5f4:	bf 00 00 00 00       	mov    edi,0x0
     5f9:	e8 00 00 00 00       	call   5fe <s114+0x11>
     5fe:	31 db                	xor    ebx,ebx
     600:	4c 89 f7             	mov    rdi,r14
     603:	31 f6                	xor    esi,esi
     605:	e8 00 00 00 00       	call   60a <s114+0x1d>
     60a:	b8 00 00 00 00       	mov    eax,0x0
     60f:	31 c9                	xor    ecx,ecx
     611:	31 d2                	xor    edx,edx
     613:	48 85 d2             	test   rdx,rdx
     616:	74 2a                	je     642 <s114+0x55>
     618:	48 89 c6             	mov    rsi,rax
     61b:	31 ff                	xor    edi,edi
     61d:	f3 0f 10 06          	movss  xmm0,DWORD PTR [rsi]
     621:	f3 0f 58 84 b9 00 00 	addss  xmm0,DWORD PTR [rcx+rdi*4+0x0]
     628:	00 00 
     62a:	f3 0f 11 84 b9 00 00 	movss  DWORD PTR [rcx+rdi*4+0x0],xmm0
     631:	00 00 
     633:	48 ff c7             	inc    rdi
     636:	48 81 c6 00 04 00 00 	add    rsi,0x400
     63d:	48 39 fa             	cmp    rdx,rdi
     640:	75 db                	jne    61d <s114+0x30>
     642:	48 ff c2             	inc    rdx
     645:	48 81 c1 00 04 00 00 	add    rcx,0x400
     64c:	48 83 c0 04          	add    rax,0x4
     650:	48 81 fa 00 01 00 00 	cmp    rdx,0x100
     657:	75 ba                	jne    613 <s114+0x26>
     659:	bf 00 00 00 00       	mov    edi,0x0
     65e:	be 00 00 00 00       	mov    esi,0x0
     663:	ba 00 00 00 00       	mov    edx,0x0
     668:	b9 00 00 00 00       	mov    ecx,0x0
     66d:	41 b8 00 00 00 00    	mov    r8d,0x0
     673:	41 b9 00 00 00 00    	mov    r9d,0x0
     679:	0f 57 c0             	xorps  xmm0,xmm0
     67c:	68 00 00 00 00       	push   0x0
     681:	68 00 00 00 00       	push   0x0
     686:	e8 00 00 00 00       	call   68b <s114+0x9e>
     68b:	48 83 c4 10          	add    rsp,0x10
     68f:	ff c3                	inc    ebx
     691:	81 fb b0 30 01 00    	cmp    ebx,0x130b0
     697:	0f 85 6d ff ff ff    	jne    60a <s114+0x1d>
     69d:	49 83 c6 10          	add    r14,0x10
     6a1:	4c 89 f7             	mov    rdi,r14
     6a4:	31 f6                	xor    esi,esi
     6a6:	e8 00 00 00 00       	call   6ab <s114+0xbe>
     6ab:	bf 00 00 00 00       	mov    edi,0x0
     6b0:	48 83 c4 08          	add    rsp,0x8
     6b4:	5b                   	pop    rbx
     6b5:	41 5e                	pop    r14
     6b7:	e9 00 00 00 00       	jmp    6bc <s115>

00000000000006bc <s115>:
     6bc:	41 57                	push   r15
     6be:	41 56                	push   r14
     6c0:	41 54                	push   r12
     6c2:	53                   	push   rbx
     6c3:	50                   	push   rax
     6c4:	49 89 fe             	mov    r14,rdi
     6c7:	bf 00 00 00 00       	mov    edi,0x0
     6cc:	e8 00 00 00 00       	call   6d1 <s115+0x15>
     6d1:	45 31 ff             	xor    r15d,r15d
     6d4:	4c 89 f7             	mov    rdi,r14
     6d7:	31 f6                	xor    esi,esi
     6d9:	e8 00 00 00 00       	call   6de <s115+0x22>
     6de:	41 ba 01 00 00 00    	mov    r10d,0x1
     6e4:	49 c7 c3 ff ff ff ff 	mov    r11,0xffffffffffffffff
     6eb:	ba 00 00 00 00       	mov    edx,0x0
     6f0:	41 bc 00 00 00 00    	mov    r12d,0x0
     6f6:	41 b9 00 00 00 00    	mov    r9d,0x0
     6fc:	45 31 c0             	xor    r8d,r8d
     6ff:	4c 89 c3             	mov    rbx,r8
     702:	49 ff c0             	inc    r8
     705:	48 81 fb fe 00 00 00 	cmp    rbx,0xfe
     70c:	0f 87 91 00 00 00    	ja     7a3 <s115+0xe7>
     712:	b9 07 00 00 00       	mov    ecx,0x7
     717:	29 d9                	sub    ecx,ebx
     719:	4c 89 d0             	mov    rax,r10
     71c:	f6 c1 07             	test   cl,0x7
     71f:	74 2f                	je     750 <s115+0x94>
     721:	44 89 d9             	mov    ecx,r11d
     724:	83 e1 07             	and    ecx,0x7
     727:	31 c0                	xor    eax,eax
     729:	f3 41 0f 10 04 84    	movss  xmm0,DWORD PTR [r12+rax*4]
     72f:	f3 0f 59 04 9d 00 00 	mulss  xmm0,DWORD PTR [rbx*4+0x0]
     736:	00 00 
     738:	f3 0f 10 0c 82       	movss  xmm1,DWORD PTR [rdx+rax*4]
     73d:	f3 0f 5c c8          	subss  xmm1,xmm0
     741:	f3 0f 11 0c 82       	movss  DWORD PTR [rdx+rax*4],xmm1
     746:	48 ff c0             	inc    rax
     749:	39 c1                	cmp    ecx,eax
     74b:	75 dc                	jne    729 <s115+0x6d>
     74d:	4c 29 d8             	sub    rax,r11
     750:	b9 fe 00 00 00       	mov    ecx,0xfe
     755:	29 d9                	sub    ecx,ebx
     757:	83 f9 07             	cmp    ecx,0x7
     75a:	72 47                	jb     7a3 <s115+0xe7>
     75c:	48 8d 3c 85 00 00 00 	lea    rdi,[rax*4+0x0]
     763:	00 
     764:	49 8d 0c 81          	lea    rcx,[r9+rax*4]
     768:	31 f6                	xor    esi,esi
     76a:	f3 0f 10 04 b1       	movss  xmm0,DWORD PTR [rcx+rsi*4]
     76f:	f3 0f 59 04 9d 00 00 	mulss  xmm0,DWORD PTR [rbx*4+0x0]
     776:	00 00 
     778:	f3 0f 10 0c b7       	movss  xmm1,DWORD PTR [rdi+rsi*4]
     77d:	f3 0f 5c c8          	subss  xmm1,xmm0
     781:	f3 0f 11 0c b7       	movss  DWORD PTR [rdi+rsi*4],xmm1
     786:	48 ff c6             	inc    rsi
     789:	48 83 fe 08          	cmp    rsi,0x8
     78d:	75 db                	jne    76a <s115+0xae>
     78f:	48 83 c0 08          	add    rax,0x8
     793:	48 83 c7 20          	add    rdi,0x20
     797:	48 83 c1 20          	add    rcx,0x20
     79b:	48 3d 00 01 00 00    	cmp    rax,0x100
     7a1:	75 c5                	jne    768 <s115+0xac>
     7a3:	49 ff c2             	inc    r10
     7a6:	49 ff cb             	dec    r11
     7a9:	48 83 c2 04          	add    rdx,0x4
     7ad:	49 81 c4 04 04 00 00 	add    r12,0x404
     7b4:	49 81 c1 00 04 00 00 	add    r9,0x400
     7bb:	49 81 f8 00 01 00 00 	cmp    r8,0x100
     7c2:	0f 85 37 ff ff ff    	jne    6ff <s115+0x43>
     7c8:	bf 00 00 00 00       	mov    edi,0x0
     7cd:	be 00 00 00 00       	mov    esi,0x0
     7d2:	ba 00 00 00 00       	mov    edx,0x0
     7d7:	b9 00 00 00 00       	mov    ecx,0x0
     7dc:	41 b8 00 00 00 00    	mov    r8d,0x0
     7e2:	41 b9 00 00 00 00    	mov    r9d,0x0
     7e8:	0f 57 c0             	xorps  xmm0,xmm0
     7eb:	68 00 00 00 00       	push   0x0
     7f0:	68 00 00 00 00       	push   0x0
     7f5:	e8 00 00 00 00       	call   7fa <s115+0x13e>
     7fa:	48 83 c4 10          	add    rsp,0x10
     7fe:	41 ff c7             	inc    r15d
     801:	41 81 ff 70 f3 05 00 	cmp    r15d,0x5f370
     808:	0f 85 d0 fe ff ff    	jne    6de <s115+0x22>
     80e:	49 83 c6 10          	add    r14,0x10
     812:	4c 89 f7             	mov    rdi,r14
     815:	31 f6                	xor    esi,esi
     817:	e8 00 00 00 00       	call   81c <s115+0x160>
     81c:	bf 00 00 00 00       	mov    edi,0x0
     821:	48 83 c4 08          	add    rsp,0x8
     825:	5b                   	pop    rbx
     826:	41 5c                	pop    r12
     828:	41 5e                	pop    r14
     82a:	41 5f                	pop    r15
     82c:	e9 00 00 00 00       	jmp    831 <s1115>

0000000000000831 <s1115>:
     831:	41 57                	push   r15
     833:	41 56                	push   r14
     835:	53                   	push   rbx
     836:	49 89 fe             	mov    r14,rdi
     839:	bf 00 00 00 00       	mov    edi,0x0
     83e:	e8 00 00 00 00       	call   843 <s1115+0x12>
     843:	45 31 ff             	xor    r15d,r15d
     846:	4c 89 f7             	mov    rdi,r14
     849:	31 f6                	xor    esi,esi
     84b:	e8 00 00 00 00       	call   850 <s1115+0x1f>
     850:	31 c0                	xor    eax,eax
     852:	31 db                	xor    ebx,ebx
     854:	31 d2                	xor    edx,edx
     856:	48 89 d9             	mov    rcx,rbx
     859:	48 09 d1             	or     rcx,rdx
     85c:	48 89 c7             	mov    rdi,rax
     85f:	48 c1 e7 0a          	shl    rdi,0xa
     863:	f3 0f 10 84 8f 00 00 	movss  xmm0,DWORD PTR [rdi+rcx*4+0x0]
     86a:	00 00 
     86c:	48 89 ce             	mov    rsi,rcx
     86f:	48 c1 e6 0a          	shl    rsi,0xa
     873:	f3 0f 59 84 86 00 00 	mulss  xmm0,DWORD PTR [rsi+rax*4+0x0]
     87a:	00 00 
     87c:	f3 0f 58 84 8f 00 00 	addss  xmm0,DWORD PTR [rdi+rcx*4+0x0]
     883:	00 00 
     885:	f3 0f 11 84 8f 00 00 	movss  DWORD PTR [rdi+rcx*4+0x0],xmm0
     88c:	00 00 
     88e:	48 ff c2             	inc    rdx
     891:	48 83 fa 08          	cmp    rdx,0x8
     895:	75 bf                	jne    856 <s1115+0x25>
     897:	48 83 c3 08          	add    rbx,0x8
     89b:	48 81 fb 00 01 00 00 	cmp    rbx,0x100
     8a2:	75 b0                	jne    854 <s1115+0x23>
     8a4:	48 ff c0             	inc    rax
     8a7:	48 3d 00 01 00 00    	cmp    rax,0x100
     8ad:	75 a3                	jne    852 <s1115+0x21>
     8af:	bf 00 00 00 00       	mov    edi,0x0
     8b4:	be 00 00 00 00       	mov    esi,0x0
     8b9:	ba 00 00 00 00       	mov    edx,0x0
     8be:	b9 00 00 00 00       	mov    ecx,0x0
     8c3:	41 b8 00 00 00 00    	mov    r8d,0x0
     8c9:	41 b9 00 00 00 00    	mov    r9d,0x0
     8cf:	0f 57 c0             	xorps  xmm0,xmm0
     8d2:	68 00 00 00 00       	push   0x0
     8d7:	68 00 00 00 00       	push   0x0
     8dc:	e8 00 00 00 00       	call   8e1 <s1115+0xb0>
     8e1:	48 83 c4 10          	add    rsp,0x10
     8e5:	41 ff c7             	inc    r15d
     8e8:	41 81 ff 58 98 00 00 	cmp    r15d,0x9858
     8ef:	0f 85 5b ff ff ff    	jne    850 <s1115+0x1f>
     8f5:	49 83 c6 10          	add    r14,0x10
     8f9:	4c 89 f7             	mov    rdi,r14
     8fc:	31 f6                	xor    esi,esi
     8fe:	e8 00 00 00 00       	call   903 <s1115+0xd2>
     903:	bf 00 00 00 00       	mov    edi,0x0
     908:	5b                   	pop    rbx
     909:	41 5e                	pop    r14
     90b:	41 5f                	pop    r15
     90d:	e9 00 00 00 00       	jmp    912 <s116>

0000000000000912 <s116>:
     912:	41 56                	push   r14
     914:	53                   	push   rbx
     915:	50                   	push   rax
     916:	49 89 fe             	mov    r14,rdi
     919:	bf 00 00 00 00       	mov    edi,0x0
     91e:	e8 00 00 00 00       	call   923 <s116+0x11>
     923:	31 db                	xor    ebx,ebx
     925:	4c 89 f7             	mov    rdi,r14
     928:	31 f6                	xor    esi,esi
     92a:	e8 00 00 00 00       	call   92f <s116+0x1d>
     92f:	48 c7 c0 fb ff ff ff 	mov    rax,0xfffffffffffffffb
     936:	f3 0f 10 05 00 00 00 	movss  xmm0,DWORD PTR [rip+0x0]        # 93e <s116+0x2c>
     93d:	00 
     93e:	f3 0f 10 0c 85 00 00 	movss  xmm1,DWORD PTR [rax*4+0x0]
     945:	00 00 
     947:	f3 0f 59 c1          	mulss  xmm0,xmm1
     94b:	f3 0f 11 04 85 00 00 	movss  DWORD PTR [rax*4+0x0],xmm0
     952:	00 00 
     954:	f3 0f 10 04 85 00 00 	movss  xmm0,DWORD PTR [rax*4+0x0]
     95b:	00 00 
     95d:	f3 0f 59 c8          	mulss  xmm1,xmm0
     961:	f3 0f 11 0c 85 00 00 	movss  DWORD PTR [rax*4+0x0],xmm1
     968:	00 00 
     96a:	f3 0f 10 0c 85 00 00 	movss  xmm1,DWORD PTR [rax*4+0x0]
     971:	00 00 
     973:	f3 0f 59 c1          	mulss  xmm0,xmm1
     977:	f3 0f 11 04 85 00 00 	movss  DWORD PTR [rax*4+0x0],xmm0
     97e:	00 00 
     980:	f3 0f 10 14 85 00 00 	movss  xmm2,DWORD PTR [rax*4+0x0]
     987:	00 00 
     989:	f3 0f 59 ca          	mulss  xmm1,xmm2
     98d:	f3 0f 11 0c 85 00 00 	movss  DWORD PTR [rax*4+0x0],xmm1
     994:	00 00 
     996:	f3 0f 10 04 85 00 00 	movss  xmm0,DWORD PTR [rax*4+0x0]
     99d:	00 00 
     99f:	f3 0f 59 d0          	mulss  xmm2,xmm0
     9a3:	f3 0f 11 14 85 00 00 	movss  DWORD PTR [rax*4+0x0],xmm2
     9aa:	00 00 
     9ac:	48 83 c0 05          	add    rax,0x5
     9b0:	48 3d f6 7c 00 00    	cmp    rax,0x7cf6
     9b6:	72 86                	jb     93e <s116+0x2c>
     9b8:	bf 00 00 00 00       	mov    edi,0x0
     9bd:	be 00 00 00 00       	mov    esi,0x0
     9c2:	ba 00 00 00 00       	mov    edx,0x0
     9c7:	b9 00 00 00 00       	mov    ecx,0x0
     9cc:	41 b8 00 00 00 00    	mov    r8d,0x0
     9d2:	41 b9 00 00 00 00    	mov    r9d,0x0
     9d8:	0f 57 c0             	xorps  xmm0,xmm0
     9db:	68 00 00 00 00       	push   0x0
     9e0:	68 00 00 00 00       	push   0x0
     9e5:	e8 00 00 00 00       	call   9ea <s116+0xd8>
     9ea:	48 83 c4 10          	add    rsp,0x10
     9ee:	ff c3                	inc    ebx
     9f0:	81 fb 40 42 0f 00    	cmp    ebx,0xf4240
     9f6:	0f 85 33 ff ff ff    	jne    92f <s116+0x1d>
     9fc:	49 83 c6 10          	add    r14,0x10
     a00:	4c 89 f7             	mov    rdi,r14
     a03:	31 f6                	xor    esi,esi
     a05:	e8 00 00 00 00       	call   a0a <s116+0xf8>
     a0a:	bf 00 00 00 00       	mov    edi,0x0
     a0f:	48 83 c4 08          	add    rsp,0x8
     a13:	5b                   	pop    rbx
     a14:	41 5e                	pop    r14
     a16:	e9 00 00 00 00       	jmp    a1b <s118>

0000000000000a1b <s118>:
     a1b:	41 56                	push   r14
     a1d:	53                   	push   rbx
     a1e:	50                   	push   rax
     a1f:	49 89 fe             	mov    r14,rdi
     a22:	bf 00 00 00 00       	mov    edi,0x0
     a27:	e8 00 00 00 00       	call   a2c <s118+0x11>
     a2c:	31 db                	xor    ebx,ebx
     a2e:	4c 89 f7             	mov    rdi,r14
     a31:	31 f6                	xor    esi,esi
     a33:	e8 00 00 00 00       	call   a38 <s118+0x1d>
     a38:	b8 01 00 00 00       	mov    eax,0x1
     a3d:	b9 00 00 00 00       	mov    ecx,0x0
     a42:	31 d2                	xor    edx,edx
     a44:	f3 0f 10 04 85 00 00 	movss  xmm0,DWORD PTR [rax*4+0x0]
     a4b:	00 00 
     a4d:	48 89 ce             	mov    rsi,rcx
     a50:	48 89 d7             	mov    rdi,rdx
     a53:	f3 0f 10 0e          	movss  xmm1,DWORD PTR [rsi]
     a57:	f3 0f 59 8f 00 00 00 	mulss  xmm1,DWORD PTR [rdi+0x0]
     a5e:	00 
     a5f:	f3 0f 58 c1          	addss  xmm0,xmm1
     a63:	f3 0f 11 04 85 00 00 	movss  DWORD PTR [rax*4+0x0],xmm0
     a6a:	00 00 
     a6c:	48 83 c7 fc          	add    rdi,0xfffffffffffffffc
     a70:	48 81 c6 00 04 00 00 	add    rsi,0x400
     a77:	48 83 ff fc          	cmp    rdi,0xfffffffffffffffc
     a7b:	75 d6                	jne    a53 <s118+0x38>
     a7d:	48 ff c0             	inc    rax
     a80:	48 83 c2 04          	add    rdx,0x4
     a84:	48 83 c1 04          	add    rcx,0x4
     a88:	48 3d 00 01 00 00    	cmp    rax,0x100
     a8e:	75 b4                	jne    a44 <s118+0x29>
     a90:	bf 00 00 00 00       	mov    edi,0x0
     a95:	be 00 00 00 00       	mov    esi,0x0
     a9a:	ba 00 00 00 00       	mov    edx,0x0
     a9f:	b9 00 00 00 00       	mov    ecx,0x0
     aa4:	41 b8 00 00 00 00    	mov    r8d,0x0
     aaa:	41 b9 00 00 00 00    	mov    r9d,0x0
     ab0:	0f 57 c0             	xorps  xmm0,xmm0
     ab3:	68 00 00 00 00       	push   0x0
     ab8:	68 00 00 00 00       	push   0x0
     abd:	e8 00 00 00 00       	call   ac2 <s118+0xa7>
     ac2:	48 83 c4 10          	add    rsp,0x10
     ac6:	ff c3                	inc    ebx
     ac8:	81 fb b0 30 01 00    	cmp    ebx,0x130b0
     ace:	0f 85 64 ff ff ff    	jne    a38 <s118+0x1d>
     ad4:	49 83 c6 10          	add    r14,0x10
     ad8:	4c 89 f7             	mov    rdi,r14
     adb:	31 f6                	xor    esi,esi
     add:	e8 00 00 00 00       	call   ae2 <s118+0xc7>
     ae2:	bf 00 00 00 00       	mov    edi,0x0
     ae7:	48 83 c4 08          	add    rsp,0x8
     aeb:	5b                   	pop    rbx
     aec:	41 5e                	pop    r14
     aee:	e9 00 00 00 00       	jmp    af3 <s119>

0000000000000af3 <s119>:
     af3:	41 57                	push   r15
     af5:	41 56                	push   r14
     af7:	53                   	push   rbx
     af8:	48 83 ec 40          	sub    rsp,0x40
     afc:	49 89 fe             	mov    r14,rdi
     aff:	bf 00 00 00 00       	mov    edi,0x0
     b04:	e8 00 00 00 00       	call   b09 <s119+0x16>
     b09:	45 31 ff             	xor    r15d,r15d
     b0c:	4c 89 f7             	mov    rdi,r14
     b0f:	31 f6                	xor    esi,esi
     b11:	e8 00 00 00 00       	call   b16 <s119+0x23>
     b16:	41 b9 01 00 00 00    	mov    r9d,0x1
     b1c:	41 b8 04 04 00 00    	mov    r8d,0x404
     b22:	49 8d 41 ff          	lea    rax,[r9-0x1]
     b26:	4c 89 c6             	mov    rsi,r8
     b29:	bf 01 00 00 00       	mov    edi,0x1
     b2e:	31 db                	xor    ebx,ebx
     b30:	48 8d 0c 1f          	lea    rcx,[rdi+rbx*1]
     b34:	f3 0f 10 84 9e 00 00 	movss  xmm0,DWORD PTR [rsi+rbx*4+0x0]
     b3b:	00 00 
     b3d:	f3 0f 58 84 9e 00 00 	addss  xmm0,DWORD PTR [rsi+rbx*4+0x0]
     b44:	00 00 
     b46:	48 89 4c dc 08       	mov    QWORD PTR [rsp+rbx*8+0x8],rcx
     b4b:	f3 0f 11 84 9e 00 00 	movss  DWORD PTR [rsi+rbx*4+0x0],xmm0
     b52:	00 00 
     b54:	48 ff c3             	inc    rbx
     b57:	48 83 fb 07          	cmp    rbx,0x7
     b5b:	75 d3                	jne    b30 <s119+0x3d>
     b5d:	48 8d 5f 07          	lea    rbx,[rdi+0x7]
     b61:	48 81 fb 00 01 00 00 	cmp    rbx,0x100
     b68:	74 38                	je     ba2 <s119+0xaf>
     b6a:	48 8b 4c 24 38       	mov    rcx,QWORD PTR [rsp+0x38]
     b6f:	48 89 c2             	mov    rdx,rax
     b72:	48 c1 e2 0a          	shl    rdx,0xa
     b76:	f3 0f 10 84 8a 00 00 	movss  xmm0,DWORD PTR [rdx+rcx*4+0x0]
     b7d:	00 00 
     b7f:	4c 89 c9             	mov    rcx,r9
     b82:	48 c1 e1 0a          	shl    rcx,0xa
     b86:	f3 0f 58 84 99 00 00 	addss  xmm0,DWORD PTR [rcx+rbx*4+0x0]
     b8d:	00 00 
     b8f:	f3 0f 11 84 99 00 00 	movss  DWORD PTR [rcx+rbx*4+0x0],xmm0
     b96:	00 00 
     b98:	48 83 c7 08          	add    rdi,0x8
     b9c:	48 83 c6 20          	add    rsi,0x20
     ba0:	eb 8c                	jmp    b2e <s119+0x3b>
     ba2:	49 ff c1             	inc    r9
     ba5:	49 81 c0 00 04 00 00 	add    r8,0x400
     bac:	49 81 f9 00 01 00 00 	cmp    r9,0x100
     bb3:	0f 85 69 ff ff ff    	jne    b22 <s119+0x2f>
     bb9:	bf 00 00 00 00       	mov    edi,0x0
     bbe:	be 00 00 00 00       	mov    esi,0x0
     bc3:	ba 00 00 00 00       	mov    edx,0x0
     bc8:	b9 00 00 00 00       	mov    ecx,0x0
     bcd:	41 b8 00 00 00 00    	mov    r8d,0x0
     bd3:	41 b9 00 00 00 00    	mov    r9d,0x0
     bd9:	0f 57 c0             	xorps  xmm0,xmm0
     bdc:	68 00 00 00 00       	push   0x0
     be1:	68 00 00 00 00       	push   0x0
     be6:	e8 00 00 00 00       	call   beb <s119+0xf8>
     beb:	48 83 c4 10          	add    rsp,0x10
     bef:	41 ff c7             	inc    r15d
     bf2:	41 81 ff b0 30 01 00 	cmp    r15d,0x130b0
     bf9:	0f 85 17 ff ff ff    	jne    b16 <s119+0x23>
     bff:	49 83 c6 10          	add    r14,0x10
     c03:	4c 89 f7             	mov    rdi,r14
     c06:	31 f6                	xor    esi,esi
     c08:	e8 00 00 00 00       	call   c0d <s119+0x11a>
     c0d:	bf 00 00 00 00       	mov    edi,0x0
     c12:	48 83 c4 40          	add    rsp,0x40
     c16:	5b                   	pop    rbx
     c17:	41 5e                	pop    r14
     c19:	41 5f                	pop    r15
     c1b:	e9 00 00 00 00       	jmp    c20 <s1119>

0000000000000c20 <s1119>:
     c20:	41 57                	push   r15
     c22:	41 56                	push   r14
     c24:	53                   	push   rbx
     c25:	49 89 fe             	mov    r14,rdi
     c28:	bf 00 00 00 00       	mov    edi,0x0
     c2d:	e8 00 00 00 00       	call   c32 <s1119+0x12>
     c32:	45 31 ff             	xor    r15d,r15d
     c35:	4c 89 f7             	mov    rdi,r14
     c38:	31 f6                	xor    esi,esi
     c3a:	e8 00 00 00 00       	call   c3f <s1119+0x1f>
     c3f:	b8 01 00 00 00       	mov    eax,0x1
     c44:	48 8d 58 ff          	lea    rbx,[rax-0x1]
     c48:	31 d2                	xor    edx,edx
     c4a:	31 f6                	xor    esi,esi
     c4c:	48 89 d7             	mov    rdi,rdx
     c4f:	48 09 f7             	or     rdi,rsi
     c52:	48 89 d9             	mov    rcx,rbx
     c55:	48 c1 e1 0a          	shl    rcx,0xa
     c59:	f3 0f 10 84 b9 00 00 	movss  xmm0,DWORD PTR [rcx+rdi*4+0x0]
     c60:	00 00 
     c62:	48 89 c1             	mov    rcx,rax
     c65:	48 c1 e1 0a          	shl    rcx,0xa
     c69:	f3 0f 58 84 b9 00 00 	addss  xmm0,DWORD PTR [rcx+rdi*4+0x0]
     c70:	00 00 
     c72:	f3 0f 11 84 b9 00 00 	movss  DWORD PTR [rcx+rdi*4+0x0],xmm0
     c79:	00 00 
     c7b:	48 ff c6             	inc    rsi
     c7e:	48 83 fe 08          	cmp    rsi,0x8
     c82:	75 c8                	jne    c4c <s1119+0x2c>
     c84:	48 83 c2 08          	add    rdx,0x8
     c88:	48 81 fa 00 01 00 00 	cmp    rdx,0x100
     c8f:	75 b9                	jne    c4a <s1119+0x2a>
     c91:	48 ff c0             	inc    rax
     c94:	48 3d 00 01 00 00    	cmp    rax,0x100
     c9a:	75 a8                	jne    c44 <s1119+0x24>
     c9c:	bf 00 00 00 00       	mov    edi,0x0
     ca1:	be 00 00 00 00       	mov    esi,0x0
     ca6:	ba 00 00 00 00       	mov    edx,0x0
     cab:	b9 00 00 00 00       	mov    ecx,0x0
     cb0:	41 b8 00 00 00 00    	mov    r8d,0x0
     cb6:	41 b9 00 00 00 00    	mov    r9d,0x0
     cbc:	0f 57 c0             	xorps  xmm0,xmm0
     cbf:	68 00 00 00 00       	push   0x0
     cc4:	68 00 00 00 00       	push   0x0
     cc9:	e8 00 00 00 00       	call   cce <s1119+0xae>
     cce:	48 83 c4 10          	add    rsp,0x10
     cd2:	41 ff c7             	inc    r15d
     cd5:	41 81 ff b0 30 01 00 	cmp    r15d,0x130b0
     cdc:	0f 85 5d ff ff ff    	jne    c3f <s1119+0x1f>
     ce2:	49 83 c6 10          	add    r14,0x10
     ce6:	4c 89 f7             	mov    rdi,r14
     ce9:	31 f6                	xor    esi,esi
     ceb:	e8 00 00 00 00       	call   cf0 <s1119+0xd0>
     cf0:	bf 00 00 00 00       	mov    edi,0x0
     cf5:	5b                   	pop    rbx
     cf6:	41 5e                	pop    r14
     cf8:	41 5f                	pop    r15
     cfa:	e9 00 00 00 00       	jmp    cff <s121>

0000000000000cff <s121>:
     cff:	41 56                	push   r14
     d01:	53                   	push   rbx
     d02:	48 83 ec 78          	sub    rsp,0x78
     d06:	49 89 fe             	mov    r14,rdi
     d09:	bf 00 00 00 00       	mov    edi,0x0
     d0e:	e8 00 00 00 00       	call   d13 <s121+0x14>
     d13:	31 db                	xor    ebx,ebx
     d15:	4c 89 f7             	mov    rdi,r14
     d18:	31 f6                	xor    esi,esi
     d1a:	e8 00 00 00 00       	call   d1f <s121+0x20>
     d1f:	31 c0                	xor    eax,eax
     d21:	31 c9                	xor    ecx,ecx
     d23:	48 8d 51 01          	lea    rdx,[rcx+0x1]
     d27:	48 89 d6             	mov    rsi,rdx
     d2a:	48 09 c6             	or     rsi,rax
     d2d:	48 89 74 cc 08       	mov    QWORD PTR [rsp+rcx*8+0x8],rsi
     d32:	48 8d 34 b5 00 00 00 	lea    rsi,[rsi*4+0x0]
     d39:	00 
     d3a:	48 89 74 cc 40       	mov    QWORD PTR [rsp+rcx*8+0x40],rsi
     d3f:	f3 0f 10 06          	movss  xmm0,DWORD PTR [rsi]
     d43:	48 09 c1             	or     rcx,rax
     d46:	f3 0f 58 04 8d 00 00 	addss  xmm0,DWORD PTR [rcx*4+0x0]
     d4d:	00 00 
     d4f:	f3 0f 11 04 8d 00 00 	movss  DWORD PTR [rcx*4+0x0],xmm0
     d56:	00 00 
     d58:	48 89 d1             	mov    rcx,rdx
     d5b:	48 83 fa 07          	cmp    rdx,0x7
     d5f:	75 c2                	jne    d23 <s121+0x24>
     d61:	48 8b 4c 24 38       	mov    rcx,QWORD PTR [rsp+0x38]
     d66:	48 81 f9 ff 7c 00 00 	cmp    rcx,0x7cff
     d6d:	74 21                	je     d90 <s121+0x91>
     d6f:	48 8b 54 24 70       	mov    rdx,QWORD PTR [rsp+0x70]
     d74:	f3 0f 10 04 85 00 00 	movss  xmm0,DWORD PTR [rax*4+0x0]
     d7b:	00 00 
     d7d:	48 83 c0 08          	add    rax,0x8
     d81:	f3 0f 58 04 8d 00 00 	addss  xmm0,DWORD PTR [rcx*4+0x0]
     d88:	00 00 
     d8a:	f3 0f 11 02          	movss  DWORD PTR [rdx],xmm0
     d8e:	eb 91                	jmp    d21 <s121+0x22>
     d90:	bf 00 00 00 00       	mov    edi,0x0
     d95:	be 00 00 00 00       	mov    esi,0x0
     d9a:	ba 00 00 00 00       	mov    edx,0x0
     d9f:	b9 00 00 00 00       	mov    ecx,0x0
     da4:	41 b8 00 00 00 00    	mov    r8d,0x0
     daa:	41 b9 00 00 00 00    	mov    r9d,0x0
     db0:	0f 57 c0             	xorps  xmm0,xmm0
     db3:	68 00 00 00 00       	push   0x0
     db8:	68 00 00 00 00       	push   0x0
     dbd:	e8 00 00 00 00       	call   dc2 <s121+0xc3>
     dc2:	48 83 c4 10          	add    rsp,0x10
     dc6:	ff c3                	inc    ebx
     dc8:	81 fb e0 93 04 00    	cmp    ebx,0x493e0
     dce:	0f 85 4b ff ff ff    	jne    d1f <s121+0x20>
     dd4:	49 83 c6 10          	add    r14,0x10
     dd8:	4c 89 f7             	mov    rdi,r14
     ddb:	31 f6                	xor    esi,esi
     ddd:	e8 00 00 00 00       	call   de2 <s121+0xe3>
     de2:	bf 00 00 00 00       	mov    edi,0x0
     de7:	48 83 c4 78          	add    rsp,0x78
     deb:	5b                   	pop    rbx
     dec:	41 5e                	pop    r14
     dee:	e9 00 00 00 00       	jmp    df3 <s122>

0000000000000df3 <s122>:
     df3:	55                   	push   rbp
     df4:	41 57                	push   r15
     df6:	41 56                	push   r14
     df8:	41 55                	push   r13
     dfa:	41 54                	push   r12
     dfc:	53                   	push   rbx
     dfd:	50                   	push   rax
     dfe:	48 89 fb             	mov    rbx,rdi
     e01:	48 8b 47 20          	mov    rax,QWORD PTR [rdi+0x20]
     e05:	44 8b 20             	mov    r12d,DWORD PTR [rax]
     e08:	48 63 68 04          	movsxd rbp,DWORD PTR [rax+0x4]
     e0c:	bf 00 00 00 00       	mov    edi,0x0
     e11:	e8 00 00 00 00       	call   e16 <s122+0x23>
     e16:	45 31 ed             	xor    r13d,r13d
     e19:	48 89 1c 24          	mov    QWORD PTR [rsp],rbx
     e1d:	48 89 df             	mov    rdi,rbx
     e20:	31 f6                	xor    esi,esi
     e22:	e8 00 00 00 00       	call   e27 <s122+0x34>
     e27:	41 8d 44 24 ff       	lea    eax,[r12-0x1]
     e2c:	48 63 d8             	movsxd rbx,eax
     e2f:	41 8d 04 2c          	lea    eax,[r12+rbp*1]
     e33:	ff c8                	dec    eax
     e35:	41 bf 00 7d 00 00    	mov    r15d,0x7d00
     e3b:	44 39 f8             	cmp    eax,r15d
     e3e:	44 0f 4f f8          	cmovg  r15d,eax
     e42:	45 29 e7             	sub    r15d,r12d
     e45:	4c 8d 34 ad 00 00 00 	lea    r14,[rbp*4+0x0]
     e4c:	00 
     e4d:	41 81 fc 00 7d 00 00 	cmp    r12d,0x7d00
     e54:	0f 8f 52 01 00 00    	jg     fac <s122+0x1b9>
     e5a:	44 89 f8             	mov    eax,r15d
     e5d:	31 d2                	xor    edx,edx
     e5f:	f7 f5                	div    ebp
     e61:	8d 50 01             	lea    edx,[rax+0x1]
     e64:	41 89 d0             	mov    r8d,edx
     e67:	41 83 e0 07          	and    r8d,0x7
     e6b:	83 f8 07             	cmp    eax,0x7
     e6e:	73 0a                	jae    e7a <s122+0x87>
     e70:	31 c0                	xor    eax,eax
     e72:	48 89 de             	mov    rsi,rbx
     e75:	e9 fe 00 00 00       	jmp    f78 <s122+0x185>
     e7a:	83 e2 f8             	and    edx,0xfffffff8
     e7d:	31 c0                	xor    eax,eax
     e7f:	49 89 d9             	mov    r9,rbx
     e82:	48 89 de             	mov    rsi,rbx
     e85:	f3 0f 10 04 85 00 00 	movss  xmm0,DWORD PTR [rax*4+0x0]
     e8c:	00 00 
     e8e:	f3 0f 58 04 b5 00 00 	addss  xmm0,DWORD PTR [rsi*4+0x0]
     e95:	00 00 
     e97:	f3 0f 11 04 b5 00 00 	movss  DWORD PTR [rsi*4+0x0],xmm0
     e9e:	00 00 
     ea0:	f3 0f 10 04 85 00 00 	movss  xmm0,DWORD PTR [rax*4+0x0]
     ea7:	00 00 
     ea9:	49 8d 3c b6          	lea    rdi,[r14+rsi*4]
     ead:	48 81 c7 00 00 00 00 	add    rdi,0x0
     eb4:	f3 41 0f 58 84 b6 00 	addss  xmm0,DWORD PTR [r14+rsi*4+0x0]
     ebb:	00 00 00 
     ebe:	f3 41 0f 11 84 b6 00 	movss  DWORD PTR [r14+rsi*4+0x0],xmm0
     ec5:	00 00 00 
     ec8:	48 01 ee             	add    rsi,rbp
     ecb:	48 01 ee             	add    rsi,rbp
     ece:	f3 0f 10 04 85 00 00 	movss  xmm0,DWORD PTR [rax*4+0x0]
     ed5:	00 00 
     ed7:	4a 8d 1c 37          	lea    rbx,[rdi+r14*1]
     edb:	f3 0f 58 04 af       	addss  xmm0,DWORD PTR [rdi+rbp*4]
     ee0:	f3 0f 11 04 af       	movss  DWORD PTR [rdi+rbp*4],xmm0
     ee5:	48 01 ee             	add    rsi,rbp
     ee8:	f3 0f 10 04 85 00 00 	movss  xmm0,DWORD PTR [rax*4+0x0]
     eef:	00 00 
     ef1:	f3 0f 58 04 ef       	addss  xmm0,DWORD PTR [rdi+rbp*8]
     ef6:	4a 8d 0c 33          	lea    rcx,[rbx+r14*1]
     efa:	f3 0f 11 04 ef       	movss  DWORD PTR [rdi+rbp*8],xmm0
     eff:	48 01 ee             	add    rsi,rbp
     f02:	f3 0f 10 04 85 00 00 	movss  xmm0,DWORD PTR [rax*4+0x0]
     f09:	00 00 
     f0b:	4c 01 f1             	add    rcx,r14
     f0e:	f3 0f 58 04 eb       	addss  xmm0,DWORD PTR [rbx+rbp*8]
     f13:	f3 0f 11 04 eb       	movss  DWORD PTR [rbx+rbp*8],xmm0
     f18:	48 01 ee             	add    rsi,rbp
     f1b:	f3 0f 10 04 85 00 00 	movss  xmm0,DWORD PTR [rax*4+0x0]
     f22:	00 00 
     f24:	f3 0f 58 04 a9       	addss  xmm0,DWORD PTR [rcx+rbp*4]
     f29:	4a 8d 3c 31          	lea    rdi,[rcx+r14*1]
     f2d:	f3 0f 11 04 a9       	movss  DWORD PTR [rcx+rbp*4],xmm0
     f32:	48 01 ee             	add    rsi,rbp
     f35:	f3 0f 10 04 85 00 00 	movss  xmm0,DWORD PTR [rax*4+0x0]
     f3c:	00 00 
     f3e:	4a 8d 0c 37          	lea    rcx,[rdi+r14*1]
     f42:	f3 0f 58 04 af       	addss  xmm0,DWORD PTR [rdi+rbp*4]
     f47:	f3 0f 11 04 af       	movss  DWORD PTR [rdi+rbp*4],xmm0
     f4c:	48 01 ee             	add    rsi,rbp
     f4f:	f3 0f 10 04 85 00 00 	movss  xmm0,DWORD PTR [rax*4+0x0]
     f56:	00 00 
     f58:	f3 0f 58 04 a9       	addss  xmm0,DWORD PTR [rcx+rbp*4]
     f5d:	f3 0f 11 04 a9       	movss  DWORD PTR [rcx+rbp*4],xmm0
     f62:	48 01 ee             	add    rsi,rbp
     f65:	48 83 c0 f8          	add    rax,0xfffffffffffffff8
     f69:	83 c2 f8             	add    edx,0xfffffff8
     f6c:	0f 85 13 ff ff ff    	jne    e85 <s122+0x92>
     f72:	48 f7 d8             	neg    rax
     f75:	4c 89 cb             	mov    rbx,r9
     f78:	45 85 c0             	test   r8d,r8d
     f7b:	74 2f                	je     fac <s122+0x1b9>
     f7d:	48 c1 e0 02          	shl    rax,0x2
     f81:	48 f7 d8             	neg    rax
     f84:	48 8d 04 05 00 00 00 	lea    rax,[rax*1+0x0]
     f8b:	00 
     f8c:	48 8d 14 b5 00 00 00 	lea    rdx,[rsi*4+0x0]
     f93:	00 
     f94:	f3 0f 10 00          	movss  xmm0,DWORD PTR [rax]
     f98:	f3 0f 58 02          	addss  xmm0,DWORD PTR [rdx]
     f9c:	f3 0f 11 02          	movss  DWORD PTR [rdx],xmm0
     fa0:	48 83 c0 fc          	add    rax,0xfffffffffffffffc
     fa4:	4c 01 f2             	add    rdx,r14
     fa7:	41 ff c8             	dec    r8d
     faa:	75 e8                	jne    f94 <s122+0x1a1>
     fac:	bf 00 00 00 00       	mov    edi,0x0
     fb1:	be 00 00 00 00       	mov    esi,0x0
     fb6:	ba 00 00 00 00       	mov    edx,0x0
     fbb:	b9 00 00 00 00       	mov    ecx,0x0
     fc0:	41 b8 00 00 00 00    	mov    r8d,0x0
     fc6:	41 b9 00 00 00 00    	mov    r9d,0x0
     fcc:	0f 57 c0             	xorps  xmm0,xmm0
     fcf:	68 00 00 00 00       	push   0x0
     fd4:	68 00 00 00 00       	push   0x0
     fd9:	e8 00 00 00 00       	call   fde <s122+0x1eb>
     fde:	48 83 c4 10          	add    rsp,0x10
     fe2:	41 ff c5             	inc    r13d
     fe5:	41 81 fd a0 86 01 00 	cmp    r13d,0x186a0
     fec:	0f 85 5b fe ff ff    	jne    e4d <s122+0x5a>
     ff2:	48 8b 3c 24          	mov    rdi,QWORD PTR [rsp]
     ff6:	48 83 c7 10          	add    rdi,0x10
     ffa:	31 f6                	xor    esi,esi
     ffc:	e8 00 00 00 00       	call   1001 <s122+0x20e>
    1001:	bf 00 00 00 00       	mov    edi,0x0
    1006:	48 83 c4 08          	add    rsp,0x8
    100a:	5b                   	pop    rbx
    100b:	41 5c                	pop    r12
    100d:	41 5d                	pop    r13
    100f:	41 5e                	pop    r14
    1011:	41 5f                	pop    r15
    1013:	5d                   	pop    rbp
    1014:	e9 00 00 00 00       	jmp    1019 <s123>

0000000000001019 <s123>:
    1019:	41 56                	push   r14
    101b:	53                   	push   rbx
    101c:	50                   	push   rax
    101d:	49 89 fe             	mov    r14,rdi
    1020:	bf 00 00 00 00       	mov    edi,0x0
    1025:	e8 00 00 00 00       	call   102a <s123+0x11>
    102a:	31 db                	xor    ebx,ebx
    102c:	4c 89 f7             	mov    rdi,r14
    102f:	31 f6                	xor    esi,esi
    1031:	e8 00 00 00 00       	call   1036 <s123+0x1d>
    1036:	0f 57 d2             	xorps  xmm2,xmm2
    1039:	b8 ff ff ff ff       	mov    eax,0xffffffff
    103e:	48 c7 c1 00 06 ff ff 	mov    rcx,0xffffffffffff0600
    1045:	f3 0f 10 81 00 00 00 	movss  xmm0,DWORD PTR [rcx+0x0]
    104c:	00 
    104d:	f3 0f 59 81 00 00 00 	mulss  xmm0,DWORD PTR [rcx+0x0]
    1054:	00 
    1055:	f3 0f 10 89 00 00 00 	movss  xmm1,DWORD PTR [rcx+0x0]
    105c:	00 
    105d:	f3 0f 58 c8          	addss  xmm1,xmm0
    1061:	48 63 d0             	movsxd rdx,eax
    1064:	f3 0f 11 0c 95 00 00 	movss  DWORD PTR [rdx*4+0x0],xmm1
    106b:	00 00 
    106d:	f3 0f 10 89 00 00 00 	movss  xmm1,DWORD PTR [rcx+0x0]
    1074:	00 
    1075:	0f 2e ca             	ucomiss xmm1,xmm2
    1078:	76 12                	jbe    108c <s123+0x73>
    107a:	83 c0 02             	add    eax,0x2
    107d:	f3 0f 58 c1          	addss  xmm0,xmm1
    1081:	f3 0f 11 04 95 00 00 	movss  DWORD PTR [rdx*4+0x0],xmm0
    1088:	00 00 
    108a:	eb 02                	jmp    108e <s123+0x75>
    108c:	ff c0                	inc    eax
    108e:	f3 0f 10 81 00 00 00 	movss  xmm0,DWORD PTR [rcx+0x0]
    1095:	00 
    1096:	f3 0f 59 81 00 00 00 	mulss  xmm0,DWORD PTR [rcx+0x0]
    109d:	00 
    109e:	f3 0f 10 89 00 00 00 	movss  xmm1,DWORD PTR [rcx+0x0]
    10a5:	00 
    10a6:	f3 0f 58 c8          	addss  xmm1,xmm0
    10aa:	48 63 d0             	movsxd rdx,eax
    10ad:	f3 0f 11 0c 95 00 00 	movss  DWORD PTR [rdx*4+0x0],xmm1
    10b4:	00 00 
    10b6:	f3 0f 10 89 00 00 00 	movss  xmm1,DWORD PTR [rcx+0x0]
    10bd:	00 
    10be:	0f 2e ca             	ucomiss xmm1,xmm2
    10c1:	76 12                	jbe    10d5 <s123+0xbc>
    10c3:	83 c0 02             	add    eax,0x2
    10c6:	f3 0f 58 c1          	addss  xmm0,xmm1
    10ca:	f3 0f 11 04 95 00 00 	movss  DWORD PTR [rdx*4+0x0],xmm0
    10d1:	00 00 
    10d3:	eb 02                	jmp    10d7 <s123+0xbe>
    10d5:	ff c0                	inc    eax
    10d7:	f3 0f 10 81 00 00 00 	movss  xmm0,DWORD PTR [rcx+0x0]
    10de:	00 
    10df:	f3 0f 59 81 00 00 00 	mulss  xmm0,DWORD PTR [rcx+0x0]
    10e6:	00 
    10e7:	f3 0f 10 89 00 00 00 	movss  xmm1,DWORD PTR [rcx+0x0]
    10ee:	00 
    10ef:	f3 0f 58 c8          	addss  xmm1,xmm0
    10f3:	48 63 d0             	movsxd rdx,eax
    10f6:	f3 0f 11 0c 95 00 00 	movss  DWORD PTR [rdx*4+0x0],xmm1
    10fd:	00 00 
    10ff:	f3 0f 10 89 00 00 00 	movss  xmm1,DWORD PTR [rcx+0x0]
    1106:	00 
    1107:	0f 2e ca             	ucomiss xmm1,xmm2
    110a:	76 12                	jbe    111e <s123+0x105>
    110c:	83 c0 02             	add    eax,0x2
    110f:	f3 0f 58 c1          	addss  xmm0,xmm1
    1113:	f3 0f 11 04 95 00 00 	movss  DWORD PTR [rdx*4+0x0],xmm0
    111a:	00 00 
    111c:	eb 02                	jmp    1120 <s123+0x107>
    111e:	ff c0                	inc    eax
    1120:	f3 0f 10 81 00 00 00 	movss  xmm0,DWORD PTR [rcx+0x0]
    1127:	00 
    1128:	f3 0f 59 81 00 00 00 	mulss  xmm0,DWORD PTR [rcx+0x0]
    112f:	00 
    1130:	f3 0f 10 89 00 00 00 	movss  xmm1,DWORD PTR [rcx+0x0]
    1137:	00 
    1138:	f3 0f 58 c8          	addss  xmm1,xmm0
    113c:	48 63 d0             	movsxd rdx,eax
    113f:	f3 0f 11 0c 95 00 00 	movss  DWORD PTR [rdx*4+0x0],xmm1
    1146:	00 00 
    1148:	f3 0f 10 89 00 00 00 	movss  xmm1,DWORD PTR [rcx+0x0]
    114f:	00 
    1150:	0f 2e ca             	ucomiss xmm1,xmm2
    1153:	76 12                	jbe    1167 <s123+0x14e>
    1155:	83 c0 02             	add    eax,0x2
    1158:	f3 0f 58 c1          	addss  xmm0,xmm1
    115c:	f3 0f 11 04 95 00 00 	movss  DWORD PTR [rdx*4+0x0],xmm0
    1163:	00 00 
    1165:	eb 02                	jmp    1169 <s123+0x150>
    1167:	ff c0                	inc    eax
    1169:	f3 0f 10 81 00 00 00 	movss  xmm0,DWORD PTR [rcx+0x0]
    1170:	00 
    1171:	f3 0f 59 81 00 00 00 	mulss  xmm0,DWORD PTR [rcx+0x0]
    1178:	00 
    1179:	f3 0f 10 89 00 00 00 	movss  xmm1,DWORD PTR [rcx+0x0]
    1180:	00 
    1181:	f3 0f 58 c8          	addss  xmm1,xmm0
    1185:	48 63 d0             	movsxd rdx,eax
    1188:	f3 0f 11 0c 95 00 00 	movss  DWORD PTR [rdx*4+0x0],xmm1
    118f:	00 00 
    1191:	f3 0f 10 89 00 00 00 	movss  xmm1,DWORD PTR [rcx+0x0]
    1198:	00 
    1199:	0f 2e ca             	ucomiss xmm1,xmm2
    119c:	76 12                	jbe    11b0 <s123+0x197>
    119e:	83 c0 02             	add    eax,0x2
    11a1:	f3 0f 58 c1          	addss  xmm0,xmm1
    11a5:	f3 0f 11 04 95 00 00 	movss  DWORD PTR [rdx*4+0x0],xmm0
    11ac:	00 00 
    11ae:	eb 02                	jmp    11b2 <s123+0x199>
    11b0:	ff c0                	inc    eax
    11b2:	f3 0f 10 81 00 00 00 	movss  xmm0,DWORD PTR [rcx+0x0]
    11b9:	00 
    11ba:	f3 0f 59 81 00 00 00 	mulss  xmm0,DWORD PTR [rcx+0x0]
    11c1:	00 
    11c2:	f3 0f 10 89 00 00 00 	movss  xmm1,DWORD PTR [rcx+0x0]
    11c9:	00 
    11ca:	f3 0f 58 c8          	addss  xmm1,xmm0
    11ce:	48 63 d0             	movsxd rdx,eax
    11d1:	f3 0f 11 0c 95 00 00 	movss  DWORD PTR [rdx*4+0x0],xmm1
    11d8:	00 00 
    11da:	f3 0f 10 89 00 00 00 	movss  xmm1,DWORD PTR [rcx+0x0]
    11e1:	00 
    11e2:	0f 2e ca             	ucomiss xmm1,xmm2
    11e5:	76 12                	jbe    11f9 <s123+0x1e0>
    11e7:	83 c0 02             	add    eax,0x2
    11ea:	f3 0f 58 c1          	addss  xmm0,xmm1
    11ee:	f3 0f 11 04 95 00 00 	movss  DWORD PTR [rdx*4+0x0],xmm0
    11f5:	00 00 
    11f7:	eb 02                	jmp    11fb <s123+0x1e2>
    11f9:	ff c0                	inc    eax
    11fb:	f3 0f 10 81 00 00 00 	movss  xmm0,DWORD PTR [rcx+0x0]
    1202:	00 
    1203:	f3 0f 59 81 00 00 00 	mulss  xmm0,DWORD PTR [rcx+0x0]
    120a:	00 
    120b:	f3 0f 10 89 00 00 00 	movss  xmm1,DWORD PTR [rcx+0x0]
    1212:	00 
    1213:	f3 0f 58 c8          	addss  xmm1,xmm0
    1217:	48 63 d0             	movsxd rdx,eax
    121a:	f3 0f 11 0c 95 00 00 	movss  DWORD PTR [rdx*4+0x0],xmm1
    1221:	00 00 
    1223:	f3 0f 10 89 00 00 00 	movss  xmm1,DWORD PTR [rcx+0x0]
    122a:	00 
    122b:	0f 2e ca             	ucomiss xmm1,xmm2
    122e:	76 12                	jbe    1242 <s123+0x229>
    1230:	83 c0 02             	add    eax,0x2
    1233:	f3 0f 58 c1          	addss  xmm0,xmm1
    1237:	f3 0f 11 04 95 00 00 	movss  DWORD PTR [rdx*4+0x0],xmm0
    123e:	00 00 
    1240:	eb 02                	jmp    1244 <s123+0x22b>
    1242:	ff c0                	inc    eax
    1244:	f3 0f 10 81 00 00 00 	movss  xmm0,DWORD PTR [rcx+0x0]
    124b:	00 
    124c:	f3 0f 59 81 00 00 00 	mulss  xmm0,DWORD PTR [rcx+0x0]
    1253:	00 
    1254:	f3 0f 10 89 00 00 00 	movss  xmm1,DWORD PTR [rcx+0x0]
    125b:	00 
    125c:	f3 0f 58 c8          	addss  xmm1,xmm0
    1260:	48 63 d0             	movsxd rdx,eax
    1263:	f3 0f 11 0c 95 00 00 	movss  DWORD PTR [rdx*4+0x0],xmm1
    126a:	00 00 
    126c:	f3 0f 10 89 00 00 00 	movss  xmm1,DWORD PTR [rcx+0x0]
    1273:	00 
    1274:	0f 2e ca             	ucomiss xmm1,xmm2
    1277:	76 12                	jbe    128b <s123+0x272>
    1279:	83 c0 02             	add    eax,0x2
    127c:	f3 0f 58 c1          	addss  xmm0,xmm1
    1280:	f3 0f 11 04 95 00 00 	movss  DWORD PTR [rdx*4+0x0],xmm0
    1287:	00 00 
    1289:	eb 02                	jmp    128d <s123+0x274>
    128b:	ff c0                	inc    eax
    128d:	48 83 c1 20          	add    rcx,0x20
    1291:	0f 85 ae fd ff ff    	jne    1045 <s123+0x2c>
    1297:	bf 00 00 00 00       	mov    edi,0x0
    129c:	be 00 00 00 00       	mov    esi,0x0
    12a1:	ba 00 00 00 00       	mov    edx,0x0
    12a6:	b9 00 00 00 00       	mov    ecx,0x0
    12ab:	41 b8 00 00 00 00    	mov    r8d,0x0
    12b1:	41 b9 00 00 00 00    	mov    r9d,0x0
    12b7:	0f 57 c0             	xorps  xmm0,xmm0
    12ba:	68 00 00 00 00       	push   0x0
    12bf:	68 00 00 00 00       	push   0x0
    12c4:	e8 00 00 00 00       	call   12c9 <s123+0x2b0>
    12c9:	0f 57 d2             	xorps  xmm2,xmm2
    12cc:	48 83 c4 10          	add    rsp,0x10
    12d0:	ff c3                	inc    ebx
    12d2:	81 fb a0 86 01 00    	cmp    ebx,0x186a0
    12d8:	0f 85 5b fd ff ff    	jne    1039 <s123+0x20>
    12de:	49 83 c6 10          	add    r14,0x10
    12e2:	4c 89 f7             	mov    rdi,r14
    12e5:	31 f6                	xor    esi,esi
    12e7:	e8 00 00 00 00       	call   12ec <s123+0x2d3>
    12ec:	bf 00 00 00 00       	mov    edi,0x0
    12f1:	48 83 c4 08          	add    rsp,0x8
    12f5:	5b                   	pop    rbx
    12f6:	41 5e                	pop    r14
    12f8:	e9 00 00 00 00       	jmp    12fd <s124>

00000000000012fd <s124>:
    12fd:	41 56                	push   r14
    12ff:	53                   	push   rbx
    1300:	50                   	push   rax
    1301:	49 89 fe             	mov    r14,rdi
    1304:	bf 00 00 00 00       	mov    edi,0x0
    1309:	e8 00 00 00 00       	call   130e <s124+0x11>
    130e:	31 db                	xor    ebx,ebx
    1310:	4c 89 f7             	mov    rdi,r14
    1313:	31 f6                	xor    esi,esi
    1315:	e8 00 00 00 00       	call   131a <s124+0x1d>
    131a:	0f 57 d2             	xorps  xmm2,xmm2
    131d:	31 c0                	xor    eax,eax
    131f:	f3 0f 10 80 00 00 00 	movss  xmm0,DWORD PTR [rax+0x0]
    1326:	00 
    1327:	0f 2e c2             	ucomiss xmm0,xmm2
    132a:	77 08                	ja     1334 <s124+0x37>
    132c:	f3 0f 10 80 00 00 00 	movss  xmm0,DWORD PTR [rax+0x0]
    1333:	00 
    1334:	f3 0f 10 88 00 00 00 	movss  xmm1,DWORD PTR [rax+0x0]
    133b:	00 
    133c:	f3 0f 59 88 00 00 00 	mulss  xmm1,DWORD PTR [rax+0x0]
    1343:	00 
    1344:	f3 0f 58 c8          	addss  xmm1,xmm0
    1348:	f3 0f 11 88 00 00 00 	movss  DWORD PTR [rax+0x0],xmm1
    134f:	00 
    1350:	f3 0f 10 80 00 00 00 	movss  xmm0,DWORD PTR [rax+0x0]
    1357:	00 
    1358:	0f 2e c2             	ucomiss xmm0,xmm2
    135b:	77 08                	ja     1365 <s124+0x68>
    135d:	f3 0f 10 80 00 00 00 	movss  xmm0,DWORD PTR [rax+0x0]
    1364:	00 
    1365:	f3 0f 10 88 00 00 00 	movss  xmm1,DWORD PTR [rax+0x0]
    136c:	00 
    136d:	f3 0f 59 88 00 00 00 	mulss  xmm1,DWORD PTR [rax+0x0]
    1374:	00 
    1375:	f3 0f 58 c8          	addss  xmm1,xmm0
    1379:	f3 0f 11 88 00 00 00 	movss  DWORD PTR [rax+0x0],xmm1
    1380:	00 
    1381:	f3 0f 10 80 00 00 00 	movss  xmm0,DWORD PTR [rax+0x0]
    1388:	00 
    1389:	0f 2e c2             	ucomiss xmm0,xmm2
    138c:	77 08                	ja     1396 <s124+0x99>
    138e:	f3 0f 10 80 00 00 00 	movss  xmm0,DWORD PTR [rax+0x0]
    1395:	00 
    1396:	f3 0f 10 88 00 00 00 	movss  xmm1,DWORD PTR [rax+0x0]
    139d:	00 
    139e:	f3 0f 59 88 00 00 00 	mulss  xmm1,DWORD PTR [rax+0x0]
    13a5:	00 
    13a6:	f3 0f 58 c8          	addss  xmm1,xmm0
    13aa:	f3 0f 11 88 00 00 00 	movss  DWORD PTR [rax+0x0],xmm1
    13b1:	00 
    13b2:	f3 0f 10 80 00 00 00 	movss  xmm0,DWORD PTR [rax+0x0]
    13b9:	00 
    13ba:	0f 2e c2             	ucomiss xmm0,xmm2
    13bd:	77 08                	ja     13c7 <s124+0xca>
    13bf:	f3 0f 10 80 00 00 00 	movss  xmm0,DWORD PTR [rax+0x0]
    13c6:	00 
    13c7:	f3 0f 10 88 00 00 00 	movss  xmm1,DWORD PTR [rax+0x0]
    13ce:	00 
    13cf:	f3 0f 59 88 00 00 00 	mulss  xmm1,DWORD PTR [rax+0x0]
    13d6:	00 
    13d7:	f3 0f 58 c8          	addss  xmm1,xmm0
    13db:	f3 0f 11 88 00 00 00 	movss  DWORD PTR [rax+0x0],xmm1
    13e2:	00 
    13e3:	f3 0f 10 80 00 00 00 	movss  xmm0,DWORD PTR [rax+0x0]
    13ea:	00 
    13eb:	0f 2e c2             	ucomiss xmm0,xmm2
    13ee:	77 08                	ja     13f8 <s124+0xfb>
    13f0:	f3 0f 10 80 00 00 00 	movss  xmm0,DWORD PTR [rax+0x0]
    13f7:	00 
    13f8:	f3 0f 10 88 00 00 00 	movss  xmm1,DWORD PTR [rax+0x0]
    13ff:	00 
    1400:	f3 0f 59 88 00 00 00 	mulss  xmm1,DWORD PTR [rax+0x0]
    1407:	00 
    1408:	f3 0f 58 c8          	addss  xmm1,xmm0
    140c:	f3 0f 11 88 00 00 00 	movss  DWORD PTR [rax+0x0],xmm1
    1413:	00 
    1414:	f3 0f 10 80 00 00 00 	movss  xmm0,DWORD PTR [rax+0x0]
    141b:	00 
    141c:	0f 2e c2             	ucomiss xmm0,xmm2
    141f:	77 08                	ja     1429 <s124+0x12c>
    1421:	f3 0f 10 80 00 00 00 	movss  xmm0,DWORD PTR [rax+0x0]
    1428:	00 
    1429:	f3 0f 10 88 00 00 00 	movss  xmm1,DWORD PTR [rax+0x0]
    1430:	00 
    1431:	f3 0f 59 88 00 00 00 	mulss  xmm1,DWORD PTR [rax+0x0]
    1438:	00 
    1439:	f3 0f 58 c8          	addss  xmm1,xmm0
    143d:	f3 0f 11 88 00 00 00 	movss  DWORD PTR [rax+0x0],xmm1
    1444:	00 
    1445:	f3 0f 10 80 00 00 00 	movss  xmm0,DWORD PTR [rax+0x0]
    144c:	00 
    144d:	0f 2e c2             	ucomiss xmm0,xmm2
    1450:	77 08                	ja     145a <s124+0x15d>
    1452:	f3 0f 10 80 00 00 00 	movss  xmm0,DWORD PTR [rax+0x0]
    1459:	00 
    145a:	f3 0f 10 88 00 00 00 	movss  xmm1,DWORD PTR [rax+0x0]
    1461:	00 
    1462:	f3 0f 59 88 00 00 00 	mulss  xmm1,DWORD PTR [rax+0x0]
    1469:	00 
    146a:	f3 0f 58 c8          	addss  xmm1,xmm0
    146e:	f3 0f 11 88 00 00 00 	movss  DWORD PTR [rax+0x0],xmm1
    1475:	00 
    1476:	f3 0f 10 80 00 00 00 	movss  xmm0,DWORD PTR [rax+0x0]
    147d:	00 
    147e:	0f 2e c2             	ucomiss xmm0,xmm2
    1481:	77 08                	ja     148b <s124+0x18e>
    1483:	f3 0f 10 80 00 00 00 	movss  xmm0,DWORD PTR [rax+0x0]
    148a:	00 
    148b:	f3 0f 10 88 00 00 00 	movss  xmm1,DWORD PTR [rax+0x0]
    1492:	00 
    1493:	f3 0f 59 88 00 00 00 	mulss  xmm1,DWORD PTR [rax+0x0]
    149a:	00 
    149b:	f3 0f 58 c8          	addss  xmm1,xmm0
    149f:	f3 0f 11 88 00 00 00 	movss  DWORD PTR [rax+0x0],xmm1
    14a6:	00 
    14a7:	48 83 c0 20          	add    rax,0x20
    14ab:	48 3d 00 f4 01 00    	cmp    rax,0x1f400
    14b1:	0f 85 68 fe ff ff    	jne    131f <s124+0x22>
    14b7:	bf 00 00 00 00       	mov    edi,0x0
    14bc:	be 00 00 00 00       	mov    esi,0x0
    14c1:	ba 00 00 00 00       	mov    edx,0x0
    14c6:	b9 00 00 00 00       	mov    ecx,0x0
    14cb:	41 b8 00 00 00 00    	mov    r8d,0x0
    14d1:	41 b9 00 00 00 00    	mov    r9d,0x0
    14d7:	0f 57 c0             	xorps  xmm0,xmm0
    14da:	68 00 00 00 00       	push   0x0
    14df:	68 00 00 00 00       	push   0x0
    14e4:	e8 00 00 00 00       	call   14e9 <s124+0x1ec>
    14e9:	0f 57 d2             	xorps  xmm2,xmm2
    14ec:	48 83 c4 10          	add    rsp,0x10
    14f0:	ff c3                	inc    ebx
    14f2:	81 fb a0 86 01 00    	cmp    ebx,0x186a0
    14f8:	0f 85 1f fe ff ff    	jne    131d <s124+0x20>
    14fe:	49 83 c6 10          	add    r14,0x10
    1502:	4c 89 f7             	mov    rdi,r14
    1505:	31 f6                	xor    esi,esi
    1507:	e8 00 00 00 00       	call   150c <s124+0x20f>
    150c:	bf 00 00 00 00       	mov    edi,0x0
    1511:	48 83 c4 08          	add    rsp,0x8
    1515:	5b                   	pop    rbx
    1516:	41 5e                	pop    r14
    1518:	e9 00 00 00 00       	jmp    151d <s125>

000000000000151d <s125>:
    151d:	41 57                	push   r15
    151f:	41 56                	push   r14
    1521:	53                   	push   rbx
    1522:	48 83 ec 40          	sub    rsp,0x40
    1526:	49 89 fe             	mov    r14,rdi
    1529:	bf 00 00 00 00       	mov    edi,0x0
    152e:	e8 00 00 00 00       	call   1533 <s125+0x16>
    1533:	45 31 ff             	xor    r15d,r15d
    1536:	4c 89 f7             	mov    rdi,r14
    1539:	31 f6                	xor    esi,esi
    153b:	e8 00 00 00 00       	call   1540 <s125+0x23>
    1540:	48 c7 c0 ff ff ff ff 	mov    rax,0xffffffffffffffff
    1547:	45 31 c0             	xor    r8d,r8d
    154a:	48 98                	cdqe   
    154c:	31 db                	xor    ebx,ebx
    154e:	48 8d 34 85 00 00 00 	lea    rsi,[rax*4+0x0]
    1555:	00 
    1556:	48 ff c0             	inc    rax
    1559:	31 ff                	xor    edi,edi
    155b:	48 89 da             	mov    rdx,rbx
    155e:	48 09 fa             	or     rdx,rdi
    1561:	4c 89 c1             	mov    rcx,r8
    1564:	48 c1 e1 0a          	shl    rcx,0xa
    1568:	f3 0f 10 84 91 00 00 	movss  xmm0,DWORD PTR [rcx+rdx*4+0x0]
    156f:	00 00 
    1571:	f3 0f 59 84 91 00 00 	mulss  xmm0,DWORD PTR [rcx+rdx*4+0x0]
    1578:	00 00 
    157a:	f3 0f 58 84 91 00 00 	addss  xmm0,DWORD PTR [rcx+rdx*4+0x0]
    1581:	00 00 
    1583:	48 8d 0c 38          	lea    rcx,[rax+rdi*1]
    1587:	48 89 0c fc          	mov    QWORD PTR [rsp+rdi*8],rcx
    158b:	f3 0f 11 04 be       	movss  DWORD PTR [rsi+rdi*4],xmm0
    1590:	48 ff c7             	inc    rdi
    1593:	48 83 ff 08          	cmp    rdi,0x8
    1597:	75 c2                	jne    155b <s125+0x3e>
    1599:	48 8b 44 24 38       	mov    rax,QWORD PTR [rsp+0x38]
    159e:	48 83 c3 08          	add    rbx,0x8
    15a2:	48 81 fb 00 01 00 00 	cmp    rbx,0x100
    15a9:	75 a3                	jne    154e <s125+0x31>
    15ab:	49 ff c0             	inc    r8
    15ae:	49 81 f8 00 01 00 00 	cmp    r8,0x100
    15b5:	75 93                	jne    154a <s125+0x2d>
    15b7:	bf 00 00 00 00       	mov    edi,0x0
    15bc:	be 00 00 00 00       	mov    esi,0x0
    15c1:	ba 00 00 00 00       	mov    edx,0x0
    15c6:	b9 00 00 00 00       	mov    ecx,0x0
    15cb:	41 b8 00 00 00 00    	mov    r8d,0x0
    15d1:	41 b9 00 00 00 00    	mov    r9d,0x0
    15d7:	0f 57 c0             	xorps  xmm0,xmm0
    15da:	68 00 00 00 00       	push   0x0
    15df:	68 00 00 00 00       	push   0x0
    15e4:	e8 00 00 00 00       	call   15e9 <s125+0xcc>
    15e9:	48 83 c4 10          	add    rsp,0x10
    15ed:	41 ff c7             	inc    r15d
    15f0:	41 81 ff 58 98 00 00 	cmp    r15d,0x9858
    15f7:	0f 85 43 ff ff ff    	jne    1540 <s125+0x23>
    15fd:	49 83 c6 10          	add    r14,0x10
    1601:	4c 89 f7             	mov    rdi,r14
    1604:	31 f6                	xor    esi,esi
    1606:	e8 00 00 00 00       	call   160b <s125+0xee>
    160b:	bf 00 00 00 00       	mov    edi,0x0
    1610:	48 83 c4 40          	add    rsp,0x40
    1614:	5b                   	pop    rbx
    1615:	41 5e                	pop    r14
    1617:	41 5f                	pop    r15
    1619:	e9 00 00 00 00       	jmp    161e <s126>

000000000000161e <s126>:
    161e:	41 57                	push   r15
    1620:	41 56                	push   r14
    1622:	53                   	push   rbx
    1623:	48 83 ec 20          	sub    rsp,0x20
    1627:	49 89 fe             	mov    r14,rdi
    162a:	bf 00 00 00 00       	mov    edi,0x0
    162f:	e8 00 00 00 00       	call   1634 <s126+0x16>
    1634:	45 31 ff             	xor    r15d,r15d
    1637:	4c 89 f7             	mov    rdi,r14
    163a:	31 f6                	xor    esi,esi
    163c:	e8 00 00 00 00       	call   1641 <s126+0x23>
    1641:	b8 01 00 00 00       	mov    eax,0x1
    1646:	45 31 c0             	xor    r8d,r8d
    1649:	45 31 d2             	xor    r10d,r10d
    164c:	48 98                	cdqe   
    164e:	f3 42 0f 10 04 95 00 	movss  xmm0,DWORD PTR [r10*4+0x0]
    1655:	00 00 00 
    1658:	44 8d 88 f8 00 00 00 	lea    r9d,[rax+0xf8]
    165f:	48 8d 3c 85 00 00 00 	lea    rdi,[rax*4+0x0]
    1666:	00 
    1667:	bb 01 00 00 00       	mov    ebx,0x1
    166c:	4c 89 c6             	mov    rsi,r8
    166f:	48 89 f1             	mov    rcx,rsi
    1672:	31 d2                	xor    edx,edx
    1674:	f3 0f 10 0c 17       	movss  xmm1,DWORD PTR [rdi+rdx*1]
    1679:	f3 0f 59 89 00 00 00 	mulss  xmm1,DWORD PTR [rcx+0x0]
    1680:	00 
    1681:	f3 0f 58 c1          	addss  xmm0,xmm1
    1685:	f3 0f 11 44 14 04    	movss  DWORD PTR [rsp+rdx*1+0x4],xmm0
    168b:	f3 0f 11 81 00 00 00 	movss  DWORD PTR [rcx+0x0],xmm0
    1692:	00 
    1693:	48 83 c2 04          	add    rdx,0x4
    1697:	48 81 c1 00 04 00 00 	add    rcx,0x400
    169e:	48 83 fa 1c          	cmp    rdx,0x1c
    16a2:	75 d0                	jne    1674 <s126+0x56>
    16a4:	41 39 c1             	cmp    r9d,eax
    16a7:	74 40                	je     16e9 <s126+0xcb>
    16a9:	48 8d 4b 07          	lea    rcx,[rbx+0x7]
    16ad:	f3 0f 10 04 85 00 00 	movss  xmm0,DWORD PTR [rax*4+0x0]
    16b4:	00 00 
    16b6:	48 c1 e1 0a          	shl    rcx,0xa
    16ba:	f3 42 0f 59 84 91 00 	mulss  xmm0,DWORD PTR [rcx+r10*4+0x0]
    16c1:	00 00 00 
    16c4:	f3 0f 58 44 24 1c    	addss  xmm0,DWORD PTR [rsp+0x1c]
    16ca:	f3 42 0f 11 84 91 00 	movss  DWORD PTR [rcx+r10*4+0x0],xmm0
    16d1:	00 00 00 
    16d4:	48 83 c0 08          	add    rax,0x8
    16d8:	48 83 c3 08          	add    rbx,0x8
    16dc:	48 81 c6 00 20 00 00 	add    rsi,0x2000
    16e3:	48 83 c7 20          	add    rdi,0x20
    16e7:	eb 86                	jmp    166f <s126+0x51>
    16e9:	48 83 c0 06          	add    rax,0x6
    16ed:	83 c0 02             	add    eax,0x2
    16f0:	49 ff c2             	inc    r10
    16f3:	49 83 c0 04          	add    r8,0x4
    16f7:	49 81 fa 00 01 00 00 	cmp    r10,0x100
    16fe:	0f 85 48 ff ff ff    	jne    164c <s126+0x2e>
    1704:	bf 00 00 00 00       	mov    edi,0x0
    1709:	be 00 00 00 00       	mov    esi,0x0
    170e:	ba 00 00 00 00       	mov    edx,0x0
    1713:	b9 00 00 00 00       	mov    ecx,0x0
    1718:	41 b8 00 00 00 00    	mov    r8d,0x0
    171e:	41 b9 00 00 00 00    	mov    r9d,0x0
    1724:	0f 57 c0             	xorps  xmm0,xmm0
    1727:	68 00 00 00 00       	push   0x0
    172c:	68 00 00 00 00       	push   0x0
    1731:	e8 00 00 00 00       	call   1736 <s126+0x118>
    1736:	48 83 c4 10          	add    rsp,0x10
    173a:	41 ff c7             	inc    r15d
    173d:	41 81 ff 3c 0f 00 00 	cmp    r15d,0xf3c
    1744:	0f 85 f7 fe ff ff    	jne    1641 <s126+0x23>
    174a:	49 83 c6 10          	add    r14,0x10
    174e:	4c 89 f7             	mov    rdi,r14
    1751:	31 f6                	xor    esi,esi
    1753:	e8 00 00 00 00       	call   1758 <s126+0x13a>
    1758:	bf 00 00 00 00       	mov    edi,0x0
    175d:	48 83 c4 20          	add    rsp,0x20
    1761:	5b                   	pop    rbx
    1762:	41 5e                	pop    r14
    1764:	41 5f                	pop    r15
    1766:	e9 00 00 00 00       	jmp    176b <s127>

000000000000176b <s127>:
    176b:	41 56                	push   r14
    176d:	53                   	push   rbx
    176e:	50                   	push   rax
    176f:	49 89 fe             	mov    r14,rdi
    1772:	bf 00 00 00 00       	mov    edi,0x0
    1777:	e8 00 00 00 00       	call   177c <s127+0x11>
    177c:	31 db                	xor    ebx,ebx
    177e:	4c 89 f7             	mov    rdi,r14
    1781:	31 f6                	xor    esi,esi
    1783:	e8 00 00 00 00       	call   1788 <s127+0x1d>
    1788:	31 c0                	xor    eax,eax
    178a:	f3 0f 10 04 85 00 00 	movss  xmm0,DWORD PTR [rax*4+0x0]
    1791:	00 00 
    1793:	f3 0f 10 0c 85 00 00 	movss  xmm1,DWORD PTR [rax*4+0x0]
    179a:	00 00 
    179c:	f3 0f 10 14 85 00 00 	movss  xmm2,DWORD PTR [rax*4+0x0]
    17a3:	00 00 
    17a5:	f3 0f 59 d1          	mulss  xmm2,xmm1
    17a9:	f3 0f 58 d0          	addss  xmm2,xmm0
    17ad:	f3 0f 11 14 c5 00 00 	movss  DWORD PTR [rax*8+0x0],xmm2
    17b4:	00 00 
    17b6:	f3 0f 59 0c 85 00 00 	mulss  xmm1,DWORD PTR [rax*4+0x0]
    17bd:	00 00 
    17bf:	f3 0f 58 c8          	addss  xmm1,xmm0
    17c3:	f3 0f 11 0c c5 00 00 	movss  DWORD PTR [rax*8+0x0],xmm1
    17ca:	00 00 
    17cc:	f3 0f 10 04 85 00 00 	movss  xmm0,DWORD PTR [rax*4+0x0]
    17d3:	00 00 
    17d5:	f3 0f 10 0c 85 00 00 	movss  xmm1,DWORD PTR [rax*4+0x0]
    17dc:	00 00 
    17de:	f3 0f 10 14 85 00 00 	movss  xmm2,DWORD PTR [rax*4+0x0]
    17e5:	00 00 
    17e7:	f3 0f 59 d1          	mulss  xmm2,xmm1
    17eb:	f3 0f 58 d0          	addss  xmm2,xmm0
    17ef:	f3 0f 11 14 c5 00 00 	movss  DWORD PTR [rax*8+0x0],xmm2
    17f6:	00 00 
    17f8:	f3 0f 59 0c 85 00 00 	mulss  xmm1,DWORD PTR [rax*4+0x0]
    17ff:	00 00 
    1801:	f3 0f 58 c8          	addss  xmm1,xmm0
    1805:	f3 0f 11 0c c5 00 00 	movss  DWORD PTR [rax*8+0x0],xmm1
    180c:	00 00 
    180e:	f3 0f 10 04 85 00 00 	movss  xmm0,DWORD PTR [rax*4+0x0]
    1815:	00 00 
    1817:	f3 0f 10 0c 85 00 00 	movss  xmm1,DWORD PTR [rax*4+0x0]
    181e:	00 00 
    1820:	f3 0f 10 14 85 00 00 	movss  xmm2,DWORD PTR [rax*4+0x0]
    1827:	00 00 
    1829:	f3 0f 59 d1          	mulss  xmm2,xmm1
    182d:	f3 0f 58 d0          	addss  xmm2,xmm0
    1831:	f3 0f 11 14 c5 00 00 	movss  DWORD PTR [rax*8+0x0],xmm2
    1838:	00 00 
    183a:	f3 0f 59 0c 85 00 00 	mulss  xmm1,DWORD PTR [rax*4+0x0]
    1841:	00 00 
    1843:	f3 0f 58 c8          	addss  xmm1,xmm0
    1847:	f3 0f 11 0c c5 00 00 	movss  DWORD PTR [rax*8+0x0],xmm1
    184e:	00 00 
    1850:	f3 0f 10 04 85 00 00 	movss  xmm0,DWORD PTR [rax*4+0x0]
    1857:	00 00 
    1859:	f3 0f 10 0c 85 00 00 	movss  xmm1,DWORD PTR [rax*4+0x0]
    1860:	00 00 
    1862:	f3 0f 10 14 85 00 00 	movss  xmm2,DWORD PTR [rax*4+0x0]
    1869:	00 00 
    186b:	f3 0f 59 d1          	mulss  xmm2,xmm1
    186f:	f3 0f 58 d0          	addss  xmm2,xmm0
    1873:	f3 0f 11 14 c5 00 00 	movss  DWORD PTR [rax*8+0x0],xmm2
    187a:	00 00 
    187c:	f3 0f 59 0c 85 00 00 	mulss  xmm1,DWORD PTR [rax*4+0x0]
    1883:	00 00 
    1885:	f3 0f 58 c8          	addss  xmm1,xmm0
    1889:	f3 0f 11 0c c5 00 00 	movss  DWORD PTR [rax*8+0x0],xmm1
    1890:	00 00 
    1892:	f3 0f 10 04 85 00 00 	movss  xmm0,DWORD PTR [rax*4+0x0]
    1899:	00 00 
    189b:	f3 0f 10 0c 85 00 00 	movss  xmm1,DWORD PTR [rax*4+0x0]
    18a2:	00 00 
    18a4:	f3 0f 10 14 85 00 00 	movss  xmm2,DWORD PTR [rax*4+0x0]
    18ab:	00 00 
    18ad:	f3 0f 59 d1          	mulss  xmm2,xmm1
    18b1:	f3 0f 58 d0          	addss  xmm2,xmm0
    18b5:	f3 0f 11 14 c5 00 00 	movss  DWORD PTR [rax*8+0x0],xmm2
    18bc:	00 00 
    18be:	f3 0f 59 0c 85 00 00 	mulss  xmm1,DWORD PTR [rax*4+0x0]
    18c5:	00 00 
    18c7:	f3 0f 58 c8          	addss  xmm1,xmm0
    18cb:	f3 0f 11 0c c5 00 00 	movss  DWORD PTR [rax*8+0x0],xmm1
    18d2:	00 00 
    18d4:	f3 0f 10 04 85 00 00 	movss  xmm0,DWORD PTR [rax*4+0x0]
    18db:	00 00 
    18dd:	f3 0f 10 0c 85 00 00 	movss  xmm1,DWORD PTR [rax*4+0x0]
    18e4:	00 00 
    18e6:	f3 0f 10 14 85 00 00 	movss  xmm2,DWORD PTR [rax*4+0x0]
    18ed:	00 00 
    18ef:	f3 0f 59 d1          	mulss  xmm2,xmm1
    18f3:	f3 0f 58 d0          	addss  xmm2,xmm0
    18f7:	f3 0f 11 14 c5 00 00 	movss  DWORD PTR [rax*8+0x0],xmm2
    18fe:	00 00 
    1900:	f3 0f 59 0c 85 00 00 	mulss  xmm1,DWORD PTR [rax*4+0x0]
    1907:	00 00 
    1909:	f3 0f 58 c8          	addss  xmm1,xmm0
    190d:	f3 0f 11 0c c5 00 00 	movss  DWORD PTR [rax*8+0x0],xmm1
    1914:	00 00 
    1916:	f3 0f 10 04 85 00 00 	movss  xmm0,DWORD PTR [rax*4+0x0]
    191d:	00 00 
    191f:	f3 0f 10 0c 85 00 00 	movss  xmm1,DWORD PTR [rax*4+0x0]
    1926:	00 00 
    1928:	f3 0f 10 14 85 00 00 	movss  xmm2,DWORD PTR [rax*4+0x0]
    192f:	00 00 
    1931:	f3 0f 59 d1          	mulss  xmm2,xmm1
    1935:	f3 0f 58 d0          	addss  xmm2,xmm0
    1939:	f3 0f 11 14 c5 00 00 	movss  DWORD PTR [rax*8+0x0],xmm2
    1940:	00 00 
    1942:	f3 0f 59 0c 85 00 00 	mulss  xmm1,DWORD PTR [rax*4+0x0]
    1949:	00 00 
    194b:	f3 0f 58 c8          	addss  xmm1,xmm0
    194f:	f3 0f 11 0c c5 00 00 	movss  DWORD PTR [rax*8+0x0],xmm1
    1956:	00 00 
    1958:	f3 0f 10 04 85 00 00 	movss  xmm0,DWORD PTR [rax*4+0x0]
    195f:	00 00 
    1961:	f3 0f 10 0c 85 00 00 	movss  xmm1,DWORD PTR [rax*4+0x0]
    1968:	00 00 
    196a:	f3 0f 10 14 85 00 00 	movss  xmm2,DWORD PTR [rax*4+0x0]
    1971:	00 00 
    1973:	f3 0f 59 d1          	mulss  xmm2,xmm1
    1977:	f3 0f 58 d0          	addss  xmm2,xmm0
    197b:	f3 0f 11 14 c5 00 00 	movss  DWORD PTR [rax*8+0x0],xmm2
    1982:	00 00 
    1984:	f3 0f 59 0c 85 00 00 	mulss  xmm1,DWORD PTR [rax*4+0x0]
    198b:	00 00 
    198d:	f3 0f 58 c8          	addss  xmm1,xmm0
    1991:	f3 0f 11 0c c5 00 00 	movss  DWORD PTR [rax*8+0x0],xmm1
    1998:	00 00 
    199a:	48 83 c0 08          	add    rax,0x8
    199e:	48 3d 80 3e 00 00    	cmp    rax,0x3e80
    19a4:	0f 85 e0 fd ff ff    	jne    178a <s127+0x1f>
    19aa:	bf 00 00 00 00       	mov    edi,0x0
    19af:	be 00 00 00 00       	mov    esi,0x0
    19b4:	ba 00 00 00 00       	mov    edx,0x0
    19b9:	b9 00 00 00 00       	mov    ecx,0x0
    19be:	41 b8 00 00 00 00    	mov    r8d,0x0
    19c4:	41 b9 00 00 00 00    	mov    r9d,0x0
    19ca:	0f 57 c0             	xorps  xmm0,xmm0
    19cd:	68 00 00 00 00       	push   0x0
    19d2:	68 00 00 00 00       	push   0x0
    19d7:	e8 00 00 00 00       	call   19dc <s127+0x271>
    19dc:	48 83 c4 10          	add    rsp,0x10
    19e0:	ff c3                	inc    ebx
    19e2:	81 fb 40 0d 03 00    	cmp    ebx,0x30d40
    19e8:	0f 85 9a fd ff ff    	jne    1788 <s127+0x1d>
    19ee:	49 83 c6 10          	add    r14,0x10
    19f2:	4c 89 f7             	mov    rdi,r14
    19f5:	31 f6                	xor    esi,esi
    19f7:	e8 00 00 00 00       	call   19fc <s127+0x291>
    19fc:	bf 00 00 00 00       	mov    edi,0x0
    1a01:	48 83 c4 08          	add    rsp,0x8
    1a05:	5b                   	pop    rbx
    1a06:	41 5e                	pop    r14
    1a08:	e9 00 00 00 00       	jmp    1a0d <s128>

0000000000001a0d <s128>:
    1a0d:	41 56                	push   r14
    1a0f:	53                   	push   rbx
    1a10:	50                   	push   rax
    1a11:	49 89 fe             	mov    r14,rdi
    1a14:	bf 00 00 00 00       	mov    edi,0x0
    1a19:	e8 00 00 00 00       	call   1a1e <s128+0x11>
    1a1e:	31 db                	xor    ebx,ebx
    1a20:	4c 89 f7             	mov    rdi,r14
    1a23:	31 f6                	xor    esi,esi
    1a25:	e8 00 00 00 00       	call   1a2a <s128+0x1d>
    1a2a:	31 c0                	xor    eax,eax
    1a2c:	31 c9                	xor    ecx,ecx
    1a2e:	31 d2                	xor    edx,edx
    1a30:	f3 0f 10 84 d0 00 00 	movss  xmm0,DWORD PTR [rax+rdx*8+0x0]
    1a37:	00 00 
    1a39:	48 89 ce             	mov    rsi,rcx
    1a3c:	48 09 d6             	or     rsi,rdx
    1a3f:	f3 0f 5c 04 b5 00 00 	subss  xmm0,DWORD PTR [rsi*4+0x0]
    1a46:	00 00 
    1a48:	f3 0f 11 04 b5 00 00 	movss  DWORD PTR [rsi*4+0x0],xmm0
    1a4f:	00 00 
    1a51:	f3 0f 58 84 d0 00 00 	addss  xmm0,DWORD PTR [rax+rdx*8+0x0]
    1a58:	00 00 
    1a5a:	f3 0f 11 84 d0 00 00 	movss  DWORD PTR [rax+rdx*8+0x0],xmm0
    1a61:	00 00 
    1a63:	48 ff c2             	inc    rdx
    1a66:	48 83 fa 08          	cmp    rdx,0x8
    1a6a:	75 c4                	jne    1a30 <s128+0x23>
    1a6c:	48 83 c1 08          	add    rcx,0x8
    1a70:	48 83 c0 40          	add    rax,0x40
    1a74:	48 81 f9 80 3e 00 00 	cmp    rcx,0x3e80
    1a7b:	75 b1                	jne    1a2e <s128+0x21>
    1a7d:	bf 00 00 00 00       	mov    edi,0x0
    1a82:	be 00 00 00 00       	mov    esi,0x0
    1a87:	ba 00 00 00 00       	mov    edx,0x0
    1a8c:	b9 00 00 00 00       	mov    ecx,0x0
    1a91:	41 b8 00 00 00 00    	mov    r8d,0x0
    1a97:	41 b9 00 00 00 00    	mov    r9d,0x0
    1a9d:	f3 0f 10 05 00 00 00 	movss  xmm0,DWORD PTR [rip+0x0]        # 1aa5 <s128+0x98>
    1aa4:	00 
    1aa5:	68 00 00 00 00       	push   0x0
    1aaa:	68 00 00 00 00       	push   0x0
    1aaf:	e8 00 00 00 00       	call   1ab4 <s128+0xa7>
    1ab4:	48 83 c4 10          	add    rsp,0x10
    1ab8:	ff c3                	inc    ebx
    1aba:	81 fb 40 0d 03 00    	cmp    ebx,0x30d40
    1ac0:	0f 85 64 ff ff ff    	jne    1a2a <s128+0x1d>
    1ac6:	49 83 c6 10          	add    r14,0x10
    1aca:	4c 89 f7             	mov    rdi,r14
    1acd:	31 f6                	xor    esi,esi
    1acf:	e8 00 00 00 00       	call   1ad4 <s128+0xc7>
    1ad4:	bf 00 00 00 00       	mov    edi,0x0
    1ad9:	48 83 c4 08          	add    rsp,0x8
    1add:	5b                   	pop    rbx
    1ade:	41 5e                	pop    r14
    1ae0:	e9 00 00 00 00       	jmp    1ae5 <s131>

0000000000001ae5 <s131>:
    1ae5:	41 56                	push   r14
    1ae7:	53                   	push   rbx
    1ae8:	48 83 ec 78          	sub    rsp,0x78
    1aec:	49 89 fe             	mov    r14,rdi
    1aef:	bf 00 00 00 00       	mov    edi,0x0
    1af4:	e8 00 00 00 00       	call   1af9 <s131+0x14>
    1af9:	31 db                	xor    ebx,ebx
    1afb:	4c 89 f7             	mov    rdi,r14
    1afe:	31 f6                	xor    esi,esi
    1b00:	e8 00 00 00 00       	call   1b05 <s131+0x20>
    1b05:	31 c0                	xor    eax,eax
    1b07:	31 c9                	xor    ecx,ecx
    1b09:	48 8d 51 01          	lea    rdx,[rcx+0x1]
    1b0d:	48 89 d6             	mov    rsi,rdx
    1b10:	48 09 c6             	or     rsi,rax
    1b13:	48 89 74 cc 08       	mov    QWORD PTR [rsp+rcx*8+0x8],rsi
    1b18:	48 8d 34 b5 00 00 00 	lea    rsi,[rsi*4+0x0]
    1b1f:	00 
    1b20:	48 89 74 cc 40       	mov    QWORD PTR [rsp+rcx*8+0x40],rsi
    1b25:	f3 0f 10 06          	movss  xmm0,DWORD PTR [rsi]
    1b29:	48 09 c1             	or     rcx,rax
    1b2c:	f3 0f 58 04 8d 00 00 	addss  xmm0,DWORD PTR [rcx*4+0x0]
    1b33:	00 00 
    1b35:	f3 0f 11 04 8d 00 00 	movss  DWORD PTR [rcx*4+0x0],xmm0
    1b3c:	00 00 
    1b3e:	48 89 d1             	mov    rcx,rdx
    1b41:	48 83 fa 07          	cmp    rdx,0x7
    1b45:	75 c2                	jne    1b09 <s131+0x24>
    1b47:	48 8b 4c 24 38       	mov    rcx,QWORD PTR [rsp+0x38]
    1b4c:	48 81 f9 ff 7c 00 00 	cmp    rcx,0x7cff
    1b53:	74 21                	je     1b76 <s131+0x91>
    1b55:	48 8b 54 24 70       	mov    rdx,QWORD PTR [rsp+0x70]
    1b5a:	f3 0f 10 04 85 00 00 	movss  xmm0,DWORD PTR [rax*4+0x0]
    1b61:	00 00 
    1b63:	48 83 c0 08          	add    rax,0x8
    1b67:	f3 0f 58 04 8d 00 00 	addss  xmm0,DWORD PTR [rcx*4+0x0]
    1b6e:	00 00 
    1b70:	f3 0f 11 02          	movss  DWORD PTR [rdx],xmm0
    1b74:	eb 91                	jmp    1b07 <s131+0x22>
    1b76:	bf 00 00 00 00       	mov    edi,0x0
    1b7b:	be 00 00 00 00       	mov    esi,0x0
    1b80:	ba 00 00 00 00       	mov    edx,0x0
    1b85:	b9 00 00 00 00       	mov    ecx,0x0
    1b8a:	41 b8 00 00 00 00    	mov    r8d,0x0
    1b90:	41 b9 00 00 00 00    	mov    r9d,0x0
    1b96:	0f 57 c0             	xorps  xmm0,xmm0
    1b99:	68 00 00 00 00       	push   0x0
    1b9e:	68 00 00 00 00       	push   0x0
    1ba3:	e8 00 00 00 00       	call   1ba8 <s131+0xc3>
    1ba8:	48 83 c4 10          	add    rsp,0x10
    1bac:	ff c3                	inc    ebx
    1bae:	81 fb 20 a1 07 00    	cmp    ebx,0x7a120
    1bb4:	0f 85 4b ff ff ff    	jne    1b05 <s131+0x20>
    1bba:	49 83 c6 10          	add    r14,0x10
    1bbe:	4c 89 f7             	mov    rdi,r14
    1bc1:	31 f6                	xor    esi,esi
    1bc3:	e8 00 00 00 00       	call   1bc8 <s131+0xe3>
    1bc8:	bf 00 00 00 00       	mov    edi,0x0
    1bcd:	48 83 c4 78          	add    rsp,0x78
    1bd1:	5b                   	pop    rbx
    1bd2:	41 5e                	pop    r14
    1bd4:	e9 00 00 00 00       	jmp    1bd9 <s132>

0000000000001bd9 <s132>:
    1bd9:	41 56                	push   r14
    1bdb:	53                   	push   rbx
    1bdc:	48 83 ec 38          	sub    rsp,0x38
    1be0:	49 89 fe             	mov    r14,rdi
    1be3:	bf 00 00 00 00       	mov    edi,0x0
    1be8:	e8 00 00 00 00       	call   1bed <s132+0x14>
    1bed:	31 db                	xor    ebx,ebx
    1bef:	4c 89 f7             	mov    rdi,r14
    1bf2:	31 f6                	xor    esi,esi
    1bf4:	e8 00 00 00 00       	call   1bf9 <s132+0x20>
    1bf9:	b8 01 00 00 00       	mov    eax,0x1
    1bfe:	b9 00 04 00 00       	mov    ecx,0x400
    1c03:	f3 0f 10 05 00 00 00 	movss  xmm0,DWORD PTR [rip+0x0]        # 1c0b <s132+0x32>
    1c0a:	00 
    1c0b:	31 d2                	xor    edx,edx
    1c0d:	48 8d 34 10          	lea    rsi,[rax+rdx*1]
    1c11:	f3 0f 10 8c 91 00 00 	movss  xmm1,DWORD PTR [rcx+rdx*4+0x0]
    1c18:	00 00 
    1c1a:	f3 0f 59 c8          	mulss  xmm1,xmm0
    1c1e:	f3 0f 58 8c 91 00 00 	addss  xmm1,DWORD PTR [rcx+rdx*4+0x0]
    1c25:	00 00 
    1c27:	48 89 34 d4          	mov    QWORD PTR [rsp+rdx*8],rsi
    1c2b:	f3 0f 11 8c 91 00 00 	movss  DWORD PTR [rcx+rdx*4+0x0],xmm1
    1c32:	00 00 
    1c34:	48 ff c2             	inc    rdx
    1c37:	48 83 fa 07          	cmp    rdx,0x7
    1c3b:	75 d0                	jne    1c0d <s132+0x34>
    1c3d:	48 3d f9 00 00 00    	cmp    rax,0xf9
    1c43:	74 2e                	je     1c73 <s132+0x9a>
    1c45:	48 8b 54 24 30       	mov    rdx,QWORD PTR [rsp+0x30]
    1c4a:	f3 0f 10 0c 85 00 00 	movss  xmm1,DWORD PTR [rax*4+0x0]
    1c51:	00 00 
    1c53:	f3 0f 59 c8          	mulss  xmm1,xmm0
    1c57:	f3 0f 58 0c 95 00 00 	addss  xmm1,DWORD PTR [rdx*4+0x0]
    1c5e:	00 00 
    1c60:	f3 0f 11 0c 85 00 00 	movss  DWORD PTR [rax*4+0x0],xmm1
    1c67:	00 00 
    1c69:	48 83 c0 08          	add    rax,0x8
    1c6d:	48 83 c1 20          	add    rcx,0x20
    1c71:	eb 98                	jmp    1c0b <s132+0x32>
    1c73:	bf 00 00 00 00       	mov    edi,0x0
    1c78:	be 00 00 00 00       	mov    esi,0x0
    1c7d:	ba 00 00 00 00       	mov    edx,0x0
    1c82:	b9 00 00 00 00       	mov    ecx,0x0
    1c87:	41 b8 00 00 00 00    	mov    r8d,0x0
    1c8d:	41 b9 00 00 00 00    	mov    r9d,0x0
    1c93:	0f 57 c0             	xorps  xmm0,xmm0
    1c96:	68 00 00 00 00       	push   0x0
    1c9b:	68 00 00 00 00       	push   0x0
    1ca0:	e8 00 00 00 00       	call   1ca5 <s132+0xcc>
    1ca5:	48 83 c4 10          	add    rsp,0x10
    1ca9:	ff c3                	inc    ebx
    1cab:	81 fb 00 5a 62 02    	cmp    ebx,0x2625a00
    1cb1:	0f 85 42 ff ff ff    	jne    1bf9 <s132+0x20>
    1cb7:	49 83 c6 10          	add    r14,0x10
    1cbb:	4c 89 f7             	mov    rdi,r14
    1cbe:	31 f6                	xor    esi,esi
    1cc0:	e8 00 00 00 00       	call   1cc5 <s132+0xec>
    1cc5:	bf 00 00 00 00       	mov    edi,0x0
    1cca:	48 83 c4 38          	add    rsp,0x38
    1cce:	5b                   	pop    rbx
    1ccf:	41 5e                	pop    r14
    1cd1:	e9 00 00 00 00       	jmp    1cd6 <s141>

0000000000001cd6 <s141>:
    1cd6:	41 57                	push   r15
    1cd8:	41 56                	push   r14
    1cda:	41 54                	push   r12
    1cdc:	53                   	push   rbx
    1cdd:	50                   	push   rax
    1cde:	49 89 fe             	mov    r14,rdi
    1ce1:	bf 00 00 00 00       	mov    edi,0x0
    1ce6:	e8 00 00 00 00       	call   1ceb <s141+0x15>
    1ceb:	45 31 ff             	xor    r15d,r15d
    1cee:	4c 89 f7             	mov    rdi,r14
    1cf1:	31 f6                	xor    esi,esi
    1cf3:	e8 00 00 00 00       	call   1cf8 <s141+0x22>
    1cf8:	b8 00 00 00 00       	mov    eax,0x0
    1cfd:	41 ba 00 00 00 00    	mov    r10d,0x0
    1d03:	45 31 db             	xor    r11d,r11d
    1d06:	45 31 c9             	xor    r9d,r9d
    1d09:	45 31 c0             	xor    r8d,r8d
    1d0c:	4d 89 cc             	mov    r12,r9
    1d0f:	41 ff c0             	inc    r8d
    1d12:	44 89 e1             	mov    ecx,r12d
    1d15:	f7 d9                	neg    ecx
    1d17:	44 89 c6             	mov    esi,r8d
    1d1a:	41 0f af f4          	imul   esi,r12d
    1d1e:	d1 ee                	shr    esi,1
    1d20:	44 01 e6             	add    esi,r12d
    1d23:	f6 c1 07             	test   cl,0x7
    1d26:	74 3b                	je     1d63 <s141+0x8d>
    1d28:	41 0f b6 cb          	movzx  ecx,r11b
    1d2c:	83 e1 07             	and    ecx,0x7
    1d2f:	48 c1 e1 0a          	shl    rcx,0xa
    1d33:	31 d2                	xor    edx,edx
    1d35:	4c 89 e7             	mov    rdi,r12
    1d38:	f3 0f 10 04 10       	movss  xmm0,DWORD PTR [rax+rdx*1]
    1d3d:	89 f3                	mov    ebx,esi
    1d3f:	f3 0f 58 04 9d 00 00 	addss  xmm0,DWORD PTR [rbx*4+0x0]
    1d46:	00 00 
    1d48:	f3 0f 11 04 9d 00 00 	movss  DWORD PTR [rbx*4+0x0],xmm0
    1d4f:	00 00 
    1d51:	48 ff c7             	inc    rdi
    1d54:	01 fe                	add    esi,edi
    1d56:	48 81 c2 00 04 00 00 	add    rdx,0x400
    1d5d:	39 d1                	cmp    ecx,edx
    1d5f:	75 d7                	jne    1d38 <s141+0x62>
    1d61:	eb 03                	jmp    1d66 <s141+0x90>
    1d63:	4c 89 e7             	mov    rdi,r12
    1d66:	4d 8d 4c 24 01       	lea    r9,[r12+0x1]
    1d6b:	49 81 fc f8 00 00 00 	cmp    r12,0xf8
    1d72:	0f 87 54 01 00 00    	ja     1ecc <s141+0x1f6>
    1d78:	48 8d 9f 00 ff ff ff 	lea    rbx,[rdi-0x100]
    1d7f:	48 c1 e7 0a          	shl    rdi,0xa
    1d83:	4c 01 d7             	add    rdi,r10
    1d86:	f3 0f 10 87 00 f0 ff 	movss  xmm0,DWORD PTR [rdi-0x1000]
    1d8d:	ff 
    1d8e:	89 f1                	mov    ecx,esi
    1d90:	f3 0f 58 04 8d 00 00 	addss  xmm0,DWORD PTR [rcx*4+0x0]
    1d97:	00 00 
    1d99:	f3 0f 11 04 8d 00 00 	movss  DWORD PTR [rcx*4+0x0],xmm0
    1da0:	00 00 
    1da2:	8d 0c 33             	lea    ecx,[rbx+rsi*1]
    1da5:	8d 94 33 01 01 00 00 	lea    edx,[rbx+rsi*1+0x101]
    1dac:	f3 0f 10 87 00 f4 ff 	movss  xmm0,DWORD PTR [rdi-0xc00]
    1db3:	ff 
    1db4:	f3 0f 58 04 95 00 00 	addss  xmm0,DWORD PTR [rdx*4+0x0]
    1dbb:	00 00 
    1dbd:	f3 0f 11 04 95 00 00 	movss  DWORD PTR [rdx*4+0x0],xmm0
    1dc4:	00 00 
    1dc6:	8d 94 0b 01 01 00 00 	lea    edx,[rbx+rcx*1+0x101]
    1dcd:	8d 8c 0b 03 02 00 00 	lea    ecx,[rbx+rcx*1+0x203]
    1dd4:	f3 0f 10 87 00 f8 ff 	movss  xmm0,DWORD PTR [rdi-0x800]
    1ddb:	ff 
    1ddc:	f3 0f 58 04 8d 00 00 	addss  xmm0,DWORD PTR [rcx*4+0x0]
    1de3:	00 00 
    1de5:	f3 0f 11 04 8d 00 00 	movss  DWORD PTR [rcx*4+0x0],xmm0
    1dec:	00 00 
    1dee:	8d 8c 13 02 01 00 00 	lea    ecx,[rbx+rdx*1+0x102]
    1df5:	8d 94 13 05 02 00 00 	lea    edx,[rbx+rdx*1+0x205]
    1dfc:	f3 0f 10 87 00 fc ff 	movss  xmm0,DWORD PTR [rdi-0x400]
    1e03:	ff 
    1e04:	f3 0f 58 04 95 00 00 	addss  xmm0,DWORD PTR [rdx*4+0x0]
    1e0b:	00 00 
    1e0d:	f3 0f 11 04 95 00 00 	movss  DWORD PTR [rdx*4+0x0],xmm0
    1e14:	00 00 
    1e16:	8d 94 0b 03 01 00 00 	lea    edx,[rbx+rcx*1+0x103]
    1e1d:	8d 8c 0b 07 02 00 00 	lea    ecx,[rbx+rcx*1+0x207]
    1e24:	f3 0f 10 07          	movss  xmm0,DWORD PTR [rdi]
    1e28:	f3 0f 58 04 8d 00 00 	addss  xmm0,DWORD PTR [rcx*4+0x0]
    1e2f:	00 00 
    1e31:	f3 0f 11 04 8d 00 00 	movss  DWORD PTR [rcx*4+0x0],xmm0
    1e38:	00 00 
    1e3a:	8d 8c 13 04 01 00 00 	lea    ecx,[rbx+rdx*1+0x104]
    1e41:	8d 94 13 09 02 00 00 	lea    edx,[rbx+rdx*1+0x209]
    1e48:	f3 0f 10 87 00 04 00 	movss  xmm0,DWORD PTR [rdi+0x400]
    1e4f:	00 
    1e50:	f3 0f 58 04 95 00 00 	addss  xmm0,DWORD PTR [rdx*4+0x0]
    1e57:	00 00 
    1e59:	f3 0f 11 04 95 00 00 	movss  DWORD PTR [rdx*4+0x0],xmm0
    1e60:	00 00 
    1e62:	8d 94 0b 05 01 00 00 	lea    edx,[rbx+rcx*1+0x105]
    1e69:	8d 8c 0b 0b 02 00 00 	lea    ecx,[rbx+rcx*1+0x20b]
    1e70:	f3 0f 10 87 00 08 00 	movss  xmm0,DWORD PTR [rdi+0x800]
    1e77:	00 
    1e78:	f3 0f 58 04 8d 00 00 	addss  xmm0,DWORD PTR [rcx*4+0x0]
    1e7f:	00 00 
    1e81:	f3 0f 11 04 8d 00 00 	movss  DWORD PTR [rcx*4+0x0],xmm0
    1e88:	00 00 
    1e8a:	8d 8c 13 06 01 00 00 	lea    ecx,[rbx+rdx*1+0x106]
    1e91:	8d 94 13 0d 02 00 00 	lea    edx,[rbx+rdx*1+0x20d]
    1e98:	f3 0f 10 87 00 0c 00 	movss  xmm0,DWORD PTR [rdi+0xc00]
    1e9f:	00 
    1ea0:	f3 0f 58 04 95 00 00 	addss  xmm0,DWORD PTR [rdx*4+0x0]
    1ea7:	00 00 
    1ea9:	f3 0f 11 04 95 00 00 	movss  DWORD PTR [rdx*4+0x0],xmm0
    1eb0:	00 00 
    1eb2:	8d 34 0b             	lea    esi,[rbx+rcx*1]
    1eb5:	81 c6 0f 02 00 00    	add    esi,0x20f
    1ebb:	48 81 c7 00 20 00 00 	add    rdi,0x2000
    1ec2:	48 83 c3 08          	add    rbx,0x8
    1ec6:	0f 85 ba fe ff ff    	jne    1d86 <s141+0xb0>
    1ecc:	48 05 04 04 00 00    	add    rax,0x404
    1ed2:	41 80 c3 07          	add    r11b,0x7
    1ed6:	49 83 c2 04          	add    r10,0x4
    1eda:	49 81 f9 00 01 00 00 	cmp    r9,0x100
    1ee1:	0f 85 25 fe ff ff    	jne    1d0c <s141+0x36>
    1ee7:	bf 00 00 00 00       	mov    edi,0x0
    1eec:	be 00 00 00 00       	mov    esi,0x0
    1ef1:	ba 00 00 00 00       	mov    edx,0x0
    1ef6:	b9 00 00 00 00       	mov    ecx,0x0
    1efb:	41 b8 00 00 00 00    	mov    r8d,0x0
    1f01:	41 b9 00 00 00 00    	mov    r9d,0x0
    1f07:	0f 57 c0             	xorps  xmm0,xmm0
    1f0a:	68 00 00 00 00       	push   0x0
    1f0f:	68 00 00 00 00       	push   0x0
    1f14:	e8 00 00 00 00       	call   1f19 <s141+0x243>
    1f19:	48 83 c4 10          	add    rsp,0x10
    1f1d:	41 ff c7             	inc    r15d
    1f20:	41 81 ff b0 30 01 00 	cmp    r15d,0x130b0
    1f27:	0f 85 cb fd ff ff    	jne    1cf8 <s141+0x22>
    1f2d:	49 83 c6 10          	add    r14,0x10
    1f31:	4c 89 f7             	mov    rdi,r14
    1f34:	31 f6                	xor    esi,esi
    1f36:	e8 00 00 00 00       	call   1f3b <s141+0x265>
    1f3b:	bf 00 00 00 00       	mov    edi,0x0
    1f40:	48 83 c4 08          	add    rsp,0x8
    1f44:	5b                   	pop    rbx
    1f45:	41 5c                	pop    r12
    1f47:	41 5e                	pop    r14
    1f49:	41 5f                	pop    r15
    1f4b:	e9 00 00 00 00       	jmp    1f50 <s151s>

0000000000001f50 <s151s>:
    1f50:	4c 63 ca             	movsxd r9,edx
    1f53:	45 31 d2             	xor    r10d,r10d
    1f56:	31 d2                	xor    edx,edx
    1f58:	4c 89 d1             	mov    rcx,r10
    1f5b:	48 09 d1             	or     rcx,rdx
    1f5e:	4a 8d 04 09          	lea    rax,[rcx+r9*1]
    1f62:	f3 0f 10 04 87       	movss  xmm0,DWORD PTR [rdi+rax*4]
    1f67:	f3 0f 58 04 8e       	addss  xmm0,DWORD PTR [rsi+rcx*4]
    1f6c:	f3 0f 11 04 8f       	movss  DWORD PTR [rdi+rcx*4],xmm0
    1f71:	48 ff c2             	inc    rdx
    1f74:	48 83 fa 07          	cmp    rdx,0x7
    1f78:	75 de                	jne    1f58 <s151s+0x8>
    1f7a:	4d 89 d0             	mov    r8,r10
    1f7d:	49 83 c8 07          	or     r8,0x7
    1f81:	49 81 f8 ff 7c 00 00 	cmp    r8,0x7cff
    1f88:	74 1b                	je     1fa5 <s151s+0x55>
    1f8a:	4b 8d 14 08          	lea    rdx,[r8+r9*1]
    1f8e:	f3 0f 10 04 97       	movss  xmm0,DWORD PTR [rdi+rdx*4]
    1f93:	f3 42 0f 58 04 86    	addss  xmm0,DWORD PTR [rsi+r8*4]
    1f99:	f3 42 0f 11 04 87    	movss  DWORD PTR [rdi+r8*4],xmm0
    1f9f:	49 83 c2 08          	add    r10,0x8
    1fa3:	eb b1                	jmp    1f56 <s151s+0x6>
    1fa5:	c3                   	ret    

0000000000001fa6 <s151>:
    1fa6:	41 56                	push   r14
    1fa8:	53                   	push   rbx
    1fa9:	50                   	push   rax
    1faa:	49 89 fe             	mov    r14,rdi
    1fad:	bf 00 00 00 00       	mov    edi,0x0
    1fb2:	e8 00 00 00 00       	call   1fb7 <s151+0x11>
    1fb7:	31 db                	xor    ebx,ebx
    1fb9:	4c 89 f7             	mov    rdi,r14
    1fbc:	31 f6                	xor    esi,esi
    1fbe:	e8 00 00 00 00       	call   1fc3 <s151+0x1d>
    1fc3:	31 c0                	xor    eax,eax
    1fc5:	31 c9                	xor    ecx,ecx
    1fc7:	48 89 ca             	mov    rdx,rcx
    1fca:	48 09 c2             	or     rdx,rax
    1fcd:	f3 0f 10 04 95 00 00 	movss  xmm0,DWORD PTR [rdx*4+0x0]
    1fd4:	00 00 
    1fd6:	f3 0f 58 04 95 00 00 	addss  xmm0,DWORD PTR [rdx*4+0x0]
    1fdd:	00 00 
    1fdf:	f3 0f 11 04 95 00 00 	movss  DWORD PTR [rdx*4+0x0],xmm0
    1fe6:	00 00 
    1fe8:	48 ff c1             	inc    rcx
    1feb:	48 83 f9 07          	cmp    rcx,0x7
    1fef:	75 d6                	jne    1fc7 <s151+0x21>
    1ff1:	48 89 c1             	mov    rcx,rax
    1ff4:	48 83 c9 07          	or     rcx,0x7
    1ff8:	48 81 f9 ff 7c 00 00 	cmp    rcx,0x7cff
    1fff:	74 21                	je     2022 <s151+0x7c>
    2001:	f3 0f 10 04 8d 00 00 	movss  xmm0,DWORD PTR [rcx*4+0x0]
    2008:	00 00 
    200a:	f3 0f 58 04 8d 00 00 	addss  xmm0,DWORD PTR [rcx*4+0x0]
    2011:	00 00 
    2013:	f3 0f 11 04 8d 00 00 	movss  DWORD PTR [rcx*4+0x0],xmm0
    201a:	00 00 
    201c:	48 83 c0 08          	add    rax,0x8
    2020:	eb a3                	jmp    1fc5 <s151+0x1f>
    2022:	bf 00 00 00 00       	mov    edi,0x0
    2027:	be 00 00 00 00       	mov    esi,0x0
    202c:	ba 00 00 00 00       	mov    edx,0x0
    2031:	b9 00 00 00 00       	mov    ecx,0x0
    2036:	41 b8 00 00 00 00    	mov    r8d,0x0
    203c:	41 b9 00 00 00 00    	mov    r9d,0x0
    2042:	0f 57 c0             	xorps  xmm0,xmm0
    2045:	68 00 00 00 00       	push   0x0
    204a:	68 00 00 00 00       	push   0x0
    204f:	e8 00 00 00 00       	call   2054 <s151+0xae>
    2054:	48 83 c4 10          	add    rsp,0x10
    2058:	ff c3                	inc    ebx
    205a:	81 fb 20 a1 07 00    	cmp    ebx,0x7a120
    2060:	0f 85 5d ff ff ff    	jne    1fc3 <s151+0x1d>
    2066:	49 83 c6 10          	add    r14,0x10
    206a:	4c 89 f7             	mov    rdi,r14
    206d:	31 f6                	xor    esi,esi
    206f:	e8 00 00 00 00       	call   2074 <s151+0xce>
    2074:	bf 00 00 00 00       	mov    edi,0x0
    2079:	48 83 c4 08          	add    rsp,0x8
    207d:	5b                   	pop    rbx
    207e:	41 5e                	pop    r14
    2080:	e9 00 00 00 00       	jmp    2085 <s152s>

0000000000002085 <s152s>:
    2085:	48 63 c1             	movsxd rax,ecx
    2088:	f3 0f 10 04 86       	movss  xmm0,DWORD PTR [rsi+rax*4]
    208d:	f3 0f 59 04 82       	mulss  xmm0,DWORD PTR [rdx+rax*4]
    2092:	f3 0f 58 04 87       	addss  xmm0,DWORD PTR [rdi+rax*4]
    2097:	f3 0f 11 04 87       	movss  DWORD PTR [rdi+rax*4],xmm0
    209c:	c3                   	ret    

000000000000209d <s152>:
    209d:	41 56                	push   r14
    209f:	53                   	push   rbx
    20a0:	50                   	push   rax
    20a1:	49 89 fe             	mov    r14,rdi
    20a4:	bf 00 00 00 00       	mov    edi,0x0
    20a9:	e8 00 00 00 00       	call   20ae <s152+0x11>
    20ae:	31 db                	xor    ebx,ebx
    20b0:	4c 89 f7             	mov    rdi,r14
    20b3:	31 f6                	xor    esi,esi
    20b5:	e8 00 00 00 00       	call   20ba <s152+0x1d>
    20ba:	31 c0                	xor    eax,eax
    20bc:	31 c9                	xor    ecx,ecx
    20be:	48 89 c2             	mov    rdx,rax
    20c1:	48 09 ca             	or     rdx,rcx
    20c4:	f3 0f 10 04 95 00 00 	movss  xmm0,DWORD PTR [rdx*4+0x0]
    20cb:	00 00 
    20cd:	f3 0f 59 04 95 00 00 	mulss  xmm0,DWORD PTR [rdx*4+0x0]
    20d4:	00 00 
    20d6:	f3 0f 11 04 95 00 00 	movss  DWORD PTR [rdx*4+0x0],xmm0
    20dd:	00 00 
    20df:	f3 0f 59 04 95 00 00 	mulss  xmm0,DWORD PTR [rdx*4+0x0]
    20e6:	00 00 
    20e8:	f3 0f 58 04 95 00 00 	addss  xmm0,DWORD PTR [rdx*4+0x0]
    20ef:	00 00 
    20f1:	f3 0f 11 04 95 00 00 	movss  DWORD PTR [rdx*4+0x0],xmm0
    20f8:	00 00 
    20fa:	48 ff c1             	inc    rcx
    20fd:	48 83 f9 08          	cmp    rcx,0x8
    2101:	75 bb                	jne    20be <s152+0x21>
    2103:	48 83 c0 08          	add    rax,0x8
    2107:	48 3d 00 7d 00 00    	cmp    rax,0x7d00
    210d:	75 ad                	jne    20bc <s152+0x1f>
    210f:	bf 00 00 00 00       	mov    edi,0x0
    2114:	be 00 00 00 00       	mov    esi,0x0
    2119:	ba 00 00 00 00       	mov    edx,0x0
    211e:	b9 00 00 00 00       	mov    ecx,0x0
    2123:	41 b8 00 00 00 00    	mov    r8d,0x0
    2129:	41 b9 00 00 00 00    	mov    r9d,0x0
    212f:	0f 57 c0             	xorps  xmm0,xmm0
    2132:	68 00 00 00 00       	push   0x0
    2137:	68 00 00 00 00       	push   0x0
    213c:	e8 00 00 00 00       	call   2141 <s152+0xa4>
    2141:	48 83 c4 10          	add    rsp,0x10
    2145:	ff c3                	inc    ebx
    2147:	81 fb a0 86 01 00    	cmp    ebx,0x186a0
    214d:	0f 85 67 ff ff ff    	jne    20ba <s152+0x1d>
    2153:	49 83 c6 10          	add    r14,0x10
    2157:	4c 89 f7             	mov    rdi,r14
    215a:	31 f6                	xor    esi,esi
    215c:	e8 00 00 00 00       	call   2161 <s152+0xc4>
    2161:	bf 00 00 00 00       	mov    edi,0x0
    2166:	48 83 c4 08          	add    rsp,0x8
    216a:	5b                   	pop    rbx
    216b:	41 5e                	pop    r14
    216d:	e9 00 00 00 00       	jmp    2172 <s161>

0000000000002172 <s161>:
    2172:	41 56                	push   r14
    2174:	53                   	push   rbx
    2175:	50                   	push   rax
    2176:	49 89 fe             	mov    r14,rdi
    2179:	bf 00 00 00 00       	mov    edi,0x0
    217e:	e8 00 00 00 00       	call   2183 <s161+0x11>
    2183:	31 db                	xor    ebx,ebx
    2185:	4c 89 f7             	mov    rdi,r14
    2188:	31 f6                	xor    esi,esi
    218a:	e8 00 00 00 00       	call   218f <s161+0x1d>
    218f:	0f 57 c9             	xorps  xmm1,xmm1
    2192:	31 c0                	xor    eax,eax
    2194:	0f 2e 0c 85 00 00 00 	ucomiss xmm1,DWORD PTR [rax*4+0x0]
    219b:	00 
    219c:	76 21                	jbe    21bf <s161+0x4d>
    219e:	f3 0f 10 04 85 00 00 	movss  xmm0,DWORD PTR [rax*4+0x0]
    21a5:	00 00 
    21a7:	f3 0f 59 c0          	mulss  xmm0,xmm0
    21ab:	f3 0f 58 04 85 00 00 	addss  xmm0,DWORD PTR [rax*4+0x0]
    21b2:	00 00 
    21b4:	f3 0f 11 04 85 00 00 	movss  DWORD PTR [rax*4+0x0],xmm0
    21bb:	00 00 
    21bd:	eb 24                	jmp    21e3 <s161+0x71>
    21bf:	f3 0f 10 04 85 00 00 	movss  xmm0,DWORD PTR [rax*4+0x0]
    21c6:	00 00 
    21c8:	f3 0f 59 04 85 00 00 	mulss  xmm0,DWORD PTR [rax*4+0x0]
    21cf:	00 00 
    21d1:	f3 0f 58 04 85 00 00 	addss  xmm0,DWORD PTR [rax*4+0x0]
    21d8:	00 00 
    21da:	f3 0f 11 04 85 00 00 	movss  DWORD PTR [rax*4+0x0],xmm0
    21e1:	00 00 
    21e3:	48 ff c0             	inc    rax
    21e6:	0f 2e 0c 85 00 00 00 	ucomiss xmm1,DWORD PTR [rax*4+0x0]
    21ed:	00 
    21ee:	76 21                	jbe    2211 <s161+0x9f>
    21f0:	f3 0f 10 04 85 00 00 	movss  xmm0,DWORD PTR [rax*4+0x0]
    21f7:	00 00 
    21f9:	f3 0f 59 c0          	mulss  xmm0,xmm0
    21fd:	f3 0f 58 04 85 00 00 	addss  xmm0,DWORD PTR [rax*4+0x0]
    2204:	00 00 
    2206:	f3 0f 11 04 85 00 00 	movss  DWORD PTR [rax*4+0x0],xmm0
    220d:	00 00 
    220f:	eb 24                	jmp    2235 <s161+0xc3>
    2211:	f3 0f 10 04 85 00 00 	movss  xmm0,DWORD PTR [rax*4+0x0]
    2218:	00 00 
    221a:	f3 0f 59 04 85 00 00 	mulss  xmm0,DWORD PTR [rax*4+0x0]
    2221:	00 00 
    2223:	f3 0f 58 04 85 00 00 	addss  xmm0,DWORD PTR [rax*4+0x0]
    222a:	00 00 
    222c:	f3 0f 11 04 85 00 00 	movss  DWORD PTR [rax*4+0x0],xmm0
    2233:	00 00 
    2235:	48 ff c0             	inc    rax
    2238:	0f 2e 0c 85 00 00 00 	ucomiss xmm1,DWORD PTR [rax*4+0x0]
    223f:	00 
    2240:	76 21                	jbe    2263 <s161+0xf1>
    2242:	f3 0f 10 04 85 00 00 	movss  xmm0,DWORD PTR [rax*4+0x0]
    2249:	00 00 
    224b:	f3 0f 59 c0          	mulss  xmm0,xmm0
    224f:	f3 0f 58 04 85 00 00 	addss  xmm0,DWORD PTR [rax*4+0x0]
    2256:	00 00 
    2258:	f3 0f 11 04 85 00 00 	movss  DWORD PTR [rax*4+0x0],xmm0
    225f:	00 00 
    2261:	eb 24                	jmp    2287 <s161+0x115>
    2263:	f3 0f 10 04 85 00 00 	movss  xmm0,DWORD PTR [rax*4+0x0]
    226a:	00 00 
    226c:	f3 0f 59 04 85 00 00 	mulss  xmm0,DWORD PTR [rax*4+0x0]
    2273:	00 00 
    2275:	f3 0f 58 04 85 00 00 	addss  xmm0,DWORD PTR [rax*4+0x0]
    227c:	00 00 
    227e:	f3 0f 11 04 85 00 00 	movss  DWORD PTR [rax*4+0x0],xmm0
    2285:	00 00 
    2287:	48 ff c0             	inc    rax
    228a:	0f 2e 0c 85 00 00 00 	ucomiss xmm1,DWORD PTR [rax*4+0x0]
    2291:	00 
    2292:	76 21                	jbe    22b5 <s161+0x143>
    2294:	f3 0f 10 04 85 00 00 	movss  xmm0,DWORD PTR [rax*4+0x0]
    229b:	00 00 
    229d:	f3 0f 59 c0          	mulss  xmm0,xmm0
    22a1:	f3 0f 58 04 85 00 00 	addss  xmm0,DWORD PTR [rax*4+0x0]
    22a8:	00 00 
    22aa:	f3 0f 11 04 85 00 00 	movss  DWORD PTR [rax*4+0x0],xmm0
    22b1:	00 00 
    22b3:	eb 24                	jmp    22d9 <s161+0x167>
    22b5:	f3 0f 10 04 85 00 00 	movss  xmm0,DWORD PTR [rax*4+0x0]
    22bc:	00 00 
    22be:	f3 0f 59 04 85 00 00 	mulss  xmm0,DWORD PTR [rax*4+0x0]
    22c5:	00 00 
    22c7:	f3 0f 58 04 85 00 00 	addss  xmm0,DWORD PTR [rax*4+0x0]
    22ce:	00 00 
    22d0:	f3 0f 11 04 85 00 00 	movss  DWORD PTR [rax*4+0x0],xmm0
    22d7:	00 00 
    22d9:	48 ff c0             	inc    rax
    22dc:	0f 2e 0c 85 00 00 00 	ucomiss xmm1,DWORD PTR [rax*4+0x0]
    22e3:	00 
    22e4:	76 21                	jbe    2307 <s161+0x195>
    22e6:	f3 0f 10 04 85 00 00 	movss  xmm0,DWORD PTR [rax*4+0x0]
    22ed:	00 00 
    22ef:	f3 0f 59 c0          	mulss  xmm0,xmm0
    22f3:	f3 0f 58 04 85 00 00 	addss  xmm0,DWORD PTR [rax*4+0x0]
    22fa:	00 00 
    22fc:	f3 0f 11 04 85 00 00 	movss  DWORD PTR [rax*4+0x0],xmm0
    2303:	00 00 
    2305:	eb 24                	jmp    232b <s161+0x1b9>
    2307:	f3 0f 10 04 85 00 00 	movss  xmm0,DWORD PTR [rax*4+0x0]
    230e:	00 00 
    2310:	f3 0f 59 04 85 00 00 	mulss  xmm0,DWORD PTR [rax*4+0x0]
    2317:	00 00 
    2319:	f3 0f 58 04 85 00 00 	addss  xmm0,DWORD PTR [rax*4+0x0]
    2320:	00 00 
    2322:	f3 0f 11 04 85 00 00 	movss  DWORD PTR [rax*4+0x0],xmm0
    2329:	00 00 
    232b:	48 ff c0             	inc    rax
    232e:	0f 2e 0c 85 00 00 00 	ucomiss xmm1,DWORD PTR [rax*4+0x0]
    2335:	00 
    2336:	76 21                	jbe    2359 <s161+0x1e7>
    2338:	f3 0f 10 04 85 00 00 	movss  xmm0,DWORD PTR [rax*4+0x0]
    233f:	00 00 
    2341:	f3 0f 59 c0          	mulss  xmm0,xmm0
    2345:	f3 0f 58 04 85 00 00 	addss  xmm0,DWORD PTR [rax*4+0x0]
    234c:	00 00 
    234e:	f3 0f 11 04 85 00 00 	movss  DWORD PTR [rax*4+0x0],xmm0
    2355:	00 00 
    2357:	eb 24                	jmp    237d <s161+0x20b>
    2359:	f3 0f 10 04 85 00 00 	movss  xmm0,DWORD PTR [rax*4+0x0]
    2360:	00 00 
    2362:	f3 0f 59 04 85 00 00 	mulss  xmm0,DWORD PTR [rax*4+0x0]
    2369:	00 00 
    236b:	f3 0f 58 04 85 00 00 	addss  xmm0,DWORD PTR [rax*4+0x0]
    2372:	00 00 
    2374:	f3 0f 11 04 85 00 00 	movss  DWORD PTR [rax*4+0x0],xmm0
    237b:	00 00 
    237d:	48 ff c0             	inc    rax
    2380:	0f 2e 0c 85 00 00 00 	ucomiss xmm1,DWORD PTR [rax*4+0x0]
    2387:	00 
    2388:	76 21                	jbe    23ab <s161+0x239>
    238a:	f3 0f 10 04 85 00 00 	movss  xmm0,DWORD PTR [rax*4+0x0]
    2391:	00 00 
    2393:	f3 0f 59 c0          	mulss  xmm0,xmm0
    2397:	f3 0f 58 04 85 00 00 	addss  xmm0,DWORD PTR [rax*4+0x0]
    239e:	00 00 
    23a0:	f3 0f 11 04 85 00 00 	movss  DWORD PTR [rax*4+0x0],xmm0
    23a7:	00 00 
    23a9:	eb 24                	jmp    23cf <s161+0x25d>
    23ab:	f3 0f 10 04 85 00 00 	movss  xmm0,DWORD PTR [rax*4+0x0]
    23b2:	00 00 
    23b4:	f3 0f 59 04 85 00 00 	mulss  xmm0,DWORD PTR [rax*4+0x0]
    23bb:	00 00 
    23bd:	f3 0f 58 04 85 00 00 	addss  xmm0,DWORD PTR [rax*4+0x0]
    23c4:	00 00 
    23c6:	f3 0f 11 04 85 00 00 	movss  DWORD PTR [rax*4+0x0],xmm0
    23cd:	00 00 
    23cf:	48 ff c0             	inc    rax
    23d2:	48 3d ff 7c 00 00    	cmp    rax,0x7cff
    23d8:	74 5d                	je     2437 <s161+0x2c5>
    23da:	0f 2e 0c 85 00 00 00 	ucomiss xmm1,DWORD PTR [rax*4+0x0]
    23e1:	00 
    23e2:	76 27                	jbe    240b <s161+0x299>
    23e4:	f3 0f 10 04 85 00 00 	movss  xmm0,DWORD PTR [rax*4+0x0]
    23eb:	00 00 
    23ed:	f3 0f 59 c0          	mulss  xmm0,xmm0
    23f1:	f3 0f 58 04 85 00 00 	addss  xmm0,DWORD PTR [rax*4+0x0]
    23f8:	00 00 
    23fa:	f3 0f 11 04 85 00 00 	movss  DWORD PTR [rax*4+0x0],xmm0
    2401:	00 00 
    2403:	48 ff c0             	inc    rax
    2406:	e9 89 fd ff ff       	jmp    2194 <s161+0x22>
    240b:	f3 0f 10 04 85 00 00 	movss  xmm0,DWORD PTR [rax*4+0x0]
    2412:	00 00 
    2414:	f3 0f 59 04 85 00 00 	mulss  xmm0,DWORD PTR [rax*4+0x0]
    241b:	00 00 
    241d:	f3 0f 58 04 85 00 00 	addss  xmm0,DWORD PTR [rax*4+0x0]
    2424:	00 00 
    2426:	f3 0f 11 04 85 00 00 	movss  DWORD PTR [rax*4+0x0],xmm0
    242d:	00 00 
    242f:	48 ff c0             	inc    rax
    2432:	e9 5d fd ff ff       	jmp    2194 <s161+0x22>
    2437:	bf 00 00 00 00       	mov    edi,0x0
    243c:	be 00 00 00 00       	mov    esi,0x0
    2441:	ba 00 00 00 00       	mov    edx,0x0
    2446:	b9 00 00 00 00       	mov    ecx,0x0
    244b:	41 b8 00 00 00 00    	mov    r8d,0x0
    2451:	41 b9 00 00 00 00    	mov    r9d,0x0
    2457:	0f 57 c0             	xorps  xmm0,xmm0
    245a:	68 00 00 00 00       	push   0x0
    245f:	68 00 00 00 00       	push   0x0
    2464:	e8 00 00 00 00       	call   2469 <s161+0x2f7>
    2469:	0f 57 c9             	xorps  xmm1,xmm1
    246c:	48 83 c4 10          	add    rsp,0x10
    2470:	ff c3                	inc    ebx
    2472:	81 fb 50 c3 00 00    	cmp    ebx,0xc350
    2478:	0f 85 14 fd ff ff    	jne    2192 <s161+0x20>
    247e:	49 83 c6 10          	add    r14,0x10
    2482:	4c 89 f7             	mov    rdi,r14
    2485:	31 f6                	xor    esi,esi
    2487:	e8 00 00 00 00       	call   248c <s161+0x31a>
    248c:	bf 00 00 00 00       	mov    edi,0x0
    2491:	48 83 c4 08          	add    rsp,0x8
    2495:	5b                   	pop    rbx
    2496:	41 5e                	pop    r14
    2498:	e9 00 00 00 00       	jmp    249d <s1161>

000000000000249d <s1161>:
    249d:	41 56                	push   r14
    249f:	53                   	push   rbx
    24a0:	50                   	push   rax
    24a1:	49 89 fe             	mov    r14,rdi
    24a4:	bf 00 00 00 00       	mov    edi,0x0
    24a9:	e8 00 00 00 00       	call   24ae <s1161+0x11>
    24ae:	31 db                	xor    ebx,ebx
    24b0:	4c 89 f7             	mov    rdi,r14
    24b3:	31 f6                	xor    esi,esi
    24b5:	e8 00 00 00 00       	call   24ba <s1161+0x1d>
    24ba:	0f 57 d2             	xorps  xmm2,xmm2
    24bd:	31 c0                	xor    eax,eax
    24bf:	f3 0f 10 80 00 00 00 	movss  xmm0,DWORD PTR [rax+0x0]
    24c6:	00 
    24c7:	0f 2e d0             	ucomiss xmm2,xmm0
    24ca:	76 1b                	jbe    24e7 <s1161+0x4a>
    24cc:	f3 0f 10 80 00 00 00 	movss  xmm0,DWORD PTR [rax+0x0]
    24d3:	00 
    24d4:	f3 0f 10 88 00 00 00 	movss  xmm1,DWORD PTR [rax+0x0]
    24db:	00 
    24dc:	f3 0f 59 c9          	mulss  xmm1,xmm1
    24e0:	b9 00 00 00 00       	mov    ecx,0x0
    24e5:	eb 15                	jmp    24fc <s1161+0x5f>
    24e7:	f3 0f 10 88 00 00 00 	movss  xmm1,DWORD PTR [rax+0x0]
    24ee:	00 
    24ef:	f3 0f 59 88 00 00 00 	mulss  xmm1,DWORD PTR [rax+0x0]
    24f6:	00 
    24f7:	b9 00 00 00 00       	mov    ecx,0x0
    24fc:	f3 0f 58 c8          	addss  xmm1,xmm0
    2500:	f3 0f 11 0c 01       	movss  DWORD PTR [rcx+rax*1],xmm1
    2505:	f3 0f 10 80 00 00 00 	movss  xmm0,DWORD PTR [rax+0x0]
    250c:	00 
    250d:	0f 2e d0             	ucomiss xmm2,xmm0
    2510:	76 1b                	jbe    252d <s1161+0x90>
    2512:	f3 0f 10 80 00 00 00 	movss  xmm0,DWORD PTR [rax+0x0]
    2519:	00 
    251a:	f3 0f 10 88 00 00 00 	movss  xmm1,DWORD PTR [rax+0x0]
    2521:	00 
    2522:	f3 0f 59 c9          	mulss  xmm1,xmm1
    2526:	b9 00 00 00 00       	mov    ecx,0x0
    252b:	eb 15                	jmp    2542 <s1161+0xa5>
    252d:	f3 0f 10 88 00 00 00 	movss  xmm1,DWORD PTR [rax+0x0]
    2534:	00 
    2535:	f3 0f 59 88 00 00 00 	mulss  xmm1,DWORD PTR [rax+0x0]
    253c:	00 
    253d:	b9 00 00 00 00       	mov    ecx,0x0
    2542:	f3 0f 58 c8          	addss  xmm1,xmm0
    2546:	f3 0f 11 4c 01 04    	movss  DWORD PTR [rcx+rax*1+0x4],xmm1
    254c:	f3 0f 10 80 00 00 00 	movss  xmm0,DWORD PTR [rax+0x0]
    2553:	00 
    2554:	0f 2e d0             	ucomiss xmm2,xmm0
    2557:	76 1b                	jbe    2574 <s1161+0xd7>
    2559:	f3 0f 10 80 00 00 00 	movss  xmm0,DWORD PTR [rax+0x0]
    2560:	00 
    2561:	f3 0f 10 88 00 00 00 	movss  xmm1,DWORD PTR [rax+0x0]
    2568:	00 
    2569:	f3 0f 59 c9          	mulss  xmm1,xmm1
    256d:	b9 00 00 00 00       	mov    ecx,0x0
    2572:	eb 15                	jmp    2589 <s1161+0xec>
    2574:	f3 0f 10 88 00 00 00 	movss  xmm1,DWORD PTR [rax+0x0]
    257b:	00 
    257c:	f3 0f 59 88 00 00 00 	mulss  xmm1,DWORD PTR [rax+0x0]
    2583:	00 
    2584:	b9 00 00 00 00       	mov    ecx,0x0
    2589:	f3 0f 58 c8          	addss  xmm1,xmm0
    258d:	f3 0f 11 4c 01 08    	movss  DWORD PTR [rcx+rax*1+0x8],xmm1
    2593:	f3 0f 10 80 00 00 00 	movss  xmm0,DWORD PTR [rax+0x0]
    259a:	00 
    259b:	0f 2e d0             	ucomiss xmm2,xmm0
    259e:	76 1b                	jbe    25bb <s1161+0x11e>
    25a0:	f3 0f 10 80 00 00 00 	movss  xmm0,DWORD PTR [rax+0x0]
    25a7:	00 
    25a8:	f3 0f 10 88 00 00 00 	movss  xmm1,DWORD PTR [rax+0x0]
    25af:	00 
    25b0:	f3 0f 59 c9          	mulss  xmm1,xmm1
    25b4:	b9 00 00 00 00       	mov    ecx,0x0
    25b9:	eb 15                	jmp    25d0 <s1161+0x133>
    25bb:	f3 0f 10 88 00 00 00 	movss  xmm1,DWORD PTR [rax+0x0]
    25c2:	00 
    25c3:	f3 0f 59 88 00 00 00 	mulss  xmm1,DWORD PTR [rax+0x0]
    25ca:	00 
    25cb:	b9 00 00 00 00       	mov    ecx,0x0
    25d0:	f3 0f 58 c8          	addss  xmm1,xmm0
    25d4:	f3 0f 11 4c 01 0c    	movss  DWORD PTR [rcx+rax*1+0xc],xmm1
    25da:	f3 0f 10 80 00 00 00 	movss  xmm0,DWORD PTR [rax+0x0]
    25e1:	00 
    25e2:	0f 2e d0             	ucomiss xmm2,xmm0
    25e5:	76 1b                	jbe    2602 <s1161+0x165>
    25e7:	f3 0f 10 80 00 00 00 	movss  xmm0,DWORD PTR [rax+0x0]
    25ee:	00 
    25ef:	f3 0f 10 88 00 00 00 	movss  xmm1,DWORD PTR [rax+0x0]
    25f6:	00 
    25f7:	f3 0f 59 c9          	mulss  xmm1,xmm1
    25fb:	b9 00 00 00 00       	mov    ecx,0x0
    2600:	eb 15                	jmp    2617 <s1161+0x17a>
    2602:	f3 0f 10 88 00 00 00 	movss  xmm1,DWORD PTR [rax+0x0]
    2609:	00 
    260a:	f3 0f 59 88 00 00 00 	mulss  xmm1,DWORD PTR [rax+0x0]
    2611:	00 
    2612:	b9 00 00 00 00       	mov    ecx,0x0
    2617:	f3 0f 58 c8          	addss  xmm1,xmm0
    261b:	f3 0f 11 4c 01 10    	movss  DWORD PTR [rcx+rax*1+0x10],xmm1
    2621:	f3 0f 10 80 00 00 00 	movss  xmm0,DWORD PTR [rax+0x0]
    2628:	00 
    2629:	0f 2e d0             	ucomiss xmm2,xmm0
    262c:	76 1b                	jbe    2649 <s1161+0x1ac>
    262e:	f3 0f 10 80 00 00 00 	movss  xmm0,DWORD PTR [rax+0x0]
    2635:	00 
    2636:	f3 0f 10 88 00 00 00 	movss  xmm1,DWORD PTR [rax+0x0]
    263d:	00 
    263e:	f3 0f 59 c9          	mulss  xmm1,xmm1
    2642:	b9 00 00 00 00       	mov    ecx,0x0
    2647:	eb 15                	jmp    265e <s1161+0x1c1>
    2649:	f3 0f 10 88 00 00 00 	movss  xmm1,DWORD PTR [rax+0x0]
    2650:	00 
    2651:	f3 0f 59 88 00 00 00 	mulss  xmm1,DWORD PTR [rax+0x0]
    2658:	00 
    2659:	b9 00 00 00 00       	mov    ecx,0x0
    265e:	f3 0f 58 c8          	addss  xmm1,xmm0
    2662:	f3 0f 11 4c 01 14    	movss  DWORD PTR [rcx+rax*1+0x14],xmm1
    2668:	f3 0f 10 80 00 00 00 	movss  xmm0,DWORD PTR [rax+0x0]
    266f:	00 
    2670:	0f 2e d0             	ucomiss xmm2,xmm0
    2673:	76 1b                	jbe    2690 <s1161+0x1f3>
    2675:	f3 0f 10 80 00 00 00 	movss  xmm0,DWORD PTR [rax+0x0]
    267c:	00 
    267d:	f3 0f 10 88 00 00 00 	movss  xmm1,DWORD PTR [rax+0x0]
    2684:	00 
    2685:	f3 0f 59 c9          	mulss  xmm1,xmm1
    2689:	b9 00 00 00 00       	mov    ecx,0x0
    268e:	eb 15                	jmp    26a5 <s1161+0x208>
    2690:	f3 0f 10 88 00 00 00 	movss  xmm1,DWORD PTR [rax+0x0]
    2697:	00 
    2698:	f3 0f 59 88 00 00 00 	mulss  xmm1,DWORD PTR [rax+0x0]
    269f:	00 
    26a0:	b9 00 00 00 00       	mov    ecx,0x0
    26a5:	f3 0f 58 c8          	addss  xmm1,xmm0
    26a9:	f3 0f 11 4c 01 18    	movss  DWORD PTR [rcx+rax*1+0x18],xmm1
    26af:	48 3d e0 f3 01 00    	cmp    rax,0x1f3e0
    26b5:	74 50                	je     2707 <s1161+0x26a>
    26b7:	f3 0f 10 80 00 00 00 	movss  xmm0,DWORD PTR [rax+0x0]
    26be:	00 
    26bf:	0f 2e d0             	ucomiss xmm2,xmm0
    26c2:	76 1b                	jbe    26df <s1161+0x242>
    26c4:	f3 0f 10 80 00 00 00 	movss  xmm0,DWORD PTR [rax+0x0]
    26cb:	00 
    26cc:	f3 0f 10 88 00 00 00 	movss  xmm1,DWORD PTR [rax+0x0]
    26d3:	00 
    26d4:	f3 0f 59 c9          	mulss  xmm1,xmm1
    26d8:	b9 00 00 00 00       	mov    ecx,0x0
    26dd:	eb 15                	jmp    26f4 <s1161+0x257>
    26df:	f3 0f 10 88 00 00 00 	movss  xmm1,DWORD PTR [rax+0x0]
    26e6:	00 
    26e7:	f3 0f 59 88 00 00 00 	mulss  xmm1,DWORD PTR [rax+0x0]
    26ee:	00 
    26ef:	b9 00 00 00 00       	mov    ecx,0x0
    26f4:	f3 0f 58 c8          	addss  xmm1,xmm0
    26f8:	f3 0f 11 4c 01 1c    	movss  DWORD PTR [rcx+rax*1+0x1c],xmm1
    26fe:	48 83 c0 20          	add    rax,0x20
    2702:	e9 b8 fd ff ff       	jmp    24bf <s1161+0x22>
    2707:	bf 00 00 00 00       	mov    edi,0x0
    270c:	be 00 00 00 00       	mov    esi,0x0
    2711:	ba 00 00 00 00       	mov    edx,0x0
    2716:	b9 00 00 00 00       	mov    ecx,0x0
    271b:	41 b8 00 00 00 00    	mov    r8d,0x0
    2721:	41 b9 00 00 00 00    	mov    r9d,0x0
    2727:	0f 57 c0             	xorps  xmm0,xmm0
    272a:	68 00 00 00 00       	push   0x0
    272f:	68 00 00 00 00       	push   0x0
    2734:	e8 00 00 00 00       	call   2739 <s1161+0x29c>
    2739:	0f 57 d2             	xorps  xmm2,xmm2
    273c:	48 83 c4 10          	add    rsp,0x10
    2740:	ff c3                	inc    ebx
    2742:	81 fb a0 86 01 00    	cmp    ebx,0x186a0
    2748:	0f 85 6f fd ff ff    	jne    24bd <s1161+0x20>
    274e:	49 83 c6 10          	add    r14,0x10
    2752:	4c 89 f7             	mov    rdi,r14
    2755:	31 f6                	xor    esi,esi
    2757:	e8 00 00 00 00       	call   275c <s1161+0x2bf>
    275c:	bf 00 00 00 00       	mov    edi,0x0
    2761:	48 83 c4 08          	add    rsp,0x8
    2765:	5b                   	pop    rbx
    2766:	41 5e                	pop    r14
    2768:	e9 00 00 00 00       	jmp    276d <s162>

000000000000276d <s162>:
    276d:	41 57                	push   r15
    276f:	41 56                	push   r14
    2771:	53                   	push   rbx
    2772:	49 89 fe             	mov    r14,rdi
    2775:	48 8b 47 20          	mov    rax,QWORD PTR [rdi+0x20]
    2779:	48 63 18             	movsxd rbx,DWORD PTR [rax]
    277c:	bf 00 00 00 00       	mov    edi,0x0
    2781:	e8 00 00 00 00       	call   2786 <s162+0x19>
    2786:	45 31 ff             	xor    r15d,r15d
    2789:	4c 89 f7             	mov    rdi,r14
    278c:	31 f6                	xor    esi,esi
    278e:	e8 00 00 00 00       	call   2793 <s162+0x26>
    2793:	85 db                	test   ebx,ebx
    2795:	7e 79                	jle    2810 <s162+0xa3>
    2797:	31 c0                	xor    eax,eax
    2799:	31 c9                	xor    ecx,ecx
    279b:	48 89 c2             	mov    rdx,rax
    279e:	48 09 ca             	or     rdx,rcx
    27a1:	48 8d 34 1a          	lea    rsi,[rdx+rbx*1]
    27a5:	f3 0f 10 04 95 00 00 	movss  xmm0,DWORD PTR [rdx*4+0x0]
    27ac:	00 00 
    27ae:	f3 0f 59 04 95 00 00 	mulss  xmm0,DWORD PTR [rdx*4+0x0]
    27b5:	00 00 
    27b7:	f3 0f 58 04 b5 00 00 	addss  xmm0,DWORD PTR [rsi*4+0x0]
    27be:	00 00 
    27c0:	f3 0f 11 04 95 00 00 	movss  DWORD PTR [rdx*4+0x0],xmm0
    27c7:	00 00 
    27c9:	48 ff c1             	inc    rcx
    27cc:	48 83 f9 07          	cmp    rcx,0x7
    27d0:	75 c9                	jne    279b <s162+0x2e>
    27d2:	48 89 c1             	mov    rcx,rax
    27d5:	48 83 c9 07          	or     rcx,0x7
    27d9:	48 81 f9 ff 7c 00 00 	cmp    rcx,0x7cff
    27e0:	74 2e                	je     2810 <s162+0xa3>
    27e2:	48 8d 14 19          	lea    rdx,[rcx+rbx*1]
    27e6:	f3 0f 10 04 8d 00 00 	movss  xmm0,DWORD PTR [rcx*4+0x0]
    27ed:	00 00 
    27ef:	f3 0f 59 04 8d 00 00 	mulss  xmm0,DWORD PTR [rcx*4+0x0]
    27f6:	00 00 
    27f8:	f3 0f 58 04 95 00 00 	addss  xmm0,DWORD PTR [rdx*4+0x0]
    27ff:	00 00 
    2801:	f3 0f 11 04 8d 00 00 	movss  DWORD PTR [rcx*4+0x0],xmm0
    2808:	00 00 
    280a:	48 83 c0 08          	add    rax,0x8
    280e:	eb 89                	jmp    2799 <s162+0x2c>
    2810:	bf 00 00 00 00       	mov    edi,0x0
    2815:	be 00 00 00 00       	mov    esi,0x0
    281a:	ba 00 00 00 00       	mov    edx,0x0
    281f:	b9 00 00 00 00       	mov    ecx,0x0
    2824:	41 b8 00 00 00 00    	mov    r8d,0x0
    282a:	41 b9 00 00 00 00    	mov    r9d,0x0
    2830:	0f 57 c0             	xorps  xmm0,xmm0
    2833:	68 00 00 00 00       	push   0x0
    2838:	68 00 00 00 00       	push   0x0
    283d:	e8 00 00 00 00       	call   2842 <s162+0xd5>
    2842:	48 83 c4 10          	add    rsp,0x10
    2846:	41 ff c7             	inc    r15d
    2849:	41 81 ff a0 86 01 00 	cmp    r15d,0x186a0
    2850:	0f 85 3d ff ff ff    	jne    2793 <s162+0x26>
    2856:	49 83 c6 10          	add    r14,0x10
    285a:	4c 89 f7             	mov    rdi,r14
    285d:	31 f6                	xor    esi,esi
    285f:	e8 00 00 00 00       	call   2864 <s162+0xf7>
    2864:	bf 00 00 00 00       	mov    edi,0x0
    2869:	5b                   	pop    rbx
    286a:	41 5e                	pop    r14
    286c:	41 5f                	pop    r15
    286e:	e9 00 00 00 00       	jmp    2873 <s171>

0000000000002873 <s171>:
    2873:	41 57                	push   r15
    2875:	41 56                	push   r14
    2877:	53                   	push   rbx
    2878:	49 89 fe             	mov    r14,rdi
    287b:	48 8b 47 20          	mov    rax,QWORD PTR [rdi+0x20]
    287f:	48 63 18             	movsxd rbx,DWORD PTR [rax]
    2882:	bf 00 00 00 00       	mov    edi,0x0
    2887:	e8 00 00 00 00       	call   288c <s171+0x19>
    288c:	45 31 ff             	xor    r15d,r15d
    288f:	4c 89 f7             	mov    rdi,r14
    2892:	31 f6                	xor    esi,esi
    2894:	e8 00 00 00 00       	call   2899 <s171+0x26>
    2899:	31 c0                	xor    eax,eax
    289b:	31 c9                	xor    ecx,ecx
    289d:	48 89 c2             	mov    rdx,rax
    28a0:	48 09 ca             	or     rdx,rcx
    28a3:	f3 0f 10 04 95 00 00 	movss  xmm0,DWORD PTR [rdx*4+0x0]
    28aa:	00 00 
    28ac:	48 0f af d3          	imul   rdx,rbx
    28b0:	f3 0f 58 04 95 00 00 	addss  xmm0,DWORD PTR [rdx*4+0x0]
    28b7:	00 00 
    28b9:	f3 0f 11 04 95 00 00 	movss  DWORD PTR [rdx*4+0x0],xmm0
    28c0:	00 00 
    28c2:	48 ff c1             	inc    rcx
    28c5:	48 83 f9 08          	cmp    rcx,0x8
    28c9:	75 d2                	jne    289d <s171+0x2a>
    28cb:	48 83 c0 08          	add    rax,0x8
    28cf:	48 3d 00 7d 00 00    	cmp    rax,0x7d00
    28d5:	75 c4                	jne    289b <s171+0x28>
    28d7:	bf 00 00 00 00       	mov    edi,0x0
    28dc:	be 00 00 00 00       	mov    esi,0x0
    28e1:	ba 00 00 00 00       	mov    edx,0x0
    28e6:	b9 00 00 00 00       	mov    ecx,0x0
    28eb:	41 b8 00 00 00 00    	mov    r8d,0x0
    28f1:	41 b9 00 00 00 00    	mov    r9d,0x0
    28f7:	0f 57 c0             	xorps  xmm0,xmm0
    28fa:	68 00 00 00 00       	push   0x0
    28ff:	68 00 00 00 00       	push   0x0
    2904:	e8 00 00 00 00       	call   2909 <s171+0x96>
    2909:	48 83 c4 10          	add    rsp,0x10
    290d:	41 ff c7             	inc    r15d
    2910:	41 81 ff a0 86 01 00 	cmp    r15d,0x186a0
    2917:	75 80                	jne    2899 <s171+0x26>
    2919:	49 83 c6 10          	add    r14,0x10
    291d:	4c 89 f7             	mov    rdi,r14
    2920:	31 f6                	xor    esi,esi
    2922:	e8 00 00 00 00       	call   2927 <s171+0xb4>
    2927:	bf 00 00 00 00       	mov    edi,0x0
    292c:	5b                   	pop    rbx
    292d:	41 5e                	pop    r14
    292f:	41 5f                	pop    r15
    2931:	e9 00 00 00 00       	jmp    2936 <s172>

0000000000002936 <s172>:
    2936:	55                   	push   rbp
    2937:	41 57                	push   r15
    2939:	41 56                	push   r14
    293b:	41 55                	push   r13
    293d:	41 54                	push   r12
    293f:	53                   	push   rbx
    2940:	48 83 ec 18          	sub    rsp,0x18
    2944:	48 89 fb             	mov    rbx,rdi
    2947:	48 8b 47 20          	mov    rax,QWORD PTR [rdi+0x20]
    294b:	44 8b 20             	mov    r12d,DWORD PTR [rax]
    294e:	48 63 68 04          	movsxd rbp,DWORD PTR [rax+0x4]
    2952:	bf 00 00 00 00       	mov    edi,0x0
    2957:	e8 00 00 00 00       	call   295c <s172+0x26>
    295c:	45 31 ed             	xor    r13d,r13d
    295f:	48 89 5c 24 10       	mov    QWORD PTR [rsp+0x10],rbx
    2964:	48 89 df             	mov    rdi,rbx
    2967:	31 f6                	xor    esi,esi
    2969:	e8 00 00 00 00       	call   296e <s172+0x38>
    296e:	41 8d 44 24 ff       	lea    eax,[r12-0x1]
    2973:	41 8d 0c 2c          	lea    ecx,[r12+rbp*1]
    2977:	ff c9                	dec    ecx
    2979:	ba 00 7d 00 00       	mov    edx,0x7d00
    297e:	39 d1                	cmp    ecx,edx
    2980:	0f 4f d1             	cmovg  edx,ecx
    2983:	48 98                	cdqe   
    2985:	48 89 44 24 08       	mov    QWORD PTR [rsp+0x8],rax
    298a:	44 29 e2             	sub    edx,r12d
    298d:	89 54 24 04          	mov    DWORD PTR [rsp+0x4],edx
    2991:	49 89 ee             	mov    r14,rbp
    2994:	49 c1 e6 05          	shl    r14,0x5
    2998:	4c 8d 3c ad 00 00 00 	lea    r15,[rbp*4+0x0]
    299f:	00 
    29a0:	41 81 fc 00 7d 00 00 	cmp    r12d,0x7d00
    29a7:	0f 8f 46 01 00 00    	jg     2af3 <s172+0x1bd>
    29ad:	8b 44 24 04          	mov    eax,DWORD PTR [rsp+0x4]
    29b1:	31 d2                	xor    edx,edx
    29b3:	f7 f5                	div    ebp
    29b5:	8d 50 01             	lea    edx,[rax+0x1]
    29b8:	48 8b 4c 24 08       	mov    rcx,QWORD PTR [rsp+0x8]
    29bd:	83 e2 07             	and    edx,0x7
    29c0:	74 27                	je     29e9 <s172+0xb3>
    29c2:	48 8b 4c 24 08       	mov    rcx,QWORD PTR [rsp+0x8]
    29c7:	f3 0f 10 04 8d 00 00 	movss  xmm0,DWORD PTR [rcx*4+0x0]
    29ce:	00 00 
    29d0:	f3 0f 58 04 8d 00 00 	addss  xmm0,DWORD PTR [rcx*4+0x0]
    29d7:	00 00 
    29d9:	f3 0f 11 04 8d 00 00 	movss  DWORD PTR [rcx*4+0x0],xmm0
    29e0:	00 00 
    29e2:	48 01 e9             	add    rcx,rbp
    29e5:	ff ca                	dec    edx
    29e7:	75 de                	jne    29c7 <s172+0x91>
    29e9:	83 f8 07             	cmp    eax,0x7
    29ec:	0f 82 01 01 00 00    	jb     2af3 <s172+0x1bd>
    29f2:	48 8d 04 8d 00 00 00 	lea    rax,[rcx*4+0x0]
    29f9:	00 
    29fa:	f3 0f 10 80 00 00 00 	movss  xmm0,DWORD PTR [rax+0x0]
    2a01:	00 
    2a02:	f3 0f 58 80 00 00 00 	addss  xmm0,DWORD PTR [rax+0x0]
    2a09:	00 
    2a0a:	f3 0f 11 80 00 00 00 	movss  DWORD PTR [rax+0x0],xmm0
    2a11:	00 
    2a12:	48 01 e9             	add    rcx,rbp
    2a15:	4a 8d 34 38          	lea    rsi,[rax+r15*1]
    2a19:	48 81 c6 00 00 00 00 	add    rsi,0x0
    2a20:	f3 0f 10 84 a8 00 00 	movss  xmm0,DWORD PTR [rax+rbp*4+0x0]
    2a27:	00 00 
    2a29:	4a 8d 3c 38          	lea    rdi,[rax+r15*1]
    2a2d:	48 81 c7 00 00 00 00 	add    rdi,0x0
    2a34:	f3 0f 58 84 a8 00 00 	addss  xmm0,DWORD PTR [rax+rbp*4+0x0]
    2a3b:	00 00 
    2a3d:	f3 0f 11 84 a8 00 00 	movss  DWORD PTR [rax+rbp*4+0x0],xmm0
    2a44:	00 00 
    2a46:	48 01 e9             	add    rcx,rbp
    2a49:	4c 01 fe             	add    rsi,r15
    2a4c:	f3 0f 10 84 e8 00 00 	movss  xmm0,DWORD PTR [rax+rbp*8+0x0]
    2a53:	00 00 
    2a55:	4c 01 ff             	add    rdi,r15
    2a58:	f3 0f 58 84 e8 00 00 	addss  xmm0,DWORD PTR [rax+rbp*8+0x0]
    2a5f:	00 00 
    2a61:	f3 0f 11 84 e8 00 00 	movss  DWORD PTR [rax+rbp*8+0x0],xmm0
    2a68:	00 00 
    2a6a:	48 01 e9             	add    rcx,rbp
    2a6d:	4a 8d 14 3e          	lea    rdx,[rsi+r15*1]
    2a71:	f3 0f 10 04 ae       	movss  xmm0,DWORD PTR [rsi+rbp*4]
    2a76:	4a 8d 1c 3f          	lea    rbx,[rdi+r15*1]
    2a7a:	f3 0f 58 04 af       	addss  xmm0,DWORD PTR [rdi+rbp*4]
    2a7f:	f3 0f 11 04 af       	movss  DWORD PTR [rdi+rbp*4],xmm0
    2a84:	48 01 e9             	add    rcx,rbp
    2a87:	4c 01 fa             	add    rdx,r15
    2a8a:	f3 0f 10 04 ee       	movss  xmm0,DWORD PTR [rsi+rbp*8]
    2a8f:	f3 0f 58 04 ef       	addss  xmm0,DWORD PTR [rdi+rbp*8]
    2a94:	4c 01 fb             	add    rbx,r15
    2a97:	f3 0f 11 04 ef       	movss  DWORD PTR [rdi+rbp*8],xmm0
    2a9c:	48 01 e9             	add    rcx,rbp
    2a9f:	f3 0f 10 04 aa       	movss  xmm0,DWORD PTR [rdx+rbp*4]
    2aa4:	4c 01 fa             	add    rdx,r15
    2aa7:	4a 8d 34 3b          	lea    rsi,[rbx+r15*1]
    2aab:	f3 0f 58 04 ab       	addss  xmm0,DWORD PTR [rbx+rbp*4]
    2ab0:	f3 0f 11 04 ab       	movss  DWORD PTR [rbx+rbp*4],xmm0
    2ab5:	48 01 e9             	add    rcx,rbp
    2ab8:	f3 0f 10 04 aa       	movss  xmm0,DWORD PTR [rdx+rbp*4]
    2abd:	4c 01 fa             	add    rdx,r15
    2ac0:	4a 8d 3c 3e          	lea    rdi,[rsi+r15*1]
    2ac4:	f3 0f 58 04 ae       	addss  xmm0,DWORD PTR [rsi+rbp*4]
    2ac9:	f3 0f 11 04 ae       	movss  DWORD PTR [rsi+rbp*4],xmm0
    2ace:	48 01 e9             	add    rcx,rbp
    2ad1:	f3 0f 10 04 aa       	movss  xmm0,DWORD PTR [rdx+rbp*4]
    2ad6:	f3 0f 58 04 af       	addss  xmm0,DWORD PTR [rdi+rbp*4]
    2adb:	f3 0f 11 04 af       	movss  DWORD PTR [rdi+rbp*4],xmm0
    2ae0:	48 01 e9             	add    rcx,rbp
    2ae3:	4c 01 f0             	add    rax,r14
    2ae6:	48 81 f9 00 7d 00 00 	cmp    rcx,0x7d00
    2aed:	0f 8c 07 ff ff ff    	jl     29fa <s172+0xc4>
    2af3:	bf 00 00 00 00       	mov    edi,0x0
    2af8:	be 00 00 00 00       	mov    esi,0x0
    2afd:	ba 00 00 00 00       	mov    edx,0x0
    2b02:	b9 00 00 00 00       	mov    ecx,0x0
    2b07:	41 b8 00 00 00 00    	mov    r8d,0x0
    2b0d:	41 b9 00 00 00 00    	mov    r9d,0x0
    2b13:	0f 57 c0             	xorps  xmm0,xmm0
    2b16:	68 00 00 00 00       	push   0x0
    2b1b:	68 00 00 00 00       	push   0x0
    2b20:	e8 00 00 00 00       	call   2b25 <s172+0x1ef>
    2b25:	48 83 c4 10          	add    rsp,0x10
    2b29:	41 ff c5             	inc    r13d
    2b2c:	41 81 fd a0 86 01 00 	cmp    r13d,0x186a0
    2b33:	0f 85 67 fe ff ff    	jne    29a0 <s172+0x6a>
    2b39:	48 8b 7c 24 10       	mov    rdi,QWORD PTR [rsp+0x10]
    2b3e:	48 83 c7 10          	add    rdi,0x10
    2b42:	31 f6                	xor    esi,esi
    2b44:	e8 00 00 00 00       	call   2b49 <s172+0x213>
    2b49:	bf 00 00 00 00       	mov    edi,0x0
    2b4e:	48 83 c4 18          	add    rsp,0x18
    2b52:	5b                   	pop    rbx
    2b53:	41 5c                	pop    r12
    2b55:	41 5d                	pop    r13
    2b57:	41 5e                	pop    r14
    2b59:	41 5f                	pop    r15
    2b5b:	5d                   	pop    rbp
    2b5c:	e9 00 00 00 00       	jmp    2b61 <s173>

0000000000002b61 <s173>:
    2b61:	41 56                	push   r14
    2b63:	53                   	push   rbx
    2b64:	50                   	push   rax
    2b65:	49 89 fe             	mov    r14,rdi
    2b68:	bf 00 00 00 00       	mov    edi,0x0
    2b6d:	e8 00 00 00 00       	call   2b72 <s173+0x11>
    2b72:	31 db                	xor    ebx,ebx
    2b74:	4c 89 f7             	mov    rdi,r14
    2b77:	31 f6                	xor    esi,esi
    2b79:	e8 00 00 00 00       	call   2b7e <s173+0x1d>
    2b7e:	b8 00 00 00 00       	mov    eax,0x0
    2b83:	31 c9                	xor    ecx,ecx
    2b85:	31 d2                	xor    edx,edx
    2b87:	48 89 ce             	mov    rsi,rcx
    2b8a:	48 09 d6             	or     rsi,rdx
    2b8d:	f3 0f 10 04 b5 00 00 	movss  xmm0,DWORD PTR [rsi*4+0x0]
    2b94:	00 00 
    2b96:	f3 0f 58 04 b5 00 00 	addss  xmm0,DWORD PTR [rsi*4+0x0]
    2b9d:	00 00 
    2b9f:	f3 0f 11 04 90       	movss  DWORD PTR [rax+rdx*4],xmm0
    2ba4:	48 ff c2             	inc    rdx
    2ba7:	48 83 fa 08          	cmp    rdx,0x8
    2bab:	75 da                	jne    2b87 <s173+0x26>
    2bad:	48 83 c1 08          	add    rcx,0x8
    2bb1:	48 83 c0 20          	add    rax,0x20
    2bb5:	48 81 f9 80 3e 00 00 	cmp    rcx,0x3e80
    2bbc:	75 c7                	jne    2b85 <s173+0x24>
    2bbe:	bf 00 00 00 00       	mov    edi,0x0
    2bc3:	be 00 00 00 00       	mov    esi,0x0
    2bc8:	ba 00 00 00 00       	mov    edx,0x0
    2bcd:	b9 00 00 00 00       	mov    ecx,0x0
    2bd2:	41 b8 00 00 00 00    	mov    r8d,0x0
    2bd8:	41 b9 00 00 00 00    	mov    r9d,0x0
    2bde:	0f 57 c0             	xorps  xmm0,xmm0
    2be1:	68 00 00 00 00       	push   0x0
    2be6:	68 00 00 00 00       	push   0x0
    2beb:	e8 00 00 00 00       	call   2bf0 <s173+0x8f>
    2bf0:	48 83 c4 10          	add    rsp,0x10
    2bf4:	ff c3                	inc    ebx
    2bf6:	81 fb 40 42 0f 00    	cmp    ebx,0xf4240
    2bfc:	75 80                	jne    2b7e <s173+0x1d>
    2bfe:	49 83 c6 10          	add    r14,0x10
    2c02:	4c 89 f7             	mov    rdi,r14
    2c05:	31 f6                	xor    esi,esi
    2c07:	e8 00 00 00 00       	call   2c0c <s173+0xab>
    2c0c:	bf 00 00 00 00       	mov    edi,0x0
    2c11:	48 83 c4 08          	add    rsp,0x8
    2c15:	5b                   	pop    rbx
    2c16:	41 5e                	pop    r14
    2c18:	e9 00 00 00 00       	jmp    2c1d <s174>

0000000000002c1d <s174>:
    2c1d:	41 57                	push   r15
    2c1f:	41 56                	push   r14
    2c21:	41 55                	push   r13
    2c23:	41 54                	push   r12
    2c25:	53                   	push   rbx
    2c26:	49 89 fe             	mov    r14,rdi
    2c29:	48 8b 47 20          	mov    rax,QWORD PTR [rdi+0x20]
    2c2d:	44 8b 38             	mov    r15d,DWORD PTR [rax]
    2c30:	bf 00 00 00 00       	mov    edi,0x0
    2c35:	e8 00 00 00 00       	call   2c3a <s174+0x1d>
    2c3a:	45 31 e4             	xor    r12d,r12d
    2c3d:	4c 89 f7             	mov    rdi,r14
    2c40:	31 f6                	xor    esi,esi
    2c42:	e8 00 00 00 00       	call   2c47 <s174+0x2a>
    2c47:	4d 63 ef             	movsxd r13,r15d
    2c4a:	4c 89 fb             	mov    rbx,r15
    2c4d:	48 c1 e3 02          	shl    rbx,0x2
    2c51:	45 85 ff             	test   r15d,r15d
    2c54:	7e 25                	jle    2c7b <s174+0x5e>
    2c56:	31 c0                	xor    eax,eax
    2c58:	f3 0f 10 80 00 00 00 	movss  xmm0,DWORD PTR [rax+0x0]
    2c5f:	00 
    2c60:	f3 0f 58 80 00 00 00 	addss  xmm0,DWORD PTR [rax+0x0]
    2c67:	00 
    2c68:	f3 42 0f 11 84 a8 00 	movss  DWORD PTR [rax+r13*4+0x0],xmm0
    2c6f:	00 00 00 
    2c72:	48 83 c0 04          	add    rax,0x4
    2c76:	48 39 c3             	cmp    rbx,rax
    2c79:	75 dd                	jne    2c58 <s174+0x3b>
    2c7b:	bf 00 00 00 00       	mov    edi,0x0
    2c80:	be 00 00 00 00       	mov    esi,0x0
    2c85:	ba 00 00 00 00       	mov    edx,0x0
    2c8a:	b9 00 00 00 00       	mov    ecx,0x0
    2c8f:	41 b8 00 00 00 00    	mov    r8d,0x0
    2c95:	41 b9 00 00 00 00    	mov    r9d,0x0
    2c9b:	0f 57 c0             	xorps  xmm0,xmm0
    2c9e:	68 00 00 00 00       	push   0x0
    2ca3:	68 00 00 00 00       	push   0x0
    2ca8:	e8 00 00 00 00       	call   2cad <s174+0x90>
    2cad:	48 83 c4 10          	add    rsp,0x10
    2cb1:	41 ff c4             	inc    r12d
    2cb4:	41 81 fc 40 42 0f 00 	cmp    r12d,0xf4240
    2cbb:	75 94                	jne    2c51 <s174+0x34>
    2cbd:	49 83 c6 10          	add    r14,0x10
    2cc1:	4c 89 f7             	mov    rdi,r14
    2cc4:	31 f6                	xor    esi,esi
    2cc6:	e8 00 00 00 00       	call   2ccb <s174+0xae>
    2ccb:	bf 00 00 00 00       	mov    edi,0x0
    2cd0:	5b                   	pop    rbx
    2cd1:	41 5c                	pop    r12
    2cd3:	41 5d                	pop    r13
    2cd5:	41 5e                	pop    r14
    2cd7:	41 5f                	pop    r15
    2cd9:	e9 00 00 00 00       	jmp    2cde <s175>

0000000000002cde <s175>:
    2cde:	55                   	push   rbp
    2cdf:	41 57                	push   r15
    2ce1:	41 56                	push   r14
    2ce3:	41 55                	push   r13
    2ce5:	41 54                	push   r12
    2ce7:	53                   	push   rbx
    2ce8:	48 83 ec 38          	sub    rsp,0x38
    2cec:	48 89 fd             	mov    rbp,rdi
    2cef:	48 8b 47 20          	mov    rax,QWORD PTR [rdi+0x20]
    2cf3:	48 63 18             	movsxd rbx,DWORD PTR [rax]
    2cf6:	bf 00 00 00 00       	mov    edi,0x0
    2cfb:	e8 00 00 00 00       	call   2d00 <s175+0x22>
    2d00:	31 c0                	xor    eax,eax
    2d02:	48 89 44 24 08       	mov    QWORD PTR [rsp+0x8],rax
    2d07:	48 89 6c 24 10       	mov    QWORD PTR [rsp+0x10],rbp
    2d0c:	48 89 ef             	mov    rdi,rbp
    2d0f:	31 f6                	xor    esi,esi
    2d11:	e8 00 00 00 00       	call   2d16 <s175+0x38>
    2d16:	b8 fe 7c 00 00       	mov    eax,0x7cfe
    2d1b:	31 d2                	xor    edx,edx
    2d1d:	f7 f3                	div    ebx
    2d1f:	ff c0                	inc    eax
    2d21:	89 c1                	mov    ecx,eax
    2d23:	83 e1 07             	and    ecx,0x7
    2d26:	89 0c 24             	mov    DWORD PTR [rsp],ecx
    2d29:	25 f8 ff 00 00       	and    eax,0xfff8
    2d2e:	89 44 24 04          	mov    DWORD PTR [rsp+0x4],eax
    2d32:	49 89 d8             	mov    r8,rbx
    2d35:	49 c1 e0 05          	shl    r8,0x5
    2d39:	4c 8d 0c dd 00 00 00 	lea    r9,[rbx*8+0x0]
    2d40:	00 
    2d41:	4c 89 cd             	mov    rbp,r9
    2d44:	48 29 dd             	sub    rbp,rbx
    2d47:	4c 8d 14 1b          	lea    r10,[rbx+rbx*1]
    2d4b:	4f 8d 2c 52          	lea    r13,[r10+r10*2]
    2d4f:	4c 8d 24 9b          	lea    r12,[rbx+rbx*4]
    2d53:	4c 8d 3c 9d 00 00 00 	lea    r15,[rbx*4+0x0]
    2d5a:	00 
    2d5b:	4c 8d 34 5b          	lea    r14,[rbx+rbx*2]
    2d5f:	48 8d 04 9d 00 00 00 	lea    rax,[rbx*4+0x0]
    2d66:	00 
    2d67:	48 89 44 24 18       	mov    QWORD PTR [rsp+0x18],rax
    2d6c:	4c 89 44 24 30       	mov    QWORD PTR [rsp+0x30],r8
    2d71:	4c 89 4c 24 28       	mov    QWORD PTR [rsp+0x28],r9
    2d76:	4c 89 54 24 20       	mov    QWORD PTR [rsp+0x20],r10
    2d7b:	81 fb db 11 00 00    	cmp    ebx,0x11db
    2d81:	76 07                	jbe    2d8a <s175+0xac>
    2d83:	31 c0                	xor    eax,eax
    2d85:	e9 14 01 00 00       	jmp    2e9e <s175+0x1c0>
    2d8a:	31 c9                	xor    ecx,ecx
    2d8c:	31 c0                	xor    eax,eax
    2d8e:	8b 54 24 04          	mov    edx,DWORD PTR [rsp+0x4]
    2d92:	48 01 d8             	add    rax,rbx
    2d95:	f3 0f 10 84 99 00 00 	movss  xmm0,DWORD PTR [rcx+rbx*4+0x0]
    2d9c:	00 00 
    2d9e:	f3 0f 58 81 00 00 00 	addss  xmm0,DWORD PTR [rcx+0x0]
    2da5:	00 
    2da6:	f3 0f 11 81 00 00 00 	movss  DWORD PTR [rcx+0x0],xmm0
    2dad:	00 
    2dae:	48 01 d8             	add    rax,rbx
    2db1:	f3 42 0f 10 84 91 00 	movss  xmm0,DWORD PTR [rcx+r10*4+0x0]
    2db8:	00 00 00 
    2dbb:	4a 8d 34 39          	lea    rsi,[rcx+r15*1]
    2dbf:	48 81 c6 00 00 00 00 	add    rsi,0x0
    2dc6:	f3 0f 58 84 99 00 00 	addss  xmm0,DWORD PTR [rcx+rbx*4+0x0]
    2dcd:	00 00 
    2dcf:	f3 0f 11 84 99 00 00 	movss  DWORD PTR [rcx+rbx*4+0x0],xmm0
    2dd6:	00 00 
    2dd8:	48 01 d8             	add    rax,rbx
    2ddb:	f3 42 0f 10 84 b1 00 	movss  xmm0,DWORD PTR [rcx+r14*4+0x0]
    2de2:	00 00 00 
    2de5:	4c 01 fe             	add    rsi,r15
    2de8:	f3 0f 58 84 d9 00 00 	addss  xmm0,DWORD PTR [rcx+rbx*8+0x0]
    2def:	00 00 
    2df1:	f3 42 0f 11 84 91 00 	movss  DWORD PTR [rcx+r10*4+0x0],xmm0
    2df8:	00 00 00 
    2dfb:	48 01 d8             	add    rax,rbx
    2dfe:	f3 42 0f 10 84 b9 00 	movss  xmm0,DWORD PTR [rcx+r15*4+0x0]
    2e05:	00 00 00 
    2e08:	4a 8d 3c 3e          	lea    rdi,[rsi+r15*1]
    2e0c:	f3 0f 58 04 9e       	addss  xmm0,DWORD PTR [rsi+rbx*4]
    2e11:	f3 42 0f 11 84 b1 00 	movss  DWORD PTR [rcx+r14*4+0x0],xmm0
    2e18:	00 00 00 
    2e1b:	48 01 d8             	add    rax,rbx
    2e1e:	f3 42 0f 10 84 a1 00 	movss  xmm0,DWORD PTR [rcx+r12*4+0x0]
    2e25:	00 00 00 
    2e28:	4c 01 ff             	add    rdi,r15
    2e2b:	f3 0f 58 04 de       	addss  xmm0,DWORD PTR [rsi+rbx*8]
    2e30:	f3 42 0f 11 84 b9 00 	movss  DWORD PTR [rcx+r15*4+0x0],xmm0
    2e37:	00 00 00 
    2e3a:	f3 42 0f 10 84 a9 00 	movss  xmm0,DWORD PTR [rcx+r13*4+0x0]
    2e41:	00 00 00 
    2e44:	f3 0f 58 04 9f       	addss  xmm0,DWORD PTR [rdi+rbx*4]
    2e49:	48 01 d8             	add    rax,rbx
    2e4c:	4c 01 ff             	add    rdi,r15
    2e4f:	f3 42 0f 11 84 a1 00 	movss  DWORD PTR [rcx+r12*4+0x0],xmm0
    2e56:	00 00 00 
    2e59:	48 01 d8             	add    rax,rbx
    2e5c:	f3 0f 10 84 a9 00 00 	movss  xmm0,DWORD PTR [rcx+rbp*4+0x0]
    2e63:	00 00 
    2e65:	f3 0f 58 04 9f       	addss  xmm0,DWORD PTR [rdi+rbx*4]
    2e6a:	4c 01 ff             	add    rdi,r15
    2e6d:	f3 42 0f 11 84 a9 00 	movss  DWORD PTR [rcx+r13*4+0x0],xmm0
    2e74:	00 00 00 
    2e77:	f3 42 0f 10 84 89 00 	movss  xmm0,DWORD PTR [rcx+r9*4+0x0]
    2e7e:	00 00 00 
    2e81:	f3 0f 58 04 9f       	addss  xmm0,DWORD PTR [rdi+rbx*4]
    2e86:	48 01 d8             	add    rax,rbx
    2e89:	f3 0f 11 84 a9 00 00 	movss  DWORD PTR [rcx+rbp*4+0x0],xmm0
    2e90:	00 00 
    2e92:	4c 01 c1             	add    rcx,r8
    2e95:	83 c2 f8             	add    edx,0xfffffff8
    2e98:	0f 85 f4 fe ff ff    	jne    2d92 <s175+0xb4>
    2e9e:	83 3c 24 00          	cmp    DWORD PTR [rsp],0x0
    2ea2:	74 30                	je     2ed4 <s175+0x1f6>
    2ea4:	48 8b 4c 24 18       	mov    rcx,QWORD PTR [rsp+0x18]
    2ea9:	48 8d 0c 81          	lea    rcx,[rcx+rax*4]
    2ead:	48 c1 e0 02          	shl    rax,0x2
    2eb1:	31 d2                	xor    edx,edx
    2eb3:	8b 34 24             	mov    esi,DWORD PTR [rsp]
    2eb6:	f3 0f 10 04 11       	movss  xmm0,DWORD PTR [rcx+rdx*1]
    2ebb:	f3 0f 58 84 10 00 00 	addss  xmm0,DWORD PTR [rax+rdx*1+0x0]
    2ec2:	00 00 
    2ec4:	f3 0f 11 84 10 00 00 	movss  DWORD PTR [rax+rdx*1+0x0],xmm0
    2ecb:	00 00 
    2ecd:	4c 01 fa             	add    rdx,r15
    2ed0:	ff ce                	dec    esi
    2ed2:	75 e2                	jne    2eb6 <s175+0x1d8>
    2ed4:	bf 00 00 00 00       	mov    edi,0x0
    2ed9:	be 00 00 00 00       	mov    esi,0x0
    2ede:	ba 00 00 00 00       	mov    edx,0x0
    2ee3:	b9 00 00 00 00       	mov    ecx,0x0
    2ee8:	41 b8 00 00 00 00    	mov    r8d,0x0
    2eee:	41 b9 00 00 00 00    	mov    r9d,0x0
    2ef4:	0f 57 c0             	xorps  xmm0,xmm0
    2ef7:	68 00 00 00 00       	push   0x0
    2efc:	68 00 00 00 00       	push   0x0
    2f01:	e8 00 00 00 00       	call   2f06 <s175+0x228>
    2f06:	48 83 c4 10          	add    rsp,0x10
    2f0a:	48 8b 44 24 08       	mov    rax,QWORD PTR [rsp+0x8]
    2f0f:	ff c0                	inc    eax
    2f11:	48 89 44 24 08       	mov    QWORD PTR [rsp+0x8],rax
    2f16:	3d a0 86 01 00       	cmp    eax,0x186a0
    2f1b:	4c 8b 44 24 30       	mov    r8,QWORD PTR [rsp+0x30]
    2f20:	4c 8b 4c 24 28       	mov    r9,QWORD PTR [rsp+0x28]
    2f25:	4c 8b 54 24 20       	mov    r10,QWORD PTR [rsp+0x20]
    2f2a:	0f 85 4b fe ff ff    	jne    2d7b <s175+0x9d>
    2f30:	48 8b 7c 24 10       	mov    rdi,QWORD PTR [rsp+0x10]
    2f35:	48 83 c7 10          	add    rdi,0x10
    2f39:	31 f6                	xor    esi,esi
    2f3b:	e8 00 00 00 00       	call   2f40 <s175+0x262>
    2f40:	bf 00 00 00 00       	mov    edi,0x0
    2f45:	48 83 c4 38          	add    rsp,0x38
    2f49:	5b                   	pop    rbx
    2f4a:	41 5c                	pop    r12
    2f4c:	41 5d                	pop    r13
    2f4e:	41 5e                	pop    r14
    2f50:	41 5f                	pop    r15
    2f52:	5d                   	pop    rbp
    2f53:	e9 00 00 00 00       	jmp    2f58 <s176>

0000000000002f58 <s176>:
    2f58:	41 57                	push   r15
    2f5a:	41 56                	push   r14
    2f5c:	53                   	push   rbx
    2f5d:	49 89 fe             	mov    r14,rdi
    2f60:	bf 00 00 00 00       	mov    edi,0x0
    2f65:	e8 00 00 00 00       	call   2f6a <s176+0x12>
    2f6a:	45 31 ff             	xor    r15d,r15d
    2f6d:	4c 89 f7             	mov    rdi,r14
    2f70:	31 f6                	xor    esi,esi
    2f72:	e8 00 00 00 00       	call   2f77 <s176+0x1f>
    2f77:	31 c0                	xor    eax,eax
    2f79:	b9 7f 3e 00 00       	mov    ecx,0x3e7f
    2f7e:	48 29 c1             	sub    rcx,rax
    2f81:	f3 0f 10 04 85 00 00 	movss  xmm0,DWORD PTR [rax*4+0x0]
    2f88:	00 00 
    2f8a:	31 d2                	xor    edx,edx
    2f8c:	31 f6                	xor    esi,esi
    2f8e:	48 89 d7             	mov    rdi,rdx
    2f91:	48 09 f7             	or     rdi,rsi
    2f94:	48 8d 1c 39          	lea    rbx,[rcx+rdi*1]
    2f98:	f3 0f 10 0c 9d 00 00 	movss  xmm1,DWORD PTR [rbx*4+0x0]
    2f9f:	00 00 
    2fa1:	f3 0f 59 c8          	mulss  xmm1,xmm0
    2fa5:	f3 0f 58 0c bd 00 00 	addss  xmm1,DWORD PTR [rdi*4+0x0]
    2fac:	00 00 
    2fae:	f3 0f 11 0c bd 00 00 	movss  DWORD PTR [rdi*4+0x0],xmm1
    2fb5:	00 00 
    2fb7:	48 ff c6             	inc    rsi
    2fba:	48 83 fe 08          	cmp    rsi,0x8
    2fbe:	75 ce                	jne    2f8e <s176+0x36>
    2fc0:	48 83 c2 08          	add    rdx,0x8
    2fc4:	48 81 fa 80 3e 00 00 	cmp    rdx,0x3e80
    2fcb:	75 bf                	jne    2f8c <s176+0x34>
    2fcd:	48 ff c0             	inc    rax
    2fd0:	48 3d 80 3e 00 00    	cmp    rax,0x3e80
    2fd6:	75 a1                	jne    2f79 <s176+0x21>
    2fd8:	bf 00 00 00 00       	mov    edi,0x0
    2fdd:	be 00 00 00 00       	mov    esi,0x0
    2fe2:	ba 00 00 00 00       	mov    edx,0x0
    2fe7:	b9 00 00 00 00       	mov    ecx,0x0
    2fec:	41 b8 00 00 00 00    	mov    r8d,0x0
    2ff2:	41 b9 00 00 00 00    	mov    r9d,0x0
    2ff8:	0f 57 c0             	xorps  xmm0,xmm0
    2ffb:	68 00 00 00 00       	push   0x0
    3000:	68 00 00 00 00       	push   0x0
    3005:	e8 00 00 00 00       	call   300a <s176+0xb2>
    300a:	48 83 c4 10          	add    rsp,0x10
    300e:	41 ff c7             	inc    r15d
    3011:	41 83 ff 0c          	cmp    r15d,0xc
    3015:	0f 85 5c ff ff ff    	jne    2f77 <s176+0x1f>
    301b:	49 83 c6 10          	add    r14,0x10
    301f:	4c 89 f7             	mov    rdi,r14
    3022:	31 f6                	xor    esi,esi
    3024:	e8 00 00 00 00       	call   3029 <s176+0xd1>
    3029:	bf 00 00 00 00       	mov    edi,0x0
    302e:	5b                   	pop    rbx
    302f:	41 5e                	pop    r14
    3031:	41 5f                	pop    r15
    3033:	e9 00 00 00 00       	jmp    3038 <s211>

0000000000003038 <s211>:
    3038:	41 56                	push   r14
    303a:	53                   	push   rbx
    303b:	50                   	push   rax
    303c:	49 89 fe             	mov    r14,rdi
    303f:	bf 00 00 00 00       	mov    edi,0x0
    3044:	e8 00 00 00 00       	call   3049 <s211+0x11>
    3049:	31 db                	xor    ebx,ebx
    304b:	4c 89 f7             	mov    rdi,r14
    304e:	31 f6                	xor    esi,esi
    3050:	e8 00 00 00 00       	call   3055 <s211+0x1d>
    3055:	f3 0f 10 05 00 00 00 	movss  xmm0,DWORD PTR [rip+0x0]        # 305d <s211+0x25>
    305c:	00 
    305d:	31 c0                	xor    eax,eax
    305f:	f3 0f 10 88 00 00 00 	movss  xmm1,DWORD PTR [rax+0x0]
    3066:	00 
    3067:	f3 0f 10 90 00 00 00 	movss  xmm2,DWORD PTR [rax+0x0]
    306e:	00 
    306f:	f3 0f 59 d1          	mulss  xmm2,xmm1
    3073:	f3 0f 58 d0          	addss  xmm2,xmm0
    3077:	f3 0f 11 90 00 00 00 	movss  DWORD PTR [rax+0x0],xmm2
    307e:	00 
    307f:	f3 0f 10 80 00 00 00 	movss  xmm0,DWORD PTR [rax+0x0]
    3086:	00 
    3087:	f3 0f 59 88 00 00 00 	mulss  xmm1,DWORD PTR [rax+0x0]
    308e:	00 
    308f:	f3 0f 5c c1          	subss  xmm0,xmm1
    3093:	f3 0f 11 80 00 00 00 	movss  DWORD PTR [rax+0x0],xmm0
    309a:	00 
    309b:	f3 0f 10 88 00 00 00 	movss  xmm1,DWORD PTR [rax+0x0]
    30a2:	00 
    30a3:	f3 0f 10 90 00 00 00 	movss  xmm2,DWORD PTR [rax+0x0]
    30aa:	00 
    30ab:	f3 0f 59 d1          	mulss  xmm2,xmm1
    30af:	f3 0f 58 d0          	addss  xmm2,xmm0
    30b3:	f3 0f 11 90 00 00 00 	movss  DWORD PTR [rax+0x0],xmm2
    30ba:	00 
    30bb:	f3 0f 59 88 00 00 00 	mulss  xmm1,DWORD PTR [rax+0x0]
    30c2:	00 
    30c3:	f3 0f 10 80 00 00 00 	movss  xmm0,DWORD PTR [rax+0x0]
    30ca:	00 
    30cb:	f3 0f 5c c1          	subss  xmm0,xmm1
    30cf:	f3 0f 11 80 00 00 00 	movss  DWORD PTR [rax+0x0],xmm0
    30d6:	00 
    30d7:	f3 0f 10 88 00 00 00 	movss  xmm1,DWORD PTR [rax+0x0]
    30de:	00 
    30df:	f3 0f 10 90 00 00 00 	movss  xmm2,DWORD PTR [rax+0x0]
    30e6:	00 
    30e7:	f3 0f 59 d1          	mulss  xmm2,xmm1
    30eb:	f3 0f 58 d0          	addss  xmm2,xmm0
    30ef:	f3 0f 11 90 00 00 00 	movss  DWORD PTR [rax+0x0],xmm2
    30f6:	00 
    30f7:	f3 0f 10 80 00 00 00 	movss  xmm0,DWORD PTR [rax+0x0]
    30fe:	00 
    30ff:	f3 0f 59 88 00 00 00 	mulss  xmm1,DWORD PTR [rax+0x0]
    3106:	00 
    3107:	f3 0f 5c c1          	subss  xmm0,xmm1
    310b:	f3 0f 11 80 00 00 00 	movss  DWORD PTR [rax+0x0],xmm0
    3112:	00 
    3113:	f3 0f 10 88 00 00 00 	movss  xmm1,DWORD PTR [rax+0x0]
    311a:	00 
    311b:	f3 0f 10 90 00 00 00 	movss  xmm2,DWORD PTR [rax+0x0]
    3122:	00 
    3123:	f3 0f 59 d1          	mulss  xmm2,xmm1
    3127:	f3 0f 58 d0          	addss  xmm2,xmm0
    312b:	f3 0f 11 90 00 00 00 	movss  DWORD PTR [rax+0x0],xmm2
    3132:	00 
    3133:	f3 0f 59 88 00 00 00 	mulss  xmm1,DWORD PTR [rax+0x0]
    313a:	00 
    313b:	f3 0f 10 80 00 00 00 	movss  xmm0,DWORD PTR [rax+0x0]
    3142:	00 
    3143:	f3 0f 5c c1          	subss  xmm0,xmm1
    3147:	f3 0f 11 80 00 00 00 	movss  DWORD PTR [rax+0x0],xmm0
    314e:	00 
    314f:	f3 0f 10 88 00 00 00 	movss  xmm1,DWORD PTR [rax+0x0]
    3156:	00 
    3157:	f3 0f 10 90 00 00 00 	movss  xmm2,DWORD PTR [rax+0x0]
    315e:	00 
    315f:	f3 0f 59 d1          	mulss  xmm2,xmm1
    3163:	f3 0f 58 d0          	addss  xmm2,xmm0
    3167:	f3 0f 11 90 00 00 00 	movss  DWORD PTR [rax+0x0],xmm2
    316e:	00 
    316f:	f3 0f 10 80 00 00 00 	movss  xmm0,DWORD PTR [rax+0x0]
    3176:	00 
    3177:	f3 0f 59 88 00 00 00 	mulss  xmm1,DWORD PTR [rax+0x0]
    317e:	00 
    317f:	f3 0f 5c c1          	subss  xmm0,xmm1
    3183:	f3 0f 11 80 00 00 00 	movss  DWORD PTR [rax+0x0],xmm0
    318a:	00 
    318b:	f3 0f 10 88 00 00 00 	movss  xmm1,DWORD PTR [rax+0x0]
    3192:	00 
    3193:	f3 0f 10 90 00 00 00 	movss  xmm2,DWORD PTR [rax+0x0]
    319a:	00 
    319b:	f3 0f 59 d1          	mulss  xmm2,xmm1
    319f:	f3 0f 58 d0          	addss  xmm2,xmm0
    31a3:	f3 0f 11 90 00 00 00 	movss  DWORD PTR [rax+0x0],xmm2
    31aa:	00 
    31ab:	f3 0f 59 88 00 00 00 	mulss  xmm1,DWORD PTR [rax+0x0]
    31b2:	00 
    31b3:	f3 0f 10 80 00 00 00 	movss  xmm0,DWORD PTR [rax+0x0]
    31ba:	00 
    31bb:	f3 0f 5c c1          	subss  xmm0,xmm1
    31bf:	f3 0f 11 80 00 00 00 	movss  DWORD PTR [rax+0x0],xmm0
    31c6:	00 
    31c7:	48 3d e0 f3 01 00    	cmp    rax,0x1f3e0
    31cd:	0f 84 81 00 00 00    	je     3254 <s211+0x21c>
    31d3:	f3 0f 10 88 00 00 00 	movss  xmm1,DWORD PTR [rax+0x0]
    31da:	00 
    31db:	f3 0f 10 90 00 00 00 	movss  xmm2,DWORD PTR [rax+0x0]
    31e2:	00 
    31e3:	f3 0f 59 d1          	mulss  xmm2,xmm1
    31e7:	f3 0f 58 c2          	addss  xmm0,xmm2
    31eb:	f3 0f 11 80 00 00 00 	movss  DWORD PTR [rax+0x0],xmm0
    31f2:	00 
    31f3:	f3 0f 10 80 00 00 00 	movss  xmm0,DWORD PTR [rax+0x0]
    31fa:	00 
    31fb:	f3 0f 59 88 00 00 00 	mulss  xmm1,DWORD PTR [rax+0x0]
    3202:	00 
    3203:	f3 0f 5c c1          	subss  xmm0,xmm1
    3207:	f3 0f 11 80 00 00 00 	movss  DWORD PTR [rax+0x0],xmm0
    320e:	00 
    320f:	f3 0f 10 88 00 00 00 	movss  xmm1,DWORD PTR [rax+0x0]
    3216:	00 
    3217:	f3 0f 10 90 00 00 00 	movss  xmm2,DWORD PTR [rax+0x0]
    321e:	00 
    321f:	f3 0f 59 d1          	mulss  xmm2,xmm1
    3223:	f3 0f 58 d0          	addss  xmm2,xmm0
    3227:	f3 0f 11 90 00 00 00 	movss  DWORD PTR [rax+0x0],xmm2
    322e:	00 
    322f:	f3 0f 59 88 00 00 00 	mulss  xmm1,DWORD PTR [rax+0x0]
    3236:	00 
    3237:	f3 0f 10 80 00 00 00 	movss  xmm0,DWORD PTR [rax+0x0]
    323e:	00 
    323f:	f3 0f 5c c1          	subss  xmm0,xmm1
    3243:	f3 0f 11 80 00 00 00 	movss  DWORD PTR [rax+0x0],xmm0
    324a:	00 
    324b:	48 83 c0 20          	add    rax,0x20
    324f:	e9 0b fe ff ff       	jmp    305f <s211+0x27>
    3254:	bf 00 00 00 00       	mov    edi,0x0
    3259:	be 00 00 00 00       	mov    esi,0x0
    325e:	ba 00 00 00 00       	mov    edx,0x0
    3263:	b9 00 00 00 00       	mov    ecx,0x0
    3268:	41 b8 00 00 00 00    	mov    r8d,0x0
    326e:	41 b9 00 00 00 00    	mov    r9d,0x0
    3274:	0f 57 c0             	xorps  xmm0,xmm0
    3277:	68 00 00 00 00       	push   0x0
    327c:	68 00 00 00 00       	push   0x0
    3281:	e8 00 00 00 00       	call   3286 <s211+0x24e>
    3286:	48 83 c4 10          	add    rsp,0x10
    328a:	ff c3                	inc    ebx
    328c:	81 fb a0 86 01 00    	cmp    ebx,0x186a0
    3292:	0f 85 bd fd ff ff    	jne    3055 <s211+0x1d>
    3298:	49 83 c6 10          	add    r14,0x10
    329c:	4c 89 f7             	mov    rdi,r14
    329f:	31 f6                	xor    esi,esi
    32a1:	e8 00 00 00 00       	call   32a6 <s211+0x26e>
    32a6:	bf 00 00 00 00       	mov    edi,0x0
    32ab:	48 83 c4 08          	add    rsp,0x8
    32af:	5b                   	pop    rbx
    32b0:	41 5e                	pop    r14
    32b2:	e9 00 00 00 00       	jmp    32b7 <s212>

00000000000032b7 <s212>:
    32b7:	41 56                	push   r14
    32b9:	53                   	push   rbx
    32ba:	50                   	push   rax
    32bb:	49 89 fe             	mov    r14,rdi
    32be:	bf 00 00 00 00       	mov    edi,0x0
    32c3:	e8 00 00 00 00       	call   32c8 <s212+0x11>
    32c8:	31 db                	xor    ebx,ebx
    32ca:	4c 89 f7             	mov    rdi,r14
    32cd:	31 f6                	xor    esi,esi
    32cf:	e8 00 00 00 00       	call   32d4 <s212+0x1d>
    32d4:	48 c7 c0 20 0c fe ff 	mov    rax,0xfffffffffffe0c20
    32db:	f3 0f 10 05 00 00 00 	movss  xmm0,DWORD PTR [rip+0x0]        # 32e3 <s212+0x2c>
    32e2:	00 
    32e3:	f3 0f 59 80 00 00 00 	mulss  xmm0,DWORD PTR [rax+0x0]
    32ea:	00 
    32eb:	f3 0f 11 80 00 00 00 	movss  DWORD PTR [rax+0x0],xmm0
    32f2:	00 
    32f3:	f3 0f 10 80 00 00 00 	movss  xmm0,DWORD PTR [rax+0x0]
    32fa:	00 
    32fb:	f3 0f 10 88 00 00 00 	movss  xmm1,DWORD PTR [rax+0x0]
    3302:	00 
    3303:	f3 0f 59 c8          	mulss  xmm1,xmm0
    3307:	f3 0f 58 88 00 00 00 	addss  xmm1,DWORD PTR [rax+0x0]
    330e:	00 
    330f:	f3 0f 59 80 00 00 00 	mulss  xmm0,DWORD PTR [rax+0x0]
    3316:	00 
    3317:	f3 0f 11 88 00 00 00 	movss  DWORD PTR [rax+0x0],xmm1
    331e:	00 
    331f:	f3 0f 11 80 00 00 00 	movss  DWORD PTR [rax+0x0],xmm0
    3326:	00 
    3327:	f3 0f 10 80 00 00 00 	movss  xmm0,DWORD PTR [rax+0x0]
    332e:	00 
    332f:	f3 0f 10 88 00 00 00 	movss  xmm1,DWORD PTR [rax+0x0]
    3336:	00 
    3337:	f3 0f 59 c8          	mulss  xmm1,xmm0
    333b:	f3 0f 58 88 00 00 00 	addss  xmm1,DWORD PTR [rax+0x0]
    3342:	00 
    3343:	f3 0f 11 88 00 00 00 	movss  DWORD PTR [rax+0x0],xmm1
    334a:	00 
    334b:	f3 0f 59 80 00 00 00 	mulss  xmm0,DWORD PTR [rax+0x0]
    3352:	00 
    3353:	f3 0f 11 80 00 00 00 	movss  DWORD PTR [rax+0x0],xmm0
    335a:	00 
    335b:	f3 0f 10 80 00 00 00 	movss  xmm0,DWORD PTR [rax+0x0]
    3362:	00 
    3363:	f3 0f 10 88 00 00 00 	movss  xmm1,DWORD PTR [rax+0x0]
    336a:	00 
    336b:	f3 0f 59 c8          	mulss  xmm1,xmm0
    336f:	f3 0f 58 88 00 00 00 	addss  xmm1,DWORD PTR [rax+0x0]
    3376:	00 
    3377:	f3 0f 11 88 00 00 00 	movss  DWORD PTR [rax+0x0],xmm1
    337e:	00 
    337f:	f3 0f 59 80 00 00 00 	mulss  xmm0,DWORD PTR [rax+0x0]
    3386:	00 
    3387:	f3 0f 11 80 00 00 00 	movss  DWORD PTR [rax+0x0],xmm0
    338e:	00 
    338f:	f3 0f 10 80 00 00 00 	movss  xmm0,DWORD PTR [rax+0x0]
    3396:	00 
    3397:	f3 0f 10 88 00 00 00 	movss  xmm1,DWORD PTR [rax+0x0]
    339e:	00 
    339f:	f3 0f 59 c8          	mulss  xmm1,xmm0
    33a3:	f3 0f 58 88 00 00 00 	addss  xmm1,DWORD PTR [rax+0x0]
    33aa:	00 
    33ab:	f3 0f 59 80 00 00 00 	mulss  xmm0,DWORD PTR [rax+0x0]
    33b2:	00 
    33b3:	f3 0f 11 88 00 00 00 	movss  DWORD PTR [rax+0x0],xmm1
    33ba:	00 
    33bb:	f3 0f 11 80 00 00 00 	movss  DWORD PTR [rax+0x0],xmm0
    33c2:	00 
    33c3:	f3 0f 10 80 00 00 00 	movss  xmm0,DWORD PTR [rax+0x0]
    33ca:	00 
    33cb:	f3 0f 10 88 00 00 00 	movss  xmm1,DWORD PTR [rax+0x0]
    33d2:	00 
    33d3:	f3 0f 59 c8          	mulss  xmm1,xmm0
    33d7:	f3 0f 58 88 00 00 00 	addss  xmm1,DWORD PTR [rax+0x0]
    33de:	00 
    33df:	f3 0f 11 88 00 00 00 	movss  DWORD PTR [rax+0x0],xmm1
    33e6:	00 
    33e7:	f3 0f 59 80 00 00 00 	mulss  xmm0,DWORD PTR [rax+0x0]
    33ee:	00 
    33ef:	f3 0f 11 80 00 00 00 	movss  DWORD PTR [rax+0x0],xmm0
    33f6:	00 
    33f7:	f3 0f 10 80 00 00 00 	movss  xmm0,DWORD PTR [rax+0x0]
    33fe:	00 
    33ff:	f3 0f 10 88 00 00 00 	movss  xmm1,DWORD PTR [rax+0x0]
    3406:	00 
    3407:	f3 0f 59 c8          	mulss  xmm1,xmm0
    340b:	f3 0f 58 88 00 00 00 	addss  xmm1,DWORD PTR [rax+0x0]
    3412:	00 
    3413:	f3 0f 11 88 00 00 00 	movss  DWORD PTR [rax+0x0],xmm1
    341a:	00 
    341b:	f3 0f 59 80 00 00 00 	mulss  xmm0,DWORD PTR [rax+0x0]
    3422:	00 
    3423:	f3 0f 11 80 00 00 00 	movss  DWORD PTR [rax+0x0],xmm0
    342a:	00 
    342b:	f3 0f 10 80 00 00 00 	movss  xmm0,DWORD PTR [rax+0x0]
    3432:	00 
    3433:	f3 0f 10 88 00 00 00 	movss  xmm1,DWORD PTR [rax+0x0]
    343a:	00 
    343b:	f3 0f 59 c8          	mulss  xmm1,xmm0
    343f:	f3 0f 58 88 00 00 00 	addss  xmm1,DWORD PTR [rax+0x0]
    3446:	00 
    3447:	f3 0f 11 88 00 00 00 	movss  DWORD PTR [rax+0x0],xmm1
    344e:	00 
    344f:	48 85 c0             	test   rax,rax
    3452:	74 3d                	je     3491 <s212+0x1da>
    3454:	f3 0f 59 80 00 00 00 	mulss  xmm0,DWORD PTR [rax+0x0]
    345b:	00 
    345c:	f3 0f 11 80 00 00 00 	movss  DWORD PTR [rax+0x0],xmm0
    3463:	00 
    3464:	f3 0f 10 80 00 00 00 	movss  xmm0,DWORD PTR [rax+0x0]
    346b:	00 
    346c:	f3 0f 10 88 00 00 00 	movss  xmm1,DWORD PTR [rax+0x0]
    3473:	00 
    3474:	f3 0f 59 c8          	mulss  xmm1,xmm0
    3478:	f3 0f 58 88 00 00 00 	addss  xmm1,DWORD PTR [rax+0x0]
    347f:	00 
    3480:	f3 0f 11 88 00 00 00 	movss  DWORD PTR [rax+0x0],xmm1
    3487:	00 
    3488:	48 83 c0 20          	add    rax,0x20
    348c:	e9 52 fe ff ff       	jmp    32e3 <s212+0x2c>
    3491:	bf 00 00 00 00       	mov    edi,0x0
    3496:	be 00 00 00 00       	mov    esi,0x0
    349b:	ba 00 00 00 00       	mov    edx,0x0
    34a0:	b9 00 00 00 00       	mov    ecx,0x0
    34a5:	41 b8 00 00 00 00    	mov    r8d,0x0
    34ab:	41 b9 00 00 00 00    	mov    r9d,0x0
    34b1:	0f 57 c0             	xorps  xmm0,xmm0
    34b4:	68 00 00 00 00       	push   0x0
    34b9:	68 00 00 00 00       	push   0x0
    34be:	e8 00 00 00 00       	call   34c3 <s212+0x20c>
    34c3:	48 83 c4 10          	add    rsp,0x10
    34c7:	ff c3                	inc    ebx
    34c9:	81 fb a0 86 01 00    	cmp    ebx,0x186a0
    34cf:	0f 85 ff fd ff ff    	jne    32d4 <s212+0x1d>
    34d5:	49 83 c6 10          	add    r14,0x10
    34d9:	4c 89 f7             	mov    rdi,r14
    34dc:	31 f6                	xor    esi,esi
    34de:	e8 00 00 00 00       	call   34e3 <s212+0x22c>
    34e3:	bf 00 00 00 00       	mov    edi,0x0
    34e8:	48 83 c4 08          	add    rsp,0x8
    34ec:	5b                   	pop    rbx
    34ed:	41 5e                	pop    r14
    34ef:	e9 00 00 00 00       	jmp    34f4 <s1213>

00000000000034f4 <s1213>:
    34f4:	41 56                	push   r14
    34f6:	53                   	push   rbx
    34f7:	50                   	push   rax
    34f8:	49 89 fe             	mov    r14,rdi
    34fb:	bf 00 00 00 00       	mov    edi,0x0
    3500:	e8 00 00 00 00       	call   3505 <s1213+0x11>
    3505:	31 db                	xor    ebx,ebx
    3507:	4c 89 f7             	mov    rdi,r14
    350a:	31 f6                	xor    esi,esi
    350c:	e8 00 00 00 00       	call   3511 <s1213+0x1d>
    3511:	f3 0f 10 05 00 00 00 	movss  xmm0,DWORD PTR [rip+0x0]        # 3519 <s1213+0x25>
    3518:	00 
    3519:	31 c0                	xor    eax,eax
    351b:	f3 0f 58 80 00 00 00 	addss  xmm0,DWORD PTR [rax+0x0]
    3522:	00 
    3523:	f3 0f 11 80 00 00 00 	movss  DWORD PTR [rax+0x0],xmm0
    352a:	00 
    352b:	f3 0f 10 80 00 00 00 	movss  xmm0,DWORD PTR [rax+0x0]
    3532:	00 
    3533:	f3 0f 59 80 00 00 00 	mulss  xmm0,DWORD PTR [rax+0x0]
    353a:	00 
    353b:	f3 0f 11 80 00 00 00 	movss  DWORD PTR [rax+0x0],xmm0
    3542:	00 
    3543:	f3 0f 58 80 00 00 00 	addss  xmm0,DWORD PTR [rax+0x0]
    354a:	00 
    354b:	f3 0f 11 80 00 00 00 	movss  DWORD PTR [rax+0x0],xmm0
    3552:	00 
    3553:	f3 0f 10 80 00 00 00 	movss  xmm0,DWORD PTR [rax+0x0]
    355a:	00 
    355b:	f3 0f 59 80 00 00 00 	mulss  xmm0,DWORD PTR [rax+0x0]
    3562:	00 
    3563:	f3 0f 11 80 00 00 00 	movss  DWORD PTR [rax+0x0],xmm0
    356a:	00 
    356b:	f3 0f 58 80 00 00 00 	addss  xmm0,DWORD PTR [rax+0x0]
    3572:	00 
    3573:	f3 0f 11 80 00 00 00 	movss  DWORD PTR [rax+0x0],xmm0
    357a:	00 
    357b:	f3 0f 10 80 00 00 00 	movss  xmm0,DWORD PTR [rax+0x0]
    3582:	00 
    3583:	f3 0f 59 80 00 00 00 	mulss  xmm0,DWORD PTR [rax+0x0]
    358a:	00 
    358b:	f3 0f 11 80 00 00 00 	movss  DWORD PTR [rax+0x0],xmm0
    3592:	00 
    3593:	f3 0f 58 80 00 00 00 	addss  xmm0,DWORD PTR [rax+0x0]
    359a:	00 
    359b:	f3 0f 11 80 00 00 00 	movss  DWORD PTR [rax+0x0],xmm0
    35a2:	00 
    35a3:	f3 0f 10 80 00 00 00 	movss  xmm0,DWORD PTR [rax+0x0]
    35aa:	00 
    35ab:	f3 0f 59 80 00 00 00 	mulss  xmm0,DWORD PTR [rax+0x0]
    35b2:	00 
    35b3:	f3 0f 11 80 00 00 00 	movss  DWORD PTR [rax+0x0],xmm0
    35ba:	00 
    35bb:	f3 0f 58 80 00 00 00 	addss  xmm0,DWORD PTR [rax+0x0]
    35c2:	00 
    35c3:	f3 0f 11 80 00 00 00 	movss  DWORD PTR [rax+0x0],xmm0
    35ca:	00 
    35cb:	f3 0f 10 80 00 00 00 	movss  xmm0,DWORD PTR [rax+0x0]
    35d2:	00 
    35d3:	f3 0f 59 80 00 00 00 	mulss  xmm0,DWORD PTR [rax+0x0]
    35da:	00 
    35db:	f3 0f 11 80 00 00 00 	movss  DWORD PTR [rax+0x0],xmm0
    35e2:	00 
    35e3:	f3 0f 58 80 00 00 00 	addss  xmm0,DWORD PTR [rax+0x0]
    35ea:	00 
    35eb:	f3 0f 11 80 00 00 00 	movss  DWORD PTR [rax+0x0],xmm0
    35f2:	00 
    35f3:	f3 0f 10 80 00 00 00 	movss  xmm0,DWORD PTR [rax+0x0]
    35fa:	00 
    35fb:	f3 0f 59 80 00 00 00 	mulss  xmm0,DWORD PTR [rax+0x0]
    3602:	00 
    3603:	f3 0f 11 80 00 00 00 	movss  DWORD PTR [rax+0x0],xmm0
    360a:	00 
    360b:	48 3d e0 f3 01 00    	cmp    rax,0x1f3e0
    3611:	74 59                	je     366c <s1213+0x178>
    3613:	f3 0f 58 80 00 00 00 	addss  xmm0,DWORD PTR [rax+0x0]
    361a:	00 
    361b:	f3 0f 11 80 00 00 00 	movss  DWORD PTR [rax+0x0],xmm0
    3622:	00 
    3623:	f3 0f 10 80 00 00 00 	movss  xmm0,DWORD PTR [rax+0x0]
    362a:	00 
    362b:	f3 0f 59 80 00 00 00 	mulss  xmm0,DWORD PTR [rax+0x0]
    3632:	00 
    3633:	f3 0f 11 80 00 00 00 	movss  DWORD PTR [rax+0x0],xmm0
    363a:	00 
    363b:	f3 0f 58 80 00 00 00 	addss  xmm0,DWORD PTR [rax+0x0]
    3642:	00 
    3643:	f3 0f 11 80 00 00 00 	movss  DWORD PTR [rax+0x0],xmm0
    364a:	00 
    364b:	f3 0f 10 80 00 00 00 	movss  xmm0,DWORD PTR [rax+0x0]
    3652:	00 
    3653:	f3 0f 59 80 00 00 00 	mulss  xmm0,DWORD PTR [rax+0x0]
    365a:	00 
    365b:	f3 0f 11 80 00 00 00 	movss  DWORD PTR [rax+0x0],xmm0
    3662:	00 
    3663:	48 83 c0 20          	add    rax,0x20
    3667:	e9 af fe ff ff       	jmp    351b <s1213+0x27>
    366c:	bf 00 00 00 00       	mov    edi,0x0
    3671:	be 00 00 00 00       	mov    esi,0x0
    3676:	ba 00 00 00 00       	mov    edx,0x0
    367b:	b9 00 00 00 00       	mov    ecx,0x0
    3680:	41 b8 00 00 00 00    	mov    r8d,0x0
    3686:	41 b9 00 00 00 00    	mov    r9d,0x0
    368c:	0f 57 c0             	xorps  xmm0,xmm0
    368f:	68 00 00 00 00       	push   0x0
    3694:	68 00 00 00 00       	push   0x0
    3699:	e8 00 00 00 00       	call   369e <s1213+0x1aa>
    369e:	48 83 c4 10          	add    rsp,0x10
    36a2:	ff c3                	inc    ebx
    36a4:	81 fb a0 86 01 00    	cmp    ebx,0x186a0
    36aa:	0f 85 61 fe ff ff    	jne    3511 <s1213+0x1d>
    36b0:	49 83 c6 10          	add    r14,0x10
    36b4:	4c 89 f7             	mov    rdi,r14
    36b7:	31 f6                	xor    esi,esi
    36b9:	e8 00 00 00 00       	call   36be <s1213+0x1ca>
    36be:	bf 00 00 00 00       	mov    edi,0x0
    36c3:	48 83 c4 08          	add    rsp,0x8
    36c7:	5b                   	pop    rbx
    36c8:	41 5e                	pop    r14
    36ca:	e9 00 00 00 00       	jmp    36cf <s221>

00000000000036cf <s221>:
    36cf:	41 56                	push   r14
    36d1:	53                   	push   rbx
    36d2:	48 83 ec 28          	sub    rsp,0x28
    36d6:	49 89 fe             	mov    r14,rdi
    36d9:	bf 00 00 00 00       	mov    edi,0x0
    36de:	e8 00 00 00 00       	call   36e3 <s221+0x14>
    36e3:	31 db                	xor    ebx,ebx
    36e5:	4c 89 f7             	mov    rdi,r14
    36e8:	31 f6                	xor    esi,esi
    36ea:	e8 00 00 00 00       	call   36ef <s221+0x20>
    36ef:	b8 01 00 00 00       	mov    eax,0x1
    36f4:	f3 0f 10 05 00 00 00 	movss  xmm0,DWORD PTR [rip+0x0]        # 36fc <s221+0x2d>
    36fb:	00 
    36fc:	31 c9                	xor    ecx,ecx
    36fe:	31 d2                	xor    edx,edx
    3700:	f3 0f 10 8c 11 00 00 	movss  xmm1,DWORD PTR [rcx+rdx*1+0x0]
    3707:	00 00 
    3709:	f3 0f 10 94 11 00 00 	movss  xmm2,DWORD PTR [rcx+rdx*1+0x0]
    3710:	00 00 
    3712:	f3 0f 59 d1          	mulss  xmm2,xmm1
    3716:	f3 0f 58 94 11 00 00 	addss  xmm2,DWORD PTR [rcx+rdx*1+0x0]
    371d:	00 00 
    371f:	f3 0f 11 94 11 00 00 	movss  DWORD PTR [rcx+rdx*1+0x0],xmm2
    3726:	00 00 
    3728:	f3 0f 58 d0          	addss  xmm2,xmm0
    372c:	f3 0f 58 d1          	addss  xmm2,xmm1
    3730:	f3 0f 11 54 14 0c    	movss  DWORD PTR [rsp+rdx*1+0xc],xmm2
    3736:	f3 0f 11 94 11 00 00 	movss  DWORD PTR [rcx+rdx*1+0x0],xmm2
    373d:	00 00 
    373f:	48 83 c2 04          	add    rdx,0x4
    3743:	0f 28 c2             	movaps xmm0,xmm2
    3746:	48 83 fa 1c          	cmp    rdx,0x1c
    374a:	75 b4                	jne    3700 <s221+0x31>
    374c:	48 3d f9 7c 00 00    	cmp    rax,0x7cf9
    3752:	74 4c                	je     37a0 <s221+0xd1>
    3754:	f3 0f 10 0c 85 00 00 	movss  xmm1,DWORD PTR [rax*4+0x0]
    375b:	00 00 
    375d:	f3 0f 10 14 85 00 00 	movss  xmm2,DWORD PTR [rax*4+0x0]
    3764:	00 00 
    3766:	f3 0f 59 d1          	mulss  xmm2,xmm1
    376a:	f3 0f 58 14 85 00 00 	addss  xmm2,DWORD PTR [rax*4+0x0]
    3771:	00 00 
    3773:	f3 0f 10 44 24 24    	movss  xmm0,DWORD PTR [rsp+0x24]
    3779:	f3 0f 58 c2          	addss  xmm0,xmm2
    377d:	f3 0f 11 14 85 00 00 	movss  DWORD PTR [rax*4+0x0],xmm2
    3784:	00 00 
    3786:	f3 0f 58 c1          	addss  xmm0,xmm1
    378a:	f3 0f 11 04 85 00 00 	movss  DWORD PTR [rax*4+0x0],xmm0
    3791:	00 00 
    3793:	48 83 c0 08          	add    rax,0x8
    3797:	48 83 c1 20          	add    rcx,0x20
    379b:	e9 5e ff ff ff       	jmp    36fe <s221+0x2f>
    37a0:	bf 00 00 00 00       	mov    edi,0x0
    37a5:	be 00 00 00 00       	mov    esi,0x0
    37aa:	ba 00 00 00 00       	mov    edx,0x0
    37af:	b9 00 00 00 00       	mov    ecx,0x0
    37b4:	41 b8 00 00 00 00    	mov    r8d,0x0
    37ba:	41 b9 00 00 00 00    	mov    r9d,0x0
    37c0:	0f 57 c0             	xorps  xmm0,xmm0
    37c3:	68 00 00 00 00       	push   0x0
    37c8:	68 00 00 00 00       	push   0x0
    37cd:	e8 00 00 00 00       	call   37d2 <s221+0x103>
    37d2:	48 83 c4 10          	add    rsp,0x10
    37d6:	ff c3                	inc    ebx
    37d8:	81 fb 50 c3 00 00    	cmp    ebx,0xc350
    37de:	0f 85 0b ff ff ff    	jne    36ef <s221+0x20>
    37e4:	49 83 c6 10          	add    r14,0x10
    37e8:	4c 89 f7             	mov    rdi,r14
    37eb:	31 f6                	xor    esi,esi
    37ed:	e8 00 00 00 00       	call   37f2 <s221+0x123>
    37f2:	bf 00 00 00 00       	mov    edi,0x0
    37f7:	48 83 c4 28          	add    rsp,0x28
    37fb:	5b                   	pop    rbx
    37fc:	41 5e                	pop    r14
    37fe:	e9 00 00 00 00       	jmp    3803 <s1221>

0000000000003803 <s1221>:
    3803:	41 56                	push   r14
    3805:	53                   	push   rbx
    3806:	48 83 ec 18          	sub    rsp,0x18
    380a:	49 89 fe             	mov    r14,rdi
    380d:	bf 00 00 00 00       	mov    edi,0x0
    3812:	e8 00 00 00 00       	call   3817 <s1221+0x14>
    3817:	31 db                	xor    ebx,ebx
    3819:	4c 89 f7             	mov    rdi,r14
    381c:	31 f6                	xor    esi,esi
    381e:	e8 00 00 00 00       	call   3823 <s1221+0x20>
    3823:	b8 04 00 00 00       	mov    eax,0x4
    3828:	b9 00 00 00 00       	mov    ecx,0x0
    382d:	31 d2                	xor    edx,edx
    382f:	f3 0f 10 04 91       	movss  xmm0,DWORD PTR [rcx+rdx*4]
    3834:	48 89 c6             	mov    rsi,rax
    3837:	48 09 d6             	or     rsi,rdx
    383a:	f3 0f 58 04 b5 00 00 	addss  xmm0,DWORD PTR [rsi*4+0x0]
    3841:	00 00 
    3843:	f3 0f 11 44 94 08    	movss  DWORD PTR [rsp+rdx*4+0x8],xmm0
    3849:	f3 0f 11 04 b5 00 00 	movss  DWORD PTR [rsi*4+0x0],xmm0
    3850:	00 00 
    3852:	48 ff c2             	inc    rdx
    3855:	48 83 fa 04          	cmp    rdx,0x4
    3859:	75 d4                	jne    382f <s1221+0x2c>
    385b:	48 3d fc 7c 00 00    	cmp    rax,0x7cfc
    3861:	0f 84 8d 00 00 00    	je     38f4 <s1221+0xf1>
    3867:	f3 0f 10 44 24 08    	movss  xmm0,DWORD PTR [rsp+0x8]
    386d:	f3 0f 58 04 85 00 00 	addss  xmm0,DWORD PTR [rax*4+0x0]
    3874:	00 00 
    3876:	f3 0f 11 04 85 00 00 	movss  DWORD PTR [rax*4+0x0],xmm0
    387d:	00 00 
    387f:	48 8d 14 85 00 00 00 	lea    rdx,[rax*4+0x0]
    3886:	00 
    3887:	48 89 d6             	mov    rsi,rdx
    388a:	48 83 ce 04          	or     rsi,0x4
    388e:	f3 0f 10 86 00 00 00 	movss  xmm0,DWORD PTR [rsi+0x0]
    3895:	00 
    3896:	f3 0f 58 04 85 00 00 	addss  xmm0,DWORD PTR [rax*4+0x0]
    389d:	00 00 
    389f:	f3 0f 11 04 85 00 00 	movss  DWORD PTR [rax*4+0x0],xmm0
    38a6:	00 00 
    38a8:	48 89 d6             	mov    rsi,rdx
    38ab:	48 83 ce 08          	or     rsi,0x8
    38af:	f3 0f 10 86 00 00 00 	movss  xmm0,DWORD PTR [rsi+0x0]
    38b6:	00 
    38b7:	f3 0f 58 04 85 00 00 	addss  xmm0,DWORD PTR [rax*4+0x0]
    38be:	00 00 
    38c0:	f3 0f 11 04 85 00 00 	movss  DWORD PTR [rax*4+0x0],xmm0
    38c7:	00 00 
    38c9:	48 83 ca 0c          	or     rdx,0xc
    38cd:	f3 0f 10 82 00 00 00 	movss  xmm0,DWORD PTR [rdx+0x0]
    38d4:	00 
    38d5:	f3 0f 58 04 85 00 00 	addss  xmm0,DWORD PTR [rax*4+0x0]
    38dc:	00 00 
    38de:	f3 0f 11 04 85 00 00 	movss  DWORD PTR [rax*4+0x0],xmm0
    38e5:	00 00 
    38e7:	48 83 c0 08          	add    rax,0x8
    38eb:	48 83 c1 20          	add    rcx,0x20
    38ef:	e9 39 ff ff ff       	jmp    382d <s1221+0x2a>
    38f4:	bf 00 00 00 00       	mov    edi,0x0
    38f9:	be 00 00 00 00       	mov    esi,0x0
    38fe:	ba 00 00 00 00       	mov    edx,0x0
    3903:	b9 00 00 00 00       	mov    ecx,0x0
    3908:	41 b8 00 00 00 00    	mov    r8d,0x0
    390e:	41 b9 00 00 00 00    	mov    r9d,0x0
    3914:	0f 57 c0             	xorps  xmm0,xmm0
    3917:	68 00 00 00 00       	push   0x0
    391c:	68 00 00 00 00       	push   0x0
    3921:	e8 00 00 00 00       	call   3926 <s1221+0x123>
    3926:	48 83 c4 10          	add    rsp,0x10
    392a:	ff c3                	inc    ebx
    392c:	81 fb a0 86 01 00    	cmp    ebx,0x186a0
    3932:	0f 85 eb fe ff ff    	jne    3823 <s1221+0x20>
    3938:	49 83 c6 10          	add    r14,0x10
    393c:	4c 89 f7             	mov    rdi,r14
    393f:	31 f6                	xor    esi,esi
    3941:	e8 00 00 00 00       	call   3946 <s1221+0x143>
    3946:	bf 00 00 00 00       	mov    edi,0x0
    394b:	48 83 c4 18          	add    rsp,0x18
    394f:	5b                   	pop    rbx
    3950:	41 5e                	pop    r14
    3952:	e9 00 00 00 00       	jmp    3957 <s222>

0000000000003957 <s222>:
    3957:	41 56                	push   r14
    3959:	53                   	push   rbx
    395a:	48 83 ec 28          	sub    rsp,0x28
    395e:	49 89 fe             	mov    r14,rdi
    3961:	bf 00 00 00 00       	mov    edi,0x0
    3966:	e8 00 00 00 00       	call   396b <s222+0x14>
    396b:	31 db                	xor    ebx,ebx
    396d:	4c 89 f7             	mov    rdi,r14
    3970:	31 f6                	xor    esi,esi
    3972:	e8 00 00 00 00       	call   3977 <s222+0x20>
    3977:	b8 01 00 00 00       	mov    eax,0x1
    397c:	f3 0f 10 05 00 00 00 	movss  xmm0,DWORD PTR [rip+0x0]        # 3984 <s222+0x2d>
    3983:	00 
    3984:	31 c9                	xor    ecx,ecx
    3986:	31 d2                	xor    edx,edx
    3988:	f3 0f 10 8c 11 00 00 	movss  xmm1,DWORD PTR [rcx+rdx*1+0x0]
    398f:	00 00 
    3991:	f3 0f 59 8c 11 00 00 	mulss  xmm1,DWORD PTR [rcx+rdx*1+0x0]
    3998:	00 00 
    399a:	f3 0f 10 94 11 00 00 	movss  xmm2,DWORD PTR [rcx+rdx*1+0x0]
    39a1:	00 00 
    39a3:	f3 0f 58 d1          	addss  xmm2,xmm1
    39a7:	f3 0f 59 c0          	mulss  xmm0,xmm0
    39ab:	f3 0f 11 44 14 0c    	movss  DWORD PTR [rsp+rdx*1+0xc],xmm0
    39b1:	f3 0f 11 84 11 00 00 	movss  DWORD PTR [rcx+rdx*1+0x0],xmm0
    39b8:	00 00 
    39ba:	f3 0f 5c d1          	subss  xmm2,xmm1
    39be:	f3 0f 11 94 11 00 00 	movss  DWORD PTR [rcx+rdx*1+0x0],xmm2
    39c5:	00 00 
    39c7:	48 83 c2 04          	add    rdx,0x4
    39cb:	48 83 fa 1c          	cmp    rdx,0x1c
    39cf:	75 b7                	jne    3988 <s222+0x31>
    39d1:	48 3d f9 7c 00 00    	cmp    rax,0x7cf9
    39d7:	74 4c                	je     3a25 <s222+0xce>
    39d9:	f3 0f 10 44 24 24    	movss  xmm0,DWORD PTR [rsp+0x24]
    39df:	f3 0f 10 0c 85 00 00 	movss  xmm1,DWORD PTR [rax*4+0x0]
    39e6:	00 00 
    39e8:	f3 0f 59 0c 85 00 00 	mulss  xmm1,DWORD PTR [rax*4+0x0]
    39ef:	00 00 
    39f1:	f3 0f 10 14 85 00 00 	movss  xmm2,DWORD PTR [rax*4+0x0]
    39f8:	00 00 
    39fa:	f3 0f 58 d1          	addss  xmm2,xmm1
    39fe:	f3 0f 59 c0          	mulss  xmm0,xmm0
    3a02:	f3 0f 11 04 85 00 00 	movss  DWORD PTR [rax*4+0x0],xmm0
    3a09:	00 00 
    3a0b:	f3 0f 5c d1          	subss  xmm2,xmm1
    3a0f:	f3 0f 11 14 85 00 00 	movss  DWORD PTR [rax*4+0x0],xmm2
    3a16:	00 00 
    3a18:	48 83 c0 08          	add    rax,0x8
    3a1c:	48 83 c1 20          	add    rcx,0x20
    3a20:	e9 61 ff ff ff       	jmp    3986 <s222+0x2f>
    3a25:	bf 00 00 00 00       	mov    edi,0x0
    3a2a:	be 00 00 00 00       	mov    esi,0x0
    3a2f:	ba 00 00 00 00       	mov    edx,0x0
    3a34:	b9 00 00 00 00       	mov    ecx,0x0
    3a39:	41 b8 00 00 00 00    	mov    r8d,0x0
    3a3f:	41 b9 00 00 00 00    	mov    r9d,0x0
    3a45:	0f 57 c0             	xorps  xmm0,xmm0
    3a48:	68 00 00 00 00       	push   0x0
    3a4d:	68 00 00 00 00       	push   0x0
    3a52:	e8 00 00 00 00       	call   3a57 <s222+0x100>
    3a57:	48 83 c4 10          	add    rsp,0x10
    3a5b:	ff c3                	inc    ebx
    3a5d:	81 fb 50 c3 00 00    	cmp    ebx,0xc350
    3a63:	0f 85 0e ff ff ff    	jne    3977 <s222+0x20>
    3a69:	49 83 c6 10          	add    r14,0x10
    3a6d:	4c 89 f7             	mov    rdi,r14
    3a70:	31 f6                	xor    esi,esi
    3a72:	e8 00 00 00 00       	call   3a77 <s222+0x120>
    3a77:	bf 00 00 00 00       	mov    edi,0x0
    3a7c:	48 83 c4 28          	add    rsp,0x28
    3a80:	5b                   	pop    rbx
    3a81:	41 5e                	pop    r14
    3a83:	e9 00 00 00 00       	jmp    3a88 <s231>

0000000000003a88 <s231>:
    3a88:	41 57                	push   r15
    3a8a:	41 56                	push   r14
    3a8c:	53                   	push   rbx
    3a8d:	48 83 ec 20          	sub    rsp,0x20
    3a91:	49 89 fe             	mov    r14,rdi
    3a94:	bf 00 00 00 00       	mov    edi,0x0
    3a99:	e8 00 00 00 00       	call   3a9e <s231+0x16>
    3a9e:	45 31 ff             	xor    r15d,r15d
    3aa1:	4c 89 f7             	mov    rdi,r14
    3aa4:	31 f6                	xor    esi,esi
    3aa6:	e8 00 00 00 00       	call   3aab <s231+0x23>
    3aab:	31 c0                	xor    eax,eax
    3aad:	31 c9                	xor    ecx,ecx
    3aaf:	f3 0f 10 04 8d 00 00 	movss  xmm0,DWORD PTR [rcx*4+0x0]
    3ab6:	00 00 
    3ab8:	ba 01 00 00 00       	mov    edx,0x1
    3abd:	48 89 c6             	mov    rsi,rax
    3ac0:	48 89 f7             	mov    rdi,rsi
    3ac3:	31 db                	xor    ebx,ebx
    3ac5:	f3 0f 58 87 00 00 00 	addss  xmm0,DWORD PTR [rdi+0x0]
    3acc:	00 
    3acd:	f3 0f 11 44 9c 04    	movss  DWORD PTR [rsp+rbx*4+0x4],xmm0
    3ad3:	f3 0f 11 87 00 00 00 	movss  DWORD PTR [rdi+0x0],xmm0
    3ada:	00 
    3adb:	48 ff c3             	inc    rbx
    3ade:	48 81 c7 00 04 00 00 	add    rdi,0x400
    3ae5:	48 83 fb 07          	cmp    rbx,0x7
    3ae9:	75 da                	jne    3ac5 <s231+0x3d>
    3aeb:	48 8d 7a 07          	lea    rdi,[rdx+0x7]
    3aef:	48 81 ff 00 01 00 00 	cmp    rdi,0x100
    3af6:	74 29                	je     3b21 <s231+0x99>
    3af8:	f3 0f 10 44 24 1c    	movss  xmm0,DWORD PTR [rsp+0x1c]
    3afe:	48 c1 e7 0a          	shl    rdi,0xa
    3b02:	f3 0f 58 84 8f 00 00 	addss  xmm0,DWORD PTR [rdi+rcx*4+0x0]
    3b09:	00 00 
    3b0b:	f3 0f 11 84 8f 00 00 	movss  DWORD PTR [rdi+rcx*4+0x0],xmm0
    3b12:	00 00 
    3b14:	48 83 c2 08          	add    rdx,0x8
    3b18:	48 81 c6 00 20 00 00 	add    rsi,0x2000
    3b1f:	eb 9f                	jmp    3ac0 <s231+0x38>
    3b21:	48 ff c1             	inc    rcx
    3b24:	48 83 c0 04          	add    rax,0x4
    3b28:	48 81 f9 00 01 00 00 	cmp    rcx,0x100
    3b2f:	0f 85 7a ff ff ff    	jne    3aaf <s231+0x27>
    3b35:	bf 00 00 00 00       	mov    edi,0x0
    3b3a:	be 00 00 00 00       	mov    esi,0x0
    3b3f:	ba 00 00 00 00       	mov    edx,0x0
    3b44:	b9 00 00 00 00       	mov    ecx,0x0
    3b49:	41 b8 00 00 00 00    	mov    r8d,0x0
    3b4f:	41 b9 00 00 00 00    	mov    r9d,0x0
    3b55:	0f 57 c0             	xorps  xmm0,xmm0
    3b58:	68 00 00 00 00       	push   0x0
    3b5d:	68 00 00 00 00       	push   0x0
    3b62:	e8 00 00 00 00       	call   3b67 <s231+0xdf>
    3b67:	48 83 c4 10          	add    rsp,0x10
    3b6b:	41 ff c7             	inc    r15d
    3b6e:	41 81 ff 58 98 00 00 	cmp    r15d,0x9858
    3b75:	0f 85 30 ff ff ff    	jne    3aab <s231+0x23>
    3b7b:	49 83 c6 10          	add    r14,0x10
    3b7f:	4c 89 f7             	mov    rdi,r14
    3b82:	31 f6                	xor    esi,esi
    3b84:	e8 00 00 00 00       	call   3b89 <s231+0x101>
    3b89:	bf 00 00 00 00       	mov    edi,0x0
    3b8e:	48 83 c4 20          	add    rsp,0x20
    3b92:	5b                   	pop    rbx
    3b93:	41 5e                	pop    r14
    3b95:	41 5f                	pop    r15
    3b97:	e9 00 00 00 00       	jmp    3b9c <s232>

0000000000003b9c <s232>:
    3b9c:	41 56                	push   r14
    3b9e:	53                   	push   rbx
    3b9f:	50                   	push   rax
    3ba0:	49 89 fe             	mov    r14,rdi
    3ba3:	bf 00 00 00 00       	mov    edi,0x0
    3ba8:	e8 00 00 00 00       	call   3bad <s232+0x11>
    3bad:	31 db                	xor    ebx,ebx
    3baf:	4c 89 f7             	mov    rdi,r14
    3bb2:	31 f6                	xor    esi,esi
    3bb4:	e8 00 00 00 00       	call   3bb9 <s232+0x1d>
    3bb9:	b8 01 00 00 00       	mov    eax,0x1
    3bbe:	31 c9                	xor    ecx,ecx
    3bc0:	48 89 c2             	mov    rdx,rax
    3bc3:	48 c1 e2 0a          	shl    rdx,0xa
    3bc7:	f3 0f 10 82 00 00 00 	movss  xmm0,DWORD PTR [rdx+0x0]
    3bce:	00 
    3bcf:	31 d2                	xor    edx,edx
    3bd1:	f3 0f 59 c0          	mulss  xmm0,xmm0
    3bd5:	f3 0f 58 84 91 00 00 	addss  xmm0,DWORD PTR [rcx+rdx*4+0x0]
    3bdc:	00 00 
    3bde:	f3 0f 11 84 91 00 00 	movss  DWORD PTR [rcx+rdx*4+0x0],xmm0
    3be5:	00 00 
    3be7:	48 ff c2             	inc    rdx
    3bea:	48 39 d0             	cmp    rax,rdx
    3bed:	75 e2                	jne    3bd1 <s232+0x35>
    3bef:	48 ff c0             	inc    rax
    3bf2:	48 81 c1 00 04 00 00 	add    rcx,0x400
    3bf9:	48 3d 00 01 00 00    	cmp    rax,0x100
    3bff:	75 bf                	jne    3bc0 <s232+0x24>
    3c01:	bf 00 00 00 00       	mov    edi,0x0
    3c06:	be 00 00 00 00       	mov    esi,0x0
    3c0b:	ba 00 00 00 00       	mov    edx,0x0
    3c10:	b9 00 00 00 00       	mov    ecx,0x0
    3c15:	41 b8 00 00 00 00    	mov    r8d,0x0
    3c1b:	41 b9 00 00 00 00    	mov    r9d,0x0
    3c21:	f3 0f 10 05 00 00 00 	movss  xmm0,DWORD PTR [rip+0x0]        # 3c29 <s232+0x8d>
    3c28:	00 
    3c29:	68 00 00 00 00       	push   0x0
    3c2e:	68 00 00 00 00       	push   0x0
    3c33:	e8 00 00 00 00       	call   3c38 <s232+0x9c>
    3c38:	48 83 c4 10          	add    rsp,0x10
    3c3c:	ff c3                	inc    ebx
    3c3e:	81 fb 58 98 00 00    	cmp    ebx,0x9858
    3c44:	0f 85 6f ff ff ff    	jne    3bb9 <s232+0x1d>
    3c4a:	49 83 c6 10          	add    r14,0x10
    3c4e:	4c 89 f7             	mov    rdi,r14
    3c51:	31 f6                	xor    esi,esi
    3c53:	e8 00 00 00 00       	call   3c58 <s232+0xbc>
    3c58:	bf 00 00 00 00       	mov    edi,0x0
    3c5d:	48 83 c4 08          	add    rsp,0x8
    3c61:	5b                   	pop    rbx
    3c62:	41 5e                	pop    r14
    3c64:	e9 00 00 00 00       	jmp    3c69 <s1232>

0000000000003c69 <s1232>:
    3c69:	41 57                	push   r15
    3c6b:	41 56                	push   r14
    3c6d:	53                   	push   rbx
    3c6e:	49 89 fe             	mov    r14,rdi
    3c71:	bf 00 00 00 00       	mov    edi,0x0
    3c76:	e8 00 00 00 00       	call   3c7b <s1232+0x12>
    3c7b:	45 31 ff             	xor    r15d,r15d
    3c7e:	4c 89 f7             	mov    rdi,r14
    3c81:	31 f6                	xor    esi,esi
    3c83:	e8 00 00 00 00       	call   3c88 <s1232+0x1f>
    3c88:	45 31 c0             	xor    r8d,r8d
    3c8b:	31 c9                	xor    ecx,ecx
    3c8d:	31 c0                	xor    eax,eax
    3c8f:	31 db                	xor    ebx,ebx
    3c91:	89 da                	mov    edx,ebx
    3c93:	f7 da                	neg    edx
    3c95:	48 89 de             	mov    rsi,rbx
    3c98:	f6 c2 07             	test   dl,0x7
    3c9b:	74 39                	je     3cd6 <s1232+0x6d>
    3c9d:	0f b6 f1             	movzx  esi,cl
    3ca0:	83 e6 07             	and    esi,0x7
    3ca3:	f7 de                	neg    esi
    3ca5:	48 89 c2             	mov    rdx,rax
    3ca8:	31 ff                	xor    edi,edi
    3caa:	f3 0f 10 82 00 00 00 	movss  xmm0,DWORD PTR [rdx+0x0]
    3cb1:	00 
    3cb2:	f3 0f 58 82 00 00 00 	addss  xmm0,DWORD PTR [rdx+0x0]
    3cb9:	00 
    3cba:	f3 0f 11 82 00 00 00 	movss  DWORD PTR [rdx+0x0],xmm0
    3cc1:	00 
    3cc2:	48 ff cf             	dec    rdi
    3cc5:	48 81 c2 00 04 00 00 	add    rdx,0x400
    3ccc:	39 fe                	cmp    esi,edi
    3cce:	75 da                	jne    3caa <s1232+0x41>
    3cd0:	48 89 de             	mov    rsi,rbx
    3cd3:	48 29 fe             	sub    rsi,rdi
    3cd6:	48 81 fb f8 00 00 00 	cmp    rbx,0xf8
    3cdd:	77 49                	ja     3d28 <s1232+0xbf>
    3cdf:	48 89 f7             	mov    rdi,rsi
    3ce2:	48 c1 e7 0a          	shl    rdi,0xa
    3ce6:	4c 01 c7             	add    rdi,r8
    3ce9:	48 c7 c2 00 e0 ff ff 	mov    rdx,0xffffffffffffe000
    3cf0:	f3 0f 10 84 17 00 00 	movss  xmm0,DWORD PTR [rdi+rdx*1+0x0]
    3cf7:	00 00 
    3cf9:	f3 0f 58 84 17 00 00 	addss  xmm0,DWORD PTR [rdi+rdx*1+0x0]
    3d00:	00 00 
    3d02:	f3 0f 11 84 17 00 00 	movss  DWORD PTR [rdi+rdx*1+0x0],xmm0
    3d09:	00 00 
    3d0b:	48 81 c2 00 04 00 00 	add    rdx,0x400
    3d12:	75 dc                	jne    3cf0 <s1232+0x87>
    3d14:	48 83 c6 08          	add    rsi,0x8
    3d18:	48 81 c7 00 20 00 00 	add    rdi,0x2000
    3d1f:	48 81 fe 00 01 00 00 	cmp    rsi,0x100
    3d26:	75 c1                	jne    3ce9 <s1232+0x80>
    3d28:	48 ff c3             	inc    rbx
    3d2b:	48 05 04 04 00 00    	add    rax,0x404
    3d31:	80 c1 07             	add    cl,0x7
    3d34:	49 83 c0 04          	add    r8,0x4
    3d38:	48 81 fb 00 01 00 00 	cmp    rbx,0x100
    3d3f:	0f 85 4c ff ff ff    	jne    3c91 <s1232+0x28>
    3d45:	bf 00 00 00 00       	mov    edi,0x0
    3d4a:	be 00 00 00 00       	mov    esi,0x0
    3d4f:	ba 00 00 00 00       	mov    edx,0x0
    3d54:	b9 00 00 00 00       	mov    ecx,0x0
    3d59:	41 b8 00 00 00 00    	mov    r8d,0x0
    3d5f:	41 b9 00 00 00 00    	mov    r9d,0x0
    3d65:	f3 0f 10 05 00 00 00 	movss  xmm0,DWORD PTR [rip+0x0]        # 3d6d <s1232+0x104>
    3d6c:	00 
    3d6d:	68 00 00 00 00       	push   0x0
    3d72:	68 00 00 00 00       	push   0x0
    3d77:	e8 00 00 00 00       	call   3d7c <s1232+0x113>
    3d7c:	48 83 c4 10          	add    rsp,0x10
    3d80:	41 ff c7             	inc    r15d
    3d83:	41 81 ff 58 98 00 00 	cmp    r15d,0x9858
    3d8a:	0f 85 f8 fe ff ff    	jne    3c88 <s1232+0x1f>
    3d90:	49 83 c6 10          	add    r14,0x10
    3d94:	4c 89 f7             	mov    rdi,r14
    3d97:	31 f6                	xor    esi,esi
    3d99:	e8 00 00 00 00       	call   3d9e <s1232+0x135>
    3d9e:	bf 00 00 00 00       	mov    edi,0x0
    3da3:	5b                   	pop    rbx
    3da4:	41 5e                	pop    r14
    3da6:	41 5f                	pop    r15
    3da8:	e9 00 00 00 00       	jmp    3dad <s233>

0000000000003dad <s233>:
    3dad:	41 57                	push   r15
    3daf:	41 56                	push   r14
    3db1:	53                   	push   rbx
    3db2:	48 83 ec 20          	sub    rsp,0x20
    3db6:	49 89 fe             	mov    r14,rdi
    3db9:	bf 00 00 00 00       	mov    edi,0x0
    3dbe:	e8 00 00 00 00       	call   3dc3 <s233+0x16>
    3dc3:	45 31 ff             	xor    r15d,r15d
    3dc6:	4c 89 f7             	mov    rdi,r14
    3dc9:	31 f6                	xor    esi,esi
    3dcb:	e8 00 00 00 00       	call   3dd0 <s233+0x23>
    3dd0:	b8 01 00 00 00       	mov    eax,0x1
    3dd5:	31 c9                	xor    ecx,ecx
    3dd7:	f3 0f 10 04 85 00 00 	movss  xmm0,DWORD PTR [rax*4+0x0]
    3dde:	00 00 
    3de0:	48 89 ca             	mov    rdx,rcx
    3de3:	be 01 00 00 00       	mov    esi,0x1
    3de8:	48 89 d7             	mov    rdi,rdx
    3deb:	31 db                	xor    ebx,ebx
    3ded:	f3 0f 58 87 00 00 00 	addss  xmm0,DWORD PTR [rdi+0x0]
    3df4:	00 
    3df5:	f3 0f 11 44 9c 04    	movss  DWORD PTR [rsp+rbx*4+0x4],xmm0
    3dfb:	f3 0f 11 87 00 00 00 	movss  DWORD PTR [rdi+0x0],xmm0
    3e02:	00 
    3e03:	48 ff c3             	inc    rbx
    3e06:	48 81 c7 00 04 00 00 	add    rdi,0x400
    3e0d:	48 83 fb 07          	cmp    rbx,0x7
    3e11:	75 da                	jne    3ded <s233+0x40>
    3e13:	48 8d 7e 07          	lea    rdi,[rsi+0x7]
    3e17:	48 81 ff 00 01 00 00 	cmp    rdi,0x100
    3e1e:	74 29                	je     3e49 <s233+0x9c>
    3e20:	f3 0f 10 44 24 1c    	movss  xmm0,DWORD PTR [rsp+0x1c]
    3e26:	48 c1 e7 0a          	shl    rdi,0xa
    3e2a:	f3 0f 58 84 87 00 00 	addss  xmm0,DWORD PTR [rdi+rax*4+0x0]
    3e31:	00 00 
    3e33:	f3 0f 11 84 87 00 00 	movss  DWORD PTR [rdi+rax*4+0x0],xmm0
    3e3a:	00 00 
    3e3c:	48 83 c6 08          	add    rsi,0x8
    3e40:	48 81 c2 00 20 00 00 	add    rdx,0x2000
    3e47:	eb 9f                	jmp    3de8 <s233+0x3b>
    3e49:	48 c7 c2 00 20 fc ff 	mov    rdx,0xfffffffffffc2000
    3e50:	f3 0f 10 84 11 00 00 	movss  xmm0,DWORD PTR [rcx+rdx*1+0x0]
    3e57:	00 00 
    3e59:	f3 0f 58 84 11 00 00 	addss  xmm0,DWORD PTR [rcx+rdx*1+0x0]
    3e60:	00 00 
    3e62:	f3 0f 11 84 11 00 00 	movss  DWORD PTR [rcx+rdx*1+0x0],xmm0
    3e69:	00 00 
    3e6b:	f3 0f 10 84 11 00 00 	movss  xmm0,DWORD PTR [rcx+rdx*1+0x0]
    3e72:	00 00 
    3e74:	f3 0f 58 84 11 00 00 	addss  xmm0,DWORD PTR [rcx+rdx*1+0x0]
    3e7b:	00 00 
    3e7d:	f3 0f 11 84 11 00 00 	movss  DWORD PTR [rcx+rdx*1+0x0],xmm0
    3e84:	00 00 
    3e86:	f3 0f 10 84 11 00 00 	movss  xmm0,DWORD PTR [rcx+rdx*1+0x0]
    3e8d:	00 00 
    3e8f:	f3 0f 58 84 11 00 00 	addss  xmm0,DWORD PTR [rcx+rdx*1+0x0]
    3e96:	00 00 
    3e98:	f3 0f 11 84 11 00 00 	movss  DWORD PTR [rcx+rdx*1+0x0],xmm0
    3e9f:	00 00 
    3ea1:	f3 0f 10 84 11 00 00 	movss  xmm0,DWORD PTR [rcx+rdx*1+0x0]
    3ea8:	00 00 
    3eaa:	f3 0f 58 84 11 00 00 	addss  xmm0,DWORD PTR [rcx+rdx*1+0x0]
    3eb1:	00 00 
    3eb3:	f3 0f 11 84 11 00 00 	movss  DWORD PTR [rcx+rdx*1+0x0],xmm0
    3eba:	00 00 
    3ebc:	f3 0f 10 84 11 00 00 	movss  xmm0,DWORD PTR [rcx+rdx*1+0x0]
    3ec3:	00 00 
    3ec5:	f3 0f 58 84 11 00 00 	addss  xmm0,DWORD PTR [rcx+rdx*1+0x0]
    3ecc:	00 00 
    3ece:	f3 0f 11 84 11 00 00 	movss  DWORD PTR [rcx+rdx*1+0x0],xmm0
    3ed5:	00 00 
    3ed7:	f3 0f 10 84 11 00 00 	movss  xmm0,DWORD PTR [rcx+rdx*1+0x0]
    3ede:	00 00 
    3ee0:	f3 0f 58 84 11 00 00 	addss  xmm0,DWORD PTR [rcx+rdx*1+0x0]
    3ee7:	00 00 
    3ee9:	f3 0f 11 84 11 00 00 	movss  DWORD PTR [rcx+rdx*1+0x0],xmm0
    3ef0:	00 00 
    3ef2:	f3 0f 10 84 11 00 00 	movss  xmm0,DWORD PTR [rcx+rdx*1+0x0]
    3ef9:	00 00 
    3efb:	f3 0f 58 84 11 00 00 	addss  xmm0,DWORD PTR [rcx+rdx*1+0x0]
    3f02:	00 00 
    3f04:	f3 0f 11 84 11 00 00 	movss  DWORD PTR [rcx+rdx*1+0x0],xmm0
    3f0b:	00 00 
    3f0d:	48 85 d2             	test   rdx,rdx
    3f10:	74 27                	je     3f39 <s233+0x18c>
    3f12:	f3 0f 10 84 11 00 00 	movss  xmm0,DWORD PTR [rcx+rdx*1+0x0]
    3f19:	00 00 
    3f1b:	f3 0f 58 84 11 00 00 	addss  xmm0,DWORD PTR [rcx+rdx*1+0x0]
    3f22:	00 00 
    3f24:	f3 0f 11 84 11 00 00 	movss  DWORD PTR [rcx+rdx*1+0x0],xmm0
    3f2b:	00 00 
    3f2d:	48 81 c2 00 20 00 00 	add    rdx,0x2000
    3f34:	e9 17 ff ff ff       	jmp    3e50 <s233+0xa3>
    3f39:	48 ff c0             	inc    rax
    3f3c:	48 83 c1 04          	add    rcx,0x4
    3f40:	48 3d 00 01 00 00    	cmp    rax,0x100
    3f46:	0f 85 8b fe ff ff    	jne    3dd7 <s233+0x2a>
    3f4c:	bf 00 00 00 00       	mov    edi,0x0
    3f51:	be 00 00 00 00       	mov    esi,0x0
    3f56:	ba 00 00 00 00       	mov    edx,0x0
    3f5b:	b9 00 00 00 00       	mov    ecx,0x0
    3f60:	41 b8 00 00 00 00    	mov    r8d,0x0
    3f66:	41 b9 00 00 00 00    	mov    r9d,0x0
    3f6c:	0f 57 c0             	xorps  xmm0,xmm0
    3f6f:	68 00 00 00 00       	push   0x0
    3f74:	68 00 00 00 00       	push   0x0
    3f79:	e8 00 00 00 00       	call   3f7e <s233+0x1d1>
    3f7e:	48 83 c4 10          	add    rsp,0x10
    3f82:	41 ff c7             	inc    r15d
    3f85:	41 81 ff 58 98 00 00 	cmp    r15d,0x9858
    3f8c:	0f 85 3e fe ff ff    	jne    3dd0 <s233+0x23>
    3f92:	49 83 c6 10          	add    r14,0x10
    3f96:	4c 89 f7             	mov    rdi,r14
    3f99:	31 f6                	xor    esi,esi
    3f9b:	e8 00 00 00 00       	call   3fa0 <s233+0x1f3>
    3fa0:	bf 00 00 00 00       	mov    edi,0x0
    3fa5:	48 83 c4 20          	add    rsp,0x20
    3fa9:	5b                   	pop    rbx
    3faa:	41 5e                	pop    r14
    3fac:	41 5f                	pop    r15
    3fae:	e9 00 00 00 00       	jmp    3fb3 <s2233>

0000000000003fb3 <s2233>:
    3fb3:	41 57                	push   r15
    3fb5:	41 56                	push   r14
    3fb7:	53                   	push   rbx
    3fb8:	48 83 ec 20          	sub    rsp,0x20
    3fbc:	49 89 fe             	mov    r14,rdi
    3fbf:	bf 00 00 00 00       	mov    edi,0x0
    3fc4:	e8 00 00 00 00       	call   3fc9 <s2233+0x16>
    3fc9:	45 31 ff             	xor    r15d,r15d
    3fcc:	4c 89 f7             	mov    rdi,r14
    3fcf:	31 f6                	xor    esi,esi
    3fd1:	e8 00 00 00 00       	call   3fd6 <s2233+0x23>
    3fd6:	b8 01 00 00 00       	mov    eax,0x1
    3fdb:	b9 04 04 00 00       	mov    ecx,0x404
    3fe0:	45 31 c0             	xor    r8d,r8d
    3fe3:	f3 0f 10 04 85 00 00 	movss  xmm0,DWORD PTR [rax*4+0x0]
    3fea:	00 00 
    3fec:	4c 89 c2             	mov    rdx,r8
    3fef:	bf 01 00 00 00       	mov    edi,0x1
    3ff4:	48 89 d6             	mov    rsi,rdx
    3ff7:	31 db                	xor    ebx,ebx
    3ff9:	f3 0f 58 86 00 00 00 	addss  xmm0,DWORD PTR [rsi+0x0]
    4000:	00 
    4001:	f3 0f 11 44 9c 04    	movss  DWORD PTR [rsp+rbx*4+0x4],xmm0
    4007:	f3 0f 11 86 00 00 00 	movss  DWORD PTR [rsi+0x0],xmm0
    400e:	00 
    400f:	48 ff c3             	inc    rbx
    4012:	48 81 c6 00 04 00 00 	add    rsi,0x400
    4019:	48 83 fb 07          	cmp    rbx,0x7
    401d:	75 da                	jne    3ff9 <s2233+0x46>
    401f:	48 8d 77 07          	lea    rsi,[rdi+0x7]
    4023:	48 81 fe 00 01 00 00 	cmp    rsi,0x100
    402a:	74 29                	je     4055 <s2233+0xa2>
    402c:	f3 0f 10 44 24 1c    	movss  xmm0,DWORD PTR [rsp+0x1c]
    4032:	48 c1 e6 0a          	shl    rsi,0xa
    4036:	f3 0f 58 84 86 00 00 	addss  xmm0,DWORD PTR [rsi+rax*4+0x0]
    403d:	00 00 
    403f:	f3 0f 11 84 86 00 00 	movss  DWORD PTR [rsi+rax*4+0x0],xmm0
    4046:	00 00 
    4048:	48 83 c7 08          	add    rdi,0x8
    404c:	48 81 c2 00 20 00 00 	add    rdx,0x2000
    4053:	eb 9f                	jmp    3ff4 <s2233+0x41>
    4055:	48 c7 c6 08 ff ff ff 	mov    rsi,0xffffffffffffff08
    405c:	f3 0f 10 84 b1 00 00 	movss  xmm0,DWORD PTR [rcx+rsi*4+0x0]
    4063:	00 00 
    4065:	f3 0f 58 84 b1 00 00 	addss  xmm0,DWORD PTR [rcx+rsi*4+0x0]
    406c:	00 00 
    406e:	f3 0f 11 84 b1 00 00 	movss  DWORD PTR [rcx+rsi*4+0x0],xmm0
    4075:	00 00 
    4077:	f3 0f 10 84 b1 00 00 	movss  xmm0,DWORD PTR [rcx+rsi*4+0x0]
    407e:	00 00 
    4080:	f3 0f 58 84 b1 00 00 	addss  xmm0,DWORD PTR [rcx+rsi*4+0x0]
    4087:	00 00 
    4089:	f3 0f 11 84 b1 00 00 	movss  DWORD PTR [rcx+rsi*4+0x0],xmm0
    4090:	00 00 
    4092:	f3 0f 10 84 b1 00 00 	movss  xmm0,DWORD PTR [rcx+rsi*4+0x0]
    4099:	00 00 
    409b:	f3 0f 58 84 b1 00 00 	addss  xmm0,DWORD PTR [rcx+rsi*4+0x0]
    40a2:	00 00 
    40a4:	f3 0f 11 84 b1 00 00 	movss  DWORD PTR [rcx+rsi*4+0x0],xmm0
    40ab:	00 00 
    40ad:	f3 0f 10 84 b1 00 00 	movss  xmm0,DWORD PTR [rcx+rsi*4+0x0]
    40b4:	00 00 
    40b6:	f3 0f 58 84 b1 00 00 	addss  xmm0,DWORD PTR [rcx+rsi*4+0x0]
    40bd:	00 00 
    40bf:	f3 0f 11 84 b1 00 00 	movss  DWORD PTR [rcx+rsi*4+0x0],xmm0
    40c6:	00 00 
    40c8:	f3 0f 10 84 b1 00 00 	movss  xmm0,DWORD PTR [rcx+rsi*4+0x0]
    40cf:	00 00 
    40d1:	f3 0f 58 84 b1 00 00 	addss  xmm0,DWORD PTR [rcx+rsi*4+0x0]
    40d8:	00 00 
    40da:	f3 0f 11 84 b1 00 00 	movss  DWORD PTR [rcx+rsi*4+0x0],xmm0
    40e1:	00 00 
    40e3:	f3 0f 10 84 b1 00 00 	movss  xmm0,DWORD PTR [rcx+rsi*4+0x0]
    40ea:	00 00 
    40ec:	f3 0f 58 84 b1 00 00 	addss  xmm0,DWORD PTR [rcx+rsi*4+0x0]
    40f3:	00 00 
    40f5:	f3 0f 11 84 b1 00 00 	movss  DWORD PTR [rcx+rsi*4+0x0],xmm0
    40fc:	00 00 
    40fe:	f3 0f 10 84 b1 00 00 	movss  xmm0,DWORD PTR [rcx+rsi*4+0x0]
    4105:	00 00 
    4107:	f3 0f 58 84 b1 00 00 	addss  xmm0,DWORD PTR [rcx+rsi*4+0x0]
    410e:	00 00 
    4110:	f3 0f 11 84 b1 00 00 	movss  DWORD PTR [rcx+rsi*4+0x0],xmm0
    4117:	00 00 
    4119:	48 85 f6             	test   rsi,rsi
    411c:	74 24                	je     4142 <s2233+0x18f>
    411e:	f3 0f 10 84 b1 00 00 	movss  xmm0,DWORD PTR [rcx+rsi*4+0x0]
    4125:	00 00 
    4127:	f3 0f 58 84 b1 00 00 	addss  xmm0,DWORD PTR [rcx+rsi*4+0x0]
    412e:	00 00 
    4130:	f3 0f 11 84 b1 00 00 	movss  DWORD PTR [rcx+rsi*4+0x0],xmm0
    4137:	00 00 
    4139:	48 83 c6 08          	add    rsi,0x8
    413d:	e9 1a ff ff ff       	jmp    405c <s2233+0xa9>
    4142:	48 ff c0             	inc    rax
    4145:	49 83 c0 04          	add    r8,0x4
    4149:	48 81 c1 00 04 00 00 	add    rcx,0x400
    4150:	48 3d 00 01 00 00    	cmp    rax,0x100
    4156:	0f 85 87 fe ff ff    	jne    3fe3 <s2233+0x30>
    415c:	bf 00 00 00 00       	mov    edi,0x0
    4161:	be 00 00 00 00       	mov    esi,0x0
    4166:	ba 00 00 00 00       	mov    edx,0x0
    416b:	b9 00 00 00 00       	mov    ecx,0x0
    4170:	41 b8 00 00 00 00    	mov    r8d,0x0
    4176:	41 b9 00 00 00 00    	mov    r9d,0x0
    417c:	0f 57 c0             	xorps  xmm0,xmm0
    417f:	68 00 00 00 00       	push   0x0
    4184:	68 00 00 00 00       	push   0x0
    4189:	e8 00 00 00 00       	call   418e <s2233+0x1db>
    418e:	48 83 c4 10          	add    rsp,0x10
    4192:	41 ff c7             	inc    r15d
    4195:	41 81 ff 58 98 00 00 	cmp    r15d,0x9858
    419c:	0f 85 34 fe ff ff    	jne    3fd6 <s2233+0x23>
    41a2:	49 83 c6 10          	add    r14,0x10
    41a6:	4c 89 f7             	mov    rdi,r14
    41a9:	31 f6                	xor    esi,esi
    41ab:	e8 00 00 00 00       	call   41b0 <s2233+0x1fd>
    41b0:	bf 00 00 00 00       	mov    edi,0x0
    41b5:	48 83 c4 20          	add    rsp,0x20
    41b9:	5b                   	pop    rbx
    41ba:	41 5e                	pop    r14
    41bc:	41 5f                	pop    r15
    41be:	e9 00 00 00 00       	jmp    41c3 <s235>

00000000000041c3 <s235>:
    41c3:	41 57                	push   r15
    41c5:	41 56                	push   r14
    41c7:	53                   	push   rbx
    41c8:	48 83 ec 20          	sub    rsp,0x20
    41cc:	49 89 fe             	mov    r14,rdi
    41cf:	bf 00 00 00 00       	mov    edi,0x0
    41d4:	e8 00 00 00 00       	call   41d9 <s235+0x16>
    41d9:	45 31 ff             	xor    r15d,r15d
    41dc:	4c 89 f7             	mov    rdi,r14
    41df:	31 f6                	xor    esi,esi
    41e1:	e8 00 00 00 00       	call   41e6 <s235+0x23>
    41e6:	31 c0                	xor    eax,eax
    41e8:	31 c9                	xor    ecx,ecx
    41ea:	f3 0f 10 04 8d 00 00 	movss  xmm0,DWORD PTR [rcx*4+0x0]
    41f1:	00 00 
    41f3:	f3 0f 59 04 8d 00 00 	mulss  xmm0,DWORD PTR [rcx*4+0x0]
    41fa:	00 00 
    41fc:	f3 0f 58 04 8d 00 00 	addss  xmm0,DWORD PTR [rcx*4+0x0]
    4203:	00 00 
    4205:	f3 0f 11 04 8d 00 00 	movss  DWORD PTR [rcx*4+0x0],xmm0
    420c:	00 00 
    420e:	f3 0f 10 0c 8d 00 00 	movss  xmm1,DWORD PTR [rcx*4+0x0]
    4215:	00 00 
    4217:	ba 01 00 00 00       	mov    edx,0x1
    421c:	48 89 c6             	mov    rsi,rax
    421f:	48 89 f7             	mov    rdi,rsi
    4222:	31 db                	xor    ebx,ebx
    4224:	f3 0f 10 97 00 00 00 	movss  xmm2,DWORD PTR [rdi+0x0]
    422b:	00 
    422c:	f3 0f 59 d0          	mulss  xmm2,xmm0
    4230:	f3 0f 58 ca          	addss  xmm1,xmm2
    4234:	f3 0f 11 4c 9c 04    	movss  DWORD PTR [rsp+rbx*4+0x4],xmm1
    423a:	f3 0f 11 8f 00 00 00 	movss  DWORD PTR [rdi+0x0],xmm1
    4241:	00 
    4242:	48 ff c3             	inc    rbx
    4245:	48 81 c7 00 04 00 00 	add    rdi,0x400
    424c:	48 83 fb 07          	cmp    rbx,0x7
    4250:	75 d2                	jne    4224 <s235+0x61>
    4252:	48 8d 7a 07          	lea    rdi,[rdx+0x7]
    4256:	48 81 ff 00 01 00 00 	cmp    rdi,0x100
    425d:	74 2d                	je     428c <s235+0xc9>
    425f:	48 c1 e7 0a          	shl    rdi,0xa
    4263:	f3 0f 10 8c 8f 00 00 	movss  xmm1,DWORD PTR [rdi+rcx*4+0x0]
    426a:	00 00 
    426c:	f3 0f 59 c8          	mulss  xmm1,xmm0
    4270:	f3 0f 58 4c 24 1c    	addss  xmm1,DWORD PTR [rsp+0x1c]
    4276:	f3 0f 11 8c 8f 00 00 	movss  DWORD PTR [rdi+rcx*4+0x0],xmm1
    427d:	00 00 
    427f:	48 83 c2 08          	add    rdx,0x8
    4283:	48 81 c6 00 20 00 00 	add    rsi,0x2000
    428a:	eb 93                	jmp    421f <s235+0x5c>
    428c:	48 ff c1             	inc    rcx
    428f:	48 83 c0 04          	add    rax,0x4
    4293:	48 81 f9 00 01 00 00 	cmp    rcx,0x100
    429a:	0f 85 4a ff ff ff    	jne    41ea <s235+0x27>
    42a0:	bf 00 00 00 00       	mov    edi,0x0
    42a5:	be 00 00 00 00       	mov    esi,0x0
    42aa:	ba 00 00 00 00       	mov    edx,0x0
    42af:	b9 00 00 00 00       	mov    ecx,0x0
    42b4:	41 b8 00 00 00 00    	mov    r8d,0x0
    42ba:	41 b9 00 00 00 00    	mov    r9d,0x0
    42c0:	0f 57 c0             	xorps  xmm0,xmm0
    42c3:	68 00 00 00 00       	push   0x0
    42c8:	68 00 00 00 00       	push   0x0
    42cd:	e8 00 00 00 00       	call   42d2 <s235+0x10f>
    42d2:	48 83 c4 10          	add    rsp,0x10
    42d6:	41 ff c7             	inc    r15d
    42d9:	41 81 ff b0 30 01 00 	cmp    r15d,0x130b0
    42e0:	0f 85 00 ff ff ff    	jne    41e6 <s235+0x23>
    42e6:	49 83 c6 10          	add    r14,0x10
    42ea:	4c 89 f7             	mov    rdi,r14
    42ed:	31 f6                	xor    esi,esi
    42ef:	e8 00 00 00 00       	call   42f4 <s235+0x131>
    42f4:	bf 00 00 00 00       	mov    edi,0x0
    42f9:	48 83 c4 20          	add    rsp,0x20
    42fd:	5b                   	pop    rbx
    42fe:	41 5e                	pop    r14
    4300:	41 5f                	pop    r15
    4302:	e9 00 00 00 00       	jmp    4307 <s241>

0000000000004307 <s241>:
    4307:	41 56                	push   r14
    4309:	53                   	push   rbx
    430a:	48 83 ec 78          	sub    rsp,0x78
    430e:	49 89 fe             	mov    r14,rdi
    4311:	bf 00 00 00 00       	mov    edi,0x0
    4316:	e8 00 00 00 00       	call   431b <s241+0x14>
    431b:	31 db                	xor    ebx,ebx
    431d:	4c 89 f7             	mov    rdi,r14
    4320:	31 f6                	xor    esi,esi
    4322:	e8 00 00 00 00       	call   4327 <s241+0x20>
    4327:	31 c0                	xor    eax,eax
    4329:	31 c9                	xor    ecx,ecx
    432b:	48 89 c2             	mov    rdx,rax
    432e:	48 09 ca             	or     rdx,rcx
    4331:	f3 0f 10 04 95 00 00 	movss  xmm0,DWORD PTR [rdx*4+0x0]
    4338:	00 00 
    433a:	f3 0f 59 04 95 00 00 	mulss  xmm0,DWORD PTR [rdx*4+0x0]
    4341:	00 00 
    4343:	f3 0f 10 0c 95 00 00 	movss  xmm1,DWORD PTR [rdx*4+0x0]
    434a:	00 00 
    434c:	f3 0f 59 c1          	mulss  xmm0,xmm1
    4350:	f3 0f 11 04 95 00 00 	movss  DWORD PTR [rdx*4+0x0],xmm0
    4357:	00 00 
    4359:	48 8d 71 01          	lea    rsi,[rcx+0x1]
    435d:	48 89 f7             	mov    rdi,rsi
    4360:	48 09 c7             	or     rdi,rax
    4363:	48 89 7c cc 08       	mov    QWORD PTR [rsp+rcx*8+0x8],rdi
    4368:	48 8d 3c bd 00 00 00 	lea    rdi,[rdi*4+0x0]
    436f:	00 
    4370:	f3 0f 59 07          	mulss  xmm0,DWORD PTR [rdi]
    4374:	48 89 7c cc 40       	mov    QWORD PTR [rsp+rcx*8+0x40],rdi
    4379:	f3 0f 59 c1          	mulss  xmm0,xmm1
    437d:	f3 0f 11 04 95 00 00 	movss  DWORD PTR [rdx*4+0x0],xmm0
    4384:	00 00 
    4386:	48 89 f1             	mov    rcx,rsi
    4389:	48 83 fe 07          	cmp    rsi,0x7
    438d:	75 9c                	jne    432b <s241+0x24>
    438f:	48 8b 4c 24 38       	mov    rcx,QWORD PTR [rsp+0x38]
    4394:	48 81 f9 ff 7c 00 00 	cmp    rcx,0x7cff
    439b:	74 47                	je     43e4 <s241+0xdd>
    439d:	48 8b 54 24 70       	mov    rdx,QWORD PTR [rsp+0x70]
    43a2:	f3 0f 10 04 8d 00 00 	movss  xmm0,DWORD PTR [rcx*4+0x0]
    43a9:	00 00 
    43ab:	f3 0f 59 04 8d 00 00 	mulss  xmm0,DWORD PTR [rcx*4+0x0]
    43b2:	00 00 
    43b4:	f3 0f 10 0c 8d 00 00 	movss  xmm1,DWORD PTR [rcx*4+0x0]
    43bb:	00 00 
    43bd:	f3 0f 59 c1          	mulss  xmm0,xmm1
    43c1:	f3 0f 11 02          	movss  DWORD PTR [rdx],xmm0
    43c5:	f3 0f 59 04 85 00 00 	mulss  xmm0,DWORD PTR [rax*4+0x0]
    43cc:	00 00 
    43ce:	48 83 c0 08          	add    rax,0x8
    43d2:	f3 0f 59 c1          	mulss  xmm0,xmm1
    43d6:	f3 0f 11 04 8d 00 00 	movss  DWORD PTR [rcx*4+0x0],xmm0
    43dd:	00 00 
    43df:	e9 45 ff ff ff       	jmp    4329 <s241+0x22>
    43e4:	bf 00 00 00 00       	mov    edi,0x0
    43e9:	be 00 00 00 00       	mov    esi,0x0
    43ee:	ba 00 00 00 00       	mov    edx,0x0
    43f3:	b9 00 00 00 00       	mov    ecx,0x0
    43f8:	41 b8 00 00 00 00    	mov    r8d,0x0
    43fe:	41 b9 00 00 00 00    	mov    r9d,0x0
    4404:	0f 57 c0             	xorps  xmm0,xmm0
    4407:	68 00 00 00 00       	push   0x0
    440c:	68 00 00 00 00       	push   0x0
    4411:	e8 00 00 00 00       	call   4416 <s241+0x10f>
    4416:	48 83 c4 10          	add    rsp,0x10
    441a:	ff c3                	inc    ebx
    441c:	81 fb 40 0d 03 00    	cmp    ebx,0x30d40
    4422:	0f 85 ff fe ff ff    	jne    4327 <s241+0x20>
    4428:	49 83 c6 10          	add    r14,0x10
    442c:	4c 89 f7             	mov    rdi,r14
    442f:	31 f6                	xor    esi,esi
    4431:	e8 00 00 00 00       	call   4436 <s241+0x12f>
    4436:	bf 00 00 00 00       	mov    edi,0x0
    443b:	48 83 c4 78          	add    rsp,0x78
    443f:	5b                   	pop    rbx
    4440:	41 5e                	pop    r14
    4442:	e9 00 00 00 00       	jmp    4447 <s242>

0000000000004447 <s242>:
    4447:	41 56                	push   r14
    4449:	53                   	push   rbx
    444a:	48 83 ec 28          	sub    rsp,0x28
    444e:	49 89 fe             	mov    r14,rdi
    4451:	48 8b 47 20          	mov    rax,QWORD PTR [rdi+0x20]
    4455:	f3 0f 10 00          	movss  xmm0,DWORD PTR [rax]
    4459:	f3 0f 11 44 24 08    	movss  DWORD PTR [rsp+0x8],xmm0
    445f:	f3 0f 10 40 04       	movss  xmm0,DWORD PTR [rax+0x4]
    4464:	f3 0f 11 44 24 04    	movss  DWORD PTR [rsp+0x4],xmm0
    446a:	bf 00 00 00 00       	mov    edi,0x0
    446f:	e8 00 00 00 00       	call   4474 <s242+0x2d>
    4474:	31 db                	xor    ebx,ebx
    4476:	4c 89 f7             	mov    rdi,r14
    4479:	31 f6                	xor    esi,esi
    447b:	e8 00 00 00 00       	call   4480 <s242+0x39>
    4480:	b8 01 00 00 00       	mov    eax,0x1
    4485:	f3 0f 10 05 00 00 00 	movss  xmm0,DWORD PTR [rip+0x0]        # 448d <s242+0x46>
    448c:	00 
    448d:	31 c9                	xor    ecx,ecx
    448f:	f3 0f 10 4c 24 08    	movss  xmm1,DWORD PTR [rsp+0x8]
    4495:	f3 0f 10 54 24 04    	movss  xmm2,DWORD PTR [rsp+0x4]
    449b:	31 d2                	xor    edx,edx
    449d:	f3 0f 58 c1          	addss  xmm0,xmm1
    44a1:	f3 0f 58 c2          	addss  xmm0,xmm2
    44a5:	f3 0f 58 84 11 00 00 	addss  xmm0,DWORD PTR [rcx+rdx*1+0x0]
    44ac:	00 00 
    44ae:	f3 0f 58 84 11 00 00 	addss  xmm0,DWORD PTR [rcx+rdx*1+0x0]
    44b5:	00 00 
    44b7:	f3 0f 58 84 11 00 00 	addss  xmm0,DWORD PTR [rcx+rdx*1+0x0]
    44be:	00 00 
    44c0:	f3 0f 11 44 14 0c    	movss  DWORD PTR [rsp+rdx*1+0xc],xmm0
    44c6:	f3 0f 11 84 11 00 00 	movss  DWORD PTR [rcx+rdx*1+0x0],xmm0
    44cd:	00 00 
    44cf:	48 83 c2 04          	add    rdx,0x4
    44d3:	48 83 fa 1c          	cmp    rdx,0x1c
    44d7:	75 c4                	jne    449d <s242+0x56>
    44d9:	48 3d f9 7c 00 00    	cmp    rax,0x7cf9
    44df:	74 3f                	je     4520 <s242+0xd9>
    44e1:	f3 0f 10 44 24 24    	movss  xmm0,DWORD PTR [rsp+0x24]
    44e7:	f3 0f 58 c1          	addss  xmm0,xmm1
    44eb:	f3 0f 58 c2          	addss  xmm0,xmm2
    44ef:	f3 0f 58 04 85 00 00 	addss  xmm0,DWORD PTR [rax*4+0x0]
    44f6:	00 00 
    44f8:	f3 0f 58 04 85 00 00 	addss  xmm0,DWORD PTR [rax*4+0x0]
    44ff:	00 00 
    4501:	f3 0f 58 04 85 00 00 	addss  xmm0,DWORD PTR [rax*4+0x0]
    4508:	00 00 
    450a:	f3 0f 11 04 85 00 00 	movss  DWORD PTR [rax*4+0x0],xmm0
    4511:	00 00 
    4513:	48 83 c0 08          	add    rax,0x8
    4517:	48 83 c1 20          	add    rcx,0x20
    451b:	e9 7b ff ff ff       	jmp    449b <s242+0x54>
    4520:	bf 00 00 00 00       	mov    edi,0x0
    4525:	be 00 00 00 00       	mov    esi,0x0
    452a:	ba 00 00 00 00       	mov    edx,0x0
    452f:	b9 00 00 00 00       	mov    ecx,0x0
    4534:	41 b8 00 00 00 00    	mov    r8d,0x0
    453a:	41 b9 00 00 00 00    	mov    r9d,0x0
    4540:	0f 57 c0             	xorps  xmm0,xmm0
    4543:	68 00 00 00 00       	push   0x0
    4548:	68 00 00 00 00       	push   0x0
    454d:	e8 00 00 00 00       	call   4552 <s242+0x10b>
    4552:	48 83 c4 10          	add    rsp,0x10
    4556:	ff c3                	inc    ebx
    4558:	81 fb 20 4e 00 00    	cmp    ebx,0x4e20
    455e:	0f 85 1c ff ff ff    	jne    4480 <s242+0x39>
    4564:	49 83 c6 10          	add    r14,0x10
    4568:	4c 89 f7             	mov    rdi,r14
    456b:	31 f6                	xor    esi,esi
    456d:	e8 00 00 00 00       	call   4572 <s242+0x12b>
    4572:	bf 00 00 00 00       	mov    edi,0x0
    4577:	48 83 c4 28          	add    rsp,0x28
    457b:	5b                   	pop    rbx
    457c:	41 5e                	pop    r14
    457e:	e9 00 00 00 00       	jmp    4583 <s243>

0000000000004583 <s243>:
    4583:	41 56                	push   r14
    4585:	53                   	push   rbx
    4586:	48 83 ec 78          	sub    rsp,0x78
    458a:	49 89 fe             	mov    r14,rdi
    458d:	bf 00 00 00 00       	mov    edi,0x0
    4592:	e8 00 00 00 00       	call   4597 <s243+0x14>
    4597:	31 db                	xor    ebx,ebx
    4599:	4c 89 f7             	mov    rdi,r14
    459c:	31 f6                	xor    esi,esi
    459e:	e8 00 00 00 00       	call   45a3 <s243+0x20>
    45a3:	31 c0                	xor    eax,eax
    45a5:	31 c9                	xor    ecx,ecx
    45a7:	48 89 c2             	mov    rdx,rax
    45aa:	48 09 ca             	or     rdx,rcx
    45ad:	f3 0f 10 04 95 00 00 	movss  xmm0,DWORD PTR [rdx*4+0x0]
    45b4:	00 00 
    45b6:	f3 0f 10 0c 95 00 00 	movss  xmm1,DWORD PTR [rdx*4+0x0]
    45bd:	00 00 
    45bf:	f3 0f 59 c8          	mulss  xmm1,xmm0
    45c3:	f3 0f 58 0c 95 00 00 	addss  xmm1,DWORD PTR [rdx*4+0x0]
    45ca:	00 00 
    45cc:	f3 0f 10 14 95 00 00 	movss  xmm2,DWORD PTR [rdx*4+0x0]
    45d3:	00 00 
    45d5:	f3 0f 59 d0          	mulss  xmm2,xmm0
    45d9:	f3 0f 58 d1          	addss  xmm2,xmm1
    45dd:	f3 0f 11 14 95 00 00 	movss  DWORD PTR [rdx*4+0x0],xmm2
    45e4:	00 00 
    45e6:	48 8d 71 01          	lea    rsi,[rcx+0x1]
    45ea:	48 89 f7             	mov    rdi,rsi
    45ed:	48 09 c7             	or     rdi,rax
    45f0:	48 89 7c cc 08       	mov    QWORD PTR [rsp+rcx*8+0x8],rdi
    45f5:	48 8d 3c bd 00 00 00 	lea    rdi,[rdi*4+0x0]
    45fc:	00 
    45fd:	f3 0f 59 07          	mulss  xmm0,DWORD PTR [rdi]
    4601:	48 89 7c cc 40       	mov    QWORD PTR [rsp+rcx*8+0x40],rdi
    4606:	f3 0f 58 c2          	addss  xmm0,xmm2
    460a:	f3 0f 11 04 95 00 00 	movss  DWORD PTR [rdx*4+0x0],xmm0
    4611:	00 00 
    4613:	48 89 f1             	mov    rcx,rsi
    4616:	48 83 fe 07          	cmp    rsi,0x7
    461a:	75 8b                	jne    45a7 <s243+0x24>
    461c:	48 8b 4c 24 38       	mov    rcx,QWORD PTR [rsp+0x38]
    4621:	48 81 f9 ff 7c 00 00 	cmp    rcx,0x7cff
    4628:	74 58                	je     4682 <s243+0xff>
    462a:	48 8b 54 24 70       	mov    rdx,QWORD PTR [rsp+0x70]
    462f:	f3 0f 10 04 8d 00 00 	movss  xmm0,DWORD PTR [rcx*4+0x0]
    4636:	00 00 
    4638:	f3 0f 10 0c 8d 00 00 	movss  xmm1,DWORD PTR [rcx*4+0x0]
    463f:	00 00 
    4641:	f3 0f 59 c8          	mulss  xmm1,xmm0
    4645:	f3 0f 58 0c 8d 00 00 	addss  xmm1,DWORD PTR [rcx*4+0x0]
    464c:	00 00 
    464e:	f3 0f 10 14 8d 00 00 	movss  xmm2,DWORD PTR [rcx*4+0x0]
    4655:	00 00 
    4657:	f3 0f 59 d0          	mulss  xmm2,xmm0
    465b:	f3 0f 58 d1          	addss  xmm2,xmm1
    465f:	f3 0f 59 04 85 00 00 	mulss  xmm0,DWORD PTR [rax*4+0x0]
    4666:	00 00 
    4668:	f3 0f 11 14 8d 00 00 	movss  DWORD PTR [rcx*4+0x0],xmm2
    466f:	00 00 
    4671:	48 83 c0 08          	add    rax,0x8
    4675:	f3 0f 58 c2          	addss  xmm0,xmm2
    4679:	f3 0f 11 02          	movss  DWORD PTR [rdx],xmm0
    467d:	e9 23 ff ff ff       	jmp    45a5 <s243+0x22>
    4682:	bf 00 00 00 00       	mov    edi,0x0
    4687:	be 00 00 00 00       	mov    esi,0x0
    468c:	ba 00 00 00 00       	mov    edx,0x0
    4691:	b9 00 00 00 00       	mov    ecx,0x0
    4696:	41 b8 00 00 00 00    	mov    r8d,0x0
    469c:	41 b9 00 00 00 00    	mov    r9d,0x0
    46a2:	0f 57 c0             	xorps  xmm0,xmm0
    46a5:	68 00 00 00 00       	push   0x0
    46aa:	68 00 00 00 00       	push   0x0
    46af:	e8 00 00 00 00       	call   46b4 <s243+0x131>
    46b4:	48 83 c4 10          	add    rsp,0x10
    46b8:	ff c3                	inc    ebx
    46ba:	81 fb a0 86 01 00    	cmp    ebx,0x186a0
    46c0:	0f 85 dd fe ff ff    	jne    45a3 <s243+0x20>
    46c6:	49 83 c6 10          	add    r14,0x10
    46ca:	4c 89 f7             	mov    rdi,r14
    46cd:	31 f6                	xor    esi,esi
    46cf:	e8 00 00 00 00       	call   46d4 <s243+0x151>
    46d4:	bf 00 00 00 00       	mov    edi,0x0
    46d9:	48 83 c4 78          	add    rsp,0x78
    46dd:	5b                   	pop    rbx
    46de:	41 5e                	pop    r14
    46e0:	e9 00 00 00 00       	jmp    46e5 <s244>

00000000000046e5 <s244>:
    46e5:	41 56                	push   r14
    46e7:	53                   	push   rbx
    46e8:	50                   	push   rax
    46e9:	49 89 fe             	mov    r14,rdi
    46ec:	bf 00 00 00 00       	mov    edi,0x0
    46f1:	e8 00 00 00 00       	call   46f6 <s244+0x11>
    46f6:	31 db                	xor    ebx,ebx
    46f8:	4c 89 f7             	mov    rdi,r14
    46fb:	31 f6                	xor    esi,esi
    46fd:	e8 00 00 00 00       	call   4702 <s244+0x1d>
    4702:	48 c7 c0 20 0c fe ff 	mov    rax,0xfffffffffffe0c20
    4709:	f3 0f 10 80 00 00 00 	movss  xmm0,DWORD PTR [rax+0x0]
    4710:	00 
    4711:	f3 0f 10 88 00 00 00 	movss  xmm1,DWORD PTR [rax+0x0]
    4718:	00 
    4719:	f3 0f 10 90 00 00 00 	movss  xmm2,DWORD PTR [rax+0x0]
    4720:	00 
    4721:	f3 0f 59 d1          	mulss  xmm2,xmm1
    4725:	f3 0f 58 d0          	addss  xmm2,xmm0
    4729:	f3 0f 11 90 00 00 00 	movss  DWORD PTR [rax+0x0],xmm2
    4730:	00 
    4731:	f3 0f 58 c1          	addss  xmm0,xmm1
    4735:	f3 0f 11 80 00 00 00 	movss  DWORD PTR [rax+0x0],xmm0
    473c:	00 
    473d:	f3 0f 10 80 00 00 00 	movss  xmm0,DWORD PTR [rax+0x0]
    4744:	00 
    4745:	f3 0f 10 88 00 00 00 	movss  xmm1,DWORD PTR [rax+0x0]
    474c:	00 
    474d:	f3 0f 10 90 00 00 00 	movss  xmm2,DWORD PTR [rax+0x0]
    4754:	00 
    4755:	f3 0f 59 d1          	mulss  xmm2,xmm1
    4759:	f3 0f 58 d0          	addss  xmm2,xmm0
    475d:	f3 0f 11 90 00 00 00 	movss  DWORD PTR [rax+0x0],xmm2
    4764:	00 
    4765:	f3 0f 58 c1          	addss  xmm0,xmm1
    4769:	f3 0f 11 80 00 00 00 	movss  DWORD PTR [rax+0x0],xmm0
    4770:	00 
    4771:	f3 0f 10 80 00 00 00 	movss  xmm0,DWORD PTR [rax+0x0]
    4778:	00 
    4779:	f3 0f 10 88 00 00 00 	movss  xmm1,DWORD PTR [rax+0x0]
    4780:	00 
    4781:	f3 0f 10 90 00 00 00 	movss  xmm2,DWORD PTR [rax+0x0]
    4788:	00 
    4789:	f3 0f 59 d1          	mulss  xmm2,xmm1
    478d:	f3 0f 58 d0          	addss  xmm2,xmm0
    4791:	f3 0f 11 90 00 00 00 	movss  DWORD PTR [rax+0x0],xmm2
    4798:	00 
    4799:	f3 0f 58 c1          	addss  xmm0,xmm1
    479d:	f3 0f 11 80 00 00 00 	movss  DWORD PTR [rax+0x0],xmm0
    47a4:	00 
    47a5:	f3 0f 10 80 00 00 00 	movss  xmm0,DWORD PTR [rax+0x0]
    47ac:	00 
    47ad:	f3 0f 10 88 00 00 00 	movss  xmm1,DWORD PTR [rax+0x0]
    47b4:	00 
    47b5:	f3 0f 10 90 00 00 00 	movss  xmm2,DWORD PTR [rax+0x0]
    47bc:	00 
    47bd:	f3 0f 59 d1          	mulss  xmm2,xmm1
    47c1:	f3 0f 58 d0          	addss  xmm2,xmm0
    47c5:	f3 0f 11 90 00 00 00 	movss  DWORD PTR [rax+0x0],xmm2
    47cc:	00 
    47cd:	f3 0f 58 c1          	addss  xmm0,xmm1
    47d1:	f3 0f 11 80 00 00 00 	movss  DWORD PTR [rax+0x0],xmm0
    47d8:	00 
    47d9:	f3 0f 10 80 00 00 00 	movss  xmm0,DWORD PTR [rax+0x0]
    47e0:	00 
    47e1:	f3 0f 10 88 00 00 00 	movss  xmm1,DWORD PTR [rax+0x0]
    47e8:	00 
    47e9:	f3 0f 10 90 00 00 00 	movss  xmm2,DWORD PTR [rax+0x0]
    47f0:	00 
    47f1:	f3 0f 59 d1          	mulss  xmm2,xmm1
    47f5:	f3 0f 58 d0          	addss  xmm2,xmm0
    47f9:	f3 0f 11 90 00 00 00 	movss  DWORD PTR [rax+0x0],xmm2
    4800:	00 
    4801:	f3 0f 58 c1          	addss  xmm0,xmm1
    4805:	f3 0f 11 80 00 00 00 	movss  DWORD PTR [rax+0x0],xmm0
    480c:	00 
    480d:	f3 0f 10 80 00 00 00 	movss  xmm0,DWORD PTR [rax+0x0]
    4814:	00 
    4815:	f3 0f 10 88 00 00 00 	movss  xmm1,DWORD PTR [rax+0x0]
    481c:	00 
    481d:	f3 0f 10 90 00 00 00 	movss  xmm2,DWORD PTR [rax+0x0]
    4824:	00 
    4825:	f3 0f 59 d1          	mulss  xmm2,xmm1
    4829:	f3 0f 58 d0          	addss  xmm2,xmm0
    482d:	f3 0f 11 90 00 00 00 	movss  DWORD PTR [rax+0x0],xmm2
    4834:	00 
    4835:	f3 0f 58 c1          	addss  xmm0,xmm1
    4839:	f3 0f 11 80 00 00 00 	movss  DWORD PTR [rax+0x0],xmm0
    4840:	00 
    4841:	f3 0f 10 80 00 00 00 	movss  xmm0,DWORD PTR [rax+0x0]
    4848:	00 
    4849:	f3 0f 10 88 00 00 00 	movss  xmm1,DWORD PTR [rax+0x0]
    4850:	00 
    4851:	f3 0f 10 90 00 00 00 	movss  xmm2,DWORD PTR [rax+0x0]
    4858:	00 
    4859:	0f 28 d9             	movaps xmm3,xmm1
    485c:	f3 0f 59 da          	mulss  xmm3,xmm2
    4860:	f3 0f 58 d8          	addss  xmm3,xmm0
    4864:	f3 0f 11 98 00 00 00 	movss  DWORD PTR [rax+0x0],xmm3
    486b:	00 
    486c:	f3 0f 58 c1          	addss  xmm0,xmm1
    4870:	f3 0f 59 90 00 00 00 	mulss  xmm2,DWORD PTR [rax+0x0]
    4877:	00 
    4878:	f3 0f 11 80 00 00 00 	movss  DWORD PTR [rax+0x0],xmm0
    487f:	00 
    4880:	f3 0f 58 d0          	addss  xmm2,xmm0
    4884:	f3 0f 11 90 00 00 00 	movss  DWORD PTR [rax+0x0],xmm2
    488b:	00 
    488c:	48 85 c0             	test   rax,rax
    488f:	74 54                	je     48e5 <s244+0x200>
    4891:	f3 0f 10 80 00 00 00 	movss  xmm0,DWORD PTR [rax+0x0]
    4898:	00 
    4899:	f3 0f 10 88 00 00 00 	movss  xmm1,DWORD PTR [rax+0x0]
    48a0:	00 
    48a1:	f3 0f 10 90 00 00 00 	movss  xmm2,DWORD PTR [rax+0x0]
    48a8:	00 
    48a9:	0f 28 d9             	movaps xmm3,xmm1
    48ac:	f3 0f 59 da          	mulss  xmm3,xmm2
    48b0:	f3 0f 58 d8          	addss  xmm3,xmm0
    48b4:	f3 0f 11 98 00 00 00 	movss  DWORD PTR [rax+0x0],xmm3
    48bb:	00 
    48bc:	f3 0f 58 c1          	addss  xmm0,xmm1
    48c0:	f3 0f 59 90 00 00 00 	mulss  xmm2,DWORD PTR [rax+0x0]
    48c7:	00 
    48c8:	f3 0f 11 80 00 00 00 	movss  DWORD PTR [rax+0x0],xmm0
    48cf:	00 
    48d0:	f3 0f 58 d0          	addss  xmm2,xmm0
    48d4:	f3 0f 11 90 00 00 00 	movss  DWORD PTR [rax+0x0],xmm2
    48db:	00 
    48dc:	48 83 c0 20          	add    rax,0x20
    48e0:	e9 24 fe ff ff       	jmp    4709 <s244+0x24>
    48e5:	bf 00 00 00 00       	mov    edi,0x0
    48ea:	be 00 00 00 00       	mov    esi,0x0
    48ef:	ba 00 00 00 00       	mov    edx,0x0
    48f4:	b9 00 00 00 00       	mov    ecx,0x0
    48f9:	41 b8 00 00 00 00    	mov    r8d,0x0
    48ff:	41 b9 00 00 00 00    	mov    r9d,0x0
    4905:	0f 57 c0             	xorps  xmm0,xmm0
    4908:	68 00 00 00 00       	push   0x0
    490d:	68 00 00 00 00       	push   0x0
    4912:	e8 00 00 00 00       	call   4917 <s244+0x232>
    4917:	48 83 c4 10          	add    rsp,0x10
    491b:	ff c3                	inc    ebx
    491d:	81 fb a0 86 01 00    	cmp    ebx,0x186a0
    4923:	0f 85 d9 fd ff ff    	jne    4702 <s244+0x1d>
    4929:	49 83 c6 10          	add    r14,0x10
    492d:	4c 89 f7             	mov    rdi,r14
    4930:	31 f6                	xor    esi,esi
    4932:	e8 00 00 00 00       	call   4937 <s244+0x252>
    4937:	bf 00 00 00 00       	mov    edi,0x0
    493c:	48 83 c4 08          	add    rsp,0x8
    4940:	5b                   	pop    rbx
    4941:	41 5e                	pop    r14
    4943:	e9 00 00 00 00       	jmp    4948 <s1244>

0000000000004948 <s1244>:
    4948:	41 56                	push   r14
    494a:	53                   	push   rbx
    494b:	48 83 ec 78          	sub    rsp,0x78
    494f:	49 89 fe             	mov    r14,rdi
    4952:	bf 00 00 00 00       	mov    edi,0x0
    4957:	e8 00 00 00 00       	call   495c <s1244+0x14>
    495c:	31 db                	xor    ebx,ebx
    495e:	4c 89 f7             	mov    rdi,r14
    4961:	31 f6                	xor    esi,esi
    4963:	e8 00 00 00 00       	call   4968 <s1244+0x20>
    4968:	31 c0                	xor    eax,eax
    496a:	31 c9                	xor    ecx,ecx
    496c:	48 89 c2             	mov    rdx,rax
    496f:	48 09 ca             	or     rdx,rcx
    4972:	f3 0f 10 04 95 00 00 	movss  xmm0,DWORD PTR [rdx*4+0x0]
    4979:	00 00 
    497b:	f3 0f 10 0c 95 00 00 	movss  xmm1,DWORD PTR [rdx*4+0x0]
    4982:	00 00 
    4984:	0f 28 d1             	movaps xmm2,xmm1
    4987:	f3 0f 59 d1          	mulss  xmm2,xmm1
    498b:	f3 0f 58 d0          	addss  xmm2,xmm0
    498f:	f3 0f 59 c0          	mulss  xmm0,xmm0
    4993:	f3 0f 58 c2          	addss  xmm0,xmm2
    4997:	f3 0f 58 c1          	addss  xmm0,xmm1
    499b:	f3 0f 11 04 95 00 00 	movss  DWORD PTR [rdx*4+0x0],xmm0
    49a2:	00 00 
    49a4:	48 8d 71 01          	lea    rsi,[rcx+0x1]
    49a8:	48 89 f7             	mov    rdi,rsi
    49ab:	48 09 c7             	or     rdi,rax
    49ae:	48 89 7c cc 08       	mov    QWORD PTR [rsp+rcx*8+0x8],rdi
    49b3:	48 8d 3c bd 00 00 00 	lea    rdi,[rdi*4+0x0]
    49ba:	00 
    49bb:	48 89 7c cc 40       	mov    QWORD PTR [rsp+rcx*8+0x40],rdi
    49c0:	f3 0f 58 07          	addss  xmm0,DWORD PTR [rdi]
    49c4:	f3 0f 11 04 95 00 00 	movss  DWORD PTR [rdx*4+0x0],xmm0
    49cb:	00 00 
    49cd:	48 89 f1             	mov    rcx,rsi
    49d0:	48 83 fe 07          	cmp    rsi,0x7
    49d4:	75 96                	jne    496c <s1244+0x24>
    49d6:	48 8b 4c 24 38       	mov    rcx,QWORD PTR [rsp+0x38]
    49db:	48 81 f9 ff 7c 00 00 	cmp    rcx,0x7cff
    49e2:	74 4d                	je     4a31 <s1244+0xe9>
    49e4:	48 8b 54 24 70       	mov    rdx,QWORD PTR [rsp+0x70]
    49e9:	f3 0f 10 04 8d 00 00 	movss  xmm0,DWORD PTR [rcx*4+0x0]
    49f0:	00 00 
    49f2:	f3 0f 10 0c 8d 00 00 	movss  xmm1,DWORD PTR [rcx*4+0x0]
    49f9:	00 00 
    49fb:	0f 28 d1             	movaps xmm2,xmm1
    49fe:	f3 0f 59 d1          	mulss  xmm2,xmm1
    4a02:	f3 0f 58 d0          	addss  xmm2,xmm0
    4a06:	f3 0f 59 c0          	mulss  xmm0,xmm0
    4a0a:	f3 0f 58 c2          	addss  xmm0,xmm2
    4a0e:	f3 0f 58 c1          	addss  xmm0,xmm1
    4a12:	f3 0f 11 02          	movss  DWORD PTR [rdx],xmm0
    4a16:	f3 0f 58 04 85 00 00 	addss  xmm0,DWORD PTR [rax*4+0x0]
    4a1d:	00 00 
    4a1f:	48 83 c0 08          	add    rax,0x8
    4a23:	f3 0f 11 04 8d 00 00 	movss  DWORD PTR [rcx*4+0x0],xmm0
    4a2a:	00 00 
    4a2c:	e9 39 ff ff ff       	jmp    496a <s1244+0x22>
    4a31:	bf 00 00 00 00       	mov    edi,0x0
    4a36:	be 00 00 00 00       	mov    esi,0x0
    4a3b:	ba 00 00 00 00       	mov    edx,0x0
    4a40:	b9 00 00 00 00       	mov    ecx,0x0
    4a45:	41 b8 00 00 00 00    	mov    r8d,0x0
    4a4b:	41 b9 00 00 00 00    	mov    r9d,0x0
    4a51:	0f 57 c0             	xorps  xmm0,xmm0
    4a54:	68 00 00 00 00       	push   0x0
    4a59:	68 00 00 00 00       	push   0x0
    4a5e:	e8 00 00 00 00       	call   4a63 <s1244+0x11b>
    4a63:	48 83 c4 10          	add    rsp,0x10
    4a67:	ff c3                	inc    ebx
    4a69:	81 fb a0 86 01 00    	cmp    ebx,0x186a0
    4a6f:	0f 85 f3 fe ff ff    	jne    4968 <s1244+0x20>
    4a75:	49 83 c6 10          	add    r14,0x10
    4a79:	4c 89 f7             	mov    rdi,r14
    4a7c:	31 f6                	xor    esi,esi
    4a7e:	e8 00 00 00 00       	call   4a83 <s1244+0x13b>
    4a83:	bf 00 00 00 00       	mov    edi,0x0
    4a88:	48 83 c4 78          	add    rsp,0x78
    4a8c:	5b                   	pop    rbx
    4a8d:	41 5e                	pop    r14
    4a8f:	e9 00 00 00 00       	jmp    4a94 <s2244>

0000000000004a94 <s2244>:
    4a94:	41 56                	push   r14
    4a96:	53                   	push   rbx
    4a97:	50                   	push   rax
    4a98:	49 89 fe             	mov    r14,rdi
    4a9b:	bf 00 00 00 00       	mov    edi,0x0
    4aa0:	e8 00 00 00 00       	call   4aa5 <s2244+0x11>
    4aa5:	31 db                	xor    ebx,ebx
    4aa7:	4c 89 f7             	mov    rdi,r14
    4aaa:	31 f6                	xor    esi,esi
    4aac:	e8 00 00 00 00       	call   4ab1 <s2244+0x1d>
    4ab1:	48 c7 c0 20 0c fe ff 	mov    rax,0xfffffffffffe0c20
    4ab8:	f3 0f 10 80 00 00 00 	movss  xmm0,DWORD PTR [rax+0x0]
    4abf:	00 
    4ac0:	f3 0f 58 80 00 00 00 	addss  xmm0,DWORD PTR [rax+0x0]
    4ac7:	00 
    4ac8:	f3 0f 11 80 00 00 00 	movss  DWORD PTR [rax+0x0],xmm0
    4acf:	00 
    4ad0:	f3 0f 10 80 00 00 00 	movss  xmm0,DWORD PTR [rax+0x0]
    4ad7:	00 
    4ad8:	f3 0f 58 80 00 00 00 	addss  xmm0,DWORD PTR [rax+0x0]
    4adf:	00 
    4ae0:	f3 0f 11 80 00 00 00 	movss  DWORD PTR [rax+0x0],xmm0
    4ae7:	00 
    4ae8:	f3 0f 10 80 00 00 00 	movss  xmm0,DWORD PTR [rax+0x0]
    4aef:	00 
    4af0:	f3 0f 58 80 00 00 00 	addss  xmm0,DWORD PTR [rax+0x0]
    4af7:	00 
    4af8:	f3 0f 11 80 00 00 00 	movss  DWORD PTR [rax+0x0],xmm0
    4aff:	00 
    4b00:	f3 0f 10 80 00 00 00 	movss  xmm0,DWORD PTR [rax+0x0]
    4b07:	00 
    4b08:	f3 0f 58 80 00 00 00 	addss  xmm0,DWORD PTR [rax+0x0]
    4b0f:	00 
    4b10:	f3 0f 11 80 00 00 00 	movss  DWORD PTR [rax+0x0],xmm0
    4b17:	00 
    4b18:	f3 0f 10 80 00 00 00 	movss  xmm0,DWORD PTR [rax+0x0]
    4b1f:	00 
    4b20:	f3 0f 58 80 00 00 00 	addss  xmm0,DWORD PTR [rax+0x0]
    4b27:	00 
    4b28:	f3 0f 11 80 00 00 00 	movss  DWORD PTR [rax+0x0],xmm0
    4b2f:	00 
    4b30:	f3 0f 10 80 00 00 00 	movss  xmm0,DWORD PTR [rax+0x0]
    4b37:	00 
    4b38:	f3 0f 58 80 00 00 00 	addss  xmm0,DWORD PTR [rax+0x0]
    4b3f:	00 
    4b40:	f3 0f 11 80 00 00 00 	movss  DWORD PTR [rax+0x0],xmm0
    4b47:	00 
    4b48:	f3 0f 10 80 00 00 00 	movss  xmm0,DWORD PTR [rax+0x0]
    4b4f:	00 
    4b50:	f3 0f 10 88 00 00 00 	movss  xmm1,DWORD PTR [rax+0x0]
    4b57:	00 
    4b58:	f3 0f 58 c8          	addss  xmm1,xmm0
    4b5c:	f3 0f 11 88 00 00 00 	movss  DWORD PTR [rax+0x0],xmm1
    4b63:	00 
    4b64:	f3 0f 58 80 00 00 00 	addss  xmm0,DWORD PTR [rax+0x0]
    4b6b:	00 
    4b6c:	f3 0f 11 80 00 00 00 	movss  DWORD PTR [rax+0x0],xmm0
    4b73:	00 
    4b74:	48 85 c0             	test   rax,rax
    4b77:	74 35                	je     4bae <s2244+0x11a>
    4b79:	f3 0f 10 80 00 00 00 	movss  xmm0,DWORD PTR [rax+0x0]
    4b80:	00 
    4b81:	f3 0f 10 88 00 00 00 	movss  xmm1,DWORD PTR [rax+0x0]
    4b88:	00 
    4b89:	f3 0f 58 c8          	addss  xmm1,xmm0
    4b8d:	f3 0f 11 88 00 00 00 	movss  DWORD PTR [rax+0x0],xmm1
    4b94:	00 
    4b95:	f3 0f 58 80 00 00 00 	addss  xmm0,DWORD PTR [rax+0x0]
    4b9c:	00 
    4b9d:	f3 0f 11 80 00 00 00 	movss  DWORD PTR [rax+0x0],xmm0
    4ba4:	00 
    4ba5:	48 83 c0 20          	add    rax,0x20
    4ba9:	e9 0a ff ff ff       	jmp    4ab8 <s2244+0x24>
    4bae:	bf 00 00 00 00       	mov    edi,0x0
    4bb3:	be 00 00 00 00       	mov    esi,0x0
    4bb8:	ba 00 00 00 00       	mov    edx,0x0
    4bbd:	b9 00 00 00 00       	mov    ecx,0x0
    4bc2:	41 b8 00 00 00 00    	mov    r8d,0x0
    4bc8:	41 b9 00 00 00 00    	mov    r9d,0x0
    4bce:	0f 57 c0             	xorps  xmm0,xmm0
    4bd1:	68 00 00 00 00       	push   0x0
    4bd6:	68 00 00 00 00       	push   0x0
    4bdb:	e8 00 00 00 00       	call   4be0 <s2244+0x14c>
    4be0:	48 83 c4 10          	add    rsp,0x10
    4be4:	ff c3                	inc    ebx
    4be6:	81 fb a0 86 01 00    	cmp    ebx,0x186a0
    4bec:	0f 85 bf fe ff ff    	jne    4ab1 <s2244+0x1d>
    4bf2:	49 83 c6 10          	add    r14,0x10
    4bf6:	4c 89 f7             	mov    rdi,r14
    4bf9:	31 f6                	xor    esi,esi
    4bfb:	e8 00 00 00 00       	call   4c00 <s2244+0x16c>
    4c00:	bf 00 00 00 00       	mov    edi,0x0
    4c05:	48 83 c4 08          	add    rsp,0x8
    4c09:	5b                   	pop    rbx
    4c0a:	41 5e                	pop    r14
    4c0c:	e9 00 00 00 00       	jmp    4c11 <s251>

0000000000004c11 <s251>:
    4c11:	41 56                	push   r14
    4c13:	53                   	push   rbx
    4c14:	50                   	push   rax
    4c15:	49 89 fe             	mov    r14,rdi
    4c18:	bf 00 00 00 00       	mov    edi,0x0
    4c1d:	e8 00 00 00 00       	call   4c22 <s251+0x11>
    4c22:	31 db                	xor    ebx,ebx
    4c24:	4c 89 f7             	mov    rdi,r14
    4c27:	31 f6                	xor    esi,esi
    4c29:	e8 00 00 00 00       	call   4c2e <s251+0x1d>
    4c2e:	31 c0                	xor    eax,eax
    4c30:	31 c9                	xor    ecx,ecx
    4c32:	48 89 c2             	mov    rdx,rax
    4c35:	48 09 ca             	or     rdx,rcx
    4c38:	f3 0f 10 04 95 00 00 	movss  xmm0,DWORD PTR [rdx*4+0x0]
    4c3f:	00 00 
    4c41:	f3 0f 59 04 95 00 00 	mulss  xmm0,DWORD PTR [rdx*4+0x0]
    4c48:	00 00 
    4c4a:	f3 0f 58 04 95 00 00 	addss  xmm0,DWORD PTR [rdx*4+0x0]
    4c51:	00 00 
    4c53:	f3 0f 59 c0          	mulss  xmm0,xmm0
    4c57:	f3 0f 11 04 95 00 00 	movss  DWORD PTR [rdx*4+0x0],xmm0
    4c5e:	00 00 
    4c60:	48 ff c1             	inc    rcx
    4c63:	48 83 f9 08          	cmp    rcx,0x8
    4c67:	75 c9                	jne    4c32 <s251+0x21>
    4c69:	48 83 c0 08          	add    rax,0x8
    4c6d:	48 3d 00 7d 00 00    	cmp    rax,0x7d00
    4c73:	75 bb                	jne    4c30 <s251+0x1f>
    4c75:	bf 00 00 00 00       	mov    edi,0x0
    4c7a:	be 00 00 00 00       	mov    esi,0x0
    4c7f:	ba 00 00 00 00       	mov    edx,0x0
    4c84:	b9 00 00 00 00       	mov    ecx,0x0
    4c89:	41 b8 00 00 00 00    	mov    r8d,0x0
    4c8f:	41 b9 00 00 00 00    	mov    r9d,0x0
    4c95:	0f 57 c0             	xorps  xmm0,xmm0
    4c98:	68 00 00 00 00       	push   0x0
    4c9d:	68 00 00 00 00       	push   0x0
    4ca2:	e8 00 00 00 00       	call   4ca7 <s251+0x96>
    4ca7:	48 83 c4 10          	add    rsp,0x10
    4cab:	ff c3                	inc    ebx
    4cad:	81 fb 80 1a 06 00    	cmp    ebx,0x61a80
    4cb3:	0f 85 75 ff ff ff    	jne    4c2e <s251+0x1d>
    4cb9:	49 83 c6 10          	add    r14,0x10
    4cbd:	4c 89 f7             	mov    rdi,r14
    4cc0:	31 f6                	xor    esi,esi
    4cc2:	e8 00 00 00 00       	call   4cc7 <s251+0xb6>
    4cc7:	bf 00 00 00 00       	mov    edi,0x0
    4ccc:	48 83 c4 08          	add    rsp,0x8
    4cd0:	5b                   	pop    rbx
    4cd1:	41 5e                	pop    r14
    4cd3:	e9 00 00 00 00       	jmp    4cd8 <s1251>

0000000000004cd8 <s1251>:
    4cd8:	41 56                	push   r14
    4cda:	53                   	push   rbx
    4cdb:	50                   	push   rax
    4cdc:	49 89 fe             	mov    r14,rdi
    4cdf:	bf 00 00 00 00       	mov    edi,0x0
    4ce4:	e8 00 00 00 00       	call   4ce9 <s1251+0x11>
    4ce9:	31 db                	xor    ebx,ebx
    4ceb:	4c 89 f7             	mov    rdi,r14
    4cee:	31 f6                	xor    esi,esi
    4cf0:	e8 00 00 00 00       	call   4cf5 <s1251+0x1d>
    4cf5:	31 c0                	xor    eax,eax
    4cf7:	31 c9                	xor    ecx,ecx
    4cf9:	48 89 c2             	mov    rdx,rax
    4cfc:	48 09 ca             	or     rdx,rcx
    4cff:	f3 0f 10 04 95 00 00 	movss  xmm0,DWORD PTR [rdx*4+0x0]
    4d06:	00 00 
    4d08:	f3 0f 58 04 95 00 00 	addss  xmm0,DWORD PTR [rdx*4+0x0]
    4d0f:	00 00 
    4d11:	f3 0f 10 0c 95 00 00 	movss  xmm1,DWORD PTR [rdx*4+0x0]
    4d18:	00 00 
    4d1a:	f3 0f 58 0c 95 00 00 	addss  xmm1,DWORD PTR [rdx*4+0x0]
    4d21:	00 00 
    4d23:	f3 0f 59 04 95 00 00 	mulss  xmm0,DWORD PTR [rdx*4+0x0]
    4d2a:	00 00 
    4d2c:	f3 0f 11 0c 95 00 00 	movss  DWORD PTR [rdx*4+0x0],xmm1
    4d33:	00 00 
    4d35:	f3 0f 11 04 95 00 00 	movss  DWORD PTR [rdx*4+0x0],xmm0
    4d3c:	00 00 
    4d3e:	48 ff c1             	inc    rcx
    4d41:	48 83 f9 08          	cmp    rcx,0x8
    4d45:	75 b2                	jne    4cf9 <s1251+0x21>
    4d47:	48 83 c0 08          	add    rax,0x8
    4d4b:	48 3d 00 7d 00 00    	cmp    rax,0x7d00
    4d51:	75 a4                	jne    4cf7 <s1251+0x1f>
    4d53:	bf 00 00 00 00       	mov    edi,0x0
    4d58:	be 00 00 00 00       	mov    esi,0x0
    4d5d:	ba 00 00 00 00       	mov    edx,0x0
    4d62:	b9 00 00 00 00       	mov    ecx,0x0
    4d67:	41 b8 00 00 00 00    	mov    r8d,0x0
    4d6d:	41 b9 00 00 00 00    	mov    r9d,0x0
    4d73:	0f 57 c0             	xorps  xmm0,xmm0
    4d76:	68 00 00 00 00       	push   0x0
    4d7b:	68 00 00 00 00       	push   0x0
    4d80:	e8 00 00 00 00       	call   4d85 <s1251+0xad>
    4d85:	48 83 c4 10          	add    rsp,0x10
    4d89:	ff c3                	inc    ebx
    4d8b:	81 fb 80 1a 06 00    	cmp    ebx,0x61a80
    4d91:	0f 85 5e ff ff ff    	jne    4cf5 <s1251+0x1d>
    4d97:	49 83 c6 10          	add    r14,0x10
    4d9b:	4c 89 f7             	mov    rdi,r14
    4d9e:	31 f6                	xor    esi,esi
    4da0:	e8 00 00 00 00       	call   4da5 <s1251+0xcd>
    4da5:	bf 00 00 00 00       	mov    edi,0x0
    4daa:	48 83 c4 08          	add    rsp,0x8
    4dae:	5b                   	pop    rbx
    4daf:	41 5e                	pop    r14
    4db1:	e9 00 00 00 00       	jmp    4db6 <s2251>

0000000000004db6 <s2251>:
    4db6:	41 56                	push   r14
    4db8:	53                   	push   rbx
    4db9:	50                   	push   rax
    4dba:	49 89 fe             	mov    r14,rdi
    4dbd:	bf 00 00 00 00       	mov    edi,0x0
    4dc2:	e8 00 00 00 00       	call   4dc7 <s2251+0x11>
    4dc7:	31 db                	xor    ebx,ebx
    4dc9:	4c 89 f7             	mov    rdi,r14
    4dcc:	31 f6                	xor    esi,esi
    4dce:	e8 00 00 00 00       	call   4dd3 <s2251+0x1d>
    4dd3:	48 c7 c0 00 0c fe ff 	mov    rax,0xfffffffffffe0c00
    4dda:	0f 57 c0             	xorps  xmm0,xmm0
    4ddd:	f3 0f 59 80 00 00 00 	mulss  xmm0,DWORD PTR [rax+0x0]
    4de4:	00 
    4de5:	f3 0f 11 80 00 00 00 	movss  DWORD PTR [rax+0x0],xmm0
    4dec:	00 
    4ded:	f3 0f 10 88 00 00 00 	movss  xmm1,DWORD PTR [rax+0x0]
    4df4:	00 
    4df5:	f3 0f 58 88 00 00 00 	addss  xmm1,DWORD PTR [rax+0x0]
    4dfc:	00 
    4dfd:	f3 0f 58 80 00 00 00 	addss  xmm0,DWORD PTR [rax+0x0]
    4e04:	00 
    4e05:	f3 0f 11 80 00 00 00 	movss  DWORD PTR [rax+0x0],xmm0
    4e0c:	00 
    4e0d:	f3 0f 59 88 00 00 00 	mulss  xmm1,DWORD PTR [rax+0x0]
    4e14:	00 
    4e15:	f3 0f 11 88 00 00 00 	movss  DWORD PTR [rax+0x0],xmm1
    4e1c:	00 
    4e1d:	f3 0f 10 80 00 00 00 	movss  xmm0,DWORD PTR [rax+0x0]
    4e24:	00 
    4e25:	f3 0f 58 80 00 00 00 	addss  xmm0,DWORD PTR [rax+0x0]
    4e2c:	00 
    4e2d:	f3 0f 58 88 00 00 00 	addss  xmm1,DWORD PTR [rax+0x0]
    4e34:	00 
    4e35:	f3 0f 59 80 00 00 00 	mulss  xmm0,DWORD PTR [rax+0x0]
    4e3c:	00 
    4e3d:	f3 0f 11 88 00 00 00 	movss  DWORD PTR [rax+0x0],xmm1
    4e44:	00 
    4e45:	f3 0f 10 88 00 00 00 	movss  xmm1,DWORD PTR [rax+0x0]
    4e4c:	00 
    4e4d:	f3 0f 58 88 00 00 00 	addss  xmm1,DWORD PTR [rax+0x0]
    4e54:	00 
    4e55:	f3 0f 11 80 00 00 00 	movss  DWORD PTR [rax+0x0],xmm0
    4e5c:	00 
    4e5d:	f3 0f 58 80 00 00 00 	addss  xmm0,DWORD PTR [rax+0x0]
    4e64:	00 
    4e65:	f3 0f 11 80 00 00 00 	movss  DWORD PTR [rax+0x0],xmm0
    4e6c:	00 
    4e6d:	f3 0f 59 88 00 00 00 	mulss  xmm1,DWORD PTR [rax+0x0]
    4e74:	00 
    4e75:	f3 0f 11 88 00 00 00 	movss  DWORD PTR [rax+0x0],xmm1
    4e7c:	00 
    4e7d:	f3 0f 10 80 00 00 00 	movss  xmm0,DWORD PTR [rax+0x0]
    4e84:	00 
    4e85:	f3 0f 58 80 00 00 00 	addss  xmm0,DWORD PTR [rax+0x0]
    4e8c:	00 
    4e8d:	f3 0f 58 88 00 00 00 	addss  xmm1,DWORD PTR [rax+0x0]
    4e94:	00 
    4e95:	f3 0f 11 88 00 00 00 	movss  DWORD PTR [rax+0x0],xmm1
    4e9c:	00 
    4e9d:	f3 0f 59 80 00 00 00 	mulss  xmm0,DWORD PTR [rax+0x0]
    4ea4:	00 
    4ea5:	f3 0f 11 80 00 00 00 	movss  DWORD PTR [rax+0x0],xmm0
    4eac:	00 
    4ead:	f3 0f 10 88 00 00 00 	movss  xmm1,DWORD PTR [rax+0x0]
    4eb4:	00 
    4eb5:	f3 0f 58 88 00 00 00 	addss  xmm1,DWORD PTR [rax+0x0]
    4ebc:	00 
    4ebd:	f3 0f 58 80 00 00 00 	addss  xmm0,DWORD PTR [rax+0x0]
    4ec4:	00 
    4ec5:	f3 0f 59 88 00 00 00 	mulss  xmm1,DWORD PTR [rax+0x0]
    4ecc:	00 
    4ecd:	f3 0f 11 80 00 00 00 	movss  DWORD PTR [rax+0x0],xmm0
    4ed4:	00 
    4ed5:	f3 0f 10 80 00 00 00 	movss  xmm0,DWORD PTR [rax+0x0]
    4edc:	00 
    4edd:	f3 0f 58 80 00 00 00 	addss  xmm0,DWORD PTR [rax+0x0]
    4ee4:	00 
    4ee5:	f3 0f 11 88 00 00 00 	movss  DWORD PTR [rax+0x0],xmm1
    4eec:	00 
    4eed:	f3 0f 58 88 00 00 00 	addss  xmm1,DWORD PTR [rax+0x0]
    4ef4:	00 
    4ef5:	f3 0f 11 88 00 00 00 	movss  DWORD PTR [rax+0x0],xmm1
    4efc:	00 
    4efd:	f3 0f 59 80 00 00 00 	mulss  xmm0,DWORD PTR [rax+0x0]
    4f04:	00 
    4f05:	f3 0f 11 80 00 00 00 	movss  DWORD PTR [rax+0x0],xmm0
    4f0c:	00 
    4f0d:	f3 0f 10 88 00 00 00 	movss  xmm1,DWORD PTR [rax+0x0]
    4f14:	00 
    4f15:	f3 0f 58 88 00 00 00 	addss  xmm1,DWORD PTR [rax+0x0]
    4f1c:	00 
    4f1d:	f3 0f 58 80 00 00 00 	addss  xmm0,DWORD PTR [rax+0x0]
    4f24:	00 
    4f25:	f3 0f 11 80 00 00 00 	movss  DWORD PTR [rax+0x0],xmm0
    4f2c:	00 
    4f2d:	f3 0f 59 88 00 00 00 	mulss  xmm1,DWORD PTR [rax+0x0]
    4f34:	00 
    4f35:	f3 0f 11 88 00 00 00 	movss  DWORD PTR [rax+0x0],xmm1
    4f3c:	00 
    4f3d:	f3 0f 10 80 00 00 00 	movss  xmm0,DWORD PTR [rax+0x0]
    4f44:	00 
    4f45:	f3 0f 58 80 00 00 00 	addss  xmm0,DWORD PTR [rax+0x0]
    4f4c:	00 
    4f4d:	f3 0f 58 88 00 00 00 	addss  xmm1,DWORD PTR [rax+0x0]
    4f54:	00 
    4f55:	f3 0f 11 88 00 00 00 	movss  DWORD PTR [rax+0x0],xmm1
    4f5c:	00 
    4f5d:	48 83 c0 20          	add    rax,0x20
    4f61:	0f 85 76 fe ff ff    	jne    4ddd <s2251+0x27>
    4f67:	bf 00 00 00 00       	mov    edi,0x0
    4f6c:	be 00 00 00 00       	mov    esi,0x0
    4f71:	ba 00 00 00 00       	mov    edx,0x0
    4f76:	b9 00 00 00 00       	mov    ecx,0x0
    4f7b:	41 b8 00 00 00 00    	mov    r8d,0x0
    4f81:	41 b9 00 00 00 00    	mov    r9d,0x0
    4f87:	0f 57 c0             	xorps  xmm0,xmm0
    4f8a:	68 00 00 00 00       	push   0x0
    4f8f:	68 00 00 00 00       	push   0x0
    4f94:	e8 00 00 00 00       	call   4f99 <s2251+0x1e3>
    4f99:	48 83 c4 10          	add    rsp,0x10
    4f9d:	ff c3                	inc    ebx
    4f9f:	81 fb a0 86 01 00    	cmp    ebx,0x186a0
    4fa5:	0f 85 28 fe ff ff    	jne    4dd3 <s2251+0x1d>
    4fab:	49 83 c6 10          	add    r14,0x10
    4faf:	4c 89 f7             	mov    rdi,r14
    4fb2:	31 f6                	xor    esi,esi
    4fb4:	e8 00 00 00 00       	call   4fb9 <s2251+0x203>
    4fb9:	bf 00 00 00 00       	mov    edi,0x0
    4fbe:	48 83 c4 08          	add    rsp,0x8
    4fc2:	5b                   	pop    rbx
    4fc3:	41 5e                	pop    r14
    4fc5:	e9 00 00 00 00       	jmp    4fca <s3251>

0000000000004fca <s3251>:
    4fca:	41 56                	push   r14
    4fcc:	53                   	push   rbx
    4fcd:	48 83 ec 58          	sub    rsp,0x58
    4fd1:	49 89 fe             	mov    r14,rdi
    4fd4:	bf 00 00 00 00       	mov    edi,0x0
    4fd9:	e8 00 00 00 00       	call   4fde <s3251+0x14>
    4fde:	31 db                	xor    ebx,ebx
    4fe0:	4c 89 f7             	mov    rdi,r14
    4fe3:	31 f6                	xor    esi,esi
    4fe5:	e8 00 00 00 00       	call   4fea <s3251+0x20>
    4fea:	f3 0f 10 05 00 00 00 	movss  xmm0,DWORD PTR [rip+0x0]        # 4ff2 <s3251+0x28>
    4ff1:	00 
    4ff2:	31 c0                	xor    eax,eax
    4ff4:	31 c9                	xor    ecx,ecx
    4ff6:	48 89 c2             	mov    rdx,rax
    4ff9:	48 09 ca             	or     rdx,rcx
    4ffc:	f3 0f 10 0c 95 00 00 	movss  xmm1,DWORD PTR [rdx*4+0x0]
    5003:	00 00 
    5005:	f3 0f 10 14 95 00 00 	movss  xmm2,DWORD PTR [rdx*4+0x0]
    500c:	00 00 
    500e:	f3 0f 58 d1          	addss  xmm2,xmm1
    5012:	f3 0f 11 54 8c 04    	movss  DWORD PTR [rsp+rcx*4+0x4],xmm2
    5018:	48 8d 71 01          	lea    rsi,[rcx+0x1]
    501c:	48 89 f7             	mov    rdi,rsi
    501f:	48 09 c7             	or     rdi,rax
    5022:	48 89 7c cc 20       	mov    QWORD PTR [rsp+rcx*8+0x20],rdi
    5027:	f3 0f 11 14 bd 00 00 	movss  DWORD PTR [rdi*4+0x0],xmm2
    502e:	00 00 
    5030:	f3 0f 10 1c 95 00 00 	movss  xmm3,DWORD PTR [rdx*4+0x0]
    5037:	00 00 
    5039:	f3 0f 59 cb          	mulss  xmm1,xmm3
    503d:	f3 0f 11 0c 95 00 00 	movss  DWORD PTR [rdx*4+0x0],xmm1
    5044:	00 00 
    5046:	f3 0f 59 c3          	mulss  xmm0,xmm3
    504a:	f3 0f 11 04 95 00 00 	movss  DWORD PTR [rdx*4+0x0],xmm0
    5051:	00 00 
    5053:	48 89 f1             	mov    rcx,rsi
    5056:	0f 28 c2             	movaps xmm0,xmm2
    5059:	48 83 fe 07          	cmp    rsi,0x7
    505d:	75 97                	jne    4ff6 <s3251+0x2c>
    505f:	48 8b 4c 24 50       	mov    rcx,QWORD PTR [rsp+0x50]
    5064:	48 81 f9 ff 7c 00 00 	cmp    rcx,0x7cff
    506b:	74 4d                	je     50ba <s3251+0xf0>
    506d:	f3 0f 10 0c 8d 00 00 	movss  xmm1,DWORD PTR [rcx*4+0x0]
    5074:	00 00 
    5076:	f3 0f 10 04 8d 00 00 	movss  xmm0,DWORD PTR [rcx*4+0x0]
    507d:	00 00 
    507f:	f3 0f 58 c1          	addss  xmm0,xmm1
    5083:	f3 0f 11 04 85 00 00 	movss  DWORD PTR [rax*4+0x0],xmm0
    508a:	00 00 
    508c:	48 83 c0 08          	add    rax,0x8
    5090:	f3 0f 10 14 8d 00 00 	movss  xmm2,DWORD PTR [rcx*4+0x0]
    5097:	00 00 
    5099:	f3 0f 59 ca          	mulss  xmm1,xmm2
    509d:	f3 0f 11 0c 8d 00 00 	movss  DWORD PTR [rcx*4+0x0],xmm1
    50a4:	00 00 
    50a6:	f3 0f 59 54 24 1c    	mulss  xmm2,DWORD PTR [rsp+0x1c]
    50ac:	f3 0f 11 14 8d 00 00 	movss  DWORD PTR [rcx*4+0x0],xmm2
    50b3:	00 00 
    50b5:	e9 3a ff ff ff       	jmp    4ff4 <s3251+0x2a>
    50ba:	bf 00 00 00 00       	mov    edi,0x0
    50bf:	be 00 00 00 00       	mov    esi,0x0
    50c4:	ba 00 00 00 00       	mov    edx,0x0
    50c9:	b9 00 00 00 00       	mov    ecx,0x0
    50ce:	41 b8 00 00 00 00    	mov    r8d,0x0
    50d4:	41 b9 00 00 00 00    	mov    r9d,0x0
    50da:	0f 57 c0             	xorps  xmm0,xmm0
    50dd:	68 00 00 00 00       	push   0x0
    50e2:	68 00 00 00 00       	push   0x0
    50e7:	e8 00 00 00 00       	call   50ec <s3251+0x122>
    50ec:	48 83 c4 10          	add    rsp,0x10
    50f0:	ff c3                	inc    ebx
    50f2:	81 fb a0 86 01 00    	cmp    ebx,0x186a0
    50f8:	0f 85 ec fe ff ff    	jne    4fea <s3251+0x20>
    50fe:	49 83 c6 10          	add    r14,0x10
    5102:	4c 89 f7             	mov    rdi,r14
    5105:	31 f6                	xor    esi,esi
    5107:	e8 00 00 00 00       	call   510c <s3251+0x142>
    510c:	bf 00 00 00 00       	mov    edi,0x0
    5111:	48 83 c4 58          	add    rsp,0x58
    5115:	5b                   	pop    rbx
    5116:	41 5e                	pop    r14
    5118:	e9 00 00 00 00       	jmp    511d <s252>

000000000000511d <s252>:
    511d:	41 56                	push   r14
    511f:	53                   	push   rbx
    5120:	50                   	push   rax
    5121:	49 89 fe             	mov    r14,rdi
    5124:	bf 00 00 00 00       	mov    edi,0x0
    5129:	e8 00 00 00 00       	call   512e <s252+0x11>
    512e:	31 db                	xor    ebx,ebx
    5130:	4c 89 f7             	mov    rdi,r14
    5133:	31 f6                	xor    esi,esi
    5135:	e8 00 00 00 00       	call   513a <s252+0x1d>
    513a:	48 c7 c0 00 0c fe ff 	mov    rax,0xfffffffffffe0c00
    5141:	0f 57 c0             	xorps  xmm0,xmm0
    5144:	f3 0f 10 88 00 00 00 	movss  xmm1,DWORD PTR [rax+0x0]
    514b:	00 
    514c:	f3 0f 59 88 00 00 00 	mulss  xmm1,DWORD PTR [rax+0x0]
    5153:	00 
    5154:	f3 0f 58 c1          	addss  xmm0,xmm1
    5158:	f3 0f 11 80 00 00 00 	movss  DWORD PTR [rax+0x0],xmm0
    515f:	00 
    5160:	f3 0f 10 80 00 00 00 	movss  xmm0,DWORD PTR [rax+0x0]
    5167:	00 
    5168:	f3 0f 59 80 00 00 00 	mulss  xmm0,DWORD PTR [rax+0x0]
    516f:	00 
    5170:	f3 0f 58 c8          	addss  xmm1,xmm0
    5174:	f3 0f 11 88 00 00 00 	movss  DWORD PTR [rax+0x0],xmm1
    517b:	00 
    517c:	f3 0f 10 88 00 00 00 	movss  xmm1,DWORD PTR [rax+0x0]
    5183:	00 
    5184:	f3 0f 59 88 00 00 00 	mulss  xmm1,DWORD PTR [rax+0x0]
    518b:	00 
    518c:	f3 0f 58 c1          	addss  xmm0,xmm1
    5190:	f3 0f 10 90 00 00 00 	movss  xmm2,DWORD PTR [rax+0x0]
    5197:	00 
    5198:	f3 0f 59 90 00 00 00 	mulss  xmm2,DWORD PTR [rax+0x0]
    519f:	00 
    51a0:	f3 0f 11 80 00 00 00 	movss  DWORD PTR [rax+0x0],xmm0
    51a7:	00 
    51a8:	f3 0f 58 ca          	addss  xmm1,xmm2
    51ac:	f3 0f 11 88 00 00 00 	movss  DWORD PTR [rax+0x0],xmm1
    51b3:	00 
    51b4:	f3 0f 10 80 00 00 00 	movss  xmm0,DWORD PTR [rax+0x0]
    51bb:	00 
    51bc:	f3 0f 59 80 00 00 00 	mulss  xmm0,DWORD PTR [rax+0x0]
    51c3:	00 
    51c4:	f3 0f 58 d0          	addss  xmm2,xmm0
    51c8:	f3 0f 11 90 00 00 00 	movss  DWORD PTR [rax+0x0],xmm2
    51cf:	00 
    51d0:	f3 0f 10 88 00 00 00 	movss  xmm1,DWORD PTR [rax+0x0]
    51d7:	00 
    51d8:	f3 0f 59 88 00 00 00 	mulss  xmm1,DWORD PTR [rax+0x0]
    51df:	00 
    51e0:	f3 0f 58 c1          	addss  xmm0,xmm1
    51e4:	f3 0f 11 80 00 00 00 	movss  DWORD PTR [rax+0x0],xmm0
    51eb:	00 
    51ec:	f3 0f 10 90 00 00 00 	movss  xmm2,DWORD PTR [rax+0x0]
    51f3:	00 
    51f4:	f3 0f 59 90 00 00 00 	mulss  xmm2,DWORD PTR [rax+0x0]
    51fb:	00 
    51fc:	f3 0f 58 ca          	addss  xmm1,xmm2
    5200:	f3 0f 10 80 00 00 00 	movss  xmm0,DWORD PTR [rax+0x0]
    5207:	00 
    5208:	f3 0f 59 80 00 00 00 	mulss  xmm0,DWORD PTR [rax+0x0]
    520f:	00 
    5210:	f3 0f 11 88 00 00 00 	movss  DWORD PTR [rax+0x0],xmm1
    5217:	00 
    5218:	f3 0f 58 d0          	addss  xmm2,xmm0
    521c:	f3 0f 11 90 00 00 00 	movss  DWORD PTR [rax+0x0],xmm2
    5223:	00 
    5224:	48 83 c0 20          	add    rax,0x20
    5228:	0f 85 16 ff ff ff    	jne    5144 <s252+0x27>
    522e:	bf 00 00 00 00       	mov    edi,0x0
    5233:	be 00 00 00 00       	mov    esi,0x0
    5238:	ba 00 00 00 00       	mov    edx,0x0
    523d:	b9 00 00 00 00       	mov    ecx,0x0
    5242:	41 b8 00 00 00 00    	mov    r8d,0x0
    5248:	41 b9 00 00 00 00    	mov    r9d,0x0
    524e:	0f 57 c0             	xorps  xmm0,xmm0
    5251:	68 00 00 00 00       	push   0x0
    5256:	68 00 00 00 00       	push   0x0
    525b:	e8 00 00 00 00       	call   5260 <s252+0x143>
    5260:	48 83 c4 10          	add    rsp,0x10
    5264:	ff c3                	inc    ebx
    5266:	81 fb a0 86 01 00    	cmp    ebx,0x186a0
    526c:	0f 85 c8 fe ff ff    	jne    513a <s252+0x1d>
    5272:	49 83 c6 10          	add    r14,0x10
    5276:	4c 89 f7             	mov    rdi,r14
    5279:	31 f6                	xor    esi,esi
    527b:	e8 00 00 00 00       	call   5280 <s252+0x163>
    5280:	bf 00 00 00 00       	mov    edi,0x0
    5285:	48 83 c4 08          	add    rsp,0x8
    5289:	5b                   	pop    rbx
    528a:	41 5e                	pop    r14
    528c:	e9 00 00 00 00       	jmp    5291 <s253>

0000000000005291 <s253>:
    5291:	41 56                	push   r14
    5293:	53                   	push   rbx
    5294:	50                   	push   rax
    5295:	49 89 fe             	mov    r14,rdi
    5298:	bf 00 00 00 00       	mov    edi,0x0
    529d:	e8 00 00 00 00       	call   52a2 <s253+0x11>
    52a2:	31 db                	xor    ebx,ebx
    52a4:	4c 89 f7             	mov    rdi,r14
    52a7:	31 f6                	xor    esi,esi
    52a9:	e8 00 00 00 00       	call   52ae <s253+0x1d>
    52ae:	48 c7 c0 00 0c fe ff 	mov    rax,0xfffffffffffe0c00
    52b5:	f3 0f 10 80 00 00 00 	movss  xmm0,DWORD PTR [rax+0x0]
    52bc:	00 
    52bd:	f3 0f 10 88 00 00 00 	movss  xmm1,DWORD PTR [rax+0x0]
    52c4:	00 
    52c5:	0f 2e c1             	ucomiss xmm0,xmm1
    52c8:	76 28                	jbe    52f2 <s253+0x61>
    52ca:	f3 0f 59 88 00 00 00 	mulss  xmm1,DWORD PTR [rax+0x0]
    52d1:	00 
    52d2:	f3 0f 5c c1          	subss  xmm0,xmm1
    52d6:	f3 0f 10 88 00 00 00 	movss  xmm1,DWORD PTR [rax+0x0]
    52dd:	00 
    52de:	f3 0f 58 c8          	addss  xmm1,xmm0
    52e2:	f3 0f 11 88 00 00 00 	movss  DWORD PTR [rax+0x0],xmm1
    52e9:	00 
    52ea:	f3 0f 11 80 00 00 00 	movss  DWORD PTR [rax+0x0],xmm0
    52f1:	00 
    52f2:	f3 0f 10 80 00 00 00 	movss  xmm0,DWORD PTR [rax+0x0]
    52f9:	00 
    52fa:	f3 0f 10 88 00 00 00 	movss  xmm1,DWORD PTR [rax+0x0]
    5301:	00 
    5302:	0f 2e c1             	ucomiss xmm0,xmm1
    5305:	76 28                	jbe    532f <s253+0x9e>
    5307:	f3 0f 59 88 00 00 00 	mulss  xmm1,DWORD PTR [rax+0x0]
    530e:	00 
    530f:	f3 0f 5c c1          	subss  xmm0,xmm1
    5313:	f3 0f 10 88 00 00 00 	movss  xmm1,DWORD PTR [rax+0x0]
    531a:	00 
    531b:	f3 0f 58 c8          	addss  xmm1,xmm0
    531f:	f3 0f 11 88 00 00 00 	movss  DWORD PTR [rax+0x0],xmm1
    5326:	00 
    5327:	f3 0f 11 80 00 00 00 	movss  DWORD PTR [rax+0x0],xmm0
    532e:	00 
    532f:	f3 0f 10 80 00 00 00 	movss  xmm0,DWORD PTR [rax+0x0]
    5336:	00 
    5337:	f3 0f 10 88 00 00 00 	movss  xmm1,DWORD PTR [rax+0x0]
    533e:	00 
    533f:	0f 2e c1             	ucomiss xmm0,xmm1
    5342:	76 28                	jbe    536c <s253+0xdb>
    5344:	f3 0f 59 88 00 00 00 	mulss  xmm1,DWORD PTR [rax+0x0]
    534b:	00 
    534c:	f3 0f 5c c1          	subss  xmm0,xmm1
    5350:	f3 0f 10 88 00 00 00 	movss  xmm1,DWORD PTR [rax+0x0]
    5357:	00 
    5358:	f3 0f 58 c8          	addss  xmm1,xmm0
    535c:	f3 0f 11 88 00 00 00 	movss  DWORD PTR [rax+0x0],xmm1
    5363:	00 
    5364:	f3 0f 11 80 00 00 00 	movss  DWORD PTR [rax+0x0],xmm0
    536b:	00 
    536c:	f3 0f 10 80 00 00 00 	movss  xmm0,DWORD PTR [rax+0x0]
    5373:	00 
    5374:	f3 0f 10 88 00 00 00 	movss  xmm1,DWORD PTR [rax+0x0]
    537b:	00 
    537c:	0f 2e c1             	ucomiss xmm0,xmm1
    537f:	76 28                	jbe    53a9 <s253+0x118>
    5381:	f3 0f 59 88 00 00 00 	mulss  xmm1,DWORD PTR [rax+0x0]
    5388:	00 
    5389:	f3 0f 5c c1          	subss  xmm0,xmm1
    538d:	f3 0f 10 88 00 00 00 	movss  xmm1,DWORD PTR [rax+0x0]
    5394:	00 
    5395:	f3 0f 58 c8          	addss  xmm1,xmm0
    5399:	f3 0f 11 88 00 00 00 	movss  DWORD PTR [rax+0x0],xmm1
    53a0:	00 
    53a1:	f3 0f 11 80 00 00 00 	movss  DWORD PTR [rax+0x0],xmm0
    53a8:	00 
    53a9:	f3 0f 10 80 00 00 00 	movss  xmm0,DWORD PTR [rax+0x0]
    53b0:	00 
    53b1:	f3 0f 10 88 00 00 00 	movss  xmm1,DWORD PTR [rax+0x0]
    53b8:	00 
    53b9:	0f 2e c1             	ucomiss xmm0,xmm1
    53bc:	76 28                	jbe    53e6 <s253+0x155>
    53be:	f3 0f 59 88 00 00 00 	mulss  xmm1,DWORD PTR [rax+0x0]
    53c5:	00 
    53c6:	f3 0f 5c c1          	subss  xmm0,xmm1
    53ca:	f3 0f 10 88 00 00 00 	movss  xmm1,DWORD PTR [rax+0x0]
    53d1:	00 
    53d2:	f3 0f 58 c8          	addss  xmm1,xmm0
    53d6:	f3 0f 11 88 00 00 00 	movss  DWORD PTR [rax+0x0],xmm1
    53dd:	00 
    53de:	f3 0f 11 80 00 00 00 	movss  DWORD PTR [rax+0x0],xmm0
    53e5:	00 
    53e6:	f3 0f 10 80 00 00 00 	movss  xmm0,DWORD PTR [rax+0x0]
    53ed:	00 
    53ee:	f3 0f 10 88 00 00 00 	movss  xmm1,DWORD PTR [rax+0x0]
    53f5:	00 
    53f6:	0f 2e c1             	ucomiss xmm0,xmm1
    53f9:	76 28                	jbe    5423 <s253+0x192>
    53fb:	f3 0f 59 88 00 00 00 	mulss  xmm1,DWORD PTR [rax+0x0]
    5402:	00 
    5403:	f3 0f 5c c1          	subss  xmm0,xmm1
    5407:	f3 0f 10 88 00 00 00 	movss  xmm1,DWORD PTR [rax+0x0]
    540e:	00 
    540f:	f3 0f 58 c8          	addss  xmm1,xmm0
    5413:	f3 0f 11 88 00 00 00 	movss  DWORD PTR [rax+0x0],xmm1
    541a:	00 
    541b:	f3 0f 11 80 00 00 00 	movss  DWORD PTR [rax+0x0],xmm0
    5422:	00 
    5423:	f3 0f 10 80 00 00 00 	movss  xmm0,DWORD PTR [rax+0x0]
    542a:	00 
    542b:	f3 0f 10 88 00 00 00 	movss  xmm1,DWORD PTR [rax+0x0]
    5432:	00 
    5433:	0f 2e c1             	ucomiss xmm0,xmm1
    5436:	76 28                	jbe    5460 <s253+0x1cf>
    5438:	f3 0f 59 88 00 00 00 	mulss  xmm1,DWORD PTR [rax+0x0]
    543f:	00 
    5440:	f3 0f 5c c1          	subss  xmm0,xmm1
    5444:	f3 0f 10 88 00 00 00 	movss  xmm1,DWORD PTR [rax+0x0]
    544b:	00 
    544c:	f3 0f 58 c8          	addss  xmm1,xmm0
    5450:	f3 0f 11 88 00 00 00 	movss  DWORD PTR [rax+0x0],xmm1
    5457:	00 
    5458:	f3 0f 11 80 00 00 00 	movss  DWORD PTR [rax+0x0],xmm0
    545f:	00 
    5460:	f3 0f 10 80 00 00 00 	movss  xmm0,DWORD PTR [rax+0x0]
    5467:	00 
    5468:	f3 0f 10 88 00 00 00 	movss  xmm1,DWORD PTR [rax+0x0]
    546f:	00 
    5470:	0f 2e c1             	ucomiss xmm0,xmm1
    5473:	76 28                	jbe    549d <s253+0x20c>
    5475:	f3 0f 59 88 00 00 00 	mulss  xmm1,DWORD PTR [rax+0x0]
    547c:	00 
    547d:	f3 0f 5c c1          	subss  xmm0,xmm1
    5481:	f3 0f 10 88 00 00 00 	movss  xmm1,DWORD PTR [rax+0x0]
    5488:	00 
    5489:	f3 0f 58 c8          	addss  xmm1,xmm0
    548d:	f3 0f 11 88 00 00 00 	movss  DWORD PTR [rax+0x0],xmm1
    5494:	00 
    5495:	f3 0f 11 80 00 00 00 	movss  DWORD PTR [rax+0x0],xmm0
    549c:	00 
    549d:	48 83 c0 20          	add    rax,0x20
    54a1:	0f 85 0e fe ff ff    	jne    52b5 <s253+0x24>
    54a7:	bf 00 00 00 00       	mov    edi,0x0
    54ac:	be 00 00 00 00       	mov    esi,0x0
    54b1:	ba 00 00 00 00       	mov    edx,0x0
    54b6:	b9 00 00 00 00       	mov    ecx,0x0
    54bb:	41 b8 00 00 00 00    	mov    r8d,0x0
    54c1:	41 b9 00 00 00 00    	mov    r9d,0x0
    54c7:	0f 57 c0             	xorps  xmm0,xmm0
    54ca:	68 00 00 00 00       	push   0x0
    54cf:	68 00 00 00 00       	push   0x0
    54d4:	e8 00 00 00 00       	call   54d9 <s253+0x248>
    54d9:	48 83 c4 10          	add    rsp,0x10
    54dd:	ff c3                	inc    ebx
    54df:	81 fb a0 86 01 00    	cmp    ebx,0x186a0
    54e5:	0f 85 c3 fd ff ff    	jne    52ae <s253+0x1d>
    54eb:	49 83 c6 10          	add    r14,0x10
    54ef:	4c 89 f7             	mov    rdi,r14
    54f2:	31 f6                	xor    esi,esi
    54f4:	e8 00 00 00 00       	call   54f9 <s253+0x268>
    54f9:	bf 00 00 00 00       	mov    edi,0x0
    54fe:	48 83 c4 08          	add    rsp,0x8
    5502:	5b                   	pop    rbx
    5503:	41 5e                	pop    r14
    5505:	e9 00 00 00 00       	jmp    550a <s254>

000000000000550a <s254>:
    550a:	41 56                	push   r14
    550c:	53                   	push   rbx
    550d:	50                   	push   rax
    550e:	49 89 fe             	mov    r14,rdi
    5511:	bf 00 00 00 00       	mov    edi,0x0
    5516:	e8 00 00 00 00       	call   551b <s254+0x11>
    551b:	31 db                	xor    ebx,ebx
    551d:	4c 89 f7             	mov    rdi,r14
    5520:	31 f6                	xor    esi,esi
    5522:	e8 00 00 00 00       	call   5527 <s254+0x1d>
    5527:	f3 0f 10 15 00 00 00 	movss  xmm2,DWORD PTR [rip+0x0]        # 552f <s254+0x25>
    552e:	00 
    552f:	48 c7 c0 00 0c fe ff 	mov    rax,0xfffffffffffe0c00
    5536:	f3 0f 10 05 00 00 00 	movss  xmm0,DWORD PTR [rip+0x0]        # 553e <s254+0x34>
    553d:	00 
    553e:	f3 0f 10 88 00 00 00 	movss  xmm1,DWORD PTR [rax+0x0]
    5545:	00 
    5546:	f3 0f 58 c1          	addss  xmm0,xmm1
    554a:	f3 0f 59 c2          	mulss  xmm0,xmm2
    554e:	f3 0f 11 80 00 00 00 	movss  DWORD PTR [rax+0x0],xmm0
    5555:	00 
    5556:	f3 0f 10 80 00 00 00 	movss  xmm0,DWORD PTR [rax+0x0]
    555d:	00 
    555e:	f3 0f 58 c8          	addss  xmm1,xmm0
    5562:	f3 0f 59 ca          	mulss  xmm1,xmm2
    5566:	f3 0f 11 88 00 00 00 	movss  DWORD PTR [rax+0x0],xmm1
    556d:	00 
    556e:	f3 0f 10 88 00 00 00 	movss  xmm1,DWORD PTR [rax+0x0]
    5575:	00 
    5576:	f3 0f 58 c1          	addss  xmm0,xmm1
    557a:	f3 0f 59 c2          	mulss  xmm0,xmm2
    557e:	f3 0f 11 80 00 00 00 	movss  DWORD PTR [rax+0x0],xmm0
    5585:	00 
    5586:	f3 0f 10 80 00 00 00 	movss  xmm0,DWORD PTR [rax+0x0]
    558d:	00 
    558e:	f3 0f 58 c8          	addss  xmm1,xmm0
    5592:	f3 0f 59 ca          	mulss  xmm1,xmm2
    5596:	f3 0f 11 88 00 00 00 	movss  DWORD PTR [rax+0x0],xmm1
    559d:	00 
    559e:	f3 0f 10 88 00 00 00 	movss  xmm1,DWORD PTR [rax+0x0]
    55a5:	00 
    55a6:	f3 0f 58 c1          	addss  xmm0,xmm1
    55aa:	f3 0f 59 c2          	mulss  xmm0,xmm2
    55ae:	f3 0f 11 80 00 00 00 	movss  DWORD PTR [rax+0x0],xmm0
    55b5:	00 
    55b6:	f3 0f 10 80 00 00 00 	movss  xmm0,DWORD PTR [rax+0x0]
    55bd:	00 
    55be:	f3 0f 58 c8          	addss  xmm1,xmm0
    55c2:	f3 0f 59 ca          	mulss  xmm1,xmm2
    55c6:	f3 0f 11 88 00 00 00 	movss  DWORD PTR [rax+0x0],xmm1
    55cd:	00 
    55ce:	f3 0f 10 88 00 00 00 	movss  xmm1,DWORD PTR [rax+0x0]
    55d5:	00 
    55d6:	f3 0f 58 c1          	addss  xmm0,xmm1
    55da:	f3 0f 59 c2          	mulss  xmm0,xmm2
    55de:	f3 0f 11 80 00 00 00 	movss  DWORD PTR [rax+0x0],xmm0
    55e5:	00 
    55e6:	f3 0f 10 80 00 00 00 	movss  xmm0,DWORD PTR [rax+0x0]
    55ed:	00 
    55ee:	f3 0f 58 c8          	addss  xmm1,xmm0
    55f2:	f3 0f 59 ca          	mulss  xmm1,xmm2
    55f6:	f3 0f 11 88 00 00 00 	movss  DWORD PTR [rax+0x0],xmm1
    55fd:	00 
    55fe:	48 83 c0 20          	add    rax,0x20
    5602:	0f 85 36 ff ff ff    	jne    553e <s254+0x34>
    5608:	bf 00 00 00 00       	mov    edi,0x0
    560d:	be 00 00 00 00       	mov    esi,0x0
    5612:	ba 00 00 00 00       	mov    edx,0x0
    5617:	b9 00 00 00 00       	mov    ecx,0x0
    561c:	41 b8 00 00 00 00    	mov    r8d,0x0
    5622:	41 b9 00 00 00 00    	mov    r9d,0x0
    5628:	0f 57 c0             	xorps  xmm0,xmm0
    562b:	68 00 00 00 00       	push   0x0
    5630:	68 00 00 00 00       	push   0x0
    5635:	e8 00 00 00 00       	call   563a <s254+0x130>
    563a:	f3 0f 10 15 00 00 00 	movss  xmm2,DWORD PTR [rip+0x0]        # 5642 <s254+0x138>
    5641:	00 
    5642:	48 83 c4 10          	add    rsp,0x10
    5646:	ff c3                	inc    ebx
    5648:	81 fb 80 1a 06 00    	cmp    ebx,0x61a80
    564e:	0f 85 db fe ff ff    	jne    552f <s254+0x25>
    5654:	49 83 c6 10          	add    r14,0x10
    5658:	4c 89 f7             	mov    rdi,r14
    565b:	31 f6                	xor    esi,esi
    565d:	e8 00 00 00 00       	call   5662 <s254+0x158>
    5662:	bf 00 00 00 00       	mov    edi,0x0
    5667:	48 83 c4 08          	add    rsp,0x8
    566b:	5b                   	pop    rbx
    566c:	41 5e                	pop    r14
    566e:	e9 00 00 00 00       	jmp    5673 <s255>

0000000000005673 <s255>:
    5673:	41 56                	push   r14
    5675:	53                   	push   rbx
    5676:	50                   	push   rax
    5677:	49 89 fe             	mov    r14,rdi
    567a:	bf 00 00 00 00       	mov    edi,0x0
    567f:	e8 00 00 00 00       	call   5684 <s255+0x11>
    5684:	31 db                	xor    ebx,ebx
    5686:	4c 89 f7             	mov    rdi,r14
    5689:	31 f6                	xor    esi,esi
    568b:	e8 00 00 00 00       	call   5690 <s255+0x1d>
    5690:	f3 0f 10 2d 00 00 00 	movss  xmm5,DWORD PTR [rip+0x0]        # 5698 <s255+0x25>
    5697:	00 
    5698:	f3 0f 10 05 00 00 00 	movss  xmm0,DWORD PTR [rip+0x0]        # 56a0 <s255+0x2d>
    569f:	00 
    56a0:	48 c7 c0 00 0c fe ff 	mov    rax,0xfffffffffffe0c00
    56a7:	f3 0f 10 0d 00 00 00 	movss  xmm1,DWORD PTR [rip+0x0]        # 56af <s255+0x3c>
    56ae:	00 
    56af:	f3 0f 10 90 00 00 00 	movss  xmm2,DWORD PTR [rax+0x0]
    56b6:	00 
    56b7:	f3 0f 10 98 00 00 00 	movss  xmm3,DWORD PTR [rax+0x0]
    56be:	00 
    56bf:	0f 28 e2             	movaps xmm4,xmm2
    56c2:	f3 0f 58 e3          	addss  xmm4,xmm3
    56c6:	f3 0f 58 e1          	addss  xmm4,xmm1
    56ca:	f3 0f 58 ca          	addss  xmm1,xmm2
    56ce:	f3 0f 58 c8          	addss  xmm1,xmm0
    56d2:	f3 0f 59 cd          	mulss  xmm1,xmm5
    56d6:	f3 0f 11 88 00 00 00 	movss  DWORD PTR [rax+0x0],xmm1
    56dd:	00 
    56de:	f3 0f 59 e5          	mulss  xmm4,xmm5
    56e2:	f3 0f 11 a0 00 00 00 	movss  DWORD PTR [rax+0x0],xmm4
    56e9:	00 
    56ea:	f3 0f 10 80 00 00 00 	movss  xmm0,DWORD PTR [rax+0x0]
    56f1:	00 
    56f2:	f3 0f 10 88 00 00 00 	movss  xmm1,DWORD PTR [rax+0x0]
    56f9:	00 
    56fa:	0f 28 e0             	movaps xmm4,xmm0
    56fd:	f3 0f 58 e1          	addss  xmm4,xmm1
    5701:	f3 0f 58 e3          	addss  xmm4,xmm3
    5705:	f3 0f 58 d8          	addss  xmm3,xmm0
    5709:	f3 0f 58 da          	addss  xmm3,xmm2
    570d:	f3 0f 59 dd          	mulss  xmm3,xmm5
    5711:	f3 0f 11 98 00 00 00 	movss  DWORD PTR [rax+0x0],xmm3
    5718:	00 
    5719:	f3 0f 59 e5          	mulss  xmm4,xmm5
    571d:	f3 0f 11 a0 00 00 00 	movss  DWORD PTR [rax+0x0],xmm4
    5724:	00 
    5725:	f3 0f 10 90 00 00 00 	movss  xmm2,DWORD PTR [rax+0x0]
    572c:	00 
    572d:	f3 0f 10 98 00 00 00 	movss  xmm3,DWORD PTR [rax+0x0]
    5734:	00 
    5735:	0f 28 e2             	movaps xmm4,xmm2
    5738:	f3 0f 58 e3          	addss  xmm4,xmm3
    573c:	f3 0f 58 e1          	addss  xmm4,xmm1
    5740:	f3 0f 58 ca          	addss  xmm1,xmm2
    5744:	f3 0f 58 c8          	addss  xmm1,xmm0
    5748:	f3 0f 59 cd          	mulss  xmm1,xmm5
    574c:	f3 0f 11 88 00 00 00 	movss  DWORD PTR [rax+0x0],xmm1
    5753:	00 
    5754:	f3 0f 59 e5          	mulss  xmm4,xmm5
    5758:	f3 0f 11 a0 00 00 00 	movss  DWORD PTR [rax+0x0],xmm4
    575f:	00 
    5760:	f3 0f 10 80 00 00 00 	movss  xmm0,DWORD PTR [rax+0x0]
    5767:	00 
    5768:	f3 0f 10 88 00 00 00 	movss  xmm1,DWORD PTR [rax+0x0]
    576f:	00 
    5770:	0f 28 e0             	movaps xmm4,xmm0
    5773:	f3 0f 58 e1          	addss  xmm4,xmm1
    5777:	f3 0f 58 e3          	addss  xmm4,xmm3
    577b:	f3 0f 58 d8          	addss  xmm3,xmm0
    577f:	f3 0f 58 da          	addss  xmm3,xmm2
    5783:	f3 0f 59 dd          	mulss  xmm3,xmm5
    5787:	f3 0f 11 98 00 00 00 	movss  DWORD PTR [rax+0x0],xmm3
    578e:	00 
    578f:	f3 0f 59 e5          	mulss  xmm4,xmm5
    5793:	f3 0f 11 a0 00 00 00 	movss  DWORD PTR [rax+0x0],xmm4
    579a:	00 
    579b:	48 83 c0 20          	add    rax,0x20
    579f:	0f 85 0a ff ff ff    	jne    56af <s255+0x3c>
    57a5:	bf 00 00 00 00       	mov    edi,0x0
    57aa:	be 00 00 00 00       	mov    esi,0x0
    57af:	ba 00 00 00 00       	mov    edx,0x0
    57b4:	b9 00 00 00 00       	mov    ecx,0x0
    57b9:	41 b8 00 00 00 00    	mov    r8d,0x0
    57bf:	41 b9 00 00 00 00    	mov    r9d,0x0
    57c5:	0f 57 c0             	xorps  xmm0,xmm0
    57c8:	68 00 00 00 00       	push   0x0
    57cd:	68 00 00 00 00       	push   0x0
    57d2:	e8 00 00 00 00       	call   57d7 <s255+0x164>
    57d7:	f3 0f 10 2d 00 00 00 	movss  xmm5,DWORD PTR [rip+0x0]        # 57df <s255+0x16c>
    57de:	00 
    57df:	48 83 c4 10          	add    rsp,0x10
    57e3:	ff c3                	inc    ebx
    57e5:	81 fb a0 86 01 00    	cmp    ebx,0x186a0
    57eb:	0f 85 a7 fe ff ff    	jne    5698 <s255+0x25>
    57f1:	49 83 c6 10          	add    r14,0x10
    57f5:	4c 89 f7             	mov    rdi,r14
    57f8:	31 f6                	xor    esi,esi
    57fa:	e8 00 00 00 00       	call   57ff <s255+0x18c>
    57ff:	bf 00 00 00 00       	mov    edi,0x0
    5804:	48 83 c4 08          	add    rsp,0x8
    5808:	5b                   	pop    rbx
    5809:	41 5e                	pop    r14
    580b:	e9 00 00 00 00       	jmp    5810 <s256>

0000000000005810 <s256>:
    5810:	41 57                	push   r15
    5812:	41 56                	push   r14
    5814:	53                   	push   rbx
    5815:	48 83 ec 20          	sub    rsp,0x20
    5819:	49 89 fe             	mov    r14,rdi
    581c:	bf 00 00 00 00       	mov    edi,0x0
    5821:	e8 00 00 00 00       	call   5826 <s256+0x16>
    5826:	45 31 ff             	xor    r15d,r15d
    5829:	4c 89 f7             	mov    rdi,r14
    582c:	31 f6                	xor    esi,esi
    582e:	e8 00 00 00 00       	call   5833 <s256+0x23>
    5833:	f3 0f 10 15 00 00 00 	movss  xmm2,DWORD PTR [rip+0x0]        # 583b <s256+0x2b>
    583a:	00 
    583b:	45 31 c0             	xor    r8d,r8d
    583e:	31 c9                	xor    ecx,ecx
    5840:	ba 01 00 00 00       	mov    edx,0x1
    5845:	f3 0f 10 05 00 00 00 	movss  xmm0,DWORD PTR [rip+0x0]        # 584d <s256+0x3d>
    584c:	00 
    584d:	31 f6                	xor    esi,esi
    584f:	4c 89 c0             	mov    rax,r8
    5852:	48 89 c7             	mov    rdi,rax
    5855:	31 db                	xor    ebx,ebx
    5857:	0f 28 ca             	movaps xmm1,xmm2
    585a:	f3 0f 5c c8          	subss  xmm1,xmm0
    585e:	f3 0f 11 4c 1c 04    	movss  DWORD PTR [rsp+rbx*1+0x4],xmm1
    5864:	f3 0f 11 8c 1e 00 00 	movss  DWORD PTR [rsi+rbx*1+0x0],xmm1
    586b:	00 00 
    586d:	f3 0f 10 87 00 00 00 	movss  xmm0,DWORD PTR [rdi+0x0]
    5874:	00 
    5875:	f3 0f 59 84 1e 00 00 	mulss  xmm0,DWORD PTR [rsi+rbx*1+0x0]
    587c:	00 00 
    587e:	f3 0f 58 c1          	addss  xmm0,xmm1
    5882:	f3 0f 11 87 00 00 00 	movss  DWORD PTR [rdi+0x0],xmm0
    5889:	00 
    588a:	48 83 c3 04          	add    rbx,0x4
    588e:	48 81 c7 00 04 00 00 	add    rdi,0x400
    5895:	0f 28 c1             	movaps xmm0,xmm1
    5898:	48 83 fb 1c          	cmp    rbx,0x1c
    589c:	75 b9                	jne    5857 <s256+0x47>
    589e:	48 8d 7a 07          	lea    rdi,[rdx+0x7]
    58a2:	48 81 ff 00 01 00 00 	cmp    rdi,0x100
    58a9:	74 48                	je     58f3 <s256+0xe3>
    58ab:	0f 28 c2             	movaps xmm0,xmm2
    58ae:	f3 0f 5c 44 24 1c    	subss  xmm0,DWORD PTR [rsp+0x1c]
    58b4:	f3 0f 11 04 95 00 00 	movss  DWORD PTR [rdx*4+0x0],xmm0
    58bb:	00 00 
    58bd:	48 c1 e7 0a          	shl    rdi,0xa
    58c1:	f3 0f 10 8c 8f 00 00 	movss  xmm1,DWORD PTR [rdi+rcx*4+0x0]
    58c8:	00 00 
    58ca:	f3 0f 59 0c 95 00 00 	mulss  xmm1,DWORD PTR [rdx*4+0x0]
    58d1:	00 00 
    58d3:	f3 0f 58 c8          	addss  xmm1,xmm0
    58d7:	f3 0f 11 8c 8f 00 00 	movss  DWORD PTR [rdi+rcx*4+0x0],xmm1
    58de:	00 00 
    58e0:	48 83 c2 08          	add    rdx,0x8
    58e4:	48 05 00 20 00 00    	add    rax,0x2000
    58ea:	48 83 c6 20          	add    rsi,0x20
    58ee:	e9 5f ff ff ff       	jmp    5852 <s256+0x42>
    58f3:	48 ff c1             	inc    rcx
    58f6:	49 83 c0 04          	add    r8,0x4
    58fa:	48 81 f9 00 01 00 00 	cmp    rcx,0x100
    5901:	0f 85 39 ff ff ff    	jne    5840 <s256+0x30>
    5907:	bf 00 00 00 00       	mov    edi,0x0
    590c:	be 00 00 00 00       	mov    esi,0x0
    5911:	ba 00 00 00 00       	mov    edx,0x0
    5916:	b9 00 00 00 00       	mov    ecx,0x0
    591b:	41 b8 00 00 00 00    	mov    r8d,0x0
    5921:	41 b9 00 00 00 00    	mov    r9d,0x0
    5927:	0f 57 c0             	xorps  xmm0,xmm0
    592a:	68 00 00 00 00       	push   0x0
    592f:	68 00 00 00 00       	push   0x0
    5934:	e8 00 00 00 00       	call   5939 <s256+0x129>
    5939:	f3 0f 10 15 00 00 00 	movss  xmm2,DWORD PTR [rip+0x0]        # 5941 <s256+0x131>
    5940:	00 
    5941:	48 83 c4 10          	add    rsp,0x10
    5945:	41 ff c7             	inc    r15d
    5948:	41 81 ff 3c 0f 00 00 	cmp    r15d,0xf3c
    594f:	0f 85 e6 fe ff ff    	jne    583b <s256+0x2b>
    5955:	49 83 c6 10          	add    r14,0x10
    5959:	4c 89 f7             	mov    rdi,r14
    595c:	31 f6                	xor    esi,esi
    595e:	e8 00 00 00 00       	call   5963 <s256+0x153>
    5963:	bf 00 00 00 00       	mov    edi,0x0
    5968:	48 83 c4 20          	add    rsp,0x20
    596c:	5b                   	pop    rbx
    596d:	41 5e                	pop    r14
    596f:	41 5f                	pop    r15
    5971:	e9 00 00 00 00       	jmp    5976 <s257>

0000000000005976 <s257>:
    5976:	41 56                	push   r14
    5978:	53                   	push   rbx
    5979:	48 83 ec 28          	sub    rsp,0x28
    597d:	49 89 fe             	mov    r14,rdi
    5980:	bf 00 00 00 00       	mov    edi,0x0
    5985:	e8 00 00 00 00       	call   598a <s257+0x14>
    598a:	31 db                	xor    ebx,ebx
    598c:	4c 89 f7             	mov    rdi,r14
    598f:	31 f6                	xor    esi,esi
    5991:	e8 00 00 00 00       	call   5996 <s257+0x20>
    5996:	b8 01 00 00 00       	mov    eax,0x1
    599b:	f3 0f 10 05 00 00 00 	movss  xmm0,DWORD PTR [rip+0x0]        # 59a3 <s257+0x2d>
    59a2:	00 
    59a3:	31 c9                	xor    ecx,ecx
    59a5:	31 d2                	xor    edx,edx
    59a7:	48 89 ce             	mov    rsi,rcx
    59aa:	48 09 d6             	or     rsi,rdx
    59ad:	48 c1 e6 0a          	shl    rsi,0xa
    59b1:	f3 0f 10 8c 86 00 00 	movss  xmm1,DWORD PTR [rsi+rax*4+0x0]
    59b8:	00 00 
    59ba:	f3 0f 5c c8          	subss  xmm1,xmm0
    59be:	f3 0f 11 4c 94 08    	movss  DWORD PTR [rsp+rdx*4+0x8],xmm1
    59c4:	f3 0f 58 8c 86 00 00 	addss  xmm1,DWORD PTR [rsi+rax*4+0x0]
    59cb:	00 00 
    59cd:	f3 0f 11 8c 86 00 00 	movss  DWORD PTR [rsi+rax*4+0x0],xmm1
    59d4:	00 00 
    59d6:	48 ff c2             	inc    rdx
    59d9:	48 83 fa 08          	cmp    rdx,0x8
    59dd:	75 c8                	jne    59a7 <s257+0x31>
    59df:	48 83 c1 08          	add    rcx,0x8
    59e3:	48 81 f9 00 01 00 00 	cmp    rcx,0x100
    59ea:	75 b9                	jne    59a5 <s257+0x2f>
    59ec:	f3 0f 10 44 24 24    	movss  xmm0,DWORD PTR [rsp+0x24]
    59f2:	f3 0f 11 04 85 00 00 	movss  DWORD PTR [rax*4+0x0],xmm0
    59f9:	00 00 
    59fb:	48 ff c0             	inc    rax
    59fe:	48 3d 00 01 00 00    	cmp    rax,0x100
    5a04:	75 9d                	jne    59a3 <s257+0x2d>
    5a06:	bf 00 00 00 00       	mov    edi,0x0
    5a0b:	be 00 00 00 00       	mov    esi,0x0
    5a10:	ba 00 00 00 00       	mov    edx,0x0
    5a15:	b9 00 00 00 00       	mov    ecx,0x0
    5a1a:	41 b8 00 00 00 00    	mov    r8d,0x0
    5a20:	41 b9 00 00 00 00    	mov    r9d,0x0
    5a26:	0f 57 c0             	xorps  xmm0,xmm0
    5a29:	68 00 00 00 00       	push   0x0
    5a2e:	68 00 00 00 00       	push   0x0
    5a33:	e8 00 00 00 00       	call   5a38 <s257+0xc2>
    5a38:	48 83 c4 10          	add    rsp,0x10
    5a3c:	ff c3                	inc    ebx
    5a3e:	81 fb 3c 0f 00 00    	cmp    ebx,0xf3c
    5a44:	0f 85 4c ff ff ff    	jne    5996 <s257+0x20>
    5a4a:	49 83 c6 10          	add    r14,0x10
    5a4e:	4c 89 f7             	mov    rdi,r14
    5a51:	31 f6                	xor    esi,esi
    5a53:	e8 00 00 00 00       	call   5a58 <s257+0xe2>
    5a58:	bf 00 00 00 00       	mov    edi,0x0
    5a5d:	48 83 c4 28          	add    rsp,0x28
    5a61:	5b                   	pop    rbx
    5a62:	41 5e                	pop    r14
    5a64:	e9 00 00 00 00       	jmp    5a69 <s258>

0000000000005a69 <s258>:
    5a69:	41 56                	push   r14
    5a6b:	53                   	push   rbx
    5a6c:	50                   	push   rax
    5a6d:	49 89 fe             	mov    r14,rdi
    5a70:	bf 00 00 00 00       	mov    edi,0x0
    5a75:	e8 00 00 00 00       	call   5a7a <s258+0x11>
    5a7a:	31 db                	xor    ebx,ebx
    5a7c:	4c 89 f7             	mov    rdi,r14
    5a7f:	31 f6                	xor    esi,esi
    5a81:	e8 00 00 00 00       	call   5a86 <s258+0x1d>
    5a86:	0f 57 f6             	xorps  xmm6,xmm6
    5a89:	f3 0f 10 3d 00 00 00 	movss  xmm7,DWORD PTR [rip+0x0]        # 5a91 <s258+0x28>
    5a90:	00 
    5a91:	48 c7 c0 00 fc ff ff 	mov    rax,0xfffffffffffffc00
    5a98:	0f 57 d2             	xorps  xmm2,xmm2
    5a9b:	f3 0f 10 80 00 00 00 	movss  xmm0,DWORD PTR [rax+0x0]
    5aa2:	00 
    5aa3:	0f 28 d8             	movaps xmm3,xmm0
    5aa6:	f3 0f 59 d8          	mulss  xmm3,xmm0
    5aaa:	0f 57 c9             	xorps  xmm1,xmm1
    5aad:	f3 0f c2 88 00 00 00 	cmpltss xmm1,DWORD PTR [rax+0x0]
    5ab4:	00 01 
    5ab6:	0f 28 e1             	movaps xmm4,xmm1
    5ab9:	0f 55 e2             	andnps xmm4,xmm2
    5abc:	0f 54 cb             	andps  xmm1,xmm3
    5abf:	0f 56 cc             	orps   xmm1,xmm4
    5ac2:	f3 0f 10 90 00 00 00 	movss  xmm2,DWORD PTR [rax+0x0]
    5ac9:	00 
    5aca:	f3 0f 59 d1          	mulss  xmm2,xmm1
    5ace:	f3 0f 58 d0          	addss  xmm2,xmm0
    5ad2:	f3 0f 11 90 00 00 00 	movss  DWORD PTR [rax+0x0],xmm2
    5ad9:	00 
    5ada:	0f 28 c1             	movaps xmm0,xmm1
    5add:	f3 0f 58 c7          	addss  xmm0,xmm7
    5ae1:	f3 0f 10 90 00 00 00 	movss  xmm2,DWORD PTR [rax+0x0]
    5ae8:	00 
    5ae9:	f3 0f 59 d0          	mulss  xmm2,xmm0
    5aed:	f3 0f 11 90 00 00 00 	movss  DWORD PTR [rax+0x0],xmm2
    5af4:	00 
    5af5:	f3 0f 10 a8 00 00 00 	movss  xmm5,DWORD PTR [rax+0x0]
    5afc:	00 
    5afd:	0f 2e ee             	ucomiss xmm5,xmm6
    5b00:	f3 0f 10 98 00 00 00 	movss  xmm3,DWORD PTR [rax+0x0]
    5b07:	00 
    5b08:	0f 28 e3             	movaps xmm4,xmm3
    5b0b:	f3 0f 59 e3          	mulss  xmm4,xmm3
    5b0f:	76 07                	jbe    5b18 <s258+0xaf>
    5b11:	0f 28 c4             	movaps xmm0,xmm4
    5b14:	f3 0f 58 c7          	addss  xmm0,xmm7
    5b18:	0f 57 d2             	xorps  xmm2,xmm2
    5b1b:	f3 0f c2 d5 01       	cmpltss xmm2,xmm5
    5b20:	0f 28 ea             	movaps xmm5,xmm2
    5b23:	0f 55 e9             	andnps xmm5,xmm1
    5b26:	0f 54 d4             	andps  xmm2,xmm4
    5b29:	0f 56 d5             	orps   xmm2,xmm5
    5b2c:	f3 0f 10 88 00 00 00 	movss  xmm1,DWORD PTR [rax+0x0]
    5b33:	00 
    5b34:	f3 0f 59 ca          	mulss  xmm1,xmm2
    5b38:	f3 0f 58 d9          	addss  xmm3,xmm1
    5b3c:	f3 0f 11 98 00 00 00 	movss  DWORD PTR [rax+0x0],xmm3
    5b43:	00 
    5b44:	f3 0f 10 88 00 00 00 	movss  xmm1,DWORD PTR [rax+0x0]
    5b4b:	00 
    5b4c:	f3 0f 59 c8          	mulss  xmm1,xmm0
    5b50:	f3 0f 11 88 00 00 00 	movss  DWORD PTR [rax+0x0],xmm1
    5b57:	00 
    5b58:	f3 0f 10 a8 00 00 00 	movss  xmm5,DWORD PTR [rax+0x0]
    5b5f:	00 
    5b60:	0f 2e ee             	ucomiss xmm5,xmm6
    5b63:	f3 0f 10 98 00 00 00 	movss  xmm3,DWORD PTR [rax+0x0]
    5b6a:	00 
    5b6b:	0f 28 e3             	movaps xmm4,xmm3
    5b6e:	f3 0f 59 e3          	mulss  xmm4,xmm3
    5b72:	76 07                	jbe    5b7b <s258+0x112>
    5b74:	0f 28 c4             	movaps xmm0,xmm4
    5b77:	f3 0f 58 c7          	addss  xmm0,xmm7
    5b7b:	0f 57 c9             	xorps  xmm1,xmm1
    5b7e:	f3 0f c2 cd 01       	cmpltss xmm1,xmm5
    5b83:	0f 28 e9             	movaps xmm5,xmm1
    5b86:	0f 55 ea             	andnps xmm5,xmm2
    5b89:	0f 54 cc             	andps  xmm1,xmm4
    5b8c:	0f 56 cd             	orps   xmm1,xmm5
    5b8f:	f3 0f 10 90 00 00 00 	movss  xmm2,DWORD PTR [rax+0x0]
    5b96:	00 
    5b97:	f3 0f 59 d1          	mulss  xmm2,xmm1
    5b9b:	f3 0f 58 da          	addss  xmm3,xmm2
    5b9f:	f3 0f 11 98 00 00 00 	movss  DWORD PTR [rax+0x0],xmm3
    5ba6:	00 
    5ba7:	f3 0f 10 90 00 00 00 	movss  xmm2,DWORD PTR [rax+0x0]
    5bae:	00 
    5baf:	f3 0f 59 d0          	mulss  xmm2,xmm0
    5bb3:	f3 0f 11 90 00 00 00 	movss  DWORD PTR [rax+0x0],xmm2
    5bba:	00 
    5bbb:	f3 0f 10 a8 00 00 00 	movss  xmm5,DWORD PTR [rax+0x0]
    5bc2:	00 
    5bc3:	0f 2e ee             	ucomiss xmm5,xmm6
    5bc6:	f3 0f 10 98 00 00 00 	movss  xmm3,DWORD PTR [rax+0x0]
    5bcd:	00 
    5bce:	0f 28 e3             	movaps xmm4,xmm3
    5bd1:	f3 0f 59 e3          	mulss  xmm4,xmm3
    5bd5:	76 07                	jbe    5bde <s258+0x175>
    5bd7:	0f 28 c4             	movaps xmm0,xmm4
    5bda:	f3 0f 58 c7          	addss  xmm0,xmm7
    5bde:	0f 57 d2             	xorps  xmm2,xmm2
    5be1:	f3 0f c2 d5 01       	cmpltss xmm2,xmm5
    5be6:	0f 28 ea             	movaps xmm5,xmm2
    5be9:	0f 55 e9             	andnps xmm5,xmm1
    5bec:	0f 54 d4             	andps  xmm2,xmm4
    5bef:	0f 56 d5             	orps   xmm2,xmm5
    5bf2:	f3 0f 10 88 00 00 00 	movss  xmm1,DWORD PTR [rax+0x0]
    5bf9:	00 
    5bfa:	f3 0f 59 ca          	mulss  xmm1,xmm2
    5bfe:	f3 0f 58 d9          	addss  xmm3,xmm1
    5c02:	f3 0f 11 98 00 00 00 	movss  DWORD PTR [rax+0x0],xmm3
    5c09:	00 
    5c0a:	f3 0f 10 88 00 00 00 	movss  xmm1,DWORD PTR [rax+0x0]
    5c11:	00 
    5c12:	f3 0f 59 c8          	mulss  xmm1,xmm0
    5c16:	f3 0f 11 88 00 00 00 	movss  DWORD PTR [rax+0x0],xmm1
    5c1d:	00 
    5c1e:	f3 0f 10 a8 00 00 00 	movss  xmm5,DWORD PTR [rax+0x0]
    5c25:	00 
    5c26:	0f 2e ee             	ucomiss xmm5,xmm6
    5c29:	f3 0f 10 98 00 00 00 	movss  xmm3,DWORD PTR [rax+0x0]
    5c30:	00 
    5c31:	0f 28 e3             	movaps xmm4,xmm3
    5c34:	f3 0f 59 e3          	mulss  xmm4,xmm3
    5c38:	76 07                	jbe    5c41 <s258+0x1d8>
    5c3a:	0f 28 c4             	movaps xmm0,xmm4
    5c3d:	f3 0f 58 c7          	addss  xmm0,xmm7
    5c41:	0f 57 c9             	xorps  xmm1,xmm1
    5c44:	f3 0f c2 cd 01       	cmpltss xmm1,xmm5
    5c49:	0f 28 e9             	movaps xmm5,xmm1
    5c4c:	0f 55 ea             	andnps xmm5,xmm2
    5c4f:	0f 54 cc             	andps  xmm1,xmm4
    5c52:	0f 56 cd             	orps   xmm1,xmm5
    5c55:	f3 0f 10 90 00 00 00 	movss  xmm2,DWORD PTR [rax+0x0]
    5c5c:	00 
    5c5d:	f3 0f 59 d1          	mulss  xmm2,xmm1
    5c61:	f3 0f 58 da          	addss  xmm3,xmm2
    5c65:	f3 0f 11 98 00 00 00 	movss  DWORD PTR [rax+0x0],xmm3
    5c6c:	00 
    5c6d:	f3 0f 10 90 00 00 00 	movss  xmm2,DWORD PTR [rax+0x0]
    5c74:	00 
    5c75:	f3 0f 59 d0          	mulss  xmm2,xmm0
    5c79:	f3 0f 11 90 00 00 00 	movss  DWORD PTR [rax+0x0],xmm2
    5c80:	00 
    5c81:	f3 0f 10 a8 00 00 00 	movss  xmm5,DWORD PTR [rax+0x0]
    5c88:	00 
    5c89:	0f 2e ee             	ucomiss xmm5,xmm6
    5c8c:	f3 0f 10 98 00 00 00 	movss  xmm3,DWORD PTR [rax+0x0]
    5c93:	00 
    5c94:	0f 28 e3             	movaps xmm4,xmm3
    5c97:	f3 0f 59 e3          	mulss  xmm4,xmm3
    5c9b:	76 07                	jbe    5ca4 <s258+0x23b>
    5c9d:	0f 28 c4             	movaps xmm0,xmm4
    5ca0:	f3 0f 58 c7          	addss  xmm0,xmm7
    5ca4:	0f 57 d2             	xorps  xmm2,xmm2
    5ca7:	f3 0f c2 d5 01       	cmpltss xmm2,xmm5
    5cac:	0f 28 ea             	movaps xmm5,xmm2
    5caf:	0f 55 e9             	andnps xmm5,xmm1
    5cb2:	0f 54 d4             	andps  xmm2,xmm4
    5cb5:	0f 56 d5             	orps   xmm2,xmm5
    5cb8:	f3 0f 10 88 00 00 00 	movss  xmm1,DWORD PTR [rax+0x0]
    5cbf:	00 
    5cc0:	f3 0f 59 ca          	mulss  xmm1,xmm2
    5cc4:	f3 0f 58 d9          	addss  xmm3,xmm1
    5cc8:	f3 0f 11 98 00 00 00 	movss  DWORD PTR [rax+0x0],xmm3
    5ccf:	00 
    5cd0:	f3 0f 10 88 00 00 00 	movss  xmm1,DWORD PTR [rax+0x0]
    5cd7:	00 
    5cd8:	f3 0f 59 c8          	mulss  xmm1,xmm0
    5cdc:	f3 0f 11 88 00 00 00 	movss  DWORD PTR [rax+0x0],xmm1
    5ce3:	00 
    5ce4:	f3 0f 10 a8 00 00 00 	movss  xmm5,DWORD PTR [rax+0x0]
    5ceb:	00 
    5cec:	0f 2e ee             	ucomiss xmm5,xmm6
    5cef:	f3 0f 10 98 00 00 00 	movss  xmm3,DWORD PTR [rax+0x0]
    5cf6:	00 
    5cf7:	0f 28 e3             	movaps xmm4,xmm3
    5cfa:	f3 0f 59 e3          	mulss  xmm4,xmm3
    5cfe:	76 07                	jbe    5d07 <s258+0x29e>
    5d00:	0f 28 c4             	movaps xmm0,xmm4
    5d03:	f3 0f 58 c7          	addss  xmm0,xmm7
    5d07:	0f 57 c9             	xorps  xmm1,xmm1
    5d0a:	f3 0f c2 cd 01       	cmpltss xmm1,xmm5
    5d0f:	0f 28 e9             	movaps xmm5,xmm1
    5d12:	0f 55 ea             	andnps xmm5,xmm2
    5d15:	0f 54 cc             	andps  xmm1,xmm4
    5d18:	0f 56 cd             	orps   xmm1,xmm5
    5d1b:	f3 0f 10 90 00 00 00 	movss  xmm2,DWORD PTR [rax+0x0]
    5d22:	00 
    5d23:	f3 0f 59 d1          	mulss  xmm2,xmm1
    5d27:	f3 0f 58 da          	addss  xmm3,xmm2
    5d2b:	f3 0f 11 98 00 00 00 	movss  DWORD PTR [rax+0x0],xmm3
    5d32:	00 
    5d33:	f3 0f 10 90 00 00 00 	movss  xmm2,DWORD PTR [rax+0x0]
    5d3a:	00 
    5d3b:	f3 0f 59 d0          	mulss  xmm2,xmm0
    5d3f:	f3 0f 11 90 00 00 00 	movss  DWORD PTR [rax+0x0],xmm2
    5d46:	00 
    5d47:	f3 0f 10 a8 00 00 00 	movss  xmm5,DWORD PTR [rax+0x0]
    5d4e:	00 
    5d4f:	0f 2e ee             	ucomiss xmm5,xmm6
    5d52:	f3 0f 10 98 00 00 00 	movss  xmm3,DWORD PTR [rax+0x0]
    5d59:	00 
    5d5a:	0f 28 e3             	movaps xmm4,xmm3
    5d5d:	f3 0f 59 e3          	mulss  xmm4,xmm3
    5d61:	76 07                	jbe    5d6a <s258+0x301>
    5d63:	0f 28 c4             	movaps xmm0,xmm4
    5d66:	f3 0f 58 c7          	addss  xmm0,xmm7
    5d6a:	0f 57 d2             	xorps  xmm2,xmm2
    5d6d:	f3 0f c2 d5 01       	cmpltss xmm2,xmm5
    5d72:	0f 28 ea             	movaps xmm5,xmm2
    5d75:	0f 55 e9             	andnps xmm5,xmm1
    5d78:	0f 54 d4             	andps  xmm2,xmm4
    5d7b:	0f 56 d5             	orps   xmm2,xmm5
    5d7e:	0f 28 ca             	movaps xmm1,xmm2
    5d81:	f3 0f 59 88 00 00 00 	mulss  xmm1,DWORD PTR [rax+0x0]
    5d88:	00 
    5d89:	f3 0f 58 d9          	addss  xmm3,xmm1
    5d8d:	f3 0f 11 98 00 00 00 	movss  DWORD PTR [rax+0x0],xmm3
    5d94:	00 
    5d95:	f3 0f 59 80 00 00 00 	mulss  xmm0,DWORD PTR [rax+0x0]
    5d9c:	00 
    5d9d:	f3 0f 11 80 00 00 00 	movss  DWORD PTR [rax+0x0],xmm0
    5da4:	00 
    5da5:	48 83 c0 20          	add    rax,0x20
    5da9:	0f 85 ec fc ff ff    	jne    5a9b <s258+0x32>
    5daf:	bf 00 00 00 00       	mov    edi,0x0
    5db4:	be 00 00 00 00       	mov    esi,0x0
    5db9:	ba 00 00 00 00       	mov    edx,0x0
    5dbe:	b9 00 00 00 00       	mov    ecx,0x0
    5dc3:	41 b8 00 00 00 00    	mov    r8d,0x0
    5dc9:	41 b9 00 00 00 00    	mov    r9d,0x0
    5dcf:	0f 57 c0             	xorps  xmm0,xmm0
    5dd2:	68 00 00 00 00       	push   0x0
    5dd7:	68 00 00 00 00       	push   0x0
    5ddc:	e8 00 00 00 00       	call   5de1 <s258+0x378>
    5de1:	f3 0f 10 3d 00 00 00 	movss  xmm7,DWORD PTR [rip+0x0]        # 5de9 <s258+0x380>
    5de8:	00 
    5de9:	0f 57 f6             	xorps  xmm6,xmm6
    5dec:	48 83 c4 10          	add    rsp,0x10
    5df0:	ff c3                	inc    ebx
    5df2:	81 fb a0 86 01 00    	cmp    ebx,0x186a0
    5df8:	0f 85 93 fc ff ff    	jne    5a91 <s258+0x28>
    5dfe:	49 83 c6 10          	add    r14,0x10
    5e02:	4c 89 f7             	mov    rdi,r14
    5e05:	31 f6                	xor    esi,esi
    5e07:	e8 00 00 00 00       	call   5e0c <s258+0x3a3>
    5e0c:	bf 00 00 00 00       	mov    edi,0x0
    5e11:	48 83 c4 08          	add    rsp,0x8
    5e15:	5b                   	pop    rbx
    5e16:	41 5e                	pop    r14
    5e18:	e9 00 00 00 00       	jmp    5e1d <s261>

0000000000005e1d <s261>:
    5e1d:	41 56                	push   r14
    5e1f:	53                   	push   rbx
    5e20:	50                   	push   rax
    5e21:	49 89 fe             	mov    r14,rdi
    5e24:	bf 00 00 00 00       	mov    edi,0x0
    5e29:	e8 00 00 00 00       	call   5e2e <s261+0x11>
    5e2e:	31 db                	xor    ebx,ebx
    5e30:	4c 89 f7             	mov    rdi,r14
    5e33:	31 f6                	xor    esi,esi
    5e35:	e8 00 00 00 00       	call   5e3a <s261+0x1d>
    5e3a:	48 c7 c0 20 0c fe ff 	mov    rax,0xfffffffffffe0c20
    5e41:	f3 0f 10 05 00 00 00 	movss  xmm0,DWORD PTR [rip+0x0]        # 5e49 <s261+0x2c>
    5e48:	00 
    5e49:	f3 0f 10 88 00 00 00 	movss  xmm1,DWORD PTR [rax+0x0]
    5e50:	00 
    5e51:	f3 0f 58 88 00 00 00 	addss  xmm1,DWORD PTR [rax+0x0]
    5e58:	00 
    5e59:	f3 0f 58 c8          	addss  xmm1,xmm0
    5e5d:	f3 0f 11 88 00 00 00 	movss  DWORD PTR [rax+0x0],xmm1
    5e64:	00 
    5e65:	f3 0f 10 80 00 00 00 	movss  xmm0,DWORD PTR [rax+0x0]
    5e6c:	00 
    5e6d:	f3 0f 59 80 00 00 00 	mulss  xmm0,DWORD PTR [rax+0x0]
    5e74:	00 
    5e75:	f3 0f 11 80 00 00 00 	movss  DWORD PTR [rax+0x0],xmm0
    5e7c:	00 
    5e7d:	f3 0f 10 88 00 00 00 	movss  xmm1,DWORD PTR [rax+0x0]
    5e84:	00 
    5e85:	f3 0f 58 88 00 00 00 	addss  xmm1,DWORD PTR [rax+0x0]
    5e8c:	00 
    5e8d:	f3 0f 58 c8          	addss  xmm1,xmm0
    5e91:	f3 0f 10 80 00 00 00 	movss  xmm0,DWORD PTR [rax+0x0]
    5e98:	00 
    5e99:	f3 0f 59 80 00 00 00 	mulss  xmm0,DWORD PTR [rax+0x0]
    5ea0:	00 
    5ea1:	f3 0f 11 88 00 00 00 	movss  DWORD PTR [rax+0x0],xmm1
    5ea8:	00 
    5ea9:	f3 0f 10 88 00 00 00 	movss  xmm1,DWORD PTR [rax+0x0]
    5eb0:	00 
    5eb1:	f3 0f 58 88 00 00 00 	addss  xmm1,DWORD PTR [rax+0x0]
    5eb8:	00 
    5eb9:	f3 0f 11 80 00 00 00 	movss  DWORD PTR [rax+0x0],xmm0
    5ec0:	00 
    5ec1:	f3 0f 58 c8          	addss  xmm1,xmm0
    5ec5:	f3 0f 11 88 00 00 00 	movss  DWORD PTR [rax+0x0],xmm1
    5ecc:	00 
    5ecd:	f3 0f 10 80 00 00 00 	movss  xmm0,DWORD PTR [rax+0x0]
    5ed4:	00 
    5ed5:	f3 0f 59 80 00 00 00 	mulss  xmm0,DWORD PTR [rax+0x0]
    5edc:	00 
    5edd:	f3 0f 11 80 00 00 00 	movss  DWORD PTR [rax+0x0],xmm0
    5ee4:	00 
    5ee5:	f3 0f 10 88 00 00 00 	movss  xmm1,DWORD PTR [rax+0x0]
    5eec:	00 
    5eed:	f3 0f 58 88 00 00 00 	addss  xmm1,DWORD PTR [rax+0x0]
    5ef4:	00 
    5ef5:	f3 0f 58 c8          	addss  xmm1,xmm0
    5ef9:	f3 0f 11 88 00 00 00 	movss  DWORD PTR [rax+0x0],xmm1
    5f00:	00 
    5f01:	f3 0f 10 80 00 00 00 	movss  xmm0,DWORD PTR [rax+0x0]
    5f08:	00 
    5f09:	f3 0f 59 80 00 00 00 	mulss  xmm0,DWORD PTR [rax+0x0]
    5f10:	00 
    5f11:	f3 0f 11 80 00 00 00 	movss  DWORD PTR [rax+0x0],xmm0
    5f18:	00 
    5f19:	f3 0f 10 88 00 00 00 	movss  xmm1,DWORD PTR [rax+0x0]
    5f20:	00 
    5f21:	f3 0f 58 88 00 00 00 	addss  xmm1,DWORD PTR [rax+0x0]
    5f28:	00 
    5f29:	f3 0f 58 c8          	addss  xmm1,xmm0
    5f2d:	f3 0f 11 88 00 00 00 	movss  DWORD PTR [rax+0x0],xmm1
    5f34:	00 
    5f35:	f3 0f 10 80 00 00 00 	movss  xmm0,DWORD PTR [rax+0x0]
    5f3c:	00 
    5f3d:	f3 0f 59 80 00 00 00 	mulss  xmm0,DWORD PTR [rax+0x0]
    5f44:	00 
    5f45:	f3 0f 11 80 00 00 00 	movss  DWORD PTR [rax+0x0],xmm0
    5f4c:	00 
    5f4d:	f3 0f 10 88 00 00 00 	movss  xmm1,DWORD PTR [rax+0x0]
    5f54:	00 
    5f55:	f3 0f 58 88 00 00 00 	addss  xmm1,DWORD PTR [rax+0x0]
    5f5c:	00 
    5f5d:	f3 0f 58 c8          	addss  xmm1,xmm0
    5f61:	f3 0f 10 80 00 00 00 	movss  xmm0,DWORD PTR [rax+0x0]
    5f68:	00 
    5f69:	f3 0f 59 80 00 00 00 	mulss  xmm0,DWORD PTR [rax+0x0]
    5f70:	00 
    5f71:	f3 0f 11 88 00 00 00 	movss  DWORD PTR [rax+0x0],xmm1
    5f78:	00 
    5f79:	f3 0f 10 88 00 00 00 	movss  xmm1,DWORD PTR [rax+0x0]
    5f80:	00 
    5f81:	f3 0f 58 88 00 00 00 	addss  xmm1,DWORD PTR [rax+0x0]
    5f88:	00 
    5f89:	f3 0f 11 80 00 00 00 	movss  DWORD PTR [rax+0x0],xmm0
    5f90:	00 
    5f91:	f3 0f 58 c8          	addss  xmm1,xmm0
    5f95:	f3 0f 11 88 00 00 00 	movss  DWORD PTR [rax+0x0],xmm1
    5f9c:	00 
    5f9d:	f3 0f 10 80 00 00 00 	movss  xmm0,DWORD PTR [rax+0x0]
    5fa4:	00 
    5fa5:	f3 0f 59 80 00 00 00 	mulss  xmm0,DWORD PTR [rax+0x0]
    5fac:	00 
    5fad:	f3 0f 11 80 00 00 00 	movss  DWORD PTR [rax+0x0],xmm0
    5fb4:	00 
    5fb5:	48 85 c0             	test   rax,rax
    5fb8:	74 3d                	je     5ff7 <s261+0x1da>
    5fba:	f3 0f 10 88 00 00 00 	movss  xmm1,DWORD PTR [rax+0x0]
    5fc1:	00 
    5fc2:	f3 0f 58 88 00 00 00 	addss  xmm1,DWORD PTR [rax+0x0]
    5fc9:	00 
    5fca:	f3 0f 58 c1          	addss  xmm0,xmm1
    5fce:	f3 0f 11 80 00 00 00 	movss  DWORD PTR [rax+0x0],xmm0
    5fd5:	00 
    5fd6:	f3 0f 10 80 00 00 00 	movss  xmm0,DWORD PTR [rax+0x0]
    5fdd:	00 
    5fde:	f3 0f 59 80 00 00 00 	mulss  xmm0,DWORD PTR [rax+0x0]
    5fe5:	00 
    5fe6:	f3 0f 11 80 00 00 00 	movss  DWORD PTR [rax+0x0],xmm0
    5fed:	00 
    5fee:	48 83 c0 20          	add    rax,0x20
    5ff2:	e9 52 fe ff ff       	jmp    5e49 <s261+0x2c>
    5ff7:	bf 00 00 00 00       	mov    edi,0x0
    5ffc:	be 00 00 00 00       	mov    esi,0x0
    6001:	ba 00 00 00 00       	mov    edx,0x0
    6006:	b9 00 00 00 00       	mov    ecx,0x0
    600b:	41 b8 00 00 00 00    	mov    r8d,0x0
    6011:	41 b9 00 00 00 00    	mov    r9d,0x0
    6017:	0f 57 c0             	xorps  xmm0,xmm0
    601a:	68 00 00 00 00       	push   0x0
    601f:	68 00 00 00 00       	push   0x0
    6024:	e8 00 00 00 00       	call   6029 <s261+0x20c>
    6029:	48 83 c4 10          	add    rsp,0x10
    602d:	ff c3                	inc    ebx
    602f:	81 fb a0 86 01 00    	cmp    ebx,0x186a0
    6035:	0f 85 ff fd ff ff    	jne    5e3a <s261+0x1d>
    603b:	49 83 c6 10          	add    r14,0x10
    603f:	4c 89 f7             	mov    rdi,r14
    6042:	31 f6                	xor    esi,esi
    6044:	e8 00 00 00 00       	call   6049 <s261+0x22c>
    6049:	bf 00 00 00 00       	mov    edi,0x0
    604e:	48 83 c4 08          	add    rsp,0x8
    6052:	5b                   	pop    rbx
    6053:	41 5e                	pop    r14
    6055:	e9 00 00 00 00       	jmp    605a <s271>

000000000000605a <s271>:
    605a:	41 56                	push   r14
    605c:	53                   	push   rbx
    605d:	50                   	push   rax
    605e:	49 89 fe             	mov    r14,rdi
    6061:	bf 00 00 00 00       	mov    edi,0x0
    6066:	e8 00 00 00 00       	call   606b <s271+0x11>
    606b:	31 db                	xor    ebx,ebx
    606d:	4c 89 f7             	mov    rdi,r14
    6070:	31 f6                	xor    esi,esi
    6072:	e8 00 00 00 00       	call   6077 <s271+0x1d>
    6077:	0f 57 c9             	xorps  xmm1,xmm1
    607a:	48 c7 c0 00 0c fe ff 	mov    rax,0xfffffffffffe0c00
    6081:	f3 0f 10 80 00 00 00 	movss  xmm0,DWORD PTR [rax+0x0]
    6088:	00 
    6089:	0f 2e c1             	ucomiss xmm0,xmm1
    608c:	76 18                	jbe    60a6 <s271+0x4c>
    608e:	f3 0f 59 80 00 00 00 	mulss  xmm0,DWORD PTR [rax+0x0]
    6095:	00 
    6096:	f3 0f 58 80 00 00 00 	addss  xmm0,DWORD PTR [rax+0x0]
    609d:	00 
    609e:	f3 0f 11 80 00 00 00 	movss  DWORD PTR [rax+0x0],xmm0
    60a5:	00 
    60a6:	f3 0f 10 80 00 00 00 	movss  xmm0,DWORD PTR [rax+0x0]
    60ad:	00 
    60ae:	0f 2e c1             	ucomiss xmm0,xmm1
    60b1:	76 18                	jbe    60cb <s271+0x71>
    60b3:	f3 0f 59 80 00 00 00 	mulss  xmm0,DWORD PTR [rax+0x0]
    60ba:	00 
    60bb:	f3 0f 58 80 00 00 00 	addss  xmm0,DWORD PTR [rax+0x0]
    60c2:	00 
    60c3:	f3 0f 11 80 00 00 00 	movss  DWORD PTR [rax+0x0],xmm0
    60ca:	00 
    60cb:	f3 0f 10 80 00 00 00 	movss  xmm0,DWORD PTR [rax+0x0]
    60d2:	00 
    60d3:	0f 2e c1             	ucomiss xmm0,xmm1
    60d6:	76 18                	jbe    60f0 <s271+0x96>
    60d8:	f3 0f 59 80 00 00 00 	mulss  xmm0,DWORD PTR [rax+0x0]
    60df:	00 
    60e0:	f3 0f 58 80 00 00 00 	addss  xmm0,DWORD PTR [rax+0x0]
    60e7:	00 
    60e8:	f3 0f 11 80 00 00 00 	movss  DWORD PTR [rax+0x0],xmm0
    60ef:	00 
    60f0:	f3 0f 10 80 00 00 00 	movss  xmm0,DWORD PTR [rax+0x0]
    60f7:	00 
    60f8:	0f 2e c1             	ucomiss xmm0,xmm1
    60fb:	76 18                	jbe    6115 <s271+0xbb>
    60fd:	f3 0f 59 80 00 00 00 	mulss  xmm0,DWORD PTR [rax+0x0]
    6104:	00 
    6105:	f3 0f 58 80 00 00 00 	addss  xmm0,DWORD PTR [rax+0x0]
    610c:	00 
    610d:	f3 0f 11 80 00 00 00 	movss  DWORD PTR [rax+0x0],xmm0
    6114:	00 
    6115:	f3 0f 10 80 00 00 00 	movss  xmm0,DWORD PTR [rax+0x0]
    611c:	00 
    611d:	0f 2e c1             	ucomiss xmm0,xmm1
    6120:	76 18                	jbe    613a <s271+0xe0>
    6122:	f3 0f 59 80 00 00 00 	mulss  xmm0,DWORD PTR [rax+0x0]
    6129:	00 
    612a:	f3 0f 58 80 00 00 00 	addss  xmm0,DWORD PTR [rax+0x0]
    6131:	00 
    6132:	f3 0f 11 80 00 00 00 	movss  DWORD PTR [rax+0x0],xmm0
    6139:	00 
    613a:	f3 0f 10 80 00 00 00 	movss  xmm0,DWORD PTR [rax+0x0]
    6141:	00 
    6142:	0f 2e c1             	ucomiss xmm0,xmm1
    6145:	76 18                	jbe    615f <s271+0x105>
    6147:	f3 0f 59 80 00 00 00 	mulss  xmm0,DWORD PTR [rax+0x0]
    614e:	00 
    614f:	f3 0f 58 80 00 00 00 	addss  xmm0,DWORD PTR [rax+0x0]
    6156:	00 
    6157:	f3 0f 11 80 00 00 00 	movss  DWORD PTR [rax+0x0],xmm0
    615e:	00 
    615f:	f3 0f 10 80 00 00 00 	movss  xmm0,DWORD PTR [rax+0x0]
    6166:	00 
    6167:	0f 2e c1             	ucomiss xmm0,xmm1
    616a:	76 18                	jbe    6184 <s271+0x12a>
    616c:	f3 0f 59 80 00 00 00 	mulss  xmm0,DWORD PTR [rax+0x0]
    6173:	00 
    6174:	f3 0f 58 80 00 00 00 	addss  xmm0,DWORD PTR [rax+0x0]
    617b:	00 
    617c:	f3 0f 11 80 00 00 00 	movss  DWORD PTR [rax+0x0],xmm0
    6183:	00 
    6184:	f3 0f 10 80 00 00 00 	movss  xmm0,DWORD PTR [rax+0x0]
    618b:	00 
    618c:	0f 2e c1             	ucomiss xmm0,xmm1
    618f:	76 18                	jbe    61a9 <s271+0x14f>
    6191:	f3 0f 59 80 00 00 00 	mulss  xmm0,DWORD PTR [rax+0x0]
    6198:	00 
    6199:	f3 0f 58 80 00 00 00 	addss  xmm0,DWORD PTR [rax+0x0]
    61a0:	00 
    61a1:	f3 0f 11 80 00 00 00 	movss  DWORD PTR [rax+0x0],xmm0
    61a8:	00 
    61a9:	48 83 c0 20          	add    rax,0x20
    61ad:	0f 85 ce fe ff ff    	jne    6081 <s271+0x27>
    61b3:	bf 00 00 00 00       	mov    edi,0x0
    61b8:	be 00 00 00 00       	mov    esi,0x0
    61bd:	ba 00 00 00 00       	mov    edx,0x0
    61c2:	b9 00 00 00 00       	mov    ecx,0x0
    61c7:	41 b8 00 00 00 00    	mov    r8d,0x0
    61cd:	41 b9 00 00 00 00    	mov    r9d,0x0
    61d3:	0f 57 c0             	xorps  xmm0,xmm0
    61d6:	68 00 00 00 00       	push   0x0
    61db:	68 00 00 00 00       	push   0x0
    61e0:	e8 00 00 00 00       	call   61e5 <s271+0x18b>
    61e5:	0f 57 c9             	xorps  xmm1,xmm1
    61e8:	48 83 c4 10          	add    rsp,0x10
    61ec:	ff c3                	inc    ebx
    61ee:	81 fb 80 1a 06 00    	cmp    ebx,0x61a80
    61f4:	0f 85 80 fe ff ff    	jne    607a <s271+0x20>
    61fa:	49 83 c6 10          	add    r14,0x10
    61fe:	4c 89 f7             	mov    rdi,r14
    6201:	31 f6                	xor    esi,esi
    6203:	e8 00 00 00 00       	call   6208 <s271+0x1ae>
    6208:	bf 00 00 00 00       	mov    edi,0x0
    620d:	48 83 c4 08          	add    rsp,0x8
    6211:	5b                   	pop    rbx
    6212:	41 5e                	pop    r14
    6214:	e9 00 00 00 00       	jmp    6219 <s272>

0000000000006219 <s272>:
    6219:	41 56                	push   r14
    621b:	53                   	push   rbx
    621c:	50                   	push   rax
    621d:	49 89 fe             	mov    r14,rdi
    6220:	48 8b 47 20          	mov    rax,QWORD PTR [rdi+0x20]
    6224:	f3 0f 2a 00          	cvtsi2ss xmm0,DWORD PTR [rax]
    6228:	f3 0f 11 44 24 04    	movss  DWORD PTR [rsp+0x4],xmm0
    622e:	bf 00 00 00 00       	mov    edi,0x0
    6233:	e8 00 00 00 00       	call   6238 <s272+0x1f>
    6238:	31 db                	xor    ebx,ebx
    623a:	4c 89 f7             	mov    rdi,r14
    623d:	31 f6                	xor    esi,esi
    623f:	e8 00 00 00 00       	call   6244 <s272+0x2b>
    6244:	48 c7 c0 00 0c fe ff 	mov    rax,0xfffffffffffe0c00
    624b:	f3 0f 10 54 24 04    	movss  xmm2,DWORD PTR [rsp+0x4]
    6251:	f3 0f 10 80 00 00 00 	movss  xmm0,DWORD PTR [rax+0x0]
    6258:	00 
    6259:	0f 2e c2             	ucomiss xmm0,xmm2
    625c:	72 38                	jb     6296 <s272+0x7d>
    625e:	f3 0f 10 80 00 00 00 	movss  xmm0,DWORD PTR [rax+0x0]
    6265:	00 
    6266:	f3 0f 10 88 00 00 00 	movss  xmm1,DWORD PTR [rax+0x0]
    626d:	00 
    626e:	f3 0f 59 c8          	mulss  xmm1,xmm0
    6272:	f3 0f 58 88 00 00 00 	addss  xmm1,DWORD PTR [rax+0x0]
    6279:	00 
    627a:	f3 0f 11 88 00 00 00 	movss  DWORD PTR [rax+0x0],xmm1
    6281:	00 
    6282:	f3 0f 59 c0          	mulss  xmm0,xmm0
    6286:	f3 0f 58 80 00 00 00 	addss  xmm0,DWORD PTR [rax+0x0]
    628d:	00 
    628e:	f3 0f 11 80 00 00 00 	movss  DWORD PTR [rax+0x0],xmm0
    6295:	00 
    6296:	f3 0f 10 80 00 00 00 	movss  xmm0,DWORD PTR [rax+0x0]
    629d:	00 
    629e:	0f 2e c2             	ucomiss xmm0,xmm2
    62a1:	72 38                	jb     62db <s272+0xc2>
    62a3:	f3 0f 10 80 00 00 00 	movss  xmm0,DWORD PTR [rax+0x0]
    62aa:	00 
    62ab:	f3 0f 10 88 00 00 00 	movss  xmm1,DWORD PTR [rax+0x0]
    62b2:	00 
    62b3:	f3 0f 59 c8          	mulss  xmm1,xmm0
    62b7:	f3 0f 58 88 00 00 00 	addss  xmm1,DWORD PTR [rax+0x0]
    62be:	00 
    62bf:	f3 0f 11 88 00 00 00 	movss  DWORD PTR [rax+0x0],xmm1
    62c6:	00 
    62c7:	f3 0f 59 c0          	mulss  xmm0,xmm0
    62cb:	f3 0f 58 80 00 00 00 	addss  xmm0,DWORD PTR [rax+0x0]
    62d2:	00 
    62d3:	f3 0f 11 80 00 00 00 	movss  DWORD PTR [rax+0x0],xmm0
    62da:	00 
    62db:	f3 0f 10 80 00 00 00 	movss  xmm0,DWORD PTR [rax+0x0]
    62e2:	00 
    62e3:	0f 2e c2             	ucomiss xmm0,xmm2
    62e6:	72 38                	jb     6320 <s272+0x107>
    62e8:	f3 0f 10 80 00 00 00 	movss  xmm0,DWORD PTR [rax+0x0]
    62ef:	00 
    62f0:	f3 0f 10 88 00 00 00 	movss  xmm1,DWORD PTR [rax+0x0]
    62f7:	00 
    62f8:	f3 0f 59 c8          	mulss  xmm1,xmm0
    62fc:	f3 0f 58 88 00 00 00 	addss  xmm1,DWORD PTR [rax+0x0]
    6303:	00 
    6304:	f3 0f 11 88 00 00 00 	movss  DWORD PTR [rax+0x0],xmm1
    630b:	00 
    630c:	f3 0f 59 c0          	mulss  xmm0,xmm0
    6310:	f3 0f 58 80 00 00 00 	addss  xmm0,DWORD PTR [rax+0x0]
    6317:	00 
    6318:	f3 0f 11 80 00 00 00 	movss  DWORD PTR [rax+0x0],xmm0
    631f:	00 
    6320:	f3 0f 10 80 00 00 00 	movss  xmm0,DWORD PTR [rax+0x0]
    6327:	00 
    6328:	0f 2e c2             	ucomiss xmm0,xmm2
    632b:	72 38                	jb     6365 <s272+0x14c>
    632d:	f3 0f 10 80 00 00 00 	movss  xmm0,DWORD PTR [rax+0x0]
    6334:	00 
    6335:	f3 0f 10 88 00 00 00 	movss  xmm1,DWORD PTR [rax+0x0]
    633c:	00 
    633d:	f3 0f 59 c8          	mulss  xmm1,xmm0
    6341:	f3 0f 58 88 00 00 00 	addss  xmm1,DWORD PTR [rax+0x0]
    6348:	00 
    6349:	f3 0f 11 88 00 00 00 	movss  DWORD PTR [rax+0x0],xmm1
    6350:	00 
    6351:	f3 0f 59 c0          	mulss  xmm0,xmm0
    6355:	f3 0f 58 80 00 00 00 	addss  xmm0,DWORD PTR [rax+0x0]
    635c:	00 
    635d:	f3 0f 11 80 00 00 00 	movss  DWORD PTR [rax+0x0],xmm0
    6364:	00 
    6365:	f3 0f 10 80 00 00 00 	movss  xmm0,DWORD PTR [rax+0x0]
    636c:	00 
    636d:	0f 2e c2             	ucomiss xmm0,xmm2
    6370:	72 38                	jb     63aa <s272+0x191>
    6372:	f3 0f 10 80 00 00 00 	movss  xmm0,DWORD PTR [rax+0x0]
    6379:	00 
    637a:	f3 0f 10 88 00 00 00 	movss  xmm1,DWORD PTR [rax+0x0]
    6381:	00 
    6382:	f3 0f 59 c8          	mulss  xmm1,xmm0
    6386:	f3 0f 58 88 00 00 00 	addss  xmm1,DWORD PTR [rax+0x0]
    638d:	00 
    638e:	f3 0f 11 88 00 00 00 	movss  DWORD PTR [rax+0x0],xmm1
    6395:	00 
    6396:	f3 0f 59 c0          	mulss  xmm0,xmm0
    639a:	f3 0f 58 80 00 00 00 	addss  xmm0,DWORD PTR [rax+0x0]
    63a1:	00 
    63a2:	f3 0f 11 80 00 00 00 	movss  DWORD PTR [rax+0x0],xmm0
    63a9:	00 
    63aa:	f3 0f 10 80 00 00 00 	movss  xmm0,DWORD PTR [rax+0x0]
    63b1:	00 
    63b2:	0f 2e c2             	ucomiss xmm0,xmm2
    63b5:	72 38                	jb     63ef <s272+0x1d6>
    63b7:	f3 0f 10 80 00 00 00 	movss  xmm0,DWORD PTR [rax+0x0]
    63be:	00 
    63bf:	f3 0f 10 88 00 00 00 	movss  xmm1,DWORD PTR [rax+0x0]
    63c6:	00 
    63c7:	f3 0f 59 c8          	mulss  xmm1,xmm0
    63cb:	f3 0f 58 88 00 00 00 	addss  xmm1,DWORD PTR [rax+0x0]
    63d2:	00 
    63d3:	f3 0f 11 88 00 00 00 	movss  DWORD PTR [rax+0x0],xmm1
    63da:	00 
    63db:	f3 0f 59 c0          	mulss  xmm0,xmm0
    63df:	f3 0f 58 80 00 00 00 	addss  xmm0,DWORD PTR [rax+0x0]
    63e6:	00 
    63e7:	f3 0f 11 80 00 00 00 	movss  DWORD PTR [rax+0x0],xmm0
    63ee:	00 
    63ef:	f3 0f 10 80 00 00 00 	movss  xmm0,DWORD PTR [rax+0x0]
    63f6:	00 
    63f7:	0f 2e c2             	ucomiss xmm0,xmm2
    63fa:	72 38                	jb     6434 <s272+0x21b>
    63fc:	f3 0f 10 80 00 00 00 	movss  xmm0,DWORD PTR [rax+0x0]
    6403:	00 
    6404:	f3 0f 10 88 00 00 00 	movss  xmm1,DWORD PTR [rax+0x0]
    640b:	00 
    640c:	f3 0f 59 c8          	mulss  xmm1,xmm0
    6410:	f3 0f 58 88 00 00 00 	addss  xmm1,DWORD PTR [rax+0x0]
    6417:	00 
    6418:	f3 0f 11 88 00 00 00 	movss  DWORD PTR [rax+0x0],xmm1
    641f:	00 
    6420:	f3 0f 59 c0          	mulss  xmm0,xmm0
    6424:	f3 0f 58 80 00 00 00 	addss  xmm0,DWORD PTR [rax+0x0]
    642b:	00 
    642c:	f3 0f 11 80 00 00 00 	movss  DWORD PTR [rax+0x0],xmm0
    6433:	00 
    6434:	f3 0f 10 80 00 00 00 	movss  xmm0,DWORD PTR [rax+0x0]
    643b:	00 
    643c:	0f 2e c2             	ucomiss xmm0,xmm2
    643f:	72 38                	jb     6479 <s272+0x260>
    6441:	f3 0f 10 80 00 00 00 	movss  xmm0,DWORD PTR [rax+0x0]
    6448:	00 
    6449:	f3 0f 10 88 00 00 00 	movss  xmm1,DWORD PTR [rax+0x0]
    6450:	00 
    6451:	f3 0f 59 c8          	mulss  xmm1,xmm0
    6455:	f3 0f 58 88 00 00 00 	addss  xmm1,DWORD PTR [rax+0x0]
    645c:	00 
    645d:	f3 0f 11 88 00 00 00 	movss  DWORD PTR [rax+0x0],xmm1
    6464:	00 
    6465:	f3 0f 59 c0          	mulss  xmm0,xmm0
    6469:	f3 0f 58 80 00 00 00 	addss  xmm0,DWORD PTR [rax+0x0]
    6470:	00 
    6471:	f3 0f 11 80 00 00 00 	movss  DWORD PTR [rax+0x0],xmm0
    6478:	00 
    6479:	48 83 c0 20          	add    rax,0x20
    647d:	0f 85 ce fd ff ff    	jne    6251 <s272+0x38>
    6483:	bf 00 00 00 00       	mov    edi,0x0
    6488:	be 00 00 00 00       	mov    esi,0x0
    648d:	ba 00 00 00 00       	mov    edx,0x0
    6492:	b9 00 00 00 00       	mov    ecx,0x0
    6497:	41 b8 00 00 00 00    	mov    r8d,0x0
    649d:	41 b9 00 00 00 00    	mov    r9d,0x0
    64a3:	0f 57 c0             	xorps  xmm0,xmm0
    64a6:	68 00 00 00 00       	push   0x0
    64ab:	68 00 00 00 00       	push   0x0
    64b0:	e8 00 00 00 00       	call   64b5 <s272+0x29c>
    64b5:	48 83 c4 10          	add    rsp,0x10
    64b9:	ff c3                	inc    ebx
    64bb:	81 fb a0 86 01 00    	cmp    ebx,0x186a0
    64c1:	0f 85 7d fd ff ff    	jne    6244 <s272+0x2b>
    64c7:	49 83 c6 10          	add    r14,0x10
    64cb:	4c 89 f7             	mov    rdi,r14
    64ce:	31 f6                	xor    esi,esi
    64d0:	e8 00 00 00 00       	call   64d5 <s272+0x2bc>
    64d5:	bf 00 00 00 00       	mov    edi,0x0
    64da:	48 83 c4 08          	add    rsp,0x8
    64de:	5b                   	pop    rbx
    64df:	41 5e                	pop    r14
    64e1:	e9 00 00 00 00       	jmp    64e6 <s273>

00000000000064e6 <s273>:
    64e6:	41 56                	push   r14
    64e8:	53                   	push   rbx
    64e9:	50                   	push   rax
    64ea:	49 89 fe             	mov    r14,rdi
    64ed:	bf 00 00 00 00       	mov    edi,0x0
    64f2:	e8 00 00 00 00       	call   64f7 <s273+0x11>
    64f7:	31 db                	xor    ebx,ebx
    64f9:	4c 89 f7             	mov    rdi,r14
    64fc:	31 f6                	xor    esi,esi
    64fe:	e8 00 00 00 00       	call   6503 <s273+0x1d>
    6503:	0f 57 db             	xorps  xmm3,xmm3
    6506:	48 c7 c0 00 0c fe ff 	mov    rax,0xfffffffffffe0c00
    650d:	f3 0f 10 80 00 00 00 	movss  xmm0,DWORD PTR [rax+0x0]
    6514:	00 
    6515:	f3 0f 10 90 00 00 00 	movss  xmm2,DWORD PTR [rax+0x0]
    651c:	00 
    651d:	f3 0f 59 d0          	mulss  xmm2,xmm0
    6521:	f3 0f 10 88 00 00 00 	movss  xmm1,DWORD PTR [rax+0x0]
    6528:	00 
    6529:	f3 0f 58 ca          	addss  xmm1,xmm2
    652d:	f3 0f 11 88 00 00 00 	movss  DWORD PTR [rax+0x0],xmm1
    6534:	00 
    6535:	0f 2e d9             	ucomiss xmm3,xmm1
    6538:	76 10                	jbe    654a <s273+0x64>
    653a:	f3 0f 58 90 00 00 00 	addss  xmm2,DWORD PTR [rax+0x0]
    6541:	00 
    6542:	f3 0f 11 90 00 00 00 	movss  DWORD PTR [rax+0x0],xmm2
    6549:	00 
    654a:	f3 0f 59 c1          	mulss  xmm0,xmm1
    654e:	f3 0f 58 80 00 00 00 	addss  xmm0,DWORD PTR [rax+0x0]
    6555:	00 
    6556:	f3 0f 11 80 00 00 00 	movss  DWORD PTR [rax+0x0],xmm0
    655d:	00 
    655e:	f3 0f 10 80 00 00 00 	movss  xmm0,DWORD PTR [rax+0x0]
    6565:	00 
    6566:	f3 0f 10 90 00 00 00 	movss  xmm2,DWORD PTR [rax+0x0]
    656d:	00 
    656e:	f3 0f 59 d0          	mulss  xmm2,xmm0
    6572:	f3 0f 10 88 00 00 00 	movss  xmm1,DWORD PTR [rax+0x0]
    6579:	00 
    657a:	f3 0f 58 ca          	addss  xmm1,xmm2
    657e:	f3 0f 11 88 00 00 00 	movss  DWORD PTR [rax+0x0],xmm1
    6585:	00 
    6586:	0f 2e d9             	ucomiss xmm3,xmm1
    6589:	76 10                	jbe    659b <s273+0xb5>
    658b:	f3 0f 58 90 00 00 00 	addss  xmm2,DWORD PTR [rax+0x0]
    6592:	00 
    6593:	f3 0f 11 90 00 00 00 	movss  DWORD PTR [rax+0x0],xmm2
    659a:	00 
    659b:	f3 0f 59 c1          	mulss  xmm0,xmm1
    659f:	f3 0f 58 80 00 00 00 	addss  xmm0,DWORD PTR [rax+0x0]
    65a6:	00 
    65a7:	f3 0f 11 80 00 00 00 	movss  DWORD PTR [rax+0x0],xmm0
    65ae:	00 
    65af:	f3 0f 10 80 00 00 00 	movss  xmm0,DWORD PTR [rax+0x0]
    65b6:	00 
    65b7:	f3 0f 10 90 00 00 00 	movss  xmm2,DWORD PTR [rax+0x0]
    65be:	00 
    65bf:	f3 0f 59 d0          	mulss  xmm2,xmm0
    65c3:	f3 0f 10 88 00 00 00 	movss  xmm1,DWORD PTR [rax+0x0]
    65ca:	00 
    65cb:	f3 0f 58 ca          	addss  xmm1,xmm2
    65cf:	f3 0f 11 88 00 00 00 	movss  DWORD PTR [rax+0x0],xmm1
    65d6:	00 
    65d7:	0f 2e d9             	ucomiss xmm3,xmm1
    65da:	76 10                	jbe    65ec <s273+0x106>
    65dc:	f3 0f 58 90 00 00 00 	addss  xmm2,DWORD PTR [rax+0x0]
    65e3:	00 
    65e4:	f3 0f 11 90 00 00 00 	movss  DWORD PTR [rax+0x0],xmm2
    65eb:	00 
    65ec:	f3 0f 59 c1          	mulss  xmm0,xmm1
    65f0:	f3 0f 58 80 00 00 00 	addss  xmm0,DWORD PTR [rax+0x0]
    65f7:	00 
    65f8:	f3 0f 11 80 00 00 00 	movss  DWORD PTR [rax+0x0],xmm0
    65ff:	00 
    6600:	f3 0f 10 80 00 00 00 	movss  xmm0,DWORD PTR [rax+0x0]
    6607:	00 
    6608:	f3 0f 10 90 00 00 00 	movss  xmm2,DWORD PTR [rax+0x0]
    660f:	00 
    6610:	f3 0f 59 d0          	mulss  xmm2,xmm0
    6614:	f3 0f 10 88 00 00 00 	movss  xmm1,DWORD PTR [rax+0x0]
    661b:	00 
    661c:	f3 0f 58 ca          	addss  xmm1,xmm2
    6620:	f3 0f 11 88 00 00 00 	movss  DWORD PTR [rax+0x0],xmm1
    6627:	00 
    6628:	0f 2e d9             	ucomiss xmm3,xmm1
    662b:	76 10                	jbe    663d <s273+0x157>
    662d:	f3 0f 58 90 00 00 00 	addss  xmm2,DWORD PTR [rax+0x0]
    6634:	00 
    6635:	f3 0f 11 90 00 00 00 	movss  DWORD PTR [rax+0x0],xmm2
    663c:	00 
    663d:	f3 0f 59 c1          	mulss  xmm0,xmm1
    6641:	f3 0f 58 80 00 00 00 	addss  xmm0,DWORD PTR [rax+0x0]
    6648:	00 
    6649:	f3 0f 11 80 00 00 00 	movss  DWORD PTR [rax+0x0],xmm0
    6650:	00 
    6651:	f3 0f 10 80 00 00 00 	movss  xmm0,DWORD PTR [rax+0x0]
    6658:	00 
    6659:	f3 0f 10 90 00 00 00 	movss  xmm2,DWORD PTR [rax+0x0]
    6660:	00 
    6661:	f3 0f 59 d0          	mulss  xmm2,xmm0
    6665:	f3 0f 10 88 00 00 00 	movss  xmm1,DWORD PTR [rax+0x0]
    666c:	00 
    666d:	f3 0f 58 ca          	addss  xmm1,xmm2
    6671:	f3 0f 11 88 00 00 00 	movss  DWORD PTR [rax+0x0],xmm1
    6678:	00 
    6679:	0f 2e d9             	ucomiss xmm3,xmm1
    667c:	76 10                	jbe    668e <s273+0x1a8>
    667e:	f3 0f 58 90 00 00 00 	addss  xmm2,DWORD PTR [rax+0x0]
    6685:	00 
    6686:	f3 0f 11 90 00 00 00 	movss  DWORD PTR [rax+0x0],xmm2
    668d:	00 
    668e:	f3 0f 59 c1          	mulss  xmm0,xmm1
    6692:	f3 0f 58 80 00 00 00 	addss  xmm0,DWORD PTR [rax+0x0]
    6699:	00 
    669a:	f3 0f 11 80 00 00 00 	movss  DWORD PTR [rax+0x0],xmm0
    66a1:	00 
    66a2:	f3 0f 10 80 00 00 00 	movss  xmm0,DWORD PTR [rax+0x0]
    66a9:	00 
    66aa:	f3 0f 10 90 00 00 00 	movss  xmm2,DWORD PTR [rax+0x0]
    66b1:	00 
    66b2:	f3 0f 59 d0          	mulss  xmm2,xmm0
    66b6:	f3 0f 10 88 00 00 00 	movss  xmm1,DWORD PTR [rax+0x0]
    66bd:	00 
    66be:	f3 0f 58 ca          	addss  xmm1,xmm2
    66c2:	f3 0f 11 88 00 00 00 	movss  DWORD PTR [rax+0x0],xmm1
    66c9:	00 
    66ca:	0f 2e d9             	ucomiss xmm3,xmm1
    66cd:	76 10                	jbe    66df <s273+0x1f9>
    66cf:	f3 0f 58 90 00 00 00 	addss  xmm2,DWORD PTR [rax+0x0]
    66d6:	00 
    66d7:	f3 0f 11 90 00 00 00 	movss  DWORD PTR [rax+0x0],xmm2
    66de:	00 
    66df:	f3 0f 59 c1          	mulss  xmm0,xmm1
    66e3:	f3 0f 58 80 00 00 00 	addss  xmm0,DWORD PTR [rax+0x0]
    66ea:	00 
    66eb:	f3 0f 11 80 00 00 00 	movss  DWORD PTR [rax+0x0],xmm0
    66f2:	00 
    66f3:	f3 0f 10 80 00 00 00 	movss  xmm0,DWORD PTR [rax+0x0]
    66fa:	00 
    66fb:	f3 0f 10 90 00 00 00 	movss  xmm2,DWORD PTR [rax+0x0]
    6702:	00 
    6703:	f3 0f 59 d0          	mulss  xmm2,xmm0
    6707:	f3 0f 10 88 00 00 00 	movss  xmm1,DWORD PTR [rax+0x0]
    670e:	00 
    670f:	f3 0f 58 ca          	addss  xmm1,xmm2
    6713:	f3 0f 11 88 00 00 00 	movss  DWORD PTR [rax+0x0],xmm1
    671a:	00 
    671b:	0f 2e d9             	ucomiss xmm3,xmm1
    671e:	76 10                	jbe    6730 <s273+0x24a>
    6720:	f3 0f 58 90 00 00 00 	addss  xmm2,DWORD PTR [rax+0x0]
    6727:	00 
    6728:	f3 0f 11 90 00 00 00 	movss  DWORD PTR [rax+0x0],xmm2
    672f:	00 
    6730:	f3 0f 59 c1          	mulss  xmm0,xmm1
    6734:	f3 0f 58 80 00 00 00 	addss  xmm0,DWORD PTR [rax+0x0]
    673b:	00 
    673c:	f3 0f 11 80 00 00 00 	movss  DWORD PTR [rax+0x0],xmm0
    6743:	00 
    6744:	f3 0f 10 80 00 00 00 	movss  xmm0,DWORD PTR [rax+0x0]
    674b:	00 
    674c:	f3 0f 10 90 00 00 00 	movss  xmm2,DWORD PTR [rax+0x0]
    6753:	00 
    6754:	f3 0f 59 d0          	mulss  xmm2,xmm0
    6758:	f3 0f 10 88 00 00 00 	movss  xmm1,DWORD PTR [rax+0x0]
    675f:	00 
    6760:	f3 0f 58 ca          	addss  xmm1,xmm2
    6764:	f3 0f 11 88 00 00 00 	movss  DWORD PTR [rax+0x0],xmm1
    676b:	00 
    676c:	0f 2e d9             	ucomiss xmm3,xmm1
    676f:	76 10                	jbe    6781 <s273+0x29b>
    6771:	f3 0f 58 90 00 00 00 	addss  xmm2,DWORD PTR [rax+0x0]
    6778:	00 
    6779:	f3 0f 11 90 00 00 00 	movss  DWORD PTR [rax+0x0],xmm2
    6780:	00 
    6781:	f3 0f 59 c1          	mulss  xmm0,xmm1
    6785:	f3 0f 58 80 00 00 00 	addss  xmm0,DWORD PTR [rax+0x0]
    678c:	00 
    678d:	f3 0f 11 80 00 00 00 	movss  DWORD PTR [rax+0x0],xmm0
    6794:	00 
    6795:	48 83 c0 20          	add    rax,0x20
    6799:	0f 85 6e fd ff ff    	jne    650d <s273+0x27>
    679f:	bf 00 00 00 00       	mov    edi,0x0
    67a4:	be 00 00 00 00       	mov    esi,0x0
    67a9:	ba 00 00 00 00       	mov    edx,0x0
    67ae:	b9 00 00 00 00       	mov    ecx,0x0
    67b3:	41 b8 00 00 00 00    	mov    r8d,0x0
    67b9:	41 b9 00 00 00 00    	mov    r9d,0x0
    67bf:	0f 57 c0             	xorps  xmm0,xmm0
    67c2:	68 00 00 00 00       	push   0x0
    67c7:	68 00 00 00 00       	push   0x0
    67cc:	e8 00 00 00 00       	call   67d1 <s273+0x2eb>
    67d1:	0f 57 db             	xorps  xmm3,xmm3
    67d4:	48 83 c4 10          	add    rsp,0x10
    67d8:	ff c3                	inc    ebx
    67da:	81 fb a0 86 01 00    	cmp    ebx,0x186a0
    67e0:	0f 85 20 fd ff ff    	jne    6506 <s273+0x20>
    67e6:	49 83 c6 10          	add    r14,0x10
    67ea:	4c 89 f7             	mov    rdi,r14
    67ed:	31 f6                	xor    esi,esi
    67ef:	e8 00 00 00 00       	call   67f4 <s273+0x30e>
    67f4:	bf 00 00 00 00       	mov    edi,0x0
    67f9:	48 83 c4 08          	add    rsp,0x8
    67fd:	5b                   	pop    rbx
    67fe:	41 5e                	pop    r14
    6800:	e9 00 00 00 00       	jmp    6805 <s274>

0000000000006805 <s274>:
    6805:	41 56                	push   r14
    6807:	53                   	push   rbx
    6808:	50                   	push   rax
    6809:	49 89 fe             	mov    r14,rdi
    680c:	bf 00 00 00 00       	mov    edi,0x0
    6811:	e8 00 00 00 00       	call   6816 <s274+0x11>
    6816:	31 db                	xor    ebx,ebx
    6818:	4c 89 f7             	mov    rdi,r14
    681b:	31 f6                	xor    esi,esi
    681d:	e8 00 00 00 00       	call   6822 <s274+0x1d>
    6822:	0f 57 d2             	xorps  xmm2,xmm2
    6825:	48 c7 c0 00 0c fe ff 	mov    rax,0xfffffffffffe0c00
    682c:	f3 0f 10 80 00 00 00 	movss  xmm0,DWORD PTR [rax+0x0]
    6833:	00 
    6834:	f3 0f 59 80 00 00 00 	mulss  xmm0,DWORD PTR [rax+0x0]
    683b:	00 
    683c:	f3 0f 10 88 00 00 00 	movss  xmm1,DWORD PTR [rax+0x0]
    6843:	00 
    6844:	f3 0f 58 c8          	addss  xmm1,xmm0
    6848:	f3 0f 11 88 00 00 00 	movss  DWORD PTR [rax+0x0],xmm1
    684f:	00 
    6850:	0f 2e ca             	ucomiss xmm1,xmm2
    6853:	76 12                	jbe    6867 <s274+0x62>
    6855:	f3 0f 58 88 00 00 00 	addss  xmm1,DWORD PTR [rax+0x0]
    685c:	00 
    685d:	f3 0f 11 88 00 00 00 	movss  DWORD PTR [rax+0x0],xmm1
    6864:	00 
    6865:	eb 08                	jmp    686f <s274+0x6a>
    6867:	f3 0f 11 80 00 00 00 	movss  DWORD PTR [rax+0x0],xmm0
    686e:	00 
    686f:	f3 0f 10 80 00 00 00 	movss  xmm0,DWORD PTR [rax+0x0]
    6876:	00 
    6877:	f3 0f 59 80 00 00 00 	mulss  xmm0,DWORD PTR [rax+0x0]
    687e:	00 
    687f:	f3 0f 10 88 00 00 00 	movss  xmm1,DWORD PTR [rax+0x0]
    6886:	00 
    6887:	f3 0f 58 c8          	addss  xmm1,xmm0
    688b:	f3 0f 11 88 00 00 00 	movss  DWORD PTR [rax+0x0],xmm1
    6892:	00 
    6893:	0f 2e ca             	ucomiss xmm1,xmm2
    6896:	76 12                	jbe    68aa <s274+0xa5>
    6898:	f3 0f 58 88 00 00 00 	addss  xmm1,DWORD PTR [rax+0x0]
    689f:	00 
    68a0:	f3 0f 11 88 00 00 00 	movss  DWORD PTR [rax+0x0],xmm1
    68a7:	00 
    68a8:	eb 08                	jmp    68b2 <s274+0xad>
    68aa:	f3 0f 11 80 00 00 00 	movss  DWORD PTR [rax+0x0],xmm0
    68b1:	00 
    68b2:	f3 0f 10 80 00 00 00 	movss  xmm0,DWORD PTR [rax+0x0]
    68b9:	00 
    68ba:	f3 0f 59 80 00 00 00 	mulss  xmm0,DWORD PTR [rax+0x0]
    68c1:	00 
    68c2:	f3 0f 10 88 00 00 00 	movss  xmm1,DWORD PTR [rax+0x0]
    68c9:	00 
    68ca:	f3 0f 58 c8          	addss  xmm1,xmm0
    68ce:	f3 0f 11 88 00 00 00 	movss  DWORD PTR [rax+0x0],xmm1
    68d5:	00 
    68d6:	0f 2e ca             	ucomiss xmm1,xmm2
    68d9:	76 12                	jbe    68ed <s274+0xe8>
    68db:	f3 0f 58 88 00 00 00 	addss  xmm1,DWORD PTR [rax+0x0]
    68e2:	00 
    68e3:	f3 0f 11 88 00 00 00 	movss  DWORD PTR [rax+0x0],xmm1
    68ea:	00 
    68eb:	eb 08                	jmp    68f5 <s274+0xf0>
    68ed:	f3 0f 11 80 00 00 00 	movss  DWORD PTR [rax+0x0],xmm0
    68f4:	00 
    68f5:	f3 0f 10 80 00 00 00 	movss  xmm0,DWORD PTR [rax+0x0]
    68fc:	00 
    68fd:	f3 0f 59 80 00 00 00 	mulss  xmm0,DWORD PTR [rax+0x0]
    6904:	00 
    6905:	f3 0f 10 88 00 00 00 	movss  xmm1,DWORD PTR [rax+0x0]
    690c:	00 
    690d:	f3 0f 58 c8          	addss  xmm1,xmm0
    6911:	f3 0f 11 88 00 00 00 	movss  DWORD PTR [rax+0x0],xmm1
    6918:	00 
    6919:	0f 2e ca             	ucomiss xmm1,xmm2
    691c:	76 12                	jbe    6930 <s274+0x12b>
    691e:	f3 0f 58 88 00 00 00 	addss  xmm1,DWORD PTR [rax+0x0]
    6925:	00 
    6926:	f3 0f 11 88 00 00 00 	movss  DWORD PTR [rax+0x0],xmm1
    692d:	00 
    692e:	eb 08                	jmp    6938 <s274+0x133>
    6930:	f3 0f 11 80 00 00 00 	movss  DWORD PTR [rax+0x0],xmm0
    6937:	00 
    6938:	f3 0f 10 80 00 00 00 	movss  xmm0,DWORD PTR [rax+0x0]
    693f:	00 
    6940:	f3 0f 59 80 00 00 00 	mulss  xmm0,DWORD PTR [rax+0x0]
    6947:	00 
    6948:	f3 0f 10 88 00 00 00 	movss  xmm1,DWORD PTR [rax+0x0]
    694f:	00 
    6950:	f3 0f 58 c8          	addss  xmm1,xmm0
    6954:	f3 0f 11 88 00 00 00 	movss  DWORD PTR [rax+0x0],xmm1
    695b:	00 
    695c:	0f 2e ca             	ucomiss xmm1,xmm2
    695f:	76 12                	jbe    6973 <s274+0x16e>
    6961:	f3 0f 58 88 00 00 00 	addss  xmm1,DWORD PTR [rax+0x0]
    6968:	00 
    6969:	f3 0f 11 88 00 00 00 	movss  DWORD PTR [rax+0x0],xmm1
    6970:	00 
    6971:	eb 08                	jmp    697b <s274+0x176>
    6973:	f3 0f 11 80 00 00 00 	movss  DWORD PTR [rax+0x0],xmm0
    697a:	00 
    697b:	f3 0f 10 80 00 00 00 	movss  xmm0,DWORD PTR [rax+0x0]
    6982:	00 
    6983:	f3 0f 59 80 00 00 00 	mulss  xmm0,DWORD PTR [rax+0x0]
    698a:	00 
    698b:	f3 0f 10 88 00 00 00 	movss  xmm1,DWORD PTR [rax+0x0]
    6992:	00 
    6993:	f3 0f 58 c8          	addss  xmm1,xmm0
    6997:	f3 0f 11 88 00 00 00 	movss  DWORD PTR [rax+0x0],xmm1
    699e:	00 
    699f:	0f 2e ca             	ucomiss xmm1,xmm2
    69a2:	76 12                	jbe    69b6 <s274+0x1b1>
    69a4:	f3 0f 58 88 00 00 00 	addss  xmm1,DWORD PTR [rax+0x0]
    69ab:	00 
    69ac:	f3 0f 11 88 00 00 00 	movss  DWORD PTR [rax+0x0],xmm1
    69b3:	00 
    69b4:	eb 08                	jmp    69be <s274+0x1b9>
    69b6:	f3 0f 11 80 00 00 00 	movss  DWORD PTR [rax+0x0],xmm0
    69bd:	00 
    69be:	f3 0f 10 80 00 00 00 	movss  xmm0,DWORD PTR [rax+0x0]
    69c5:	00 
    69c6:	f3 0f 59 80 00 00 00 	mulss  xmm0,DWORD PTR [rax+0x0]
    69cd:	00 
    69ce:	f3 0f 10 88 00 00 00 	movss  xmm1,DWORD PTR [rax+0x0]
    69d5:	00 
    69d6:	f3 0f 58 c8          	addss  xmm1,xmm0
    69da:	f3 0f 11 88 00 00 00 	movss  DWORD PTR [rax+0x0],xmm1
    69e1:	00 
    69e2:	0f 2e ca             	ucomiss xmm1,xmm2
    69e5:	76 12                	jbe    69f9 <s274+0x1f4>
    69e7:	f3 0f 58 88 00 00 00 	addss  xmm1,DWORD PTR [rax+0x0]
    69ee:	00 
    69ef:	f3 0f 11 88 00 00 00 	movss  DWORD PTR [rax+0x0],xmm1
    69f6:	00 
    69f7:	eb 08                	jmp    6a01 <s274+0x1fc>
    69f9:	f3 0f 11 80 00 00 00 	movss  DWORD PTR [rax+0x0],xmm0
    6a00:	00 
    6a01:	f3 0f 10 80 00 00 00 	movss  xmm0,DWORD PTR [rax+0x0]
    6a08:	00 
    6a09:	f3 0f 59 80 00 00 00 	mulss  xmm0,DWORD PTR [rax+0x0]
    6a10:	00 
    6a11:	f3 0f 10 88 00 00 00 	movss  xmm1,DWORD PTR [rax+0x0]
    6a18:	00 
    6a19:	f3 0f 58 c8          	addss  xmm1,xmm0
    6a1d:	f3 0f 11 88 00 00 00 	movss  DWORD PTR [rax+0x0],xmm1
    6a24:	00 
    6a25:	0f 2e ca             	ucomiss xmm1,xmm2
    6a28:	76 12                	jbe    6a3c <s274+0x237>
    6a2a:	f3 0f 58 88 00 00 00 	addss  xmm1,DWORD PTR [rax+0x0]
    6a31:	00 
    6a32:	f3 0f 11 88 00 00 00 	movss  DWORD PTR [rax+0x0],xmm1
    6a39:	00 
    6a3a:	eb 08                	jmp    6a44 <s274+0x23f>
    6a3c:	f3 0f 11 80 00 00 00 	movss  DWORD PTR [rax+0x0],xmm0
    6a43:	00 
    6a44:	48 83 c0 20          	add    rax,0x20
    6a48:	0f 85 de fd ff ff    	jne    682c <s274+0x27>
    6a4e:	bf 00 00 00 00       	mov    edi,0x0
    6a53:	be 00 00 00 00       	mov    esi,0x0
    6a58:	ba 00 00 00 00       	mov    edx,0x0
    6a5d:	b9 00 00 00 00       	mov    ecx,0x0
    6a62:	41 b8 00 00 00 00    	mov    r8d,0x0
    6a68:	41 b9 00 00 00 00    	mov    r9d,0x0
    6a6e:	0f 57 c0             	xorps  xmm0,xmm0
    6a71:	68 00 00 00 00       	push   0x0
    6a76:	68 00 00 00 00       	push   0x0
    6a7b:	e8 00 00 00 00       	call   6a80 <s274+0x27b>
    6a80:	0f 57 d2             	xorps  xmm2,xmm2
    6a83:	48 83 c4 10          	add    rsp,0x10
    6a87:	ff c3                	inc    ebx
    6a89:	81 fb a0 86 01 00    	cmp    ebx,0x186a0
    6a8f:	0f 85 90 fd ff ff    	jne    6825 <s274+0x20>
    6a95:	49 83 c6 10          	add    r14,0x10
    6a99:	4c 89 f7             	mov    rdi,r14
    6a9c:	31 f6                	xor    esi,esi
    6a9e:	e8 00 00 00 00       	call   6aa3 <s274+0x29e>
    6aa3:	bf 00 00 00 00       	mov    edi,0x0
    6aa8:	48 83 c4 08          	add    rsp,0x8
    6aac:	5b                   	pop    rbx
    6aad:	41 5e                	pop    r14
    6aaf:	e9 00 00 00 00       	jmp    6ab4 <s275>

0000000000006ab4 <s275>:
    6ab4:	41 57                	push   r15
    6ab6:	41 56                	push   r14
    6ab8:	41 54                	push   r12
    6aba:	53                   	push   rbx
    6abb:	48 83 ec 28          	sub    rsp,0x28
    6abf:	49 89 fe             	mov    r14,rdi
    6ac2:	bf 00 00 00 00       	mov    edi,0x0
    6ac7:	e8 00 00 00 00       	call   6acc <s275+0x18>
    6acc:	45 31 ff             	xor    r15d,r15d
    6acf:	4c 89 f7             	mov    rdi,r14
    6ad2:	31 f6                	xor    esi,esi
    6ad4:	e8 00 00 00 00       	call   6ad9 <s275+0x25>
    6ad9:	0f 57 d2             	xorps  xmm2,xmm2
    6adc:	4c 8d 64 24 0c       	lea    r12,[rsp+0xc]
    6ae1:	31 c0                	xor    eax,eax
    6ae3:	31 c9                	xor    ecx,ecx
    6ae5:	f3 0f 10 04 8d 00 00 	movss  xmm0,DWORD PTR [rcx*4+0x0]
    6aec:	00 00 
    6aee:	0f 2e c2             	ucomiss xmm0,xmm2
    6af1:	0f 86 83 00 00 00    	jbe    6b7a <s275+0xc6>
    6af7:	ba 01 00 00 00       	mov    edx,0x1
    6afc:	48 89 c6             	mov    rsi,rax
    6aff:	31 ff                	xor    edi,edi
    6b01:	4c 89 e3             	mov    rbx,r12
    6b04:	f3 0f 10 8c 3e 00 00 	movss  xmm1,DWORD PTR [rsi+rdi*1+0x0]
    6b0b:	00 00 
    6b0d:	f3 0f 59 8c 3e 00 00 	mulss  xmm1,DWORD PTR [rsi+rdi*1+0x0]
    6b14:	00 00 
    6b16:	f3 0f 58 c1          	addss  xmm0,xmm1
    6b1a:	f3 0f 11 03          	movss  DWORD PTR [rbx],xmm0
    6b1e:	f3 0f 11 84 3e 00 00 	movss  DWORD PTR [rsi+rdi*1+0x0],xmm0
    6b25:	00 00 
    6b27:	48 83 c3 04          	add    rbx,0x4
    6b2b:	48 81 c7 00 04 00 00 	add    rdi,0x400
    6b32:	48 81 ff 00 1c 00 00 	cmp    rdi,0x1c00
    6b39:	75 c9                	jne    6b04 <s275+0x50>
    6b3b:	48 8d 7a 07          	lea    rdi,[rdx+0x7]
    6b3f:	48 81 ff 00 01 00 00 	cmp    rdi,0x100
    6b46:	74 32                	je     6b7a <s275+0xc6>
    6b48:	48 c1 e7 0a          	shl    rdi,0xa
    6b4c:	f3 0f 10 84 8f 00 00 	movss  xmm0,DWORD PTR [rdi+rcx*4+0x0]
    6b53:	00 00 
    6b55:	f3 0f 59 84 8f 00 00 	mulss  xmm0,DWORD PTR [rdi+rcx*4+0x0]
    6b5c:	00 00 
    6b5e:	f3 0f 58 44 24 24    	addss  xmm0,DWORD PTR [rsp+0x24]
    6b64:	f3 0f 11 84 8f 00 00 	movss  DWORD PTR [rdi+rcx*4+0x0],xmm0
    6b6b:	00 00 
    6b6d:	48 83 c2 08          	add    rdx,0x8
    6b71:	48 81 c6 00 20 00 00 	add    rsi,0x2000
    6b78:	eb 85                	jmp    6aff <s275+0x4b>
    6b7a:	48 ff c1             	inc    rcx
    6b7d:	48 83 c0 04          	add    rax,0x4
    6b81:	48 81 f9 00 01 00 00 	cmp    rcx,0x100
    6b88:	0f 85 57 ff ff ff    	jne    6ae5 <s275+0x31>
    6b8e:	bf 00 00 00 00       	mov    edi,0x0
    6b93:	be 00 00 00 00       	mov    esi,0x0
    6b98:	ba 00 00 00 00       	mov    edx,0x0
    6b9d:	b9 00 00 00 00       	mov    ecx,0x0
    6ba2:	41 b8 00 00 00 00    	mov    r8d,0x0
    6ba8:	41 b9 00 00 00 00    	mov    r9d,0x0
    6bae:	0f 57 c0             	xorps  xmm0,xmm0
    6bb1:	68 00 00 00 00       	push   0x0
    6bb6:	68 00 00 00 00       	push   0x0
    6bbb:	e8 00 00 00 00       	call   6bc0 <s275+0x10c>
    6bc0:	0f 57 d2             	xorps  xmm2,xmm2
    6bc3:	48 83 c4 10          	add    rsp,0x10
    6bc7:	41 ff c7             	inc    r15d
    6bca:	41 81 ff 3c 0f 00 00 	cmp    r15d,0xf3c
    6bd1:	0f 85 0a ff ff ff    	jne    6ae1 <s275+0x2d>
    6bd7:	49 83 c6 10          	add    r14,0x10
    6bdb:	4c 89 f7             	mov    rdi,r14
    6bde:	31 f6                	xor    esi,esi
    6be0:	e8 00 00 00 00       	call   6be5 <s275+0x131>
    6be5:	bf 00 00 00 00       	mov    edi,0x0
    6bea:	48 83 c4 28          	add    rsp,0x28
    6bee:	5b                   	pop    rbx
    6bef:	41 5c                	pop    r12
    6bf1:	41 5e                	pop    r14
    6bf3:	41 5f                	pop    r15
    6bf5:	e9 00 00 00 00       	jmp    6bfa <s2275>

0000000000006bfa <s2275>:
    6bfa:	41 56                	push   r14
    6bfc:	53                   	push   rbx
    6bfd:	50                   	push   rax
    6bfe:	49 89 fe             	mov    r14,rdi
    6c01:	bf 00 00 00 00       	mov    edi,0x0
    6c06:	e8 00 00 00 00       	call   6c0b <s2275+0x11>
    6c0b:	31 db                	xor    ebx,ebx
    6c0d:	4c 89 f7             	mov    rdi,r14
    6c10:	31 f6                	xor    esi,esi
    6c12:	e8 00 00 00 00       	call   6c17 <s2275+0x1d>
    6c17:	31 c0                	xor    eax,eax
    6c19:	31 c9                	xor    ecx,ecx
    6c1b:	31 d2                	xor    edx,edx
    6c1d:	48 89 ce             	mov    rsi,rcx
    6c20:	48 09 d6             	or     rsi,rdx
    6c23:	48 c1 e6 0a          	shl    rsi,0xa
    6c27:	f3 0f 10 84 86 00 00 	movss  xmm0,DWORD PTR [rsi+rax*4+0x0]
    6c2e:	00 00 
    6c30:	f3 0f 59 84 86 00 00 	mulss  xmm0,DWORD PTR [rsi+rax*4+0x0]
    6c37:	00 00 
    6c39:	f3 0f 58 84 86 00 00 	addss  xmm0,DWORD PTR [rsi+rax*4+0x0]
    6c40:	00 00 
    6c42:	f3 0f 11 84 86 00 00 	movss  DWORD PTR [rsi+rax*4+0x0],xmm0
    6c49:	00 00 
    6c4b:	48 ff c2             	inc    rdx
    6c4e:	48 83 fa 08          	cmp    rdx,0x8
    6c52:	75 c9                	jne    6c1d <s2275+0x23>
    6c54:	48 83 c1 08          	add    rcx,0x8
    6c58:	48 81 f9 00 01 00 00 	cmp    rcx,0x100
    6c5f:	75 ba                	jne    6c1b <s2275+0x21>
    6c61:	f3 0f 10 04 85 00 00 	movss  xmm0,DWORD PTR [rax*4+0x0]
    6c68:	00 00 
    6c6a:	f3 0f 59 04 85 00 00 	mulss  xmm0,DWORD PTR [rax*4+0x0]
    6c71:	00 00 
    6c73:	f3 0f 58 04 85 00 00 	addss  xmm0,DWORD PTR [rax*4+0x0]
    6c7a:	00 00 
    6c7c:	f3 0f 11 04 85 00 00 	movss  DWORD PTR [rax*4+0x0],xmm0
    6c83:	00 00 
    6c85:	48 ff c0             	inc    rax
    6c88:	48 3d 00 01 00 00    	cmp    rax,0x100
    6c8e:	75 89                	jne    6c19 <s2275+0x1f>
    6c90:	bf 00 00 00 00       	mov    edi,0x0
    6c95:	be 00 00 00 00       	mov    esi,0x0
    6c9a:	ba 00 00 00 00       	mov    edx,0x0
    6c9f:	b9 00 00 00 00       	mov    ecx,0x0
    6ca4:	41 b8 00 00 00 00    	mov    r8d,0x0
    6caa:	41 b9 00 00 00 00    	mov    r9d,0x0
    6cb0:	0f 57 c0             	xorps  xmm0,xmm0
    6cb3:	68 00 00 00 00       	push   0x0
    6cb8:	68 00 00 00 00       	push   0x0
    6cbd:	e8 00 00 00 00       	call   6cc2 <s2275+0xc8>
    6cc2:	48 83 c4 10          	add    rsp,0x10
    6cc6:	ff c3                	inc    ebx
    6cc8:	81 fb 58 98 00 00    	cmp    ebx,0x9858
    6cce:	0f 85 43 ff ff ff    	jne    6c17 <s2275+0x1d>
    6cd4:	49 83 c6 10          	add    r14,0x10
    6cd8:	4c 89 f7             	mov    rdi,r14
    6cdb:	31 f6                	xor    esi,esi
    6cdd:	e8 00 00 00 00       	call   6ce2 <s2275+0xe8>
    6ce2:	bf 00 00 00 00       	mov    edi,0x0
    6ce7:	48 83 c4 08          	add    rsp,0x8
    6ceb:	5b                   	pop    rbx
    6cec:	41 5e                	pop    r14
    6cee:	e9 00 00 00 00       	jmp    6cf3 <s276>

0000000000006cf3 <s276>:
    6cf3:	41 57                	push   r15
    6cf5:	41 56                	push   r14
    6cf7:	53                   	push   rbx
    6cf8:	49 89 fe             	mov    r14,rdi
    6cfb:	bf 00 00 00 00       	mov    edi,0x0
    6d00:	e8 00 00 00 00       	call   6d05 <s276+0x12>
    6d05:	45 31 ff             	xor    r15d,r15d
    6d08:	4c 89 f7             	mov    rdi,r14
    6d0b:	31 f6                	xor    esi,esi
    6d0d:	e8 00 00 00 00       	call   6d12 <s276+0x1f>
    6d12:	bb 00 00 00 00       	mov    ebx,0x0
    6d17:	31 c0                	xor    eax,eax
    6d19:	48 89 c2             	mov    rdx,rax
    6d1c:	48 83 ca 01          	or     rdx,0x1
    6d20:	f3 0f 10 04 85 00 00 	movss  xmm0,DWORD PTR [rax*4+0x0]
    6d27:	00 00 
    6d29:	48 3d 7f 3e 00 00    	cmp    rax,0x3e7f
    6d2f:	0f 83 2a 01 00 00    	jae    6e5f <s276+0x16c>
    6d35:	f3 0f 59 04 85 00 00 	mulss  xmm0,DWORD PTR [rax*4+0x0]
    6d3c:	00 00 
    6d3e:	f3 0f 58 04 85 00 00 	addss  xmm0,DWORD PTR [rax*4+0x0]
    6d45:	00 00 
    6d47:	f3 0f 11 04 85 00 00 	movss  DWORD PTR [rax*4+0x0],xmm0
    6d4e:	00 00 
    6d50:	48 89 c1             	mov    rcx,rax
    6d53:	f3 0f 10 04 95 00 00 	movss  xmm0,DWORD PTR [rdx*4+0x0]
    6d5a:	00 00 
    6d5c:	f3 0f 59 04 95 00 00 	mulss  xmm0,DWORD PTR [rdx*4+0x0]
    6d63:	00 00 
    6d65:	f3 0f 58 04 95 00 00 	addss  xmm0,DWORD PTR [rdx*4+0x0]
    6d6c:	00 00 
    6d6e:	48 83 c9 02          	or     rcx,0x2
    6d72:	f3 0f 11 04 95 00 00 	movss  DWORD PTR [rdx*4+0x0],xmm0
    6d79:	00 00 
    6d7b:	48 89 c2             	mov    rdx,rax
    6d7e:	48 83 ca 03          	or     rdx,0x3
    6d82:	48 3d 7c 3e 00 00    	cmp    rax,0x3e7c
    6d88:	0f 87 1e 01 00 00    	ja     6eac <s276+0x1b9>
    6d8e:	f3 0f 10 04 8d 00 00 	movss  xmm0,DWORD PTR [rcx*4+0x0]
    6d95:	00 00 
    6d97:	f3 0f 59 04 8d 00 00 	mulss  xmm0,DWORD PTR [rcx*4+0x0]
    6d9e:	00 00 
    6da0:	f3 0f 58 04 8d 00 00 	addss  xmm0,DWORD PTR [rcx*4+0x0]
    6da7:	00 00 
    6da9:	f3 0f 11 04 8d 00 00 	movss  DWORD PTR [rcx*4+0x0],xmm0
    6db0:	00 00 
    6db2:	48 89 c1             	mov    rcx,rax
    6db5:	f3 0f 10 04 95 00 00 	movss  xmm0,DWORD PTR [rdx*4+0x0]
    6dbc:	00 00 
    6dbe:	f3 0f 59 04 95 00 00 	mulss  xmm0,DWORD PTR [rdx*4+0x0]
    6dc5:	00 00 
    6dc7:	f3 0f 58 04 95 00 00 	addss  xmm0,DWORD PTR [rdx*4+0x0]
    6dce:	00 00 
    6dd0:	48 83 c9 04          	or     rcx,0x4
    6dd4:	f3 0f 11 04 95 00 00 	movss  DWORD PTR [rdx*4+0x0],xmm0
    6ddb:	00 00 
    6ddd:	48 89 c2             	mov    rdx,rax
    6de0:	48 83 ca 05          	or     rdx,0x5
    6de4:	48 3d 7b 3e 00 00    	cmp    rax,0x3e7b
    6dea:	0f 83 03 01 00 00    	jae    6ef3 <s276+0x200>
    6df0:	f3 0f 10 04 8d 00 00 	movss  xmm0,DWORD PTR [rcx*4+0x0]
    6df7:	00 00 
    6df9:	f3 0f 59 04 8d 00 00 	mulss  xmm0,DWORD PTR [rcx*4+0x0]
    6e00:	00 00 
    6e02:	f3 0f 58 04 8d 00 00 	addss  xmm0,DWORD PTR [rcx*4+0x0]
    6e09:	00 00 
    6e0b:	f3 0f 11 04 8d 00 00 	movss  DWORD PTR [rcx*4+0x0],xmm0
    6e12:	00 00 
    6e14:	48 89 c1             	mov    rcx,rax
    6e17:	f3 0f 10 04 95 00 00 	movss  xmm0,DWORD PTR [rdx*4+0x0]
    6e1e:	00 00 
    6e20:	f3 0f 59 04 95 00 00 	mulss  xmm0,DWORD PTR [rdx*4+0x0]
    6e27:	00 00 
    6e29:	f3 0f 58 04 95 00 00 	addss  xmm0,DWORD PTR [rdx*4+0x0]
    6e30:	00 00 
    6e32:	48 83 c9 06          	or     rcx,0x6
    6e36:	f3 0f 11 04 95 00 00 	movss  DWORD PTR [rdx*4+0x0],xmm0
    6e3d:	00 00 
    6e3f:	48 89 c2             	mov    rdx,rax
    6e42:	48 83 ca 07          	or     rdx,0x7
    6e46:	48 3d 79 3e 00 00    	cmp    rax,0x3e79
    6e4c:	0f 83 f7 00 00 00    	jae    6f49 <s276+0x256>
    6e52:	48 8d 34 8d 00 00 00 	lea    rsi,[rcx*4+0x0]
    6e59:	00 
    6e5a:	e9 f2 00 00 00       	jmp    6f51 <s276+0x25e>
    6e5f:	f3 0f 59 04 85 00 00 	mulss  xmm0,DWORD PTR [rax*4+0x0]
    6e66:	00 00 
    6e68:	f3 0f 58 04 85 00 00 	addss  xmm0,DWORD PTR [rax*4+0x0]
    6e6f:	00 00 
    6e71:	f3 0f 11 04 85 00 00 	movss  DWORD PTR [rax*4+0x0],xmm0
    6e78:	00 00 
    6e7a:	48 89 c1             	mov    rcx,rax
    6e7d:	48 83 c9 02          	or     rcx,0x2
    6e81:	f3 0f 10 04 95 00 00 	movss  xmm0,DWORD PTR [rdx*4+0x0]
    6e88:	00 00 
    6e8a:	f3 0f 59 04 95 00 00 	mulss  xmm0,DWORD PTR [rdx*4+0x0]
    6e91:	00 00 
    6e93:	f3 0f 58 04 95 00 00 	addss  xmm0,DWORD PTR [rdx*4+0x0]
    6e9a:	00 00 
    6e9c:	f3 0f 11 04 95 00 00 	movss  DWORD PTR [rdx*4+0x0],xmm0
    6ea3:	00 00 
    6ea5:	48 89 c2             	mov    rdx,rax
    6ea8:	48 83 ca 03          	or     rdx,0x3
    6eac:	40 b6 01             	mov    sil,0x1
    6eaf:	48 89 d7             	mov    rdi,rdx
    6eb2:	40 f6 c6 01          	test   sil,0x1
    6eb6:	48 0f 45 f9          	cmovne rdi,rcx
    6eba:	f3 0f 10 04 bd 00 00 	movss  xmm0,DWORD PTR [rdi*4+0x0]
    6ec1:	00 00 
    6ec3:	f3 0f 59 04 bd 00 00 	mulss  xmm0,DWORD PTR [rdi*4+0x0]
    6eca:	00 00 
    6ecc:	f3 0f 58 04 bd 00 00 	addss  xmm0,DWORD PTR [rdi*4+0x0]
    6ed3:	00 00 
    6ed5:	f3 0f 11 04 bd 00 00 	movss  DWORD PTR [rdi*4+0x0],xmm0
    6edc:	00 00 
    6ede:	be 00 00 00 00       	mov    esi,0x0
    6ee3:	75 ca                	jne    6eaf <s276+0x1bc>
    6ee5:	48 89 c1             	mov    rcx,rax
    6ee8:	48 83 c9 04          	or     rcx,0x4
    6eec:	48 89 c2             	mov    rdx,rax
    6eef:	48 83 ca 05          	or     rdx,0x5
    6ef3:	f3 0f 10 04 8d 00 00 	movss  xmm0,DWORD PTR [rcx*4+0x0]
    6efa:	00 00 
    6efc:	f3 0f 59 04 8d 00 00 	mulss  xmm0,DWORD PTR [rcx*4+0x0]
    6f03:	00 00 
    6f05:	f3 0f 58 04 8d 00 00 	addss  xmm0,DWORD PTR [rcx*4+0x0]
    6f0c:	00 00 
    6f0e:	f3 0f 11 04 8d 00 00 	movss  DWORD PTR [rcx*4+0x0],xmm0
    6f15:	00 00 
    6f17:	48 89 c1             	mov    rcx,rax
    6f1a:	48 83 c9 06          	or     rcx,0x6
    6f1e:	f3 0f 10 04 95 00 00 	movss  xmm0,DWORD PTR [rdx*4+0x0]
    6f25:	00 00 
    6f27:	f3 0f 59 04 95 00 00 	mulss  xmm0,DWORD PTR [rdx*4+0x0]
    6f2e:	00 00 
    6f30:	f3 0f 58 04 95 00 00 	addss  xmm0,DWORD PTR [rdx*4+0x0]
    6f37:	00 00 
    6f39:	f3 0f 11 04 95 00 00 	movss  DWORD PTR [rdx*4+0x0],xmm0
    6f40:	00 00 
    6f42:	48 89 c2             	mov    rdx,rax
    6f45:	48 83 ca 07          	or     rdx,0x7
    6f49:	48 8d 34 8d 00 00 00 	lea    rsi,[rcx*4+0x0]
    6f50:	00 
    6f51:	f3 0f 10 04 8d 00 00 	movss  xmm0,DWORD PTR [rcx*4+0x0]
    6f58:	00 00 
    6f5a:	f3 0f 59 06          	mulss  xmm0,DWORD PTR [rsi]
    6f5e:	f3 0f 58 04 8d 00 00 	addss  xmm0,DWORD PTR [rcx*4+0x0]
    6f65:	00 00 
    6f67:	f3 0f 11 04 8d 00 00 	movss  DWORD PTR [rcx*4+0x0],xmm0
    6f6e:	00 00 
    6f70:	48 83 c0 08          	add    rax,0x8
    6f74:	48 81 fa 7f 3e 00 00 	cmp    rdx,0x3e7f
    6f7b:	f3 0f 10 04 95 00 00 	movss  xmm0,DWORD PTR [rdx*4+0x0]
    6f82:	00 00 
    6f84:	b9 00 00 00 00       	mov    ecx,0x0
    6f89:	48 0f 42 cb          	cmovb  rcx,rbx
    6f8d:	f3 0f 59 04 91       	mulss  xmm0,DWORD PTR [rcx+rdx*4]
    6f92:	f3 0f 58 04 95 00 00 	addss  xmm0,DWORD PTR [rdx*4+0x0]
    6f99:	00 00 
    6f9b:	f3 0f 11 04 95 00 00 	movss  DWORD PTR [rdx*4+0x0],xmm0
    6fa2:	00 00 
    6fa4:	48 3d 00 7d 00 00    	cmp    rax,0x7d00
    6faa:	0f 85 69 fd ff ff    	jne    6d19 <s276+0x26>
    6fb0:	bf 00 00 00 00       	mov    edi,0x0
    6fb5:	be 00 00 00 00       	mov    esi,0x0
    6fba:	ba 00 00 00 00       	mov    edx,0x0
    6fbf:	b9 00 00 00 00       	mov    ecx,0x0
    6fc4:	41 b8 00 00 00 00    	mov    r8d,0x0
    6fca:	41 b9 00 00 00 00    	mov    r9d,0x0
    6fd0:	0f 57 c0             	xorps  xmm0,xmm0
    6fd3:	68 00 00 00 00       	push   0x0
    6fd8:	68 00 00 00 00       	push   0x0
    6fdd:	e8 00 00 00 00       	call   6fe2 <s276+0x2ef>
    6fe2:	48 83 c4 10          	add    rsp,0x10
    6fe6:	41 ff c7             	inc    r15d
    6fe9:	41 81 ff 80 1a 06 00 	cmp    r15d,0x61a80
    6ff0:	0f 85 21 fd ff ff    	jne    6d17 <s276+0x24>
    6ff6:	49 83 c6 10          	add    r14,0x10
    6ffa:	4c 89 f7             	mov    rdi,r14
    6ffd:	31 f6                	xor    esi,esi
    6fff:	e8 00 00 00 00       	call   7004 <s276+0x311>
    7004:	bf 00 00 00 00       	mov    edi,0x0
    7009:	5b                   	pop    rbx
    700a:	41 5e                	pop    r14
    700c:	41 5f                	pop    r15
    700e:	e9 00 00 00 00       	jmp    7013 <s277>

0000000000007013 <s277>:
    7013:	41 56                	push   r14
    7015:	53                   	push   rbx
    7016:	50                   	push   rax
    7017:	49 89 fe             	mov    r14,rdi
    701a:	bf 00 00 00 00       	mov    edi,0x0
    701f:	e8 00 00 00 00       	call   7024 <s277+0x11>
    7024:	31 db                	xor    ebx,ebx
    7026:	4c 89 f7             	mov    rdi,r14
    7029:	31 f6                	xor    esi,esi
    702b:	e8 00 00 00 00       	call   7030 <s277+0x1d>
    7030:	0f 57 e4             	xorps  xmm4,xmm4
    7033:	31 c0                	xor    eax,eax
    7035:	f3 0f 10 04 85 00 00 	movss  xmm0,DWORD PTR [rax*4+0x0]
    703c:	00 00 
    703e:	0f 2e c4             	ucomiss xmm0,xmm4
    7041:	73 4a                	jae    708d <s277+0x7a>
    7043:	f3 0f 10 0c 85 00 00 	movss  xmm1,DWORD PTR [rax*4+0x0]
    704a:	00 00 
    704c:	0f 2e cc             	ucomiss xmm1,xmm4
    704f:	f3 0f 10 0c 85 00 00 	movss  xmm1,DWORD PTR [rax*4+0x0]
    7056:	00 00 
    7058:	f3 0f 10 14 85 00 00 	movss  xmm2,DWORD PTR [rax*4+0x0]
    705f:	00 00 
    7061:	73 14                	jae    7077 <s277+0x64>
    7063:	0f 28 d9             	movaps xmm3,xmm1
    7066:	f3 0f 59 da          	mulss  xmm3,xmm2
    706a:	f3 0f 58 c3          	addss  xmm0,xmm3
    706e:	f3 0f 11 04 85 00 00 	movss  DWORD PTR [rax*4+0x0],xmm0
    7075:	00 00 
    7077:	f3 0f 59 14 85 00 00 	mulss  xmm2,DWORD PTR [rax*4+0x0]
    707e:	00 00 
    7080:	f3 0f 58 ca          	addss  xmm1,xmm2
    7084:	f3 0f 11 0c 85 00 00 	movss  DWORD PTR [rax*4+0x0],xmm1
    708b:	00 00 
    708d:	48 ff c0             	inc    rax
    7090:	f3 0f 10 04 85 00 00 	movss  xmm0,DWORD PTR [rax*4+0x0]
    7097:	00 00 
    7099:	0f 2e c4             	ucomiss xmm0,xmm4
    709c:	73 4a                	jae    70e8 <s277+0xd5>
    709e:	f3 0f 10 0c 85 00 00 	movss  xmm1,DWORD PTR [rax*4+0x0]
    70a5:	00 00 
    70a7:	0f 2e cc             	ucomiss xmm1,xmm4
    70aa:	f3 0f 10 0c 85 00 00 	movss  xmm1,DWORD PTR [rax*4+0x0]
    70b1:	00 00 
    70b3:	f3 0f 10 14 85 00 00 	movss  xmm2,DWORD PTR [rax*4+0x0]
    70ba:	00 00 
    70bc:	73 14                	jae    70d2 <s277+0xbf>
    70be:	0f 28 d9             	movaps xmm3,xmm1
    70c1:	f3 0f 59 da          	mulss  xmm3,xmm2
    70c5:	f3 0f 58 c3          	addss  xmm0,xmm3
    70c9:	f3 0f 11 04 85 00 00 	movss  DWORD PTR [rax*4+0x0],xmm0
    70d0:	00 00 
    70d2:	f3 0f 59 14 85 00 00 	mulss  xmm2,DWORD PTR [rax*4+0x0]
    70d9:	00 00 
    70db:	f3 0f 58 ca          	addss  xmm1,xmm2
    70df:	f3 0f 11 0c 85 00 00 	movss  DWORD PTR [rax*4+0x0],xmm1
    70e6:	00 00 
    70e8:	48 ff c0             	inc    rax
    70eb:	f3 0f 10 04 85 00 00 	movss  xmm0,DWORD PTR [rax*4+0x0]
    70f2:	00 00 
    70f4:	0f 2e c4             	ucomiss xmm0,xmm4
    70f7:	73 4a                	jae    7143 <s277+0x130>
    70f9:	f3 0f 10 0c 85 00 00 	movss  xmm1,DWORD PTR [rax*4+0x0]
    7100:	00 00 
    7102:	0f 2e cc             	ucomiss xmm1,xmm4
    7105:	f3 0f 10 0c 85 00 00 	movss  xmm1,DWORD PTR [rax*4+0x0]
    710c:	00 00 
    710e:	f3 0f 10 14 85 00 00 	movss  xmm2,DWORD PTR [rax*4+0x0]
    7115:	00 00 
    7117:	73 14                	jae    712d <s277+0x11a>
    7119:	0f 28 d9             	movaps xmm3,xmm1
    711c:	f3 0f 59 da          	mulss  xmm3,xmm2
    7120:	f3 0f 58 c3          	addss  xmm0,xmm3
    7124:	f3 0f 11 04 85 00 00 	movss  DWORD PTR [rax*4+0x0],xmm0
    712b:	00 00 
    712d:	f3 0f 59 14 85 00 00 	mulss  xmm2,DWORD PTR [rax*4+0x0]
    7134:	00 00 
    7136:	f3 0f 58 ca          	addss  xmm1,xmm2
    713a:	f3 0f 11 0c 85 00 00 	movss  DWORD PTR [rax*4+0x0],xmm1
    7141:	00 00 
    7143:	48 ff c0             	inc    rax
    7146:	f3 0f 10 04 85 00 00 	movss  xmm0,DWORD PTR [rax*4+0x0]
    714d:	00 00 
    714f:	0f 2e c4             	ucomiss xmm0,xmm4
    7152:	73 4a                	jae    719e <s277+0x18b>
    7154:	f3 0f 10 0c 85 00 00 	movss  xmm1,DWORD PTR [rax*4+0x0]
    715b:	00 00 
    715d:	0f 2e cc             	ucomiss xmm1,xmm4
    7160:	f3 0f 10 0c 85 00 00 	movss  xmm1,DWORD PTR [rax*4+0x0]
    7167:	00 00 
    7169:	f3 0f 10 14 85 00 00 	movss  xmm2,DWORD PTR [rax*4+0x0]
    7170:	00 00 
    7172:	73 14                	jae    7188 <s277+0x175>
    7174:	0f 28 d9             	movaps xmm3,xmm1
    7177:	f3 0f 59 da          	mulss  xmm3,xmm2
    717b:	f3 0f 58 c3          	addss  xmm0,xmm3
    717f:	f3 0f 11 04 85 00 00 	movss  DWORD PTR [rax*4+0x0],xmm0
    7186:	00 00 
    7188:	f3 0f 59 14 85 00 00 	mulss  xmm2,DWORD PTR [rax*4+0x0]
    718f:	00 00 
    7191:	f3 0f 58 ca          	addss  xmm1,xmm2
    7195:	f3 0f 11 0c 85 00 00 	movss  DWORD PTR [rax*4+0x0],xmm1
    719c:	00 00 
    719e:	48 ff c0             	inc    rax
    71a1:	f3 0f 10 04 85 00 00 	movss  xmm0,DWORD PTR [rax*4+0x0]
    71a8:	00 00 
    71aa:	0f 2e c4             	ucomiss xmm0,xmm4
    71ad:	73 4a                	jae    71f9 <s277+0x1e6>
    71af:	f3 0f 10 0c 85 00 00 	movss  xmm1,DWORD PTR [rax*4+0x0]
    71b6:	00 00 
    71b8:	0f 2e cc             	ucomiss xmm1,xmm4
    71bb:	f3 0f 10 0c 85 00 00 	movss  xmm1,DWORD PTR [rax*4+0x0]
    71c2:	00 00 
    71c4:	f3 0f 10 14 85 00 00 	movss  xmm2,DWORD PTR [rax*4+0x0]
    71cb:	00 00 
    71cd:	73 14                	jae    71e3 <s277+0x1d0>
    71cf:	0f 28 d9             	movaps xmm3,xmm1
    71d2:	f3 0f 59 da          	mulss  xmm3,xmm2
    71d6:	f3 0f 58 c3          	addss  xmm0,xmm3
    71da:	f3 0f 11 04 85 00 00 	movss  DWORD PTR [rax*4+0x0],xmm0
    71e1:	00 00 
    71e3:	f3 0f 59 14 85 00 00 	mulss  xmm2,DWORD PTR [rax*4+0x0]
    71ea:	00 00 
    71ec:	f3 0f 58 ca          	addss  xmm1,xmm2
    71f0:	f3 0f 11 0c 85 00 00 	movss  DWORD PTR [rax*4+0x0],xmm1
    71f7:	00 00 
    71f9:	48 ff c0             	inc    rax
    71fc:	f3 0f 10 04 85 00 00 	movss  xmm0,DWORD PTR [rax*4+0x0]
    7203:	00 00 
    7205:	0f 2e c4             	ucomiss xmm0,xmm4
    7208:	73 4a                	jae    7254 <s277+0x241>
    720a:	f3 0f 10 0c 85 00 00 	movss  xmm1,DWORD PTR [rax*4+0x0]
    7211:	00 00 
    7213:	0f 2e cc             	ucomiss xmm1,xmm4
    7216:	f3 0f 10 0c 85 00 00 	movss  xmm1,DWORD PTR [rax*4+0x0]
    721d:	00 00 
    721f:	f3 0f 10 14 85 00 00 	movss  xmm2,DWORD PTR [rax*4+0x0]
    7226:	00 00 
    7228:	73 14                	jae    723e <s277+0x22b>
    722a:	0f 28 d9             	movaps xmm3,xmm1
    722d:	f3 0f 59 da          	mulss  xmm3,xmm2
    7231:	f3 0f 58 c3          	addss  xmm0,xmm3
    7235:	f3 0f 11 04 85 00 00 	movss  DWORD PTR [rax*4+0x0],xmm0
    723c:	00 00 
    723e:	f3 0f 59 14 85 00 00 	mulss  xmm2,DWORD PTR [rax*4+0x0]
    7245:	00 00 
    7247:	f3 0f 58 ca          	addss  xmm1,xmm2
    724b:	f3 0f 11 0c 85 00 00 	movss  DWORD PTR [rax*4+0x0],xmm1
    7252:	00 00 
    7254:	48 ff c0             	inc    rax
    7257:	f3 0f 10 04 85 00 00 	movss  xmm0,DWORD PTR [rax*4+0x0]
    725e:	00 00 
    7260:	0f 2e c4             	ucomiss xmm0,xmm4
    7263:	73 4a                	jae    72af <s277+0x29c>
    7265:	f3 0f 10 0c 85 00 00 	movss  xmm1,DWORD PTR [rax*4+0x0]
    726c:	00 00 
    726e:	0f 2e cc             	ucomiss xmm1,xmm4
    7271:	f3 0f 10 0c 85 00 00 	movss  xmm1,DWORD PTR [rax*4+0x0]
    7278:	00 00 
    727a:	f3 0f 10 14 85 00 00 	movss  xmm2,DWORD PTR [rax*4+0x0]
    7281:	00 00 
    7283:	73 14                	jae    7299 <s277+0x286>
    7285:	0f 28 d9             	movaps xmm3,xmm1
    7288:	f3 0f 59 da          	mulss  xmm3,xmm2
    728c:	f3 0f 58 c3          	addss  xmm0,xmm3
    7290:	f3 0f 11 04 85 00 00 	movss  DWORD PTR [rax*4+0x0],xmm0
    7297:	00 00 
    7299:	f3 0f 59 14 85 00 00 	mulss  xmm2,DWORD PTR [rax*4+0x0]
    72a0:	00 00 
    72a2:	f3 0f 58 ca          	addss  xmm1,xmm2
    72a6:	f3 0f 11 0c 85 00 00 	movss  DWORD PTR [rax*4+0x0],xmm1
    72ad:	00 00 
    72af:	48 ff c0             	inc    rax
    72b2:	48 3d ff 7c 00 00    	cmp    rax,0x7cff
    72b8:	74 60                	je     731a <s277+0x307>
    72ba:	f3 0f 10 04 85 00 00 	movss  xmm0,DWORD PTR [rax*4+0x0]
    72c1:	00 00 
    72c3:	0f 2e c4             	ucomiss xmm0,xmm4
    72c6:	73 4a                	jae    7312 <s277+0x2ff>
    72c8:	f3 0f 10 0c 85 00 00 	movss  xmm1,DWORD PTR [rax*4+0x0]
    72cf:	00 00 
    72d1:	0f 2e cc             	ucomiss xmm1,xmm4
    72d4:	f3 0f 10 0c 85 00 00 	movss  xmm1,DWORD PTR [rax*4+0x0]
    72db:	00 00 
    72dd:	f3 0f 10 14 85 00 00 	movss  xmm2,DWORD PTR [rax*4+0x0]
    72e4:	00 00 
    72e6:	73 14                	jae    72fc <s277+0x2e9>
    72e8:	0f 28 d9             	movaps xmm3,xmm1
    72eb:	f3 0f 59 da          	mulss  xmm3,xmm2
    72ef:	f3 0f 58 c3          	addss  xmm0,xmm3
    72f3:	f3 0f 11 04 85 00 00 	movss  DWORD PTR [rax*4+0x0],xmm0
    72fa:	00 00 
    72fc:	f3 0f 59 14 85 00 00 	mulss  xmm2,DWORD PTR [rax*4+0x0]
    7303:	00 00 
    7305:	f3 0f 58 ca          	addss  xmm1,xmm2
    7309:	f3 0f 11 0c 85 00 00 	movss  DWORD PTR [rax*4+0x0],xmm1
    7310:	00 00 
    7312:	48 ff c0             	inc    rax
    7315:	e9 1b fd ff ff       	jmp    7035 <s277+0x22>
    731a:	bf 00 00 00 00       	mov    edi,0x0
    731f:	be 00 00 00 00       	mov    esi,0x0
    7324:	ba 00 00 00 00       	mov    edx,0x0
    7329:	b9 00 00 00 00       	mov    ecx,0x0
    732e:	41 b8 00 00 00 00    	mov    r8d,0x0
    7334:	41 b9 00 00 00 00    	mov    r9d,0x0
    733a:	0f 57 c0             	xorps  xmm0,xmm0
    733d:	68 00 00 00 00       	push   0x0
    7342:	68 00 00 00 00       	push   0x0
    7347:	e8 00 00 00 00       	call   734c <s277+0x339>
    734c:	0f 57 e4             	xorps  xmm4,xmm4
    734f:	48 83 c4 10          	add    rsp,0x10
    7353:	ff c3                	inc    ebx
    7355:	81 fb a0 86 01 00    	cmp    ebx,0x186a0
    735b:	0f 85 d2 fc ff ff    	jne    7033 <s277+0x20>
    7361:	49 83 c6 10          	add    r14,0x10
    7365:	4c 89 f7             	mov    rdi,r14
    7368:	31 f6                	xor    esi,esi
    736a:	e8 00 00 00 00       	call   736f <s277+0x35c>
    736f:	bf 00 00 00 00       	mov    edi,0x0
    7374:	48 83 c4 08          	add    rsp,0x8
    7378:	5b                   	pop    rbx
    7379:	41 5e                	pop    r14
    737b:	e9 00 00 00 00       	jmp    7380 <s278>

0000000000007380 <s278>:
    7380:	41 56                	push   r14
    7382:	53                   	push   rbx
    7383:	50                   	push   rax
    7384:	49 89 fe             	mov    r14,rdi
    7387:	bf 00 00 00 00       	mov    edi,0x0
    738c:	e8 00 00 00 00       	call   7391 <s278+0x11>
    7391:	31 db                	xor    ebx,ebx
    7393:	4c 89 f7             	mov    rdi,r14
    7396:	31 f6                	xor    esi,esi
    7398:	e8 00 00 00 00       	call   739d <s278+0x1d>
    739d:	0f 57 db             	xorps  xmm3,xmm3
    73a0:	48 c7 c0 00 0c fe ff 	mov    rax,0xfffffffffffe0c00
    73a7:	f3 0f 10 80 00 00 00 	movss  xmm0,DWORD PTR [rax+0x0]
    73ae:	00 
    73af:	0f 2e c3             	ucomiss xmm0,xmm3
    73b2:	76 2e                	jbe    73e2 <s278+0x62>
    73b4:	f3 0f 10 80 00 00 00 	movss  xmm0,DWORD PTR [rax+0x0]
    73bb:	00 
    73bc:	f3 0f 10 90 00 00 00 	movss  xmm2,DWORD PTR [rax+0x0]
    73c3:	00 
    73c4:	f3 0f 59 d0          	mulss  xmm2,xmm0
    73c8:	f3 0f 5c 90 00 00 00 	subss  xmm2,DWORD PTR [rax+0x0]
    73cf:	00 
    73d0:	f3 0f 11 90 00 00 00 	movss  DWORD PTR [rax+0x0],xmm2
    73d7:	00 
    73d8:	f3 0f 10 88 00 00 00 	movss  xmm1,DWORD PTR [rax+0x0]
    73df:	00 
    73e0:	eb 2c                	jmp    740e <s278+0x8e>
    73e2:	f3 0f 10 80 00 00 00 	movss  xmm0,DWORD PTR [rax+0x0]
    73e9:	00 
    73ea:	f3 0f 10 88 00 00 00 	movss  xmm1,DWORD PTR [rax+0x0]
    73f1:	00 
    73f2:	f3 0f 59 c8          	mulss  xmm1,xmm0
    73f6:	f3 0f 5c 88 00 00 00 	subss  xmm1,DWORD PTR [rax+0x0]
    73fd:	00 
    73fe:	f3 0f 11 88 00 00 00 	movss  DWORD PTR [rax+0x0],xmm1
    7405:	00 
    7406:	f3 0f 10 90 00 00 00 	movss  xmm2,DWORD PTR [rax+0x0]
    740d:	00 
    740e:	f3 0f 59 c2          	mulss  xmm0,xmm2
    7412:	f3 0f 58 c1          	addss  xmm0,xmm1
    7416:	f3 0f 11 80 00 00 00 	movss  DWORD PTR [rax+0x0],xmm0
    741d:	00 
    741e:	f3 0f 10 80 00 00 00 	movss  xmm0,DWORD PTR [rax+0x0]
    7425:	00 
    7426:	0f 2e c3             	ucomiss xmm0,xmm3
    7429:	76 2e                	jbe    7459 <s278+0xd9>
    742b:	f3 0f 10 80 00 00 00 	movss  xmm0,DWORD PTR [rax+0x0]
    7432:	00 
    7433:	f3 0f 10 90 00 00 00 	movss  xmm2,DWORD PTR [rax+0x0]
    743a:	00 
    743b:	f3 0f 59 d0          	mulss  xmm2,xmm0
    743f:	f3 0f 5c 90 00 00 00 	subss  xmm2,DWORD PTR [rax+0x0]
    7446:	00 
    7447:	f3 0f 11 90 00 00 00 	movss  DWORD PTR [rax+0x0],xmm2
    744e:	00 
    744f:	f3 0f 10 88 00 00 00 	movss  xmm1,DWORD PTR [rax+0x0]
    7456:	00 
    7457:	eb 2c                	jmp    7485 <s278+0x105>
    7459:	f3 0f 10 80 00 00 00 	movss  xmm0,DWORD PTR [rax+0x0]
    7460:	00 
    7461:	f3 0f 10 88 00 00 00 	movss  xmm1,DWORD PTR [rax+0x0]
    7468:	00 
    7469:	f3 0f 59 c8          	mulss  xmm1,xmm0
    746d:	f3 0f 5c 88 00 00 00 	subss  xmm1,DWORD PTR [rax+0x0]
    7474:	00 
    7475:	f3 0f 11 88 00 00 00 	movss  DWORD PTR [rax+0x0],xmm1
    747c:	00 
    747d:	f3 0f 10 90 00 00 00 	movss  xmm2,DWORD PTR [rax+0x0]
    7484:	00 
    7485:	f3 0f 59 c2          	mulss  xmm0,xmm2
    7489:	f3 0f 58 c1          	addss  xmm0,xmm1
    748d:	f3 0f 11 80 00 00 00 	movss  DWORD PTR [rax+0x0],xmm0
    7494:	00 
    7495:	f3 0f 10 80 00 00 00 	movss  xmm0,DWORD PTR [rax+0x0]
    749c:	00 
    749d:	0f 2e c3             	ucomiss xmm0,xmm3
    74a0:	76 2e                	jbe    74d0 <s278+0x150>
    74a2:	f3 0f 10 80 00 00 00 	movss  xmm0,DWORD PTR [rax+0x0]
    74a9:	00 
    74aa:	f3 0f 10 90 00 00 00 	movss  xmm2,DWORD PTR [rax+0x0]
    74b1:	00 
    74b2:	f3 0f 59 d0          	mulss  xmm2,xmm0
    74b6:	f3 0f 5c 90 00 00 00 	subss  xmm2,DWORD PTR [rax+0x0]
    74bd:	00 
    74be:	f3 0f 11 90 00 00 00 	movss  DWORD PTR [rax+0x0],xmm2
    74c5:	00 
    74c6:	f3 0f 10 88 00 00 00 	movss  xmm1,DWORD PTR [rax+0x0]
    74cd:	00 
    74ce:	eb 2c                	jmp    74fc <s278+0x17c>
    74d0:	f3 0f 10 80 00 00 00 	movss  xmm0,DWORD PTR [rax+0x0]
    74d7:	00 
    74d8:	f3 0f 10 88 00 00 00 	movss  xmm1,DWORD PTR [rax+0x0]
    74df:	00 
    74e0:	f3 0f 59 c8          	mulss  xmm1,xmm0
    74e4:	f3 0f 5c 88 00 00 00 	subss  xmm1,DWORD PTR [rax+0x0]
    74eb:	00 
    74ec:	f3 0f 11 88 00 00 00 	movss  DWORD PTR [rax+0x0],xmm1
    74f3:	00 
    74f4:	f3 0f 10 90 00 00 00 	movss  xmm2,DWORD PTR [rax+0x0]
    74fb:	00 
    74fc:	f3 0f 59 c2          	mulss  xmm0,xmm2
    7500:	f3 0f 58 c1          	addss  xmm0,xmm1
    7504:	f3 0f 11 80 00 00 00 	movss  DWORD PTR [rax+0x0],xmm0
    750b:	00 
    750c:	f3 0f 10 80 00 00 00 	movss  xmm0,DWORD PTR [rax+0x0]
    7513:	00 
    7514:	0f 2e c3             	ucomiss xmm0,xmm3
    7517:	76 2e                	jbe    7547 <s278+0x1c7>
    7519:	f3 0f 10 80 00 00 00 	movss  xmm0,DWORD PTR [rax+0x0]
    7520:	00 
    7521:	f3 0f 10 90 00 00 00 	movss  xmm2,DWORD PTR [rax+0x0]
    7528:	00 
    7529:	f3 0f 59 d0          	mulss  xmm2,xmm0
    752d:	f3 0f 5c 90 00 00 00 	subss  xmm2,DWORD PTR [rax+0x0]
    7534:	00 
    7535:	f3 0f 11 90 00 00 00 	movss  DWORD PTR [rax+0x0],xmm2
    753c:	00 
    753d:	f3 0f 10 88 00 00 00 	movss  xmm1,DWORD PTR [rax+0x0]
    7544:	00 
    7545:	eb 2c                	jmp    7573 <s278+0x1f3>
    7547:	f3 0f 10 80 00 00 00 	movss  xmm0,DWORD PTR [rax+0x0]
    754e:	00 
    754f:	f3 0f 10 88 00 00 00 	movss  xmm1,DWORD PTR [rax+0x0]
    7556:	00 
    7557:	f3 0f 59 c8          	mulss  xmm1,xmm0
    755b:	f3 0f 5c 88 00 00 00 	subss  xmm1,DWORD PTR [rax+0x0]
    7562:	00 
    7563:	f3 0f 11 88 00 00 00 	movss  DWORD PTR [rax+0x0],xmm1
    756a:	00 
    756b:	f3 0f 10 90 00 00 00 	movss  xmm2,DWORD PTR [rax+0x0]
    7572:	00 
    7573:	f3 0f 59 c2          	mulss  xmm0,xmm2
    7577:	f3 0f 58 c1          	addss  xmm0,xmm1
    757b:	f3 0f 11 80 00 00 00 	movss  DWORD PTR [rax+0x0],xmm0
    7582:	00 
    7583:	f3 0f 10 80 00 00 00 	movss  xmm0,DWORD PTR [rax+0x0]
    758a:	00 
    758b:	0f 2e c3             	ucomiss xmm0,xmm3
    758e:	76 2e                	jbe    75be <s278+0x23e>
    7590:	f3 0f 10 80 00 00 00 	movss  xmm0,DWORD PTR [rax+0x0]
    7597:	00 
    7598:	f3 0f 10 90 00 00 00 	movss  xmm2,DWORD PTR [rax+0x0]
    759f:	00 
    75a0:	f3 0f 59 d0          	mulss  xmm2,xmm0
    75a4:	f3 0f 5c 90 00 00 00 	subss  xmm2,DWORD PTR [rax+0x0]
    75ab:	00 
    75ac:	f3 0f 11 90 00 00 00 	movss  DWORD PTR [rax+0x0],xmm2
    75b3:	00 
    75b4:	f3 0f 10 88 00 00 00 	movss  xmm1,DWORD PTR [rax+0x0]
    75bb:	00 
    75bc:	eb 2c                	jmp    75ea <s278+0x26a>
    75be:	f3 0f 10 80 00 00 00 	movss  xmm0,DWORD PTR [rax+0x0]
    75c5:	00 
    75c6:	f3 0f 10 88 00 00 00 	movss  xmm1,DWORD PTR [rax+0x0]
    75cd:	00 
    75ce:	f3 0f 59 c8          	mulss  xmm1,xmm0
    75d2:	f3 0f 5c 88 00 00 00 	subss  xmm1,DWORD PTR [rax+0x0]
    75d9:	00 
    75da:	f3 0f 11 88 00 00 00 	movss  DWORD PTR [rax+0x0],xmm1
    75e1:	00 
    75e2:	f3 0f 10 90 00 00 00 	movss  xmm2,DWORD PTR [rax+0x0]
    75e9:	00 
    75ea:	f3 0f 59 c2          	mulss  xmm0,xmm2
    75ee:	f3 0f 58 c1          	addss  xmm0,xmm1
    75f2:	f3 0f 11 80 00 00 00 	movss  DWORD PTR [rax+0x0],xmm0
    75f9:	00 
    75fa:	f3 0f 10 80 00 00 00 	movss  xmm0,DWORD PTR [rax+0x0]
    7601:	00 
    7602:	0f 2e c3             	ucomiss xmm0,xmm3
    7605:	76 2e                	jbe    7635 <s278+0x2b5>
    7607:	f3 0f 10 80 00 00 00 	movss  xmm0,DWORD PTR [rax+0x0]
    760e:	00 
    760f:	f3 0f 10 90 00 00 00 	movss  xmm2,DWORD PTR [rax+0x0]
    7616:	00 
    7617:	f3 0f 59 d0          	mulss  xmm2,xmm0
    761b:	f3 0f 5c 90 00 00 00 	subss  xmm2,DWORD PTR [rax+0x0]
    7622:	00 
    7623:	f3 0f 11 90 00 00 00 	movss  DWORD PTR [rax+0x0],xmm2
    762a:	00 
    762b:	f3 0f 10 88 00 00 00 	movss  xmm1,DWORD PTR [rax+0x0]
    7632:	00 
    7633:	eb 2c                	jmp    7661 <s278+0x2e1>
    7635:	f3 0f 10 80 00 00 00 	movss  xmm0,DWORD PTR [rax+0x0]
    763c:	00 
    763d:	f3 0f 10 88 00 00 00 	movss  xmm1,DWORD PTR [rax+0x0]
    7644:	00 
    7645:	f3 0f 59 c8          	mulss  xmm1,xmm0
    7649:	f3 0f 5c 88 00 00 00 	subss  xmm1,DWORD PTR [rax+0x0]
    7650:	00 
    7651:	f3 0f 11 88 00 00 00 	movss  DWORD PTR [rax+0x0],xmm1
    7658:	00 
    7659:	f3 0f 10 90 00 00 00 	movss  xmm2,DWORD PTR [rax+0x0]
    7660:	00 
    7661:	f3 0f 59 c2          	mulss  xmm0,xmm2
    7665:	f3 0f 58 c1          	addss  xmm0,xmm1
    7669:	f3 0f 11 80 00 00 00 	movss  DWORD PTR [rax+0x0],xmm0
    7670:	00 
    7671:	f3 0f 10 80 00 00 00 	movss  xmm0,DWORD PTR [rax+0x0]
    7678:	00 
    7679:	0f 2e c3             	ucomiss xmm0,xmm3
    767c:	76 2e                	jbe    76ac <s278+0x32c>
    767e:	f3 0f 10 80 00 00 00 	movss  xmm0,DWORD PTR [rax+0x0]
    7685:	00 
    7686:	f3 0f 10 90 00 00 00 	movss  xmm2,DWORD PTR [rax+0x0]
    768d:	00 
    768e:	f3 0f 59 d0          	mulss  xmm2,xmm0
    7692:	f3 0f 5c 90 00 00 00 	subss  xmm2,DWORD PTR [rax+0x0]
    7699:	00 
    769a:	f3 0f 11 90 00 00 00 	movss  DWORD PTR [rax+0x0],xmm2
    76a1:	00 
    76a2:	f3 0f 10 88 00 00 00 	movss  xmm1,DWORD PTR [rax+0x0]
    76a9:	00 
    76aa:	eb 2c                	jmp    76d8 <s278+0x358>
    76ac:	f3 0f 10 80 00 00 00 	movss  xmm0,DWORD PTR [rax+0x0]
    76b3:	00 
    76b4:	f3 0f 10 88 00 00 00 	movss  xmm1,DWORD PTR [rax+0x0]
    76bb:	00 
    76bc:	f3 0f 59 c8          	mulss  xmm1,xmm0
    76c0:	f3 0f 5c 88 00 00 00 	subss  xmm1,DWORD PTR [rax+0x0]
    76c7:	00 
    76c8:	f3 0f 11 88 00 00 00 	movss  DWORD PTR [rax+0x0],xmm1
    76cf:	00 
    76d0:	f3 0f 10 90 00 00 00 	movss  xmm2,DWORD PTR [rax+0x0]
    76d7:	00 
    76d8:	f3 0f 59 c2          	mulss  xmm0,xmm2
    76dc:	f3 0f 58 c1          	addss  xmm0,xmm1
    76e0:	f3 0f 11 80 00 00 00 	movss  DWORD PTR [rax+0x0],xmm0
    76e7:	00 
    76e8:	f3 0f 10 80 00 00 00 	movss  xmm0,DWORD PTR [rax+0x0]
    76ef:	00 
    76f0:	0f 2e c3             	ucomiss xmm0,xmm3
    76f3:	76 2e                	jbe    7723 <s278+0x3a3>
    76f5:	f3 0f 10 80 00 00 00 	movss  xmm0,DWORD PTR [rax+0x0]
    76fc:	00 
    76fd:	f3 0f 10 90 00 00 00 	movss  xmm2,DWORD PTR [rax+0x0]
    7704:	00 
    7705:	f3 0f 59 d0          	mulss  xmm2,xmm0
    7709:	f3 0f 5c 90 00 00 00 	subss  xmm2,DWORD PTR [rax+0x0]
    7710:	00 
    7711:	f3 0f 11 90 00 00 00 	movss  DWORD PTR [rax+0x0],xmm2
    7718:	00 
    7719:	f3 0f 10 88 00 00 00 	movss  xmm1,DWORD PTR [rax+0x0]
    7720:	00 
    7721:	eb 2c                	jmp    774f <s278+0x3cf>
    7723:	f3 0f 10 80 00 00 00 	movss  xmm0,DWORD PTR [rax+0x0]
    772a:	00 
    772b:	f3 0f 10 88 00 00 00 	movss  xmm1,DWORD PTR [rax+0x0]
    7732:	00 
    7733:	f3 0f 59 c8          	mulss  xmm1,xmm0
    7737:	f3 0f 5c 88 00 00 00 	subss  xmm1,DWORD PTR [rax+0x0]
    773e:	00 
    773f:	f3 0f 11 88 00 00 00 	movss  DWORD PTR [rax+0x0],xmm1
    7746:	00 
    7747:	f3 0f 10 90 00 00 00 	movss  xmm2,DWORD PTR [rax+0x0]
    774e:	00 
    774f:	f3 0f 59 c2          	mulss  xmm0,xmm2
    7753:	f3 0f 58 c1          	addss  xmm0,xmm1
    7757:	f3 0f 11 80 00 00 00 	movss  DWORD PTR [rax+0x0],xmm0
    775e:	00 
    775f:	48 83 c0 20          	add    rax,0x20
    7763:	0f 85 3e fc ff ff    	jne    73a7 <s278+0x27>
    7769:	bf 00 00 00 00       	mov    edi,0x0
    776e:	be 00 00 00 00       	mov    esi,0x0
    7773:	ba 00 00 00 00       	mov    edx,0x0
    7778:	b9 00 00 00 00       	mov    ecx,0x0
    777d:	41 b8 00 00 00 00    	mov    r8d,0x0
    7783:	41 b9 00 00 00 00    	mov    r9d,0x0
    7789:	0f 57 c0             	xorps  xmm0,xmm0
    778c:	68 00 00 00 00       	push   0x0
    7791:	68 00 00 00 00       	push   0x0
    7796:	e8 00 00 00 00       	call   779b <s278+0x41b>
    779b:	0f 57 db             	xorps  xmm3,xmm3
    779e:	48 83 c4 10          	add    rsp,0x10
    77a2:	ff c3                	inc    ebx
    77a4:	81 fb a0 86 01 00    	cmp    ebx,0x186a0
    77aa:	0f 85 f0 fb ff ff    	jne    73a0 <s278+0x20>
    77b0:	49 83 c6 10          	add    r14,0x10
    77b4:	4c 89 f7             	mov    rdi,r14
    77b7:	31 f6                	xor    esi,esi
    77b9:	e8 00 00 00 00       	call   77be <s278+0x43e>
    77be:	bf 00 00 00 00       	mov    edi,0x0
    77c3:	48 83 c4 08          	add    rsp,0x8
    77c7:	5b                   	pop    rbx
    77c8:	41 5e                	pop    r14
    77ca:	e9 00 00 00 00       	jmp    77cf <s279>

00000000000077cf <s279>:
    77cf:	41 56                	push   r14
    77d1:	53                   	push   rbx
    77d2:	50                   	push   rax
    77d3:	49 89 fe             	mov    r14,rdi
    77d6:	bf 00 00 00 00       	mov    edi,0x0
    77db:	e8 00 00 00 00       	call   77e0 <s279+0x11>
    77e0:	31 db                	xor    ebx,ebx
    77e2:	4c 89 f7             	mov    rdi,r14
    77e5:	31 f6                	xor    esi,esi
    77e7:	e8 00 00 00 00       	call   77ec <s279+0x1d>
    77ec:	0f 57 db             	xorps  xmm3,xmm3
    77ef:	48 c7 c0 00 0c fe ff 	mov    rax,0xfffffffffffe0c00
    77f6:	f3 0f 10 90 00 00 00 	movss  xmm2,DWORD PTR [rax+0x0]
    77fd:	00 
    77fe:	0f 2e d3             	ucomiss xmm2,xmm3
    7801:	76 2e                	jbe    7831 <s279+0x62>
    7803:	f3 0f 10 90 00 00 00 	movss  xmm2,DWORD PTR [rax+0x0]
    780a:	00 
    780b:	f3 0f 59 d2          	mulss  xmm2,xmm2
    780f:	f3 0f 5c 90 00 00 00 	subss  xmm2,DWORD PTR [rax+0x0]
    7816:	00 
    7817:	f3 0f 11 90 00 00 00 	movss  DWORD PTR [rax+0x0],xmm2
    781e:	00 
    781f:	f3 0f 10 88 00 00 00 	movss  xmm1,DWORD PTR [rax+0x0]
    7826:	00 
    7827:	f3 0f 10 80 00 00 00 	movss  xmm0,DWORD PTR [rax+0x0]
    782e:	00 
    782f:	eb 4a                	jmp    787b <s279+0xac>
    7831:	f3 0f 10 80 00 00 00 	movss  xmm0,DWORD PTR [rax+0x0]
    7838:	00 
    7839:	0f 28 c8             	movaps xmm1,xmm0
    783c:	f3 0f 59 c8          	mulss  xmm1,xmm0
    7840:	f3 0f 5c 88 00 00 00 	subss  xmm1,DWORD PTR [rax+0x0]
    7847:	00 
    7848:	f3 0f 11 88 00 00 00 	movss  DWORD PTR [rax+0x0],xmm1
    784f:	00 
    7850:	0f 2e d1             	ucomiss xmm2,xmm1
    7853:	73 1e                	jae    7873 <s279+0xa4>
    7855:	f3 0f 10 90 00 00 00 	movss  xmm2,DWORD PTR [rax+0x0]
    785c:	00 
    785d:	f3 0f 59 d0          	mulss  xmm2,xmm0
    7861:	f3 0f 58 90 00 00 00 	addss  xmm2,DWORD PTR [rax+0x0]
    7868:	00 
    7869:	f3 0f 11 90 00 00 00 	movss  DWORD PTR [rax+0x0],xmm2
    7870:	00 
    7871:	eb 08                	jmp    787b <s279+0xac>
    7873:	f3 0f 10 90 00 00 00 	movss  xmm2,DWORD PTR [rax+0x0]
    787a:	00 
    787b:	f3 0f 59 c2          	mulss  xmm0,xmm2
    787f:	f3 0f 58 c1          	addss  xmm0,xmm1
    7883:	f3 0f 11 80 00 00 00 	movss  DWORD PTR [rax+0x0],xmm0
    788a:	00 
    788b:	f3 0f 10 90 00 00 00 	movss  xmm2,DWORD PTR [rax+0x0]
    7892:	00 
    7893:	0f 2e d3             	ucomiss xmm2,xmm3
    7896:	76 2e                	jbe    78c6 <s279+0xf7>
    7898:	f3 0f 10 90 00 00 00 	movss  xmm2,DWORD PTR [rax+0x0]
    789f:	00 
    78a0:	f3 0f 59 d2          	mulss  xmm2,xmm2
    78a4:	f3 0f 5c 90 00 00 00 	subss  xmm2,DWORD PTR [rax+0x0]
    78ab:	00 
    78ac:	f3 0f 11 90 00 00 00 	movss  DWORD PTR [rax+0x0],xmm2
    78b3:	00 
    78b4:	f3 0f 10 88 00 00 00 	movss  xmm1,DWORD PTR [rax+0x0]
    78bb:	00 
    78bc:	f3 0f 10 80 00 00 00 	movss  xmm0,DWORD PTR [rax+0x0]
    78c3:	00 
    78c4:	eb 4a                	jmp    7910 <s279+0x141>
    78c6:	f3 0f 10 80 00 00 00 	movss  xmm0,DWORD PTR [rax+0x0]
    78cd:	00 
    78ce:	0f 28 c8             	movaps xmm1,xmm0
    78d1:	f3 0f 59 c8          	mulss  xmm1,xmm0
    78d5:	f3 0f 5c 88 00 00 00 	subss  xmm1,DWORD PTR [rax+0x0]
    78dc:	00 
    78dd:	f3 0f 11 88 00 00 00 	movss  DWORD PTR [rax+0x0],xmm1
    78e4:	00 
    78e5:	0f 2e d1             	ucomiss xmm2,xmm1
    78e8:	73 1e                	jae    7908 <s279+0x139>
    78ea:	f3 0f 10 90 00 00 00 	movss  xmm2,DWORD PTR [rax+0x0]
    78f1:	00 
    78f2:	f3 0f 59 d0          	mulss  xmm2,xmm0
    78f6:	f3 0f 58 90 00 00 00 	addss  xmm2,DWORD PTR [rax+0x0]
    78fd:	00 
    78fe:	f3 0f 11 90 00 00 00 	movss  DWORD PTR [rax+0x0],xmm2
    7905:	00 
    7906:	eb 08                	jmp    7910 <s279+0x141>
    7908:	f3 0f 10 90 00 00 00 	movss  xmm2,DWORD PTR [rax+0x0]
    790f:	00 
    7910:	f3 0f 59 c2          	mulss  xmm0,xmm2
    7914:	f3 0f 58 c1          	addss  xmm0,xmm1
    7918:	f3 0f 11 80 00 00 00 	movss  DWORD PTR [rax+0x0],xmm0
    791f:	00 
    7920:	f3 0f 10 90 00 00 00 	movss  xmm2,DWORD PTR [rax+0x0]
    7927:	00 
    7928:	0f 2e d3             	ucomiss xmm2,xmm3
    792b:	76 2e                	jbe    795b <s279+0x18c>
    792d:	f3 0f 10 90 00 00 00 	movss  xmm2,DWORD PTR [rax+0x0]
    7934:	00 
    7935:	f3 0f 59 d2          	mulss  xmm2,xmm2
    7939:	f3 0f 5c 90 00 00 00 	subss  xmm2,DWORD PTR [rax+0x0]
    7940:	00 
    7941:	f3 0f 11 90 00 00 00 	movss  DWORD PTR [rax+0x0],xmm2
    7948:	00 
    7949:	f3 0f 10 88 00 00 00 	movss  xmm1,DWORD PTR [rax+0x0]
    7950:	00 
    7951:	f3 0f 10 80 00 00 00 	movss  xmm0,DWORD PTR [rax+0x0]
    7958:	00 
    7959:	eb 4a                	jmp    79a5 <s279+0x1d6>
    795b:	f3 0f 10 80 00 00 00 	movss  xmm0,DWORD PTR [rax+0x0]
    7962:	00 
    7963:	0f 28 c8             	movaps xmm1,xmm0
    7966:	f3 0f 59 c8          	mulss  xmm1,xmm0
    796a:	f3 0f 5c 88 00 00 00 	subss  xmm1,DWORD PTR [rax+0x0]
    7971:	00 
    7972:	f3 0f 11 88 00 00 00 	movss  DWORD PTR [rax+0x0],xmm1
    7979:	00 
    797a:	0f 2e d1             	ucomiss xmm2,xmm1
    797d:	73 1e                	jae    799d <s279+0x1ce>
    797f:	f3 0f 10 90 00 00 00 	movss  xmm2,DWORD PTR [rax+0x0]
    7986:	00 
    7987:	f3 0f 59 d0          	mulss  xmm2,xmm0
    798b:	f3 0f 58 90 00 00 00 	addss  xmm2,DWORD PTR [rax+0x0]
    7992:	00 
    7993:	f3 0f 11 90 00 00 00 	movss  DWORD PTR [rax+0x0],xmm2
    799a:	00 
    799b:	eb 08                	jmp    79a5 <s279+0x1d6>
    799d:	f3 0f 10 90 00 00 00 	movss  xmm2,DWORD PTR [rax+0x0]
    79a4:	00 
    79a5:	f3 0f 59 c2          	mulss  xmm0,xmm2
    79a9:	f3 0f 58 c1          	addss  xmm0,xmm1
    79ad:	f3 0f 11 80 00 00 00 	movss  DWORD PTR [rax+0x0],xmm0
    79b4:	00 
    79b5:	f3 0f 10 90 00 00 00 	movss  xmm2,DWORD PTR [rax+0x0]
    79bc:	00 
    79bd:	0f 2e d3             	ucomiss xmm2,xmm3
    79c0:	76 2e                	jbe    79f0 <s279+0x221>
    79c2:	f3 0f 10 90 00 00 00 	movss  xmm2,DWORD PTR [rax+0x0]
    79c9:	00 
    79ca:	f3 0f 59 d2          	mulss  xmm2,xmm2
    79ce:	f3 0f 5c 90 00 00 00 	subss  xmm2,DWORD PTR [rax+0x0]
    79d5:	00 
    79d6:	f3 0f 11 90 00 00 00 	movss  DWORD PTR [rax+0x0],xmm2
    79dd:	00 
    79de:	f3 0f 10 88 00 00 00 	movss  xmm1,DWORD PTR [rax+0x0]
    79e5:	00 
    79e6:	f3 0f 10 80 00 00 00 	movss  xmm0,DWORD PTR [rax+0x0]
    79ed:	00 
    79ee:	eb 4a                	jmp    7a3a <s279+0x26b>
    79f0:	f3 0f 10 80 00 00 00 	movss  xmm0,DWORD PTR [rax+0x0]
    79f7:	00 
    79f8:	0f 28 c8             	movaps xmm1,xmm0
    79fb:	f3 0f 59 c8          	mulss  xmm1,xmm0
    79ff:	f3 0f 5c 88 00 00 00 	subss  xmm1,DWORD PTR [rax+0x0]
    7a06:	00 
    7a07:	f3 0f 11 88 00 00 00 	movss  DWORD PTR [rax+0x0],xmm1
    7a0e:	00 
    7a0f:	0f 2e d1             	ucomiss xmm2,xmm1
    7a12:	73 1e                	jae    7a32 <s279+0x263>
    7a14:	f3 0f 10 90 00 00 00 	movss  xmm2,DWORD PTR [rax+0x0]
    7a1b:	00 
    7a1c:	f3 0f 59 d0          	mulss  xmm2,xmm0
    7a20:	f3 0f 58 90 00 00 00 	addss  xmm2,DWORD PTR [rax+0x0]
    7a27:	00 
    7a28:	f3 0f 11 90 00 00 00 	movss  DWORD PTR [rax+0x0],xmm2
    7a2f:	00 
    7a30:	eb 08                	jmp    7a3a <s279+0x26b>
    7a32:	f3 0f 10 90 00 00 00 	movss  xmm2,DWORD PTR [rax+0x0]
    7a39:	00 
    7a3a:	f3 0f 59 c2          	mulss  xmm0,xmm2
    7a3e:	f3 0f 58 c1          	addss  xmm0,xmm1
    7a42:	f3 0f 11 80 00 00 00 	movss  DWORD PTR [rax+0x0],xmm0
    7a49:	00 
    7a4a:	f3 0f 10 90 00 00 00 	movss  xmm2,DWORD PTR [rax+0x0]
    7a51:	00 
    7a52:	0f 2e d3             	ucomiss xmm2,xmm3
    7a55:	76 2e                	jbe    7a85 <s279+0x2b6>
    7a57:	f3 0f 10 90 00 00 00 	movss  xmm2,DWORD PTR [rax+0x0]
    7a5e:	00 
    7a5f:	f3 0f 59 d2          	mulss  xmm2,xmm2
    7a63:	f3 0f 5c 90 00 00 00 	subss  xmm2,DWORD PTR [rax+0x0]
    7a6a:	00 
    7a6b:	f3 0f 11 90 00 00 00 	movss  DWORD PTR [rax+0x0],xmm2
    7a72:	00 
    7a73:	f3 0f 10 88 00 00 00 	movss  xmm1,DWORD PTR [rax+0x0]
    7a7a:	00 
    7a7b:	f3 0f 10 80 00 00 00 	movss  xmm0,DWORD PTR [rax+0x0]
    7a82:	00 
    7a83:	eb 4a                	jmp    7acf <s279+0x300>
    7a85:	f3 0f 10 80 00 00 00 	movss  xmm0,DWORD PTR [rax+0x0]
    7a8c:	00 
    7a8d:	0f 28 c8             	movaps xmm1,xmm0
    7a90:	f3 0f 59 c8          	mulss  xmm1,xmm0
    7a94:	f3 0f 5c 88 00 00 00 	subss  xmm1,DWORD PTR [rax+0x0]
    7a9b:	00 
    7a9c:	f3 0f 11 88 00 00 00 	movss  DWORD PTR [rax+0x0],xmm1
    7aa3:	00 
    7aa4:	0f 2e d1             	ucomiss xmm2,xmm1
    7aa7:	73 1e                	jae    7ac7 <s279+0x2f8>
    7aa9:	f3 0f 10 90 00 00 00 	movss  xmm2,DWORD PTR [rax+0x0]
    7ab0:	00 
    7ab1:	f3 0f 59 d0          	mulss  xmm2,xmm0
    7ab5:	f3 0f 58 90 00 00 00 	addss  xmm2,DWORD PTR [rax+0x0]
    7abc:	00 
    7abd:	f3 0f 11 90 00 00 00 	movss  DWORD PTR [rax+0x0],xmm2
    7ac4:	00 
    7ac5:	eb 08                	jmp    7acf <s279+0x300>
    7ac7:	f3 0f 10 90 00 00 00 	movss  xmm2,DWORD PTR [rax+0x0]
    7ace:	00 
    7acf:	f3 0f 59 c2          	mulss  xmm0,xmm2
    7ad3:	f3 0f 58 c1          	addss  xmm0,xmm1
    7ad7:	f3 0f 11 80 00 00 00 	movss  DWORD PTR [rax+0x0],xmm0
    7ade:	00 
    7adf:	f3 0f 10 90 00 00 00 	movss  xmm2,DWORD PTR [rax+0x0]
    7ae6:	00 
    7ae7:	0f 2e d3             	ucomiss xmm2,xmm3
    7aea:	76 2e                	jbe    7b1a <s279+0x34b>
    7aec:	f3 0f 10 90 00 00 00 	movss  xmm2,DWORD PTR [rax+0x0]
    7af3:	00 
    7af4:	f3 0f 59 d2          	mulss  xmm2,xmm2
    7af8:	f3 0f 5c 90 00 00 00 	subss  xmm2,DWORD PTR [rax+0x0]
    7aff:	00 
    7b00:	f3 0f 11 90 00 00 00 	movss  DWORD PTR [rax+0x0],xmm2
    7b07:	00 
    7b08:	f3 0f 10 88 00 00 00 	movss  xmm1,DWORD PTR [rax+0x0]
    7b0f:	00 
    7b10:	f3 0f 10 80 00 00 00 	movss  xmm0,DWORD PTR [rax+0x0]
    7b17:	00 
    7b18:	eb 4a                	jmp    7b64 <s279+0x395>
    7b1a:	f3 0f 10 80 00 00 00 	movss  xmm0,DWORD PTR [rax+0x0]
    7b21:	00 
    7b22:	0f 28 c8             	movaps xmm1,xmm0
    7b25:	f3 0f 59 c8          	mulss  xmm1,xmm0
    7b29:	f3 0f 5c 88 00 00 00 	subss  xmm1,DWORD PTR [rax+0x0]
    7b30:	00 
    7b31:	f3 0f 11 88 00 00 00 	movss  DWORD PTR [rax+0x0],xmm1
    7b38:	00 
    7b39:	0f 2e d1             	ucomiss xmm2,xmm1
    7b3c:	73 1e                	jae    7b5c <s279+0x38d>
    7b3e:	f3 0f 10 90 00 00 00 	movss  xmm2,DWORD PTR [rax+0x0]
    7b45:	00 
    7b46:	f3 0f 59 d0          	mulss  xmm2,xmm0
    7b4a:	f3 0f 58 90 00 00 00 	addss  xmm2,DWORD PTR [rax+0x0]
    7b51:	00 
    7b52:	f3 0f 11 90 00 00 00 	movss  DWORD PTR [rax+0x0],xmm2
    7b59:	00 
    7b5a:	eb 08                	jmp    7b64 <s279+0x395>
    7b5c:	f3 0f 10 90 00 00 00 	movss  xmm2,DWORD PTR [rax+0x0]
    7b63:	00 
    7b64:	f3 0f 59 c2          	mulss  xmm0,xmm2
    7b68:	f3 0f 58 c1          	addss  xmm0,xmm1
    7b6c:	f3 0f 11 80 00 00 00 	movss  DWORD PTR [rax+0x0],xmm0
    7b73:	00 
    7b74:	f3 0f 10 90 00 00 00 	movss  xmm2,DWORD PTR [rax+0x0]
    7b7b:	00 
    7b7c:	0f 2e d3             	ucomiss xmm2,xmm3
    7b7f:	76 2e                	jbe    7baf <s279+0x3e0>
    7b81:	f3 0f 10 90 00 00 00 	movss  xmm2,DWORD PTR [rax+0x0]
    7b88:	00 
    7b89:	f3 0f 59 d2          	mulss  xmm2,xmm2
    7b8d:	f3 0f 5c 90 00 00 00 	subss  xmm2,DWORD PTR [rax+0x0]
    7b94:	00 
    7b95:	f3 0f 11 90 00 00 00 	movss  DWORD PTR [rax+0x0],xmm2
    7b9c:	00 
    7b9d:	f3 0f 10 88 00 00 00 	movss  xmm1,DWORD PTR [rax+0x0]
    7ba4:	00 
    7ba5:	f3 0f 10 80 00 00 00 	movss  xmm0,DWORD PTR [rax+0x0]
    7bac:	00 
    7bad:	eb 4a                	jmp    7bf9 <s279+0x42a>
    7baf:	f3 0f 10 80 00 00 00 	movss  xmm0,DWORD PTR [rax+0x0]
    7bb6:	00 
    7bb7:	0f 28 c8             	movaps xmm1,xmm0
    7bba:	f3 0f 59 c8          	mulss  xmm1,xmm0
    7bbe:	f3 0f 5c 88 00 00 00 	subss  xmm1,DWORD PTR [rax+0x0]
    7bc5:	00 
    7bc6:	f3 0f 11 88 00 00 00 	movss  DWORD PTR [rax+0x0],xmm1
    7bcd:	00 
    7bce:	0f 2e d1             	ucomiss xmm2,xmm1
    7bd1:	73 1e                	jae    7bf1 <s279+0x422>
    7bd3:	f3 0f 10 90 00 00 00 	movss  xmm2,DWORD PTR [rax+0x0]
    7bda:	00 
    7bdb:	f3 0f 59 d0          	mulss  xmm2,xmm0
    7bdf:	f3 0f 58 90 00 00 00 	addss  xmm2,DWORD PTR [rax+0x0]
    7be6:	00 
    7be7:	f3 0f 11 90 00 00 00 	movss  DWORD PTR [rax+0x0],xmm2
    7bee:	00 
    7bef:	eb 08                	jmp    7bf9 <s279+0x42a>
    7bf1:	f3 0f 10 90 00 00 00 	movss  xmm2,DWORD PTR [rax+0x0]
    7bf8:	00 
    7bf9:	f3 0f 59 c2          	mulss  xmm0,xmm2
    7bfd:	f3 0f 58 c1          	addss  xmm0,xmm1
    7c01:	f3 0f 11 80 00 00 00 	movss  DWORD PTR [rax+0x0],xmm0
    7c08:	00 
    7c09:	f3 0f 10 90 00 00 00 	movss  xmm2,DWORD PTR [rax+0x0]
    7c10:	00 
    7c11:	0f 2e d3             	ucomiss xmm2,xmm3
    7c14:	76 2e                	jbe    7c44 <s279+0x475>
    7c16:	f3 0f 10 90 00 00 00 	movss  xmm2,DWORD PTR [rax+0x0]
    7c1d:	00 
    7c1e:	f3 0f 59 d2          	mulss  xmm2,xmm2
    7c22:	f3 0f 5c 90 00 00 00 	subss  xmm2,DWORD PTR [rax+0x0]
    7c29:	00 
    7c2a:	f3 0f 11 90 00 00 00 	movss  DWORD PTR [rax+0x0],xmm2
    7c31:	00 
    7c32:	f3 0f 10 88 00 00 00 	movss  xmm1,DWORD PTR [rax+0x0]
    7c39:	00 
    7c3a:	f3 0f 10 80 00 00 00 	movss  xmm0,DWORD PTR [rax+0x0]
    7c41:	00 
    7c42:	eb 4a                	jmp    7c8e <s279+0x4bf>
    7c44:	f3 0f 10 80 00 00 00 	movss  xmm0,DWORD PTR [rax+0x0]
    7c4b:	00 
    7c4c:	0f 28 c8             	movaps xmm1,xmm0
    7c4f:	f3 0f 59 c8          	mulss  xmm1,xmm0
    7c53:	f3 0f 5c 88 00 00 00 	subss  xmm1,DWORD PTR [rax+0x0]
    7c5a:	00 
    7c5b:	f3 0f 11 88 00 00 00 	movss  DWORD PTR [rax+0x0],xmm1
    7c62:	00 
    7c63:	0f 2e d1             	ucomiss xmm2,xmm1
    7c66:	73 1e                	jae    7c86 <s279+0x4b7>
    7c68:	f3 0f 10 90 00 00 00 	movss  xmm2,DWORD PTR [rax+0x0]
    7c6f:	00 
    7c70:	f3 0f 59 d0          	mulss  xmm2,xmm0
    7c74:	f3 0f 58 90 00 00 00 	addss  xmm2,DWORD PTR [rax+0x0]
    7c7b:	00 
    7c7c:	f3 0f 11 90 00 00 00 	movss  DWORD PTR [rax+0x0],xmm2
    7c83:	00 
    7c84:	eb 08                	jmp    7c8e <s279+0x4bf>
    7c86:	f3 0f 10 90 00 00 00 	movss  xmm2,DWORD PTR [rax+0x0]
    7c8d:	00 
    7c8e:	f3 0f 59 c2          	mulss  xmm0,xmm2
    7c92:	f3 0f 58 c1          	addss  xmm0,xmm1
    7c96:	f3 0f 11 80 00 00 00 	movss  DWORD PTR [rax+0x0],xmm0
    7c9d:	00 
    7c9e:	48 83 c0 20          	add    rax,0x20
    7ca2:	0f 85 4e fb ff ff    	jne    77f6 <s279+0x27>
    7ca8:	bf 00 00 00 00       	mov    edi,0x0
    7cad:	be 00 00 00 00       	mov    esi,0x0
    7cb2:	ba 00 00 00 00       	mov    edx,0x0
    7cb7:	b9 00 00 00 00       	mov    ecx,0x0
    7cbc:	41 b8 00 00 00 00    	mov    r8d,0x0
    7cc2:	41 b9 00 00 00 00    	mov    r9d,0x0
    7cc8:	0f 57 c0             	xorps  xmm0,xmm0
    7ccb:	68 00 00 00 00       	push   0x0
    7cd0:	68 00 00 00 00       	push   0x0
    7cd5:	e8 00 00 00 00       	call   7cda <s279+0x50b>
    7cda:	0f 57 db             	xorps  xmm3,xmm3
    7cdd:	48 83 c4 10          	add    rsp,0x10
    7ce1:	ff c3                	inc    ebx
    7ce3:	81 fb 50 c3 00 00    	cmp    ebx,0xc350
    7ce9:	0f 85 00 fb ff ff    	jne    77ef <s279+0x20>
    7cef:	49 83 c6 10          	add    r14,0x10
    7cf3:	4c 89 f7             	mov    rdi,r14
    7cf6:	31 f6                	xor    esi,esi
    7cf8:	e8 00 00 00 00       	call   7cfd <s279+0x52e>
    7cfd:	bf 00 00 00 00       	mov    edi,0x0
    7d02:	48 83 c4 08          	add    rsp,0x8
    7d06:	5b                   	pop    rbx
    7d07:	41 5e                	pop    r14
    7d09:	e9 00 00 00 00       	jmp    7d0e <s1279>

0000000000007d0e <s1279>:
    7d0e:	41 56                	push   r14
    7d10:	53                   	push   rbx
    7d11:	50                   	push   rax
    7d12:	49 89 fe             	mov    r14,rdi
    7d15:	bf 00 00 00 00       	mov    edi,0x0
    7d1a:	e8 00 00 00 00       	call   7d1f <s1279+0x11>
    7d1f:	31 db                	xor    ebx,ebx
    7d21:	4c 89 f7             	mov    rdi,r14
    7d24:	31 f6                	xor    esi,esi
    7d26:	e8 00 00 00 00       	call   7d2b <s1279+0x1d>
    7d2b:	0f 57 d2             	xorps  xmm2,xmm2
    7d2e:	48 c7 c0 00 0c fe ff 	mov    rax,0xfffffffffffe0c00
    7d35:	f3 0f 10 80 00 00 00 	movss  xmm0,DWORD PTR [rax+0x0]
    7d3c:	00 
    7d3d:	0f 2e d0             	ucomiss xmm2,xmm0
    7d40:	76 2d                	jbe    7d6f <s1279+0x61>
    7d42:	f3 0f 10 88 00 00 00 	movss  xmm1,DWORD PTR [rax+0x0]
    7d49:	00 
    7d4a:	0f 2e c8             	ucomiss xmm1,xmm0
    7d4d:	76 20                	jbe    7d6f <s1279+0x61>
    7d4f:	f3 0f 10 80 00 00 00 	movss  xmm0,DWORD PTR [rax+0x0]
    7d56:	00 
    7d57:	f3 0f 59 80 00 00 00 	mulss  xmm0,DWORD PTR [rax+0x0]
    7d5e:	00 
    7d5f:	f3 0f 58 80 00 00 00 	addss  xmm0,DWORD PTR [rax+0x0]
    7d66:	00 
    7d67:	f3 0f 11 80 00 00 00 	movss  DWORD PTR [rax+0x0],xmm0
    7d6e:	00 
    7d6f:	f3 0f 10 80 00 00 00 	movss  xmm0,DWORD PTR [rax+0x0]
    7d76:	00 
    7d77:	0f 2e d0             	ucomiss xmm2,xmm0
    7d7a:	76 2d                	jbe    7da9 <s1279+0x9b>
    7d7c:	f3 0f 10 88 00 00 00 	movss  xmm1,DWORD PTR [rax+0x0]
    7d83:	00 
    7d84:	0f 2e c8             	ucomiss xmm1,xmm0
    7d87:	76 20                	jbe    7da9 <s1279+0x9b>
    7d89:	f3 0f 10 80 00 00 00 	movss  xmm0,DWORD PTR [rax+0x0]
    7d90:	00 
    7d91:	f3 0f 59 80 00 00 00 	mulss  xmm0,DWORD PTR [rax+0x0]
    7d98:	00 
    7d99:	f3 0f 58 80 00 00 00 	addss  xmm0,DWORD PTR [rax+0x0]
    7da0:	00 
    7da1:	f3 0f 11 80 00 00 00 	movss  DWORD PTR [rax+0x0],xmm0
    7da8:	00 
    7da9:	f3 0f 10 80 00 00 00 	movss  xmm0,DWORD PTR [rax+0x0]
    7db0:	00 
    7db1:	0f 2e d0             	ucomiss xmm2,xmm0
    7db4:	76 2d                	jbe    7de3 <s1279+0xd5>
    7db6:	f3 0f 10 88 00 00 00 	movss  xmm1,DWORD PTR [rax+0x0]
    7dbd:	00 
    7dbe:	0f 2e c8             	ucomiss xmm1,xmm0
    7dc1:	76 20                	jbe    7de3 <s1279+0xd5>
    7dc3:	f3 0f 10 80 00 00 00 	movss  xmm0,DWORD PTR [rax+0x0]
    7dca:	00 
    7dcb:	f3 0f 59 80 00 00 00 	mulss  xmm0,DWORD PTR [rax+0x0]
    7dd2:	00 
    7dd3:	f3 0f 58 80 00 00 00 	addss  xmm0,DWORD PTR [rax+0x0]
    7dda:	00 
    7ddb:	f3 0f 11 80 00 00 00 	movss  DWORD PTR [rax+0x0],xmm0
    7de2:	00 
    7de3:	f3 0f 10 80 00 00 00 	movss  xmm0,DWORD PTR [rax+0x0]
    7dea:	00 
    7deb:	0f 2e d0             	ucomiss xmm2,xmm0
    7dee:	76 2d                	jbe    7e1d <s1279+0x10f>
    7df0:	f3 0f 10 88 00 00 00 	movss  xmm1,DWORD PTR [rax+0x0]
    7df7:	00 
    7df8:	0f 2e c8             	ucomiss xmm1,xmm0
    7dfb:	76 20                	jbe    7e1d <s1279+0x10f>
    7dfd:	f3 0f 10 80 00 00 00 	movss  xmm0,DWORD PTR [rax+0x0]
    7e04:	00 
    7e05:	f3 0f 59 80 00 00 00 	mulss  xmm0,DWORD PTR [rax+0x0]
    7e0c:	00 
    7e0d:	f3 0f 58 80 00 00 00 	addss  xmm0,DWORD PTR [rax+0x0]
    7e14:	00 
    7e15:	f3 0f 11 80 00 00 00 	movss  DWORD PTR [rax+0x0],xmm0
    7e1c:	00 
    7e1d:	f3 0f 10 80 00 00 00 	movss  xmm0,DWORD PTR [rax+0x0]
    7e24:	00 
    7e25:	0f 2e d0             	ucomiss xmm2,xmm0
    7e28:	76 2d                	jbe    7e57 <s1279+0x149>
    7e2a:	f3 0f 10 88 00 00 00 	movss  xmm1,DWORD PTR [rax+0x0]
    7e31:	00 
    7e32:	0f 2e c8             	ucomiss xmm1,xmm0
    7e35:	76 20                	jbe    7e57 <s1279+0x149>
    7e37:	f3 0f 10 80 00 00 00 	movss  xmm0,DWORD PTR [rax+0x0]
    7e3e:	00 
    7e3f:	f3 0f 59 80 00 00 00 	mulss  xmm0,DWORD PTR [rax+0x0]
    7e46:	00 
    7e47:	f3 0f 58 80 00 00 00 	addss  xmm0,DWORD PTR [rax+0x0]
    7e4e:	00 
    7e4f:	f3 0f 11 80 00 00 00 	movss  DWORD PTR [rax+0x0],xmm0
    7e56:	00 
    7e57:	f3 0f 10 80 00 00 00 	movss  xmm0,DWORD PTR [rax+0x0]
    7e5e:	00 
    7e5f:	0f 2e d0             	ucomiss xmm2,xmm0
    7e62:	76 2d                	jbe    7e91 <s1279+0x183>
    7e64:	f3 0f 10 88 00 00 00 	movss  xmm1,DWORD PTR [rax+0x0]
    7e6b:	00 
    7e6c:	0f 2e c8             	ucomiss xmm1,xmm0
    7e6f:	76 20                	jbe    7e91 <s1279+0x183>
    7e71:	f3 0f 10 80 00 00 00 	movss  xmm0,DWORD PTR [rax+0x0]
    7e78:	00 
    7e79:	f3 0f 59 80 00 00 00 	mulss  xmm0,DWORD PTR [rax+0x0]
    7e80:	00 
    7e81:	f3 0f 58 80 00 00 00 	addss  xmm0,DWORD PTR [rax+0x0]
    7e88:	00 
    7e89:	f3 0f 11 80 00 00 00 	movss  DWORD PTR [rax+0x0],xmm0
    7e90:	00 
    7e91:	f3 0f 10 80 00 00 00 	movss  xmm0,DWORD PTR [rax+0x0]
    7e98:	00 
    7e99:	0f 2e d0             	ucomiss xmm2,xmm0
    7e9c:	76 2d                	jbe    7ecb <s1279+0x1bd>
    7e9e:	f3 0f 10 88 00 00 00 	movss  xmm1,DWORD PTR [rax+0x0]
    7ea5:	00 
    7ea6:	0f 2e c8             	ucomiss xmm1,xmm0
    7ea9:	76 20                	jbe    7ecb <s1279+0x1bd>
    7eab:	f3 0f 10 80 00 00 00 	movss  xmm0,DWORD PTR [rax+0x0]
    7eb2:	00 
    7eb3:	f3 0f 59 80 00 00 00 	mulss  xmm0,DWORD PTR [rax+0x0]
    7eba:	00 
    7ebb:	f3 0f 58 80 00 00 00 	addss  xmm0,DWORD PTR [rax+0x0]
    7ec2:	00 
    7ec3:	f3 0f 11 80 00 00 00 	movss  DWORD PTR [rax+0x0],xmm0
    7eca:	00 
    7ecb:	f3 0f 10 80 00 00 00 	movss  xmm0,DWORD PTR [rax+0x0]
    7ed2:	00 
    7ed3:	0f 2e d0             	ucomiss xmm2,xmm0
    7ed6:	76 2d                	jbe    7f05 <s1279+0x1f7>
    7ed8:	f3 0f 10 88 00 00 00 	movss  xmm1,DWORD PTR [rax+0x0]
    7edf:	00 
    7ee0:	0f 2e c8             	ucomiss xmm1,xmm0
    7ee3:	76 20                	jbe    7f05 <s1279+0x1f7>
    7ee5:	f3 0f 10 80 00 00 00 	movss  xmm0,DWORD PTR [rax+0x0]
    7eec:	00 
    7eed:	f3 0f 59 80 00 00 00 	mulss  xmm0,DWORD PTR [rax+0x0]
    7ef4:	00 
    7ef5:	f3 0f 58 80 00 00 00 	addss  xmm0,DWORD PTR [rax+0x0]
    7efc:	00 
    7efd:	f3 0f 11 80 00 00 00 	movss  DWORD PTR [rax+0x0],xmm0
    7f04:	00 
    7f05:	48 83 c0 20          	add    rax,0x20
    7f09:	0f 85 26 fe ff ff    	jne    7d35 <s1279+0x27>
    7f0f:	bf 00 00 00 00       	mov    edi,0x0
    7f14:	be 00 00 00 00       	mov    esi,0x0
    7f19:	ba 00 00 00 00       	mov    edx,0x0
    7f1e:	b9 00 00 00 00       	mov    ecx,0x0
    7f23:	41 b8 00 00 00 00    	mov    r8d,0x0
    7f29:	41 b9 00 00 00 00    	mov    r9d,0x0
    7f2f:	0f 57 c0             	xorps  xmm0,xmm0
    7f32:	68 00 00 00 00       	push   0x0
    7f37:	68 00 00 00 00       	push   0x0
    7f3c:	e8 00 00 00 00       	call   7f41 <s1279+0x233>
    7f41:	0f 57 d2             	xorps  xmm2,xmm2
    7f44:	48 83 c4 10          	add    rsp,0x10
    7f48:	ff c3                	inc    ebx
    7f4a:	81 fb a0 86 01 00    	cmp    ebx,0x186a0
    7f50:	0f 85 d8 fd ff ff    	jne    7d2e <s1279+0x20>
    7f56:	49 83 c6 10          	add    r14,0x10
    7f5a:	4c 89 f7             	mov    rdi,r14
    7f5d:	31 f6                	xor    esi,esi
    7f5f:	e8 00 00 00 00       	call   7f64 <s1279+0x256>
    7f64:	bf 00 00 00 00       	mov    edi,0x0
    7f69:	48 83 c4 08          	add    rsp,0x8
    7f6d:	5b                   	pop    rbx
    7f6e:	41 5e                	pop    r14
    7f70:	e9 00 00 00 00       	jmp    7f75 <s2710>

0000000000007f75 <s2710>:
    7f75:	55                   	push   rbp
    7f76:	41 56                	push   r14
    7f78:	53                   	push   rbx
    7f79:	49 89 fe             	mov    r14,rdi
    7f7c:	48 8b 47 20          	mov    rax,QWORD PTR [rdi+0x20]
    7f80:	8b 28                	mov    ebp,DWORD PTR [rax]
    7f82:	bf 00 00 00 00       	mov    edi,0x0
    7f87:	e8 00 00 00 00       	call   7f8c <s2710+0x17>
    7f8c:	31 db                	xor    ebx,ebx
    7f8e:	4c 89 f7             	mov    rdi,r14
    7f91:	31 f6                	xor    esi,esi
    7f93:	e8 00 00 00 00       	call   7f98 <s2710+0x23>
    7f98:	48 c7 c0 00 0c fe ff 	mov    rax,0xfffffffffffe0c00
    7f9f:	f3 0f 10 80 00 00 00 	movss  xmm0,DWORD PTR [rax+0x0]
    7fa6:	00 
    7fa7:	f3 0f 10 88 00 00 00 	movss  xmm1,DWORD PTR [rax+0x0]
    7fae:	00 
    7faf:	0f 2e c1             	ucomiss xmm0,xmm1
    7fb2:	76 2e                	jbe    7fe2 <s2710+0x6d>
    7fb4:	f3 0f 10 90 00 00 00 	movss  xmm2,DWORD PTR [rax+0x0]
    7fbb:	00 
    7fbc:	f3 0f 59 ca          	mulss  xmm1,xmm2
    7fc0:	f3 0f 58 c1          	addss  xmm0,xmm1
    7fc4:	f3 0f 11 80 00 00 00 	movss  DWORD PTR [rax+0x0],xmm0
    7fcb:	00 
    7fcc:	f3 0f 59 d2          	mulss  xmm2,xmm2
    7fd0:	f3 0f 58 90 00 00 00 	addss  xmm2,DWORD PTR [rax+0x0]
    7fd7:	00 
    7fd8:	f3 0f 11 90 00 00 00 	movss  DWORD PTR [rax+0x0],xmm2
    7fdf:	00 
    7fe0:	eb 49                	jmp    802b <s2710+0xb6>
    7fe2:	f3 0f 10 88 00 00 00 	movss  xmm1,DWORD PTR [rax+0x0]
    7fe9:	00 
    7fea:	f3 0f 59 c9          	mulss  xmm1,xmm1
    7fee:	0f 28 d0             	movaps xmm2,xmm0
    7ff1:	f3 0f 58 d1          	addss  xmm2,xmm1
    7ff5:	f3 0f 11 90 00 00 00 	movss  DWORD PTR [rax+0x0],xmm2
    7ffc:	00 
    7ffd:	85 ed                	test   ebp,ebp
    7fff:	7e 1a                	jle    801b <s2710+0xa6>
    8001:	f3 0f 10 88 00 00 00 	movss  xmm1,DWORD PTR [rax+0x0]
    8008:	00 
    8009:	f3 0f 59 c9          	mulss  xmm1,xmm1
    800d:	f3 0f 58 c1          	addss  xmm0,xmm1
    8011:	f3 0f 11 80 00 00 00 	movss  DWORD PTR [rax+0x0],xmm0
    8018:	00 
    8019:	eb 10                	jmp    802b <s2710+0xb6>
    801b:	f3 0f 58 88 00 00 00 	addss  xmm1,DWORD PTR [rax+0x0]
    8022:	00 
    8023:	f3 0f 11 88 00 00 00 	movss  DWORD PTR [rax+0x0],xmm1
    802a:	00 
    802b:	f3 0f 10 80 00 00 00 	movss  xmm0,DWORD PTR [rax+0x0]
    8032:	00 
    8033:	f3 0f 10 88 00 00 00 	movss  xmm1,DWORD PTR [rax+0x0]
    803a:	00 
    803b:	0f 2e c1             	ucomiss xmm0,xmm1
    803e:	76 2e                	jbe    806e <s2710+0xf9>
    8040:	f3 0f 10 90 00 00 00 	movss  xmm2,DWORD PTR [rax+0x0]
    8047:	00 
    8048:	f3 0f 59 ca          	mulss  xmm1,xmm2
    804c:	f3 0f 58 c1          	addss  xmm0,xmm1
    8050:	f3 0f 11 80 00 00 00 	movss  DWORD PTR [rax+0x0],xmm0
    8057:	00 
    8058:	f3 0f 59 d2          	mulss  xmm2,xmm2
    805c:	f3 0f 58 90 00 00 00 	addss  xmm2,DWORD PTR [rax+0x0]
    8063:	00 
    8064:	f3 0f 11 90 00 00 00 	movss  DWORD PTR [rax+0x0],xmm2
    806b:	00 
    806c:	eb 49                	jmp    80b7 <s2710+0x142>
    806e:	f3 0f 10 88 00 00 00 	movss  xmm1,DWORD PTR [rax+0x0]
    8075:	00 
    8076:	f3 0f 59 c9          	mulss  xmm1,xmm1
    807a:	0f 28 d0             	movaps xmm2,xmm0
    807d:	f3 0f 58 d1          	addss  xmm2,xmm1
    8081:	f3 0f 11 90 00 00 00 	movss  DWORD PTR [rax+0x0],xmm2
    8088:	00 
    8089:	85 ed                	test   ebp,ebp
    808b:	7e 1a                	jle    80a7 <s2710+0x132>
    808d:	f3 0f 10 88 00 00 00 	movss  xmm1,DWORD PTR [rax+0x0]
    8094:	00 
    8095:	f3 0f 59 c9          	mulss  xmm1,xmm1
    8099:	f3 0f 58 c1          	addss  xmm0,xmm1
    809d:	f3 0f 11 80 00 00 00 	movss  DWORD PTR [rax+0x0],xmm0
    80a4:	00 
    80a5:	eb 10                	jmp    80b7 <s2710+0x142>
    80a7:	f3 0f 58 88 00 00 00 	addss  xmm1,DWORD PTR [rax+0x0]
    80ae:	00 
    80af:	f3 0f 11 88 00 00 00 	movss  DWORD PTR [rax+0x0],xmm1
    80b6:	00 
    80b7:	f3 0f 10 80 00 00 00 	movss  xmm0,DWORD PTR [rax+0x0]
    80be:	00 
    80bf:	f3 0f 10 88 00 00 00 	movss  xmm1,DWORD PTR [rax+0x0]
    80c6:	00 
    80c7:	0f 2e c1             	ucomiss xmm0,xmm1
    80ca:	76 2e                	jbe    80fa <s2710+0x185>
    80cc:	f3 0f 10 90 00 00 00 	movss  xmm2,DWORD PTR [rax+0x0]
    80d3:	00 
    80d4:	f3 0f 59 ca          	mulss  xmm1,xmm2
    80d8:	f3 0f 58 c1          	addss  xmm0,xmm1
    80dc:	f3 0f 11 80 00 00 00 	movss  DWORD PTR [rax+0x0],xmm0
    80e3:	00 
    80e4:	f3 0f 59 d2          	mulss  xmm2,xmm2
    80e8:	f3 0f 58 90 00 00 00 	addss  xmm2,DWORD PTR [rax+0x0]
    80ef:	00 
    80f0:	f3 0f 11 90 00 00 00 	movss  DWORD PTR [rax+0x0],xmm2
    80f7:	00 
    80f8:	eb 49                	jmp    8143 <s2710+0x1ce>
    80fa:	f3 0f 10 88 00 00 00 	movss  xmm1,DWORD PTR [rax+0x0]
    8101:	00 
    8102:	f3 0f 59 c9          	mulss  xmm1,xmm1
    8106:	0f 28 d0             	movaps xmm2,xmm0
    8109:	f3 0f 58 d1          	addss  xmm2,xmm1
    810d:	f3 0f 11 90 00 00 00 	movss  DWORD PTR [rax+0x0],xmm2
    8114:	00 
    8115:	85 ed                	test   ebp,ebp
    8117:	7e 1a                	jle    8133 <s2710+0x1be>
    8119:	f3 0f 10 88 00 00 00 	movss  xmm1,DWORD PTR [rax+0x0]
    8120:	00 
    8121:	f3 0f 59 c9          	mulss  xmm1,xmm1
    8125:	f3 0f 58 c1          	addss  xmm0,xmm1
    8129:	f3 0f 11 80 00 00 00 	movss  DWORD PTR [rax+0x0],xmm0
    8130:	00 
    8131:	eb 10                	jmp    8143 <s2710+0x1ce>
    8133:	f3 0f 58 88 00 00 00 	addss  xmm1,DWORD PTR [rax+0x0]
    813a:	00 
    813b:	f3 0f 11 88 00 00 00 	movss  DWORD PTR [rax+0x0],xmm1
    8142:	00 
    8143:	f3 0f 10 80 00 00 00 	movss  xmm0,DWORD PTR [rax+0x0]
    814a:	00 
    814b:	f3 0f 10 88 00 00 00 	movss  xmm1,DWORD PTR [rax+0x0]
    8152:	00 
    8153:	0f 2e c1             	ucomiss xmm0,xmm1
    8156:	76 2e                	jbe    8186 <s2710+0x211>
    8158:	f3 0f 10 90 00 00 00 	movss  xmm2,DWORD PTR [rax+0x0]
    815f:	00 
    8160:	f3 0f 59 ca          	mulss  xmm1,xmm2
    8164:	f3 0f 58 c1          	addss  xmm0,xmm1
    8168:	f3 0f 11 80 00 00 00 	movss  DWORD PTR [rax+0x0],xmm0
    816f:	00 
    8170:	f3 0f 59 d2          	mulss  xmm2,xmm2
    8174:	f3 0f 58 90 00 00 00 	addss  xmm2,DWORD PTR [rax+0x0]
    817b:	00 
    817c:	f3 0f 11 90 00 00 00 	movss  DWORD PTR [rax+0x0],xmm2
    8183:	00 
    8184:	eb 49                	jmp    81cf <s2710+0x25a>
    8186:	f3 0f 10 88 00 00 00 	movss  xmm1,DWORD PTR [rax+0x0]
    818d:	00 
    818e:	f3 0f 59 c9          	mulss  xmm1,xmm1
    8192:	0f 28 d0             	movaps xmm2,xmm0
    8195:	f3 0f 58 d1          	addss  xmm2,xmm1
    8199:	f3 0f 11 90 00 00 00 	movss  DWORD PTR [rax+0x0],xmm2
    81a0:	00 
    81a1:	85 ed                	test   ebp,ebp
    81a3:	7e 1a                	jle    81bf <s2710+0x24a>
    81a5:	f3 0f 10 88 00 00 00 	movss  xmm1,DWORD PTR [rax+0x0]
    81ac:	00 
    81ad:	f3 0f 59 c9          	mulss  xmm1,xmm1
    81b1:	f3 0f 58 c1          	addss  xmm0,xmm1
    81b5:	f3 0f 11 80 00 00 00 	movss  DWORD PTR [rax+0x0],xmm0
    81bc:	00 
    81bd:	eb 10                	jmp    81cf <s2710+0x25a>
    81bf:	f3 0f 58 88 00 00 00 	addss  xmm1,DWORD PTR [rax+0x0]
    81c6:	00 
    81c7:	f3 0f 11 88 00 00 00 	movss  DWORD PTR [rax+0x0],xmm1
    81ce:	00 
    81cf:	f3 0f 10 80 00 00 00 	movss  xmm0,DWORD PTR [rax+0x0]
    81d6:	00 
    81d7:	f3 0f 10 88 00 00 00 	movss  xmm1,DWORD PTR [rax+0x0]
    81de:	00 
    81df:	0f 2e c1             	ucomiss xmm0,xmm1
    81e2:	76 2e                	jbe    8212 <s2710+0x29d>
    81e4:	f3 0f 10 90 00 00 00 	movss  xmm2,DWORD PTR [rax+0x0]
    81eb:	00 
    81ec:	f3 0f 59 ca          	mulss  xmm1,xmm2
    81f0:	f3 0f 58 c1          	addss  xmm0,xmm1
    81f4:	f3 0f 11 80 00 00 00 	movss  DWORD PTR [rax+0x0],xmm0
    81fb:	00 
    81fc:	f3 0f 59 d2          	mulss  xmm2,xmm2
    8200:	f3 0f 58 90 00 00 00 	addss  xmm2,DWORD PTR [rax+0x0]
    8207:	00 
    8208:	f3 0f 11 90 00 00 00 	movss  DWORD PTR [rax+0x0],xmm2
    820f:	00 
    8210:	eb 49                	jmp    825b <s2710+0x2e6>
    8212:	f3 0f 10 88 00 00 00 	movss  xmm1,DWORD PTR [rax+0x0]
    8219:	00 
    821a:	f3 0f 59 c9          	mulss  xmm1,xmm1
    821e:	0f 28 d0             	movaps xmm2,xmm0
    8221:	f3 0f 58 d1          	addss  xmm2,xmm1
    8225:	f3 0f 11 90 00 00 00 	movss  DWORD PTR [rax+0x0],xmm2
    822c:	00 
    822d:	85 ed                	test   ebp,ebp
    822f:	7e 1a                	jle    824b <s2710+0x2d6>
    8231:	f3 0f 10 88 00 00 00 	movss  xmm1,DWORD PTR [rax+0x0]
    8238:	00 
    8239:	f3 0f 59 c9          	mulss  xmm1,xmm1
    823d:	f3 0f 58 c1          	addss  xmm0,xmm1
    8241:	f3 0f 11 80 00 00 00 	movss  DWORD PTR [rax+0x0],xmm0
    8248:	00 
    8249:	eb 10                	jmp    825b <s2710+0x2e6>
    824b:	f3 0f 58 88 00 00 00 	addss  xmm1,DWORD PTR [rax+0x0]
    8252:	00 
    8253:	f3 0f 11 88 00 00 00 	movss  DWORD PTR [rax+0x0],xmm1
    825a:	00 
    825b:	f3 0f 10 80 00 00 00 	movss  xmm0,DWORD PTR [rax+0x0]
    8262:	00 
    8263:	f3 0f 10 88 00 00 00 	movss  xmm1,DWORD PTR [rax+0x0]
    826a:	00 
    826b:	0f 2e c1             	ucomiss xmm0,xmm1
    826e:	76 2e                	jbe    829e <s2710+0x329>
    8270:	f3 0f 10 90 00 00 00 	movss  xmm2,DWORD PTR [rax+0x0]
    8277:	00 
    8278:	f3 0f 59 ca          	mulss  xmm1,xmm2
    827c:	f3 0f 58 c1          	addss  xmm0,xmm1
    8280:	f3 0f 11 80 00 00 00 	movss  DWORD PTR [rax+0x0],xmm0
    8287:	00 
    8288:	f3 0f 59 d2          	mulss  xmm2,xmm2
    828c:	f3 0f 58 90 00 00 00 	addss  xmm2,DWORD PTR [rax+0x0]
    8293:	00 
    8294:	f3 0f 11 90 00 00 00 	movss  DWORD PTR [rax+0x0],xmm2
    829b:	00 
    829c:	eb 49                	jmp    82e7 <s2710+0x372>
    829e:	f3 0f 10 88 00 00 00 	movss  xmm1,DWORD PTR [rax+0x0]
    82a5:	00 
    82a6:	f3 0f 59 c9          	mulss  xmm1,xmm1
    82aa:	0f 28 d0             	movaps xmm2,xmm0
    82ad:	f3 0f 58 d1          	addss  xmm2,xmm1
    82b1:	f3 0f 11 90 00 00 00 	movss  DWORD PTR [rax+0x0],xmm2
    82b8:	00 
    82b9:	85 ed                	test   ebp,ebp
    82bb:	7e 1a                	jle    82d7 <s2710+0x362>
    82bd:	f3 0f 10 88 00 00 00 	movss  xmm1,DWORD PTR [rax+0x0]
    82c4:	00 
    82c5:	f3 0f 59 c9          	mulss  xmm1,xmm1
    82c9:	f3 0f 58 c1          	addss  xmm0,xmm1
    82cd:	f3 0f 11 80 00 00 00 	movss  DWORD PTR [rax+0x0],xmm0
    82d4:	00 
    82d5:	eb 10                	jmp    82e7 <s2710+0x372>
    82d7:	f3 0f 58 88 00 00 00 	addss  xmm1,DWORD PTR [rax+0x0]
    82de:	00 
    82df:	f3 0f 11 88 00 00 00 	movss  DWORD PTR [rax+0x0],xmm1
    82e6:	00 
    82e7:	f3 0f 10 80 00 00 00 	movss  xmm0,DWORD PTR [rax+0x0]
    82ee:	00 
    82ef:	f3 0f 10 88 00 00 00 	movss  xmm1,DWORD PTR [rax+0x0]
    82f6:	00 
    82f7:	0f 2e c1             	ucomiss xmm0,xmm1
    82fa:	76 2e                	jbe    832a <s2710+0x3b5>
    82fc:	f3 0f 10 90 00 00 00 	movss  xmm2,DWORD PTR [rax+0x0]
    8303:	00 
    8304:	f3 0f 59 ca          	mulss  xmm1,xmm2
    8308:	f3 0f 58 c1          	addss  xmm0,xmm1
    830c:	f3 0f 11 80 00 00 00 	movss  DWORD PTR [rax+0x0],xmm0
    8313:	00 
    8314:	f3 0f 59 d2          	mulss  xmm2,xmm2
    8318:	f3 0f 58 90 00 00 00 	addss  xmm2,DWORD PTR [rax+0x0]
    831f:	00 
    8320:	f3 0f 11 90 00 00 00 	movss  DWORD PTR [rax+0x0],xmm2
    8327:	00 
    8328:	eb 49                	jmp    8373 <s2710+0x3fe>
    832a:	f3 0f 10 88 00 00 00 	movss  xmm1,DWORD PTR [rax+0x0]
    8331:	00 
    8332:	f3 0f 59 c9          	mulss  xmm1,xmm1
    8336:	0f 28 d0             	movaps xmm2,xmm0
    8339:	f3 0f 58 d1          	addss  xmm2,xmm1
    833d:	f3 0f 11 90 00 00 00 	movss  DWORD PTR [rax+0x0],xmm2
    8344:	00 
    8345:	85 ed                	test   ebp,ebp
    8347:	7e 1a                	jle    8363 <s2710+0x3ee>
    8349:	f3 0f 10 88 00 00 00 	movss  xmm1,DWORD PTR [rax+0x0]
    8350:	00 
    8351:	f3 0f 59 c9          	mulss  xmm1,xmm1
    8355:	f3 0f 58 c1          	addss  xmm0,xmm1
    8359:	f3 0f 11 80 00 00 00 	movss  DWORD PTR [rax+0x0],xmm0
    8360:	00 
    8361:	eb 10                	jmp    8373 <s2710+0x3fe>
    8363:	f3 0f 58 88 00 00 00 	addss  xmm1,DWORD PTR [rax+0x0]
    836a:	00 
    836b:	f3 0f 11 88 00 00 00 	movss  DWORD PTR [rax+0x0],xmm1
    8372:	00 
    8373:	f3 0f 10 80 00 00 00 	movss  xmm0,DWORD PTR [rax+0x0]
    837a:	00 
    837b:	f3 0f 10 88 00 00 00 	movss  xmm1,DWORD PTR [rax+0x0]
    8382:	00 
    8383:	0f 2e c1             	ucomiss xmm0,xmm1
    8386:	76 2e                	jbe    83b6 <s2710+0x441>
    8388:	f3 0f 10 90 00 00 00 	movss  xmm2,DWORD PTR [rax+0x0]
    838f:	00 
    8390:	f3 0f 59 ca          	mulss  xmm1,xmm2
    8394:	f3 0f 58 c1          	addss  xmm0,xmm1
    8398:	f3 0f 11 80 00 00 00 	movss  DWORD PTR [rax+0x0],xmm0
    839f:	00 
    83a0:	f3 0f 59 d2          	mulss  xmm2,xmm2
    83a4:	f3 0f 58 90 00 00 00 	addss  xmm2,DWORD PTR [rax+0x0]
    83ab:	00 
    83ac:	f3 0f 11 90 00 00 00 	movss  DWORD PTR [rax+0x0],xmm2
    83b3:	00 
    83b4:	eb 49                	jmp    83ff <s2710+0x48a>
    83b6:	f3 0f 10 88 00 00 00 	movss  xmm1,DWORD PTR [rax+0x0]
    83bd:	00 
    83be:	f3 0f 59 c9          	mulss  xmm1,xmm1
    83c2:	0f 28 d0             	movaps xmm2,xmm0
    83c5:	f3 0f 58 d1          	addss  xmm2,xmm1
    83c9:	f3 0f 11 90 00 00 00 	movss  DWORD PTR [rax+0x0],xmm2
    83d0:	00 
    83d1:	85 ed                	test   ebp,ebp
    83d3:	7e 1a                	jle    83ef <s2710+0x47a>
    83d5:	f3 0f 10 88 00 00 00 	movss  xmm1,DWORD PTR [rax+0x0]
    83dc:	00 
    83dd:	f3 0f 59 c9          	mulss  xmm1,xmm1
    83e1:	f3 0f 58 c1          	addss  xmm0,xmm1
    83e5:	f3 0f 11 80 00 00 00 	movss  DWORD PTR [rax+0x0],xmm0
    83ec:	00 
    83ed:	eb 10                	jmp    83ff <s2710+0x48a>
    83ef:	f3 0f 58 88 00 00 00 	addss  xmm1,DWORD PTR [rax+0x0]
    83f6:	00 
    83f7:	f3 0f 11 88 00 00 00 	movss  DWORD PTR [rax+0x0],xmm1
    83fe:	00 
    83ff:	48 83 c0 20          	add    rax,0x20
    8403:	0f 85 96 fb ff ff    	jne    7f9f <s2710+0x2a>
    8409:	bf 00 00 00 00       	mov    edi,0x0
    840e:	be 00 00 00 00       	mov    esi,0x0
    8413:	ba 00 00 00 00       	mov    edx,0x0
    8418:	b9 00 00 00 00       	mov    ecx,0x0
    841d:	41 b8 00 00 00 00    	mov    r8d,0x0
    8423:	41 b9 00 00 00 00    	mov    r9d,0x0
    8429:	0f 57 c0             	xorps  xmm0,xmm0
    842c:	68 00 00 00 00       	push   0x0
    8431:	68 00 00 00 00       	push   0x0
    8436:	e8 00 00 00 00       	call   843b <s2710+0x4c6>
    843b:	48 83 c4 10          	add    rsp,0x10
    843f:	ff c3                	inc    ebx
    8441:	81 fb 50 c3 00 00    	cmp    ebx,0xc350
    8447:	0f 85 4b fb ff ff    	jne    7f98 <s2710+0x23>
    844d:	49 83 c6 10          	add    r14,0x10
    8451:	4c 89 f7             	mov    rdi,r14
    8454:	31 f6                	xor    esi,esi
    8456:	e8 00 00 00 00       	call   845b <s2710+0x4e6>
    845b:	bf 00 00 00 00       	mov    edi,0x0
    8460:	5b                   	pop    rbx
    8461:	41 5e                	pop    r14
    8463:	5d                   	pop    rbp
    8464:	e9 00 00 00 00       	jmp    8469 <s2711>

0000000000008469 <s2711>:
    8469:	41 56                	push   r14
    846b:	53                   	push   rbx
    846c:	50                   	push   rax
    846d:	49 89 fe             	mov    r14,rdi
    8470:	bf 00 00 00 00       	mov    edi,0x0
    8475:	e8 00 00 00 00       	call   847a <s2711+0x11>
    847a:	31 db                	xor    ebx,ebx
    847c:	4c 89 f7             	mov    rdi,r14
    847f:	31 f6                	xor    esi,esi
    8481:	e8 00 00 00 00       	call   8486 <s2711+0x1d>
    8486:	0f 57 c9             	xorps  xmm1,xmm1
    8489:	48 c7 c0 00 0c fe ff 	mov    rax,0xfffffffffffe0c00
    8490:	f3 0f 10 80 00 00 00 	movss  xmm0,DWORD PTR [rax+0x0]
    8497:	00 
    8498:	0f 2e c1             	ucomiss xmm0,xmm1
    849b:	75 02                	jne    849f <s2711+0x36>
    849d:	7b 18                	jnp    84b7 <s2711+0x4e>
    849f:	f3 0f 59 80 00 00 00 	mulss  xmm0,DWORD PTR [rax+0x0]
    84a6:	00 
    84a7:	f3 0f 58 80 00 00 00 	addss  xmm0,DWORD PTR [rax+0x0]
    84ae:	00 
    84af:	f3 0f 11 80 00 00 00 	movss  DWORD PTR [rax+0x0],xmm0
    84b6:	00 
    84b7:	f3 0f 10 80 00 00 00 	movss  xmm0,DWORD PTR [rax+0x0]
    84be:	00 
    84bf:	0f 2e c1             	ucomiss xmm0,xmm1
    84c2:	75 02                	jne    84c6 <s2711+0x5d>
    84c4:	7b 18                	jnp    84de <s2711+0x75>
    84c6:	f3 0f 59 80 00 00 00 	mulss  xmm0,DWORD PTR [rax+0x0]
    84cd:	00 
    84ce:	f3 0f 58 80 00 00 00 	addss  xmm0,DWORD PTR [rax+0x0]
    84d5:	00 
    84d6:	f3 0f 11 80 00 00 00 	movss  DWORD PTR [rax+0x0],xmm0
    84dd:	00 
    84de:	f3 0f 10 80 00 00 00 	movss  xmm0,DWORD PTR [rax+0x0]
    84e5:	00 
    84e6:	0f 2e c1             	ucomiss xmm0,xmm1
    84e9:	75 02                	jne    84ed <s2711+0x84>
    84eb:	7b 18                	jnp    8505 <s2711+0x9c>
    84ed:	f3 0f 59 80 00 00 00 	mulss  xmm0,DWORD PTR [rax+0x0]
    84f4:	00 
    84f5:	f3 0f 58 80 00 00 00 	addss  xmm0,DWORD PTR [rax+0x0]
    84fc:	00 
    84fd:	f3 0f 11 80 00 00 00 	movss  DWORD PTR [rax+0x0],xmm0
    8504:	00 
    8505:	f3 0f 10 80 00 00 00 	movss  xmm0,DWORD PTR [rax+0x0]
    850c:	00 
    850d:	0f 2e c1             	ucomiss xmm0,xmm1
    8510:	75 02                	jne    8514 <s2711+0xab>
    8512:	7b 18                	jnp    852c <s2711+0xc3>
    8514:	f3 0f 59 80 00 00 00 	mulss  xmm0,DWORD PTR [rax+0x0]
    851b:	00 
    851c:	f3 0f 58 80 00 00 00 	addss  xmm0,DWORD PTR [rax+0x0]
    8523:	00 
    8524:	f3 0f 11 80 00 00 00 	movss  DWORD PTR [rax+0x0],xmm0
    852b:	00 
    852c:	f3 0f 10 80 00 00 00 	movss  xmm0,DWORD PTR [rax+0x0]
    8533:	00 
    8534:	0f 2e c1             	ucomiss xmm0,xmm1
    8537:	75 02                	jne    853b <s2711+0xd2>
    8539:	7b 18                	jnp    8553 <s2711+0xea>
    853b:	f3 0f 59 80 00 00 00 	mulss  xmm0,DWORD PTR [rax+0x0]
    8542:	00 
    8543:	f3 0f 58 80 00 00 00 	addss  xmm0,DWORD PTR [rax+0x0]
    854a:	00 
    854b:	f3 0f 11 80 00 00 00 	movss  DWORD PTR [rax+0x0],xmm0
    8552:	00 
    8553:	f3 0f 10 80 00 00 00 	movss  xmm0,DWORD PTR [rax+0x0]
    855a:	00 
    855b:	0f 2e c1             	ucomiss xmm0,xmm1
    855e:	75 02                	jne    8562 <s2711+0xf9>
    8560:	7b 18                	jnp    857a <s2711+0x111>
    8562:	f3 0f 59 80 00 00 00 	mulss  xmm0,DWORD PTR [rax+0x0]
    8569:	00 
    856a:	f3 0f 58 80 00 00 00 	addss  xmm0,DWORD PTR [rax+0x0]
    8571:	00 
    8572:	f3 0f 11 80 00 00 00 	movss  DWORD PTR [rax+0x0],xmm0
    8579:	00 
    857a:	f3 0f 10 80 00 00 00 	movss  xmm0,DWORD PTR [rax+0x0]
    8581:	00 
    8582:	0f 2e c1             	ucomiss xmm0,xmm1
    8585:	75 02                	jne    8589 <s2711+0x120>
    8587:	7b 18                	jnp    85a1 <s2711+0x138>
    8589:	f3 0f 59 80 00 00 00 	mulss  xmm0,DWORD PTR [rax+0x0]
    8590:	00 
    8591:	f3 0f 58 80 00 00 00 	addss  xmm0,DWORD PTR [rax+0x0]
    8598:	00 
    8599:	f3 0f 11 80 00 00 00 	movss  DWORD PTR [rax+0x0],xmm0
    85a0:	00 
    85a1:	f3 0f 10 80 00 00 00 	movss  xmm0,DWORD PTR [rax+0x0]
    85a8:	00 
    85a9:	0f 2e c1             	ucomiss xmm0,xmm1
    85ac:	75 02                	jne    85b0 <s2711+0x147>
    85ae:	7b 18                	jnp    85c8 <s2711+0x15f>
    85b0:	f3 0f 59 80 00 00 00 	mulss  xmm0,DWORD PTR [rax+0x0]
    85b7:	00 
    85b8:	f3 0f 58 80 00 00 00 	addss  xmm0,DWORD PTR [rax+0x0]
    85bf:	00 
    85c0:	f3 0f 11 80 00 00 00 	movss  DWORD PTR [rax+0x0],xmm0
    85c7:	00 
    85c8:	48 83 c0 20          	add    rax,0x20
    85cc:	0f 85 be fe ff ff    	jne    8490 <s2711+0x27>
    85d2:	bf 00 00 00 00       	mov    edi,0x0
    85d7:	be 00 00 00 00       	mov    esi,0x0
    85dc:	ba 00 00 00 00       	mov    edx,0x0
    85e1:	b9 00 00 00 00       	mov    ecx,0x0
    85e6:	41 b8 00 00 00 00    	mov    r8d,0x0
    85ec:	41 b9 00 00 00 00    	mov    r9d,0x0
    85f2:	0f 57 c0             	xorps  xmm0,xmm0
    85f5:	68 00 00 00 00       	push   0x0
    85fa:	68 00 00 00 00       	push   0x0
    85ff:	e8 00 00 00 00       	call   8604 <s2711+0x19b>
    8604:	0f 57 c9             	xorps  xmm1,xmm1
    8607:	48 83 c4 10          	add    rsp,0x10
    860b:	ff c3                	inc    ebx
    860d:	81 fb 80 1a 06 00    	cmp    ebx,0x61a80
    8613:	0f 85 70 fe ff ff    	jne    8489 <s2711+0x20>
    8619:	49 83 c6 10          	add    r14,0x10
    861d:	4c 89 f7             	mov    rdi,r14
    8620:	31 f6                	xor    esi,esi
    8622:	e8 00 00 00 00       	call   8627 <s2711+0x1be>
    8627:	bf 00 00 00 00       	mov    edi,0x0
    862c:	48 83 c4 08          	add    rsp,0x8
    8630:	5b                   	pop    rbx
    8631:	41 5e                	pop    r14
    8633:	e9 00 00 00 00       	jmp    8638 <s2712>

0000000000008638 <s2712>:
    8638:	41 56                	push   r14
    863a:	53                   	push   rbx
    863b:	50                   	push   rax
    863c:	49 89 fe             	mov    r14,rdi
    863f:	bf 00 00 00 00       	mov    edi,0x0
    8644:	e8 00 00 00 00       	call   8649 <s2712+0x11>
    8649:	31 db                	xor    ebx,ebx
    864b:	4c 89 f7             	mov    rdi,r14
    864e:	31 f6                	xor    esi,esi
    8650:	e8 00 00 00 00       	call   8655 <s2712+0x1d>
    8655:	48 c7 c0 00 0c fe ff 	mov    rax,0xfffffffffffe0c00
    865c:	f3 0f 10 80 00 00 00 	movss  xmm0,DWORD PTR [rax+0x0]
    8663:	00 
    8664:	f3 0f 10 88 00 00 00 	movss  xmm1,DWORD PTR [rax+0x0]
    866b:	00 
    866c:	0f 2e c1             	ucomiss xmm0,xmm1
    866f:	76 14                	jbe    8685 <s2712+0x4d>
    8671:	f3 0f 59 88 00 00 00 	mulss  xmm1,DWORD PTR [rax+0x0]
    8678:	00 
    8679:	f3 0f 58 c1          	addss  xmm0,xmm1
    867d:	f3 0f 11 80 00 00 00 	movss  DWORD PTR [rax+0x0],xmm0
    8684:	00 
    8685:	f3 0f 10 80 00 00 00 	movss  xmm0,DWORD PTR [rax+0x0]
    868c:	00 
    868d:	f3 0f 10 88 00 00 00 	movss  xmm1,DWORD PTR [rax+0x0]
    8694:	00 
    8695:	0f 2e c1             	ucomiss xmm0,xmm1
    8698:	76 14                	jbe    86ae <s2712+0x76>
    869a:	f3 0f 59 88 00 00 00 	mulss  xmm1,DWORD PTR [rax+0x0]
    86a1:	00 
    86a2:	f3 0f 58 c1          	addss  xmm0,xmm1
    86a6:	f3 0f 11 80 00 00 00 	movss  DWORD PTR [rax+0x0],xmm0
    86ad:	00 
    86ae:	f3 0f 10 80 00 00 00 	movss  xmm0,DWORD PTR [rax+0x0]
    86b5:	00 
    86b6:	f3 0f 10 88 00 00 00 	movss  xmm1,DWORD PTR [rax+0x0]
    86bd:	00 
    86be:	0f 2e c1             	ucomiss xmm0,xmm1
    86c1:	76 14                	jbe    86d7 <s2712+0x9f>
    86c3:	f3 0f 59 88 00 00 00 	mulss  xmm1,DWORD PTR [rax+0x0]
    86ca:	00 
    86cb:	f3 0f 58 c1          	addss  xmm0,xmm1
    86cf:	f3 0f 11 80 00 00 00 	movss  DWORD PTR [rax+0x0],xmm0
    86d6:	00 
    86d7:	f3 0f 10 80 00 00 00 	movss  xmm0,DWORD PTR [rax+0x0]
    86de:	00 
    86df:	f3 0f 10 88 00 00 00 	movss  xmm1,DWORD PTR [rax+0x0]
    86e6:	00 
    86e7:	0f 2e c1             	ucomiss xmm0,xmm1
    86ea:	76 14                	jbe    8700 <s2712+0xc8>
    86ec:	f3 0f 59 88 00 00 00 	mulss  xmm1,DWORD PTR [rax+0x0]
    86f3:	00 
    86f4:	f3 0f 58 c1          	addss  xmm0,xmm1
    86f8:	f3 0f 11 80 00 00 00 	movss  DWORD PTR [rax+0x0],xmm0
    86ff:	00 
    8700:	f3 0f 10 80 00 00 00 	movss  xmm0,DWORD PTR [rax+0x0]
    8707:	00 
    8708:	f3 0f 10 88 00 00 00 	movss  xmm1,DWORD PTR [rax+0x0]
    870f:	00 
    8710:	0f 2e c1             	ucomiss xmm0,xmm1
    8713:	76 14                	jbe    8729 <s2712+0xf1>
    8715:	f3 0f 59 88 00 00 00 	mulss  xmm1,DWORD PTR [rax+0x0]
    871c:	00 
    871d:	f3 0f 58 c1          	addss  xmm0,xmm1
    8721:	f3 0f 11 80 00 00 00 	movss  DWORD PTR [rax+0x0],xmm0
    8728:	00 
    8729:	f3 0f 10 80 00 00 00 	movss  xmm0,DWORD PTR [rax+0x0]
    8730:	00 
    8731:	f3 0f 10 88 00 00 00 	movss  xmm1,DWORD PTR [rax+0x0]
    8738:	00 
    8739:	0f 2e c1             	ucomiss xmm0,xmm1
    873c:	76 14                	jbe    8752 <s2712+0x11a>
    873e:	f3 0f 59 88 00 00 00 	mulss  xmm1,DWORD PTR [rax+0x0]
    8745:	00 
    8746:	f3 0f 58 c1          	addss  xmm0,xmm1
    874a:	f3 0f 11 80 00 00 00 	movss  DWORD PTR [rax+0x0],xmm0
    8751:	00 
    8752:	f3 0f 10 80 00 00 00 	movss  xmm0,DWORD PTR [rax+0x0]
    8759:	00 
    875a:	f3 0f 10 88 00 00 00 	movss  xmm1,DWORD PTR [rax+0x0]
    8761:	00 
    8762:	0f 2e c1             	ucomiss xmm0,xmm1
    8765:	76 14                	jbe    877b <s2712+0x143>
    8767:	f3 0f 59 88 00 00 00 	mulss  xmm1,DWORD PTR [rax+0x0]
    876e:	00 
    876f:	f3 0f 58 c1          	addss  xmm0,xmm1
    8773:	f3 0f 11 80 00 00 00 	movss  DWORD PTR [rax+0x0],xmm0
    877a:	00 
    877b:	f3 0f 10 80 00 00 00 	movss  xmm0,DWORD PTR [rax+0x0]
    8782:	00 
    8783:	f3 0f 10 88 00 00 00 	movss  xmm1,DWORD PTR [rax+0x0]
    878a:	00 
    878b:	0f 2e c1             	ucomiss xmm0,xmm1
    878e:	76 14                	jbe    87a4 <s2712+0x16c>
    8790:	f3 0f 59 88 00 00 00 	mulss  xmm1,DWORD PTR [rax+0x0]
    8797:	00 
    8798:	f3 0f 58 c1          	addss  xmm0,xmm1
    879c:	f3 0f 11 80 00 00 00 	movss  DWORD PTR [rax+0x0],xmm0
    87a3:	00 
    87a4:	48 83 c0 20          	add    rax,0x20
    87a8:	0f 85 ae fe ff ff    	jne    865c <s2712+0x24>
    87ae:	bf 00 00 00 00       	mov    edi,0x0
    87b3:	be 00 00 00 00       	mov    esi,0x0
    87b8:	ba 00 00 00 00       	mov    edx,0x0
    87bd:	b9 00 00 00 00       	mov    ecx,0x0
    87c2:	41 b8 00 00 00 00    	mov    r8d,0x0
    87c8:	41 b9 00 00 00 00    	mov    r9d,0x0
    87ce:	0f 57 c0             	xorps  xmm0,xmm0
    87d1:	68 00 00 00 00       	push   0x0
    87d6:	68 00 00 00 00       	push   0x0
    87db:	e8 00 00 00 00       	call   87e0 <s2712+0x1a8>
    87e0:	48 83 c4 10          	add    rsp,0x10
    87e4:	ff c3                	inc    ebx
    87e6:	81 fb 80 1a 06 00    	cmp    ebx,0x61a80
    87ec:	0f 85 63 fe ff ff    	jne    8655 <s2712+0x1d>
    87f2:	49 83 c6 10          	add    r14,0x10
    87f6:	4c 89 f7             	mov    rdi,r14
    87f9:	31 f6                	xor    esi,esi
    87fb:	e8 00 00 00 00       	call   8800 <s2712+0x1c8>
    8800:	bf 00 00 00 00       	mov    edi,0x0
    8805:	48 83 c4 08          	add    rsp,0x8
    8809:	5b                   	pop    rbx
    880a:	41 5e                	pop    r14
    880c:	e9 00 00 00 00       	jmp    8811 <s281>

0000000000008811 <s281>:
    8811:	41 56                	push   r14
    8813:	53                   	push   rbx
    8814:	50                   	push   rax
    8815:	49 89 fe             	mov    r14,rdi
    8818:	bf 00 00 00 00       	mov    edi,0x0
    881d:	e8 00 00 00 00       	call   8822 <s281+0x11>
    8822:	31 db                	xor    ebx,ebx
    8824:	4c 89 f7             	mov    rdi,r14
    8827:	31 f6                	xor    esi,esi
    8829:	e8 00 00 00 00       	call   882e <s281+0x1d>
    882e:	f3 0f 10 0d 00 00 00 	movss  xmm1,DWORD PTR [rip+0x0]        # 8836 <s281+0x25>
    8835:	00 
    8836:	b8 00 00 00 00       	mov    eax,0x0
    883b:	31 c9                	xor    ecx,ecx
    883d:	48 89 c2             	mov    rdx,rax
    8840:	31 f6                	xor    esi,esi
    8842:	48 89 cf             	mov    rdi,rcx
    8845:	48 09 f7             	or     rdi,rsi
    8848:	f3 0f 10 04 bd 00 00 	movss  xmm0,DWORD PTR [rdi*4+0x0]
    884f:	00 00 
    8851:	f3 0f 59 04 bd 00 00 	mulss  xmm0,DWORD PTR [rdi*4+0x0]
    8858:	00 00 
    885a:	f3 0f 58 02          	addss  xmm0,DWORD PTR [rdx]
    885e:	f3 0f 11 04 bd 00 00 	movss  DWORD PTR [rdi*4+0x0],xmm0
    8865:	00 00 
    8867:	f3 0f 58 c1          	addss  xmm0,xmm1
    886b:	f3 0f 11 04 bd 00 00 	movss  DWORD PTR [rdi*4+0x0],xmm0
    8872:	00 00 
    8874:	48 ff c6             	inc    rsi
    8877:	48 83 c2 fc          	add    rdx,0xfffffffffffffffc
    887b:	48 83 fe 08          	cmp    rsi,0x8
    887f:	75 c1                	jne    8842 <s281+0x31>
    8881:	48 83 c1 08          	add    rcx,0x8
    8885:	48 83 c0 e0          	add    rax,0xffffffffffffffe0
    8889:	48 81 f9 00 7d 00 00 	cmp    rcx,0x7d00
    8890:	75 ab                	jne    883d <s281+0x2c>
    8892:	bf 00 00 00 00       	mov    edi,0x0
    8897:	be 00 00 00 00       	mov    esi,0x0
    889c:	ba 00 00 00 00       	mov    edx,0x0
    88a1:	b9 00 00 00 00       	mov    ecx,0x0
    88a6:	41 b8 00 00 00 00    	mov    r8d,0x0
    88ac:	41 b9 00 00 00 00    	mov    r9d,0x0
    88b2:	0f 57 c0             	xorps  xmm0,xmm0
    88b5:	68 00 00 00 00       	push   0x0
    88ba:	68 00 00 00 00       	push   0x0
    88bf:	e8 00 00 00 00       	call   88c4 <s281+0xb3>
    88c4:	f3 0f 10 0d 00 00 00 	movss  xmm1,DWORD PTR [rip+0x0]        # 88cc <s281+0xbb>
    88cb:	00 
    88cc:	48 83 c4 10          	add    rsp,0x10
    88d0:	ff c3                	inc    ebx
    88d2:	81 fb a0 86 01 00    	cmp    ebx,0x186a0
    88d8:	0f 85 58 ff ff ff    	jne    8836 <s281+0x25>
    88de:	49 83 c6 10          	add    r14,0x10
    88e2:	4c 89 f7             	mov    rdi,r14
    88e5:	31 f6                	xor    esi,esi
    88e7:	e8 00 00 00 00       	call   88ec <s281+0xdb>
    88ec:	bf 00 00 00 00       	mov    edi,0x0
    88f1:	48 83 c4 08          	add    rsp,0x8
    88f5:	5b                   	pop    rbx
    88f6:	41 5e                	pop    r14
    88f8:	e9 00 00 00 00       	jmp    88fd <s1281>

00000000000088fd <s1281>:
    88fd:	41 56                	push   r14
    88ff:	53                   	push   rbx
    8900:	50                   	push   rax
    8901:	49 89 fe             	mov    r14,rdi
    8904:	bf 00 00 00 00       	mov    edi,0x0
    8909:	e8 00 00 00 00       	call   890e <s1281+0x11>
    890e:	31 db                	xor    ebx,ebx
    8910:	4c 89 f7             	mov    rdi,r14
    8913:	31 f6                	xor    esi,esi
    8915:	e8 00 00 00 00       	call   891a <s1281+0x1d>
    891a:	f3 0f 10 15 00 00 00 	movss  xmm2,DWORD PTR [rip+0x0]        # 8922 <s1281+0x25>
    8921:	00 
    8922:	31 c0                	xor    eax,eax
    8924:	31 c9                	xor    ecx,ecx
    8926:	48 89 c2             	mov    rdx,rax
    8929:	48 09 ca             	or     rdx,rcx
    892c:	f3 0f 10 04 95 00 00 	movss  xmm0,DWORD PTR [rdx*4+0x0]
    8933:	00 00 
    8935:	f3 0f 59 04 95 00 00 	mulss  xmm0,DWORD PTR [rdx*4+0x0]
    893c:	00 00 
    893e:	f3 0f 10 0c 95 00 00 	movss  xmm1,DWORD PTR [rdx*4+0x0]
    8945:	00 00 
    8947:	f3 0f 59 0c 95 00 00 	mulss  xmm1,DWORD PTR [rdx*4+0x0]
    894e:	00 00 
    8950:	f3 0f 58 c8          	addss  xmm1,xmm0
    8954:	f3 0f 58 0c 95 00 00 	addss  xmm1,DWORD PTR [rdx*4+0x0]
    895b:	00 00 
    895d:	f3 0f 11 0c 95 00 00 	movss  DWORD PTR [rdx*4+0x0],xmm1
    8964:	00 00 
    8966:	f3 0f 58 ca          	addss  xmm1,xmm2
    896a:	f3 0f 11 0c 95 00 00 	movss  DWORD PTR [rdx*4+0x0],xmm1
    8971:	00 00 
    8973:	48 ff c1             	inc    rcx
    8976:	48 83 f9 08          	cmp    rcx,0x8
    897a:	75 aa                	jne    8926 <s1281+0x29>
    897c:	48 83 c0 08          	add    rax,0x8
    8980:	48 3d 00 7d 00 00    	cmp    rax,0x7d00
    8986:	75 9c                	jne    8924 <s1281+0x27>
    8988:	bf 00 00 00 00       	mov    edi,0x0
    898d:	be 00 00 00 00       	mov    esi,0x0
    8992:	ba 00 00 00 00       	mov    edx,0x0
    8997:	b9 00 00 00 00       	mov    ecx,0x0
    899c:	41 b8 00 00 00 00    	mov    r8d,0x0
    89a2:	41 b9 00 00 00 00    	mov    r9d,0x0
    89a8:	0f 57 c0             	xorps  xmm0,xmm0
    89ab:	68 00 00 00 00       	push   0x0
    89b0:	68 00 00 00 00       	push   0x0
    89b5:	e8 00 00 00 00       	call   89ba <s1281+0xbd>
    89ba:	f3 0f 10 15 00 00 00 	movss  xmm2,DWORD PTR [rip+0x0]        # 89c2 <s1281+0xc5>
    89c1:	00 
    89c2:	48 83 c4 10          	add    rsp,0x10
    89c6:	ff c3                	inc    ebx
    89c8:	81 fb 80 1a 06 00    	cmp    ebx,0x61a80
    89ce:	0f 85 4e ff ff ff    	jne    8922 <s1281+0x25>
    89d4:	49 83 c6 10          	add    r14,0x10
    89d8:	4c 89 f7             	mov    rdi,r14
    89db:	31 f6                	xor    esi,esi
    89dd:	e8 00 00 00 00       	call   89e2 <s1281+0xe5>
    89e2:	bf 00 00 00 00       	mov    edi,0x0
    89e7:	48 83 c4 08          	add    rsp,0x8
    89eb:	5b                   	pop    rbx
    89ec:	41 5e                	pop    r14
    89ee:	e9 00 00 00 00       	jmp    89f3 <s291>

00000000000089f3 <s291>:
    89f3:	41 56                	push   r14
    89f5:	53                   	push   rbx
    89f6:	50                   	push   rax
    89f7:	49 89 fe             	mov    r14,rdi
    89fa:	bf 00 00 00 00       	mov    edi,0x0
    89ff:	e8 00 00 00 00       	call   8a04 <s291+0x11>
    8a04:	31 db                	xor    ebx,ebx
    8a06:	4c 89 f7             	mov    rdi,r14
    8a09:	31 f6                	xor    esi,esi
    8a0b:	e8 00 00 00 00       	call   8a10 <s291+0x1d>
    8a10:	f3 0f 10 0d 00 00 00 	movss  xmm1,DWORD PTR [rip+0x0]        # 8a18 <s291+0x25>
    8a17:	00 
    8a18:	31 c0                	xor    eax,eax
    8a1a:	31 c9                	xor    ecx,ecx
    8a1c:	48 89 c2             	mov    rdx,rax
    8a1f:	48 09 ca             	or     rdx,rcx
    8a22:	f3 0f 10 04 95 00 00 	movss  xmm0,DWORD PTR [rdx*4+0x0]
    8a29:	00 00 
    8a2b:	48 8b 34 cd 00 00 00 	mov    rsi,QWORD PTR [rcx*8+0x0]
    8a32:	00 
    8a33:	f3 0f 58 04 b5 00 00 	addss  xmm0,DWORD PTR [rsi*4+0x0]
    8a3a:	00 00 
    8a3c:	f3 0f 59 c1          	mulss  xmm0,xmm1
    8a40:	f3 0f 11 04 95 00 00 	movss  DWORD PTR [rdx*4+0x0],xmm0
    8a47:	00 00 
    8a49:	48 ff c1             	inc    rcx
    8a4c:	48 83 f9 08          	cmp    rcx,0x8
    8a50:	75 ca                	jne    8a1c <s291+0x29>
    8a52:	48 83 c0 08          	add    rax,0x8
    8a56:	48 3d 00 7d 00 00    	cmp    rax,0x7d00
    8a5c:	75 bc                	jne    8a1a <s291+0x27>
    8a5e:	bf 00 00 00 00       	mov    edi,0x0
    8a63:	be 00 00 00 00       	mov    esi,0x0
    8a68:	ba 00 00 00 00       	mov    edx,0x0
    8a6d:	b9 00 00 00 00       	mov    ecx,0x0
    8a72:	41 b8 00 00 00 00    	mov    r8d,0x0
    8a78:	41 b9 00 00 00 00    	mov    r9d,0x0
    8a7e:	0f 57 c0             	xorps  xmm0,xmm0
    8a81:	68 00 00 00 00       	push   0x0
    8a86:	68 00 00 00 00       	push   0x0
    8a8b:	e8 00 00 00 00       	call   8a90 <s291+0x9d>
    8a90:	f3 0f 10 0d 00 00 00 	movss  xmm1,DWORD PTR [rip+0x0]        # 8a98 <s291+0xa5>
    8a97:	00 
    8a98:	48 83 c4 10          	add    rsp,0x10
    8a9c:	ff c3                	inc    ebx
    8a9e:	81 fb 40 0d 03 00    	cmp    ebx,0x30d40
    8aa4:	0f 85 6e ff ff ff    	jne    8a18 <s291+0x25>
    8aaa:	49 83 c6 10          	add    r14,0x10
    8aae:	4c 89 f7             	mov    rdi,r14
    8ab1:	31 f6                	xor    esi,esi
    8ab3:	e8 00 00 00 00       	call   8ab8 <s291+0xc5>
    8ab8:	bf 00 00 00 00       	mov    edi,0x0
    8abd:	48 83 c4 08          	add    rsp,0x8
    8ac1:	5b                   	pop    rbx
    8ac2:	41 5e                	pop    r14
    8ac4:	e9 00 00 00 00       	jmp    8ac9 <s292>

0000000000008ac9 <s292>:
    8ac9:	41 56                	push   r14
    8acb:	53                   	push   rbx
    8acc:	48 83 ec 28          	sub    rsp,0x28
    8ad0:	49 89 fe             	mov    r14,rdi
    8ad3:	bf 00 00 00 00       	mov    edi,0x0
    8ad8:	e8 00 00 00 00       	call   8add <s292+0x14>
    8add:	31 db                	xor    ebx,ebx
    8adf:	4c 89 f7             	mov    rdi,r14
    8ae2:	31 f6                	xor    esi,esi
    8ae4:	e8 00 00 00 00       	call   8ae9 <s292+0x20>
    8ae9:	f3 0f 10 1d 00 00 00 	movss  xmm3,DWORD PTR [rip+0x0]        # 8af1 <s292+0x28>
    8af0:	00 
    8af1:	f3 0f 10 05 00 00 00 	movss  xmm0,DWORD PTR [rip+0x0]        # 8af9 <s292+0x30>
    8af8:	00 
    8af9:	31 c0                	xor    eax,eax
    8afb:	31 c9                	xor    ecx,ecx
    8afd:	48 89 c2             	mov    rdx,rax
    8b00:	48 09 ca             	or     rdx,rcx
    8b03:	48 8b 34 cd 00 00 00 	mov    rsi,QWORD PTR [rcx*8+0x0]
    8b0a:	00 
    8b0b:	f3 0f 10 0c b5 00 00 	movss  xmm1,DWORD PTR [rsi*4+0x0]
    8b12:	00 00 
    8b14:	f3 0f 11 4c 8c 08    	movss  DWORD PTR [rsp+rcx*4+0x8],xmm1
    8b1a:	f3 0f 10 14 95 00 00 	movss  xmm2,DWORD PTR [rdx*4+0x0]
    8b21:	00 00 
    8b23:	f3 0f 58 d1          	addss  xmm2,xmm1
    8b27:	f3 0f 58 d0          	addss  xmm2,xmm0
    8b2b:	f3 0f 59 d3          	mulss  xmm2,xmm3
    8b2f:	f3 0f 11 14 95 00 00 	movss  DWORD PTR [rdx*4+0x0],xmm2
    8b36:	00 00 
    8b38:	48 ff c1             	inc    rcx
    8b3b:	0f 28 c1             	movaps xmm0,xmm1
    8b3e:	48 83 f9 08          	cmp    rcx,0x8
    8b42:	75 b9                	jne    8afd <s292+0x34>
    8b44:	f3 0f 10 44 24 24    	movss  xmm0,DWORD PTR [rsp+0x24]
    8b4a:	48 83 c0 08          	add    rax,0x8
    8b4e:	48 3d 00 7d 00 00    	cmp    rax,0x7d00
    8b54:	75 a5                	jne    8afb <s292+0x32>
    8b56:	bf 00 00 00 00       	mov    edi,0x0
    8b5b:	be 00 00 00 00       	mov    esi,0x0
    8b60:	ba 00 00 00 00       	mov    edx,0x0
    8b65:	b9 00 00 00 00       	mov    ecx,0x0
    8b6a:	41 b8 00 00 00 00    	mov    r8d,0x0
    8b70:	41 b9 00 00 00 00    	mov    r9d,0x0
    8b76:	0f 57 c0             	xorps  xmm0,xmm0
    8b79:	68 00 00 00 00       	push   0x0
    8b7e:	68 00 00 00 00       	push   0x0
    8b83:	e8 00 00 00 00       	call   8b88 <s292+0xbf>
    8b88:	f3 0f 10 1d 00 00 00 	movss  xmm3,DWORD PTR [rip+0x0]        # 8b90 <s292+0xc7>
    8b8f:	00 
    8b90:	48 83 c4 10          	add    rsp,0x10
    8b94:	ff c3                	inc    ebx
    8b96:	81 fb a0 86 01 00    	cmp    ebx,0x186a0
    8b9c:	0f 85 4f ff ff ff    	jne    8af1 <s292+0x28>
    8ba2:	49 83 c6 10          	add    r14,0x10
    8ba6:	4c 89 f7             	mov    rdi,r14
    8ba9:	31 f6                	xor    esi,esi
    8bab:	e8 00 00 00 00       	call   8bb0 <s292+0xe7>
    8bb0:	bf 00 00 00 00       	mov    edi,0x0
    8bb5:	48 83 c4 28          	add    rsp,0x28
    8bb9:	5b                   	pop    rbx
    8bba:	41 5e                	pop    r14
    8bbc:	e9 00 00 00 00       	jmp    8bc1 <s293>

0000000000008bc1 <s293>:
    8bc1:	41 56                	push   r14
    8bc3:	53                   	push   rbx
    8bc4:	50                   	push   rax
    8bc5:	49 89 fe             	mov    r14,rdi
    8bc8:	bf 00 00 00 00       	mov    edi,0x0
    8bcd:	e8 00 00 00 00       	call   8bd2 <s293+0x11>
    8bd2:	31 db                	xor    ebx,ebx
    8bd4:	4c 89 f7             	mov    rdi,r14
    8bd7:	31 f6                	xor    esi,esi
    8bd9:	e8 00 00 00 00       	call   8bde <s293+0x1d>
    8bde:	48 c7 c0 00 0c fe ff 	mov    rax,0xfffffffffffe0c00
    8be5:	f3 0f 10 05 00 00 00 	movss  xmm0,DWORD PTR [rip+0x0]        # 8bed <s293+0x2c>
    8bec:	00 
    8bed:	f3 0f 11 80 00 00 00 	movss  DWORD PTR [rax+0x0],xmm0
    8bf4:	00 
    8bf5:	f3 0f 10 05 00 00 00 	movss  xmm0,DWORD PTR [rip+0x0]        # 8bfd <s293+0x3c>
    8bfc:	00 
    8bfd:	f3 0f 11 80 00 00 00 	movss  DWORD PTR [rax+0x0],xmm0
    8c04:	00 
    8c05:	f3 0f 11 80 00 00 00 	movss  DWORD PTR [rax+0x0],xmm0
    8c0c:	00 
    8c0d:	f3 0f 11 80 00 00 00 	movss  DWORD PTR [rax+0x0],xmm0
    8c14:	00 
    8c15:	f3 0f 11 80 00 00 00 	movss  DWORD PTR [rax+0x0],xmm0
    8c1c:	00 
    8c1d:	f3 0f 11 80 00 00 00 	movss  DWORD PTR [rax+0x0],xmm0
    8c24:	00 
    8c25:	f3 0f 11 80 00 00 00 	movss  DWORD PTR [rax+0x0],xmm0
    8c2c:	00 
    8c2d:	f3 0f 11 80 00 00 00 	movss  DWORD PTR [rax+0x0],xmm0
    8c34:	00 
    8c35:	48 83 c0 20          	add    rax,0x20
    8c39:	75 b2                	jne    8bed <s293+0x2c>
    8c3b:	bf 00 00 00 00       	mov    edi,0x0
    8c40:	be 00 00 00 00       	mov    esi,0x0
    8c45:	ba 00 00 00 00       	mov    edx,0x0
    8c4a:	b9 00 00 00 00       	mov    ecx,0x0
    8c4f:	41 b8 00 00 00 00    	mov    r8d,0x0
    8c55:	41 b9 00 00 00 00    	mov    r9d,0x0
    8c5b:	0f 57 c0             	xorps  xmm0,xmm0
    8c5e:	68 00 00 00 00       	push   0x0
    8c63:	68 00 00 00 00       	push   0x0
    8c68:	e8 00 00 00 00       	call   8c6d <s293+0xac>
    8c6d:	48 83 c4 10          	add    rsp,0x10
    8c71:	ff c3                	inc    ebx
    8c73:	81 fb 80 1a 06 00    	cmp    ebx,0x61a80
    8c79:	0f 85 5f ff ff ff    	jne    8bde <s293+0x1d>
    8c7f:	49 83 c6 10          	add    r14,0x10
    8c83:	4c 89 f7             	mov    rdi,r14
    8c86:	31 f6                	xor    esi,esi
    8c88:	e8 00 00 00 00       	call   8c8d <s293+0xcc>
    8c8d:	bf 00 00 00 00       	mov    edi,0x0
    8c92:	48 83 c4 08          	add    rsp,0x8
    8c96:	5b                   	pop    rbx
    8c97:	41 5e                	pop    r14
    8c99:	e9 00 00 00 00       	jmp    8c9e <s2101>

0000000000008c9e <s2101>:
    8c9e:	41 56                	push   r14
    8ca0:	53                   	push   rbx
    8ca1:	50                   	push   rax
    8ca2:	49 89 fe             	mov    r14,rdi
    8ca5:	bf 00 00 00 00       	mov    edi,0x0
    8caa:	e8 00 00 00 00       	call   8caf <s2101+0x11>
    8caf:	31 db                	xor    ebx,ebx
    8cb1:	4c 89 f7             	mov    rdi,r14
    8cb4:	31 f6                	xor    esi,esi
    8cb6:	e8 00 00 00 00       	call   8cbb <s2101+0x1d>
    8cbb:	31 c0                	xor    eax,eax
    8cbd:	31 c9                	xor    ecx,ecx
    8cbf:	48 89 c2             	mov    rdx,rax
    8cc2:	48 09 ca             	or     rdx,rcx
    8cc5:	48 89 d6             	mov    rsi,rdx
    8cc8:	48 c1 e6 0a          	shl    rsi,0xa
    8ccc:	f3 0f 10 84 96 00 00 	movss  xmm0,DWORD PTR [rsi+rdx*4+0x0]
    8cd3:	00 00 
    8cd5:	f3 0f 59 84 96 00 00 	mulss  xmm0,DWORD PTR [rsi+rdx*4+0x0]
    8cdc:	00 00 
    8cde:	f3 0f 58 84 96 00 00 	addss  xmm0,DWORD PTR [rsi+rdx*4+0x0]
    8ce5:	00 00 
    8ce7:	f3 0f 11 84 96 00 00 	movss  DWORD PTR [rsi+rdx*4+0x0],xmm0
    8cee:	00 00 
    8cf0:	48 ff c1             	inc    rcx
    8cf3:	48 83 f9 08          	cmp    rcx,0x8
    8cf7:	75 c6                	jne    8cbf <s2101+0x21>
    8cf9:	48 83 c0 08          	add    rax,0x8
    8cfd:	48 3d 00 01 00 00    	cmp    rax,0x100
    8d03:	75 b8                	jne    8cbd <s2101+0x1f>
    8d05:	bf 00 00 00 00       	mov    edi,0x0
    8d0a:	be 00 00 00 00       	mov    esi,0x0
    8d0f:	ba 00 00 00 00       	mov    edx,0x0
    8d14:	b9 00 00 00 00       	mov    ecx,0x0
    8d19:	41 b8 00 00 00 00    	mov    r8d,0x0
    8d1f:	41 b9 00 00 00 00    	mov    r9d,0x0
    8d25:	0f 57 c0             	xorps  xmm0,xmm0
    8d28:	68 00 00 00 00       	push   0x0
    8d2d:	68 00 00 00 00       	push   0x0
    8d32:	e8 00 00 00 00       	call   8d37 <s2101+0x99>
    8d37:	48 83 c4 10          	add    rsp,0x10
    8d3b:	ff c3                	inc    ebx
    8d3d:	81 fb 40 42 0f 00    	cmp    ebx,0xf4240
    8d43:	0f 85 72 ff ff ff    	jne    8cbb <s2101+0x1d>
    8d49:	49 83 c6 10          	add    r14,0x10
    8d4d:	4c 89 f7             	mov    rdi,r14
    8d50:	31 f6                	xor    esi,esi
    8d52:	e8 00 00 00 00       	call   8d57 <s2101+0xb9>
    8d57:	bf 00 00 00 00       	mov    edi,0x0
    8d5c:	48 83 c4 08          	add    rsp,0x8
    8d60:	5b                   	pop    rbx
    8d61:	41 5e                	pop    r14
    8d63:	e9 00 00 00 00       	jmp    8d68 <s2102>

0000000000008d68 <s2102>:
    8d68:	41 56                	push   r14
    8d6a:	53                   	push   rbx
    8d6b:	50                   	push   rax
    8d6c:	49 89 fe             	mov    r14,rdi
    8d6f:	bf 00 00 00 00       	mov    edi,0x0
    8d74:	e8 00 00 00 00       	call   8d79 <s2102+0x11>
    8d79:	31 db                	xor    ebx,ebx
    8d7b:	4c 89 f7             	mov    rdi,r14
    8d7e:	31 f6                	xor    esi,esi
    8d80:	e8 00 00 00 00       	call   8d85 <s2102+0x1d>
    8d85:	31 c0                	xor    eax,eax
    8d87:	31 c9                	xor    ecx,ecx
    8d89:	31 d2                	xor    edx,edx
    8d8b:	48 89 ce             	mov    rsi,rcx
    8d8e:	48 09 d6             	or     rsi,rdx
    8d91:	48 c1 e6 0a          	shl    rsi,0xa
    8d95:	c7 84 86 00 00 00 00 	mov    DWORD PTR [rsi+rax*4+0x0],0x0
    8d9c:	00 00 00 00 
    8da0:	48 ff c2             	inc    rdx
    8da3:	48 83 fa 08          	cmp    rdx,0x8
    8da7:	75 e2                	jne    8d8b <s2102+0x23>
    8da9:	48 83 c1 08          	add    rcx,0x8
    8dad:	48 81 f9 00 01 00 00 	cmp    rcx,0x100
    8db4:	75 d3                	jne    8d89 <s2102+0x21>
    8db6:	48 89 c1             	mov    rcx,rax
    8db9:	48 c1 e1 0a          	shl    rcx,0xa
    8dbd:	c7 84 81 00 00 00 00 	mov    DWORD PTR [rcx+rax*4+0x0],0x3f800000
    8dc4:	00 00 80 3f 
    8dc8:	48 ff c0             	inc    rax
    8dcb:	48 3d 00 01 00 00    	cmp    rax,0x100
    8dd1:	75 b4                	jne    8d87 <s2102+0x1f>
    8dd3:	bf 00 00 00 00       	mov    edi,0x0
    8dd8:	be 00 00 00 00       	mov    esi,0x0
    8ddd:	ba 00 00 00 00       	mov    edx,0x0
    8de2:	b9 00 00 00 00       	mov    ecx,0x0
    8de7:	41 b8 00 00 00 00    	mov    r8d,0x0
    8ded:	41 b9 00 00 00 00    	mov    r9d,0x0
    8df3:	0f 57 c0             	xorps  xmm0,xmm0
    8df6:	68 00 00 00 00       	push   0x0
    8dfb:	68 00 00 00 00       	push   0x0
    8e00:	e8 00 00 00 00       	call   8e05 <s2102+0x9d>
    8e05:	48 83 c4 10          	add    rsp,0x10
    8e09:	ff c3                	inc    ebx
    8e0b:	81 fb 58 98 00 00    	cmp    ebx,0x9858
    8e11:	0f 85 6e ff ff ff    	jne    8d85 <s2102+0x1d>
    8e17:	49 83 c6 10          	add    r14,0x10
    8e1b:	4c 89 f7             	mov    rdi,r14
    8e1e:	31 f6                	xor    esi,esi
    8e20:	e8 00 00 00 00       	call   8e25 <s2102+0xbd>
    8e25:	bf 00 00 00 00       	mov    edi,0x0
    8e2a:	48 83 c4 08          	add    rsp,0x8
    8e2e:	5b                   	pop    rbx
    8e2f:	41 5e                	pop    r14
    8e31:	e9 00 00 00 00       	jmp    8e36 <s2111>

0000000000008e36 <s2111>:
    8e36:	41 56                	push   r14
    8e38:	53                   	push   rbx
    8e39:	50                   	push   rax
    8e3a:	49 89 fe             	mov    r14,rdi
    8e3d:	bf 00 00 00 00       	mov    edi,0x0
    8e42:	e8 00 00 00 00       	call   8e47 <s2111+0x11>
    8e47:	31 db                	xor    ebx,ebx
    8e49:	4c 89 f7             	mov    rdi,r14
    8e4c:	31 f6                	xor    esi,esi
    8e4e:	e8 00 00 00 00       	call   8e53 <s2111+0x1d>
    8e53:	f2 0f 10 0d 00 00 00 	movsd  xmm1,QWORD PTR [rip+0x0]        # 8e5b <s2111+0x25>
    8e5a:	00 
    8e5b:	b8 01 00 00 00       	mov    eax,0x1
    8e60:	b9 00 00 00 00       	mov    ecx,0x0
    8e65:	48 89 c2             	mov    rdx,rax
    8e68:	48 c1 e2 0a          	shl    rdx,0xa
    8e6c:	f3 0f 10 82 00 00 00 	movss  xmm0,DWORD PTR [rdx+0x0]
    8e73:	00 
    8e74:	31 d2                	xor    edx,edx
    8e76:	f3 0f 58 84 91 e4 fb 	addss  xmm0,DWORD PTR [rcx+rdx*4-0x41c]
    8e7d:	ff ff 
    8e7f:	f3 0f 5a c0          	cvtss2sd xmm0,xmm0
    8e83:	f2 0f 5e c1          	divsd  xmm0,xmm1
    8e87:	f2 0f 5a c0          	cvtsd2ss xmm0,xmm0
    8e8b:	f3 0f 11 44 91 e4    	movss  DWORD PTR [rcx+rdx*4-0x1c],xmm0
    8e91:	f3 0f 58 84 91 e8 fb 	addss  xmm0,DWORD PTR [rcx+rdx*4-0x418]
    8e98:	ff ff 
    8e9a:	f3 0f 5a c0          	cvtss2sd xmm0,xmm0
    8e9e:	f2 0f 5e c1          	divsd  xmm0,xmm1
    8ea2:	f2 0f 5a c0          	cvtsd2ss xmm0,xmm0
    8ea6:	f3 0f 11 44 91 e8    	movss  DWORD PTR [rcx+rdx*4-0x18],xmm0
    8eac:	f3 0f 58 84 91 ec fb 	addss  xmm0,DWORD PTR [rcx+rdx*4-0x414]
    8eb3:	ff ff 
    8eb5:	f3 0f 5a c0          	cvtss2sd xmm0,xmm0
    8eb9:	f2 0f 5e c1          	divsd  xmm0,xmm1
    8ebd:	f2 0f 5a c0          	cvtsd2ss xmm0,xmm0
    8ec1:	f3 0f 11 44 91 ec    	movss  DWORD PTR [rcx+rdx*4-0x14],xmm0
    8ec7:	f3 0f 58 84 91 f0 fb 	addss  xmm0,DWORD PTR [rcx+rdx*4-0x410]
    8ece:	ff ff 
    8ed0:	f3 0f 5a c0          	cvtss2sd xmm0,xmm0
    8ed4:	f2 0f 5e c1          	divsd  xmm0,xmm1
    8ed8:	f2 0f 5a c0          	cvtsd2ss xmm0,xmm0
    8edc:	f3 0f 11 44 91 f0    	movss  DWORD PTR [rcx+rdx*4-0x10],xmm0
    8ee2:	f3 0f 58 84 91 f4 fb 	addss  xmm0,DWORD PTR [rcx+rdx*4-0x40c]
    8ee9:	ff ff 
    8eeb:	f3 0f 5a c0          	cvtss2sd xmm0,xmm0
    8eef:	f2 0f 5e c1          	divsd  xmm0,xmm1
    8ef3:	f2 0f 5a c0          	cvtsd2ss xmm0,xmm0
    8ef7:	f3 0f 11 44 91 f4    	movss  DWORD PTR [rcx+rdx*4-0xc],xmm0
    8efd:	f3 0f 58 84 91 f8 fb 	addss  xmm0,DWORD PTR [rcx+rdx*4-0x408]
    8f04:	ff ff 
    8f06:	f3 0f 5a c0          	cvtss2sd xmm0,xmm0
    8f0a:	f2 0f 5e c1          	divsd  xmm0,xmm1
    8f0e:	f2 0f 5a c0          	cvtsd2ss xmm0,xmm0
    8f12:	f3 0f 11 44 91 f8    	movss  DWORD PTR [rcx+rdx*4-0x8],xmm0
    8f18:	f3 0f 58 84 91 fc fb 	addss  xmm0,DWORD PTR [rcx+rdx*4-0x404]
    8f1f:	ff ff 
    8f21:	f3 0f 5a c0          	cvtss2sd xmm0,xmm0
    8f25:	f2 0f 5e c1          	divsd  xmm0,xmm1
    8f29:	f2 0f 5a c0          	cvtsd2ss xmm0,xmm0
    8f2d:	f3 0f 11 44 91 fc    	movss  DWORD PTR [rcx+rdx*4-0x4],xmm0
    8f33:	48 81 fa f8 00 00 00 	cmp    rdx,0xf8
    8f3a:	74 23                	je     8f5f <s2111+0x129>
    8f3c:	f3 0f 58 84 91 00 fc 	addss  xmm0,DWORD PTR [rcx+rdx*4-0x400]
    8f43:	ff ff 
    8f45:	f3 0f 5a c0          	cvtss2sd xmm0,xmm0
    8f49:	f2 0f 5e c1          	divsd  xmm0,xmm1
    8f4d:	f2 0f 5a c0          	cvtsd2ss xmm0,xmm0
    8f51:	f3 0f 11 04 91       	movss  DWORD PTR [rcx+rdx*4],xmm0
    8f56:	48 83 c2 08          	add    rdx,0x8
    8f5a:	e9 17 ff ff ff       	jmp    8e76 <s2111+0x40>
    8f5f:	48 ff c0             	inc    rax
    8f62:	48 81 c1 00 04 00 00 	add    rcx,0x400
    8f69:	48 3d 00 01 00 00    	cmp    rax,0x100
    8f6f:	0f 85 f0 fe ff ff    	jne    8e65 <s2111+0x2f>
    8f75:	bf 00 00 00 00       	mov    edi,0x0
    8f7a:	be 00 00 00 00       	mov    esi,0x0
    8f7f:	ba 00 00 00 00       	mov    edx,0x0
    8f84:	b9 00 00 00 00       	mov    ecx,0x0
    8f89:	41 b8 00 00 00 00    	mov    r8d,0x0
    8f8f:	41 b9 00 00 00 00    	mov    r9d,0x0
    8f95:	0f 57 c0             	xorps  xmm0,xmm0
    8f98:	68 00 00 00 00       	push   0x0
    8f9d:	68 00 00 00 00       	push   0x0
    8fa2:	e8 00 00 00 00       	call   8fa7 <s2111+0x171>
    8fa7:	f2 0f 10 0d 00 00 00 	movsd  xmm1,QWORD PTR [rip+0x0]        # 8faf <s2111+0x179>
    8fae:	00 
    8faf:	48 83 c4 10          	add    rsp,0x10
    8fb3:	ff c3                	inc    ebx
    8fb5:	81 fb 58 98 00 00    	cmp    ebx,0x9858
    8fbb:	0f 85 9a fe ff ff    	jne    8e5b <s2111+0x25>
    8fc1:	49 83 c6 10          	add    r14,0x10
    8fc5:	4c 89 f7             	mov    rdi,r14
    8fc8:	31 f6                	xor    esi,esi
    8fca:	e8 00 00 00 00       	call   8fcf <s2111+0x199>
    8fcf:	bf 00 00 00 00       	mov    edi,0x0
    8fd4:	48 83 c4 08          	add    rsp,0x8
    8fd8:	5b                   	pop    rbx
    8fd9:	41 5e                	pop    r14
    8fdb:	e9 00 00 00 00       	jmp    8fe0 <s311>

0000000000008fe0 <s311>:
    8fe0:	41 56                	push   r14
    8fe2:	53                   	push   rbx
    8fe3:	50                   	push   rax
    8fe4:	49 89 fe             	mov    r14,rdi
    8fe7:	bf 00 00 00 00       	mov    edi,0x0
    8fec:	e8 00 00 00 00       	call   8ff1 <s311+0x11>
    8ff1:	31 db                	xor    ebx,ebx
    8ff3:	4c 89 f7             	mov    rdi,r14
    8ff6:	31 f6                	xor    esi,esi
    8ff8:	e8 00 00 00 00       	call   8ffd <s311+0x1d>
    8ffd:	0f 57 c0             	xorps  xmm0,xmm0
    9000:	31 c0                	xor    eax,eax
    9002:	31 c9                	xor    ecx,ecx
    9004:	48 89 c2             	mov    rdx,rax
    9007:	48 09 ca             	or     rdx,rcx
    900a:	f3 0f 58 04 95 00 00 	addss  xmm0,DWORD PTR [rdx*4+0x0]
    9011:	00 00 
    9013:	48 ff c1             	inc    rcx
    9016:	48 83 f9 08          	cmp    rcx,0x8
    901a:	75 e8                	jne    9004 <s311+0x24>
    901c:	48 83 c0 08          	add    rax,0x8
    9020:	48 3d 00 7d 00 00    	cmp    rax,0x7d00
    9026:	75 da                	jne    9002 <s311+0x22>
    9028:	bf 00 00 00 00       	mov    edi,0x0
    902d:	be 00 00 00 00       	mov    esi,0x0
    9032:	ba 00 00 00 00       	mov    edx,0x0
    9037:	b9 00 00 00 00       	mov    ecx,0x0
    903c:	41 b8 00 00 00 00    	mov    r8d,0x0
    9042:	41 b9 00 00 00 00    	mov    r9d,0x0
    9048:	68 00 00 00 00       	push   0x0
    904d:	68 00 00 00 00       	push   0x0
    9052:	e8 00 00 00 00       	call   9057 <s311+0x77>
    9057:	48 83 c4 10          	add    rsp,0x10
    905b:	ff c3                	inc    ebx
    905d:	81 fb 40 42 0f 00    	cmp    ebx,0xf4240
    9063:	75 98                	jne    8ffd <s311+0x1d>
    9065:	49 83 c6 10          	add    r14,0x10
    9069:	4c 89 f7             	mov    rdi,r14
    906c:	31 f6                	xor    esi,esi
    906e:	e8 00 00 00 00       	call   9073 <s311+0x93>
    9073:	bf 00 00 00 00       	mov    edi,0x0
    9078:	48 83 c4 08          	add    rsp,0x8
    907c:	5b                   	pop    rbx
    907d:	41 5e                	pop    r14
    907f:	e9 00 00 00 00       	jmp    9084 <test>

0000000000009084 <test>:
    9084:	0f 57 c0             	xorps  xmm0,xmm0
    9087:	31 c0                	xor    eax,eax
    9089:	f3 0f 58 04 87       	addss  xmm0,DWORD PTR [rdi+rax*4]
    908e:	48 ff c0             	inc    rax
    9091:	48 83 f8 04          	cmp    rax,0x4
    9095:	75 f2                	jne    9089 <test+0x5>
    9097:	c3                   	ret    

0000000000009098 <s31111>:
    9098:	41 56                	push   r14
    909a:	53                   	push   rbx
    909b:	50                   	push   rax
    909c:	49 89 fe             	mov    r14,rdi
    909f:	bf 00 00 00 00       	mov    edi,0x0
    90a4:	e8 00 00 00 00       	call   90a9 <s31111+0x11>
    90a9:	31 db                	xor    ebx,ebx
    90ab:	4c 89 f7             	mov    rdi,r14
    90ae:	31 f6                	xor    esi,esi
    90b0:	e8 00 00 00 00       	call   90b5 <s31111+0x1d>
    90b5:	0f 57 c0             	xorps  xmm0,xmm0
    90b8:	48 c7 c0 f0 ff ff ff 	mov    rax,0xfffffffffffffff0
    90bf:	f3 0f 58 80 00 00 00 	addss  xmm0,DWORD PTR [rax+0x0]
    90c6:	00 
    90c7:	48 83 c0 04          	add    rax,0x4
    90cb:	75 f2                	jne    90bf <s31111+0x27>
    90cd:	0f 57 db             	xorps  xmm3,xmm3
    90d0:	48 c7 c0 f0 ff ff ff 	mov    rax,0xfffffffffffffff0
    90d7:	f3 0f 58 98 00 00 00 	addss  xmm3,DWORD PTR [rax+0x0]
    90de:	00 
    90df:	48 83 c0 04          	add    rax,0x4
    90e3:	75 f2                	jne    90d7 <s31111+0x3f>
    90e5:	0f 57 d2             	xorps  xmm2,xmm2
    90e8:	48 c7 c0 f0 ff ff ff 	mov    rax,0xfffffffffffffff0
    90ef:	f3 0f 58 90 00 00 00 	addss  xmm2,DWORD PTR [rax+0x0]
    90f6:	00 
    90f7:	48 83 c0 04          	add    rax,0x4
    90fb:	75 f2                	jne    90ef <s31111+0x57>
    90fd:	0f 57 c9             	xorps  xmm1,xmm1
    9100:	f3 0f 58 c1          	addss  xmm0,xmm1
    9104:	48 c7 c0 f0 ff ff ff 	mov    rax,0xfffffffffffffff0
    910b:	f3 0f 58 88 00 00 00 	addss  xmm1,DWORD PTR [rax+0x0]
    9112:	00 
    9113:	48 83 c0 04          	add    rax,0x4
    9117:	75 f2                	jne    910b <s31111+0x73>
    9119:	f3 0f 58 c3          	addss  xmm0,xmm3
    911d:	0f 57 db             	xorps  xmm3,xmm3
    9120:	48 c7 c0 f0 ff ff ff 	mov    rax,0xfffffffffffffff0
    9127:	f3 0f 58 98 00 00 00 	addss  xmm3,DWORD PTR [rax+0x0]
    912e:	00 
    912f:	48 83 c0 04          	add    rax,0x4
    9133:	75 f2                	jne    9127 <s31111+0x8f>
    9135:	f3 0f 58 c2          	addss  xmm0,xmm2
    9139:	0f 57 d2             	xorps  xmm2,xmm2
    913c:	48 c7 c0 f0 ff ff ff 	mov    rax,0xfffffffffffffff0
    9143:	f3 0f 58 90 00 00 00 	addss  xmm2,DWORD PTR [rax+0x0]
    914a:	00 
    914b:	48 83 c0 04          	add    rax,0x4
    914f:	75 f2                	jne    9143 <s31111+0xab>
    9151:	f3 0f 58 c1          	addss  xmm0,xmm1
    9155:	0f 57 c9             	xorps  xmm1,xmm1
    9158:	48 c7 c0 f0 ff ff ff 	mov    rax,0xfffffffffffffff0
    915f:	f3 0f 58 88 00 00 00 	addss  xmm1,DWORD PTR [rax+0x0]
    9166:	00 
    9167:	48 83 c0 04          	add    rax,0x4
    916b:	75 f2                	jne    915f <s31111+0xc7>
    916d:	f3 0f 58 c3          	addss  xmm0,xmm3
    9171:	0f 57 db             	xorps  xmm3,xmm3
    9174:	48 c7 c0 f0 ff ff ff 	mov    rax,0xfffffffffffffff0
    917b:	f3 0f 58 98 00 00 00 	addss  xmm3,DWORD PTR [rax+0x0]
    9182:	00 
    9183:	48 83 c0 04          	add    rax,0x4
    9187:	75 f2                	jne    917b <s31111+0xe3>
    9189:	f3 0f 58 c2          	addss  xmm0,xmm2
    918d:	f3 0f 58 c1          	addss  xmm0,xmm1
    9191:	f3 0f 58 c3          	addss  xmm0,xmm3
    9195:	bf 00 00 00 00       	mov    edi,0x0
    919a:	be 00 00 00 00       	mov    esi,0x0
    919f:	ba 00 00 00 00       	mov    edx,0x0
    91a4:	b9 00 00 00 00       	mov    ecx,0x0
    91a9:	41 b8 00 00 00 00    	mov    r8d,0x0
    91af:	41 b9 00 00 00 00    	mov    r9d,0x0
    91b5:	68 00 00 00 00       	push   0x0
    91ba:	68 00 00 00 00       	push   0x0
    91bf:	e8 00 00 00 00       	call   91c4 <s31111+0x12c>
    91c4:	48 83 c4 10          	add    rsp,0x10
    91c8:	ff c3                	inc    ebx
    91ca:	81 fb 00 c2 eb 0b    	cmp    ebx,0xbebc200
    91d0:	0f 85 df fe ff ff    	jne    90b5 <s31111+0x1d>
    91d6:	49 83 c6 10          	add    r14,0x10
    91da:	4c 89 f7             	mov    rdi,r14
    91dd:	31 f6                	xor    esi,esi
    91df:	e8 00 00 00 00       	call   91e4 <s31111+0x14c>
    91e4:	bf 00 00 00 00       	mov    edi,0x0
    91e9:	48 83 c4 08          	add    rsp,0x8
    91ed:	5b                   	pop    rbx
    91ee:	41 5e                	pop    r14
    91f0:	e9 00 00 00 00       	jmp    91f5 <s312>

00000000000091f5 <s312>:
    91f5:	41 56                	push   r14
    91f7:	53                   	push   rbx
    91f8:	50                   	push   rax
    91f9:	49 89 fe             	mov    r14,rdi
    91fc:	bf 00 00 00 00       	mov    edi,0x0
    9201:	e8 00 00 00 00       	call   9206 <s312+0x11>
    9206:	31 db                	xor    ebx,ebx
    9208:	4c 89 f7             	mov    rdi,r14
    920b:	31 f6                	xor    esi,esi
    920d:	e8 00 00 00 00       	call   9212 <s312+0x1d>
    9212:	31 c0                	xor    eax,eax
    9214:	f3 0f 10 05 00 00 00 	movss  xmm0,DWORD PTR [rip+0x0]        # 921c <s312+0x27>
    921b:	00 
    921c:	31 c9                	xor    ecx,ecx
    921e:	48 89 c2             	mov    rdx,rax
    9221:	48 09 ca             	or     rdx,rcx
    9224:	f3 0f 59 04 95 00 00 	mulss  xmm0,DWORD PTR [rdx*4+0x0]
    922b:	00 00 
    922d:	48 ff c1             	inc    rcx
    9230:	48 83 f9 08          	cmp    rcx,0x8
    9234:	75 e8                	jne    921e <s312+0x29>
    9236:	48 83 c0 08          	add    rax,0x8
    923a:	48 3d 00 7d 00 00    	cmp    rax,0x7d00
    9240:	75 da                	jne    921c <s312+0x27>
    9242:	bf 00 00 00 00       	mov    edi,0x0
    9247:	be 00 00 00 00       	mov    esi,0x0
    924c:	ba 00 00 00 00       	mov    edx,0x0
    9251:	b9 00 00 00 00       	mov    ecx,0x0
    9256:	41 b8 00 00 00 00    	mov    r8d,0x0
    925c:	41 b9 00 00 00 00    	mov    r9d,0x0
    9262:	f3 0f 11 44 24 04    	movss  DWORD PTR [rsp+0x4],xmm0
    9268:	68 00 00 00 00       	push   0x0
    926d:	68 00 00 00 00       	push   0x0
    9272:	e8 00 00 00 00       	call   9277 <s312+0x82>
    9277:	48 83 c4 10          	add    rsp,0x10
    927b:	ff c3                	inc    ebx
    927d:	81 fb 40 42 0f 00    	cmp    ebx,0xf4240
    9283:	75 8d                	jne    9212 <s312+0x1d>
    9285:	49 83 c6 10          	add    r14,0x10
    9289:	4c 89 f7             	mov    rdi,r14
    928c:	31 f6                	xor    esi,esi
    928e:	e8 00 00 00 00       	call   9293 <s312+0x9e>
    9293:	f3 0f 10 44 24 04    	movss  xmm0,DWORD PTR [rsp+0x4]
    9299:	48 83 c4 08          	add    rsp,0x8
    929d:	5b                   	pop    rbx
    929e:	41 5e                	pop    r14
    92a0:	c3                   	ret    

00000000000092a1 <s313>:
    92a1:	41 56                	push   r14
    92a3:	53                   	push   rbx
    92a4:	50                   	push   rax
    92a5:	49 89 fe             	mov    r14,rdi
    92a8:	bf 00 00 00 00       	mov    edi,0x0
    92ad:	e8 00 00 00 00       	call   92b2 <s313+0x11>
    92b2:	31 db                	xor    ebx,ebx
    92b4:	4c 89 f7             	mov    rdi,r14
    92b7:	31 f6                	xor    esi,esi
    92b9:	e8 00 00 00 00       	call   92be <s313+0x1d>
    92be:	0f 57 c0             	xorps  xmm0,xmm0
    92c1:	31 c0                	xor    eax,eax
    92c3:	31 c9                	xor    ecx,ecx
    92c5:	48 89 c2             	mov    rdx,rax
    92c8:	48 09 ca             	or     rdx,rcx
    92cb:	f3 0f 10 0c 95 00 00 	movss  xmm1,DWORD PTR [rdx*4+0x0]
    92d2:	00 00 
    92d4:	f3 0f 59 0c 95 00 00 	mulss  xmm1,DWORD PTR [rdx*4+0x0]
    92db:	00 00 
    92dd:	f3 0f 58 c1          	addss  xmm0,xmm1
    92e1:	48 ff c1             	inc    rcx
    92e4:	48 83 f9 08          	cmp    rcx,0x8
    92e8:	75 db                	jne    92c5 <s313+0x24>
    92ea:	48 83 c0 08          	add    rax,0x8
    92ee:	48 3d 00 7d 00 00    	cmp    rax,0x7d00
    92f4:	75 cd                	jne    92c3 <s313+0x22>
    92f6:	bf 00 00 00 00       	mov    edi,0x0
    92fb:	be 00 00 00 00       	mov    esi,0x0
    9300:	ba 00 00 00 00       	mov    edx,0x0
    9305:	b9 00 00 00 00       	mov    ecx,0x0
    930a:	41 b8 00 00 00 00    	mov    r8d,0x0
    9310:	41 b9 00 00 00 00    	mov    r9d,0x0
    9316:	68 00 00 00 00       	push   0x0
    931b:	68 00 00 00 00       	push   0x0
    9320:	f3 0f 11 44 24 14    	movss  DWORD PTR [rsp+0x14],xmm0
    9326:	e8 00 00 00 00       	call   932b <s313+0x8a>
    932b:	48 83 c4 10          	add    rsp,0x10
    932f:	ff c3                	inc    ebx
    9331:	81 fb 20 a1 07 00    	cmp    ebx,0x7a120
    9337:	75 85                	jne    92be <s313+0x1d>
    9339:	49 83 c6 10          	add    r14,0x10
    933d:	4c 89 f7             	mov    rdi,r14
    9340:	31 f6                	xor    esi,esi
    9342:	e8 00 00 00 00       	call   9347 <s313+0xa6>
    9347:	f3 0f 10 44 24 04    	movss  xmm0,DWORD PTR [rsp+0x4]
    934d:	48 83 c4 08          	add    rsp,0x8
    9351:	5b                   	pop    rbx
    9352:	41 5e                	pop    r14
    9354:	c3                   	ret    

0000000000009355 <s314>:
    9355:	41 56                	push   r14
    9357:	53                   	push   rbx
    9358:	50                   	push   rax
    9359:	49 89 fe             	mov    r14,rdi
    935c:	bf 00 00 00 00       	mov    edi,0x0
    9361:	e8 00 00 00 00       	call   9366 <s314+0x11>
    9366:	31 db                	xor    ebx,ebx
    9368:	4c 89 f7             	mov    rdi,r14
    936b:	31 f6                	xor    esi,esi
    936d:	e8 00 00 00 00       	call   9372 <s314+0x1d>
    9372:	48 c7 c0 20 0c fe ff 	mov    rax,0xfffffffffffe0c20
    9379:	f3 0f 10 15 00 00 00 	movss  xmm2,DWORD PTR [rip+0x0]        # 9381 <s314+0x2c>
    9380:	00 
    9381:	0f 28 c2             	movaps xmm0,xmm2
    9384:	f3 0f 5f d0          	maxss  xmm2,xmm0
    9388:	f3 0f 10 88 00 00 00 	movss  xmm1,DWORD PTR [rax+0x0]
    938f:	00 
    9390:	f3 0f 5f ca          	maxss  xmm1,xmm2
    9394:	f3 0f 10 80 00 00 00 	movss  xmm0,DWORD PTR [rax+0x0]
    939b:	00 
    939c:	f3 0f 5f c1          	maxss  xmm0,xmm1
    93a0:	f3 0f 10 88 00 00 00 	movss  xmm1,DWORD PTR [rax+0x0]
    93a7:	00 
    93a8:	f3 0f 5f c8          	maxss  xmm1,xmm0
    93ac:	f3 0f 10 80 00 00 00 	movss  xmm0,DWORD PTR [rax+0x0]
    93b3:	00 
    93b4:	f3 0f 5f c1          	maxss  xmm0,xmm1
    93b8:	f3 0f 10 88 00 00 00 	movss  xmm1,DWORD PTR [rax+0x0]
    93bf:	00 
    93c0:	f3 0f 5f c8          	maxss  xmm1,xmm0
    93c4:	f3 0f 10 90 00 00 00 	movss  xmm2,DWORD PTR [rax+0x0]
    93cb:	00 
    93cc:	f3 0f 5f d1          	maxss  xmm2,xmm1
    93d0:	f3 0f 10 80 00 00 00 	movss  xmm0,DWORD PTR [rax+0x0]
    93d7:	00 
    93d8:	f3 0f 5f c2          	maxss  xmm0,xmm2
    93dc:	48 85 c0             	test   rax,rax
    93df:	74 0e                	je     93ef <s314+0x9a>
    93e1:	f3 0f 10 90 00 00 00 	movss  xmm2,DWORD PTR [rax+0x0]
    93e8:	00 
    93e9:	48 83 c0 20          	add    rax,0x20
    93ed:	eb 95                	jmp    9384 <s314+0x2f>
    93ef:	bf 00 00 00 00       	mov    edi,0x0
    93f4:	be 00 00 00 00       	mov    esi,0x0
    93f9:	ba 00 00 00 00       	mov    edx,0x0
    93fe:	b9 00 00 00 00       	mov    ecx,0x0
    9403:	41 b8 00 00 00 00    	mov    r8d,0x0
    9409:	41 b9 00 00 00 00    	mov    r9d,0x0
    940f:	68 00 00 00 00       	push   0x0
    9414:	68 00 00 00 00       	push   0x0
    9419:	f3 0f 11 44 24 14    	movss  DWORD PTR [rsp+0x14],xmm0
    941f:	e8 00 00 00 00       	call   9424 <s314+0xcf>
    9424:	48 83 c4 10          	add    rsp,0x10
    9428:	ff c3                	inc    ebx
    942a:	81 fb 20 a1 07 00    	cmp    ebx,0x7a120
    9430:	0f 85 3c ff ff ff    	jne    9372 <s314+0x1d>
    9436:	49 83 c6 10          	add    r14,0x10
    943a:	4c 89 f7             	mov    rdi,r14
    943d:	31 f6                	xor    esi,esi
    943f:	e8 00 00 00 00       	call   9444 <s314+0xef>
    9444:	f3 0f 10 44 24 04    	movss  xmm0,DWORD PTR [rsp+0x4]
    944a:	48 83 c4 08          	add    rsp,0x8
    944e:	5b                   	pop    rbx
    944f:	41 5e                	pop    r14
    9451:	c3                   	ret    

0000000000009452 <s315>:
    9452:	41 56                	push   r14
    9454:	53                   	push   rbx
    9455:	50                   	push   rax
    9456:	49 89 fe             	mov    r14,rdi
    9459:	bf 00 00 00 00       	mov    edi,0x0
    945e:	e8 00 00 00 00       	call   9463 <s315+0x11>
    9463:	31 db                	xor    ebx,ebx
    9465:	4c 89 f7             	mov    rdi,r14
    9468:	31 f6                	xor    esi,esi
    946a:	e8 00 00 00 00       	call   946f <s315+0x1d>
    946f:	48 c7 c0 00 0c fe ff 	mov    rax,0xfffffffffffe0c00
    9476:	89 d9                	mov    ecx,ebx
    9478:	48 69 c9 d3 4d 62 10 	imul   rcx,rcx,0x10624dd3
    947f:	48 c1 e9 2b          	shr    rcx,0x2b
    9483:	69 c9 00 7d 00 00    	imul   ecx,ecx,0x7d00
    9489:	89 da                	mov    edx,ebx
    948b:	29 ca                	sub    edx,ecx
    948d:	0f 57 c0             	xorps  xmm0,xmm0
    9490:	f3 0f 2a c2          	cvtsi2ss xmm0,edx
    9494:	f3 0f 11 80 00 00 00 	movss  DWORD PTR [rax+0x0],xmm0
    949b:	00 
    949c:	83 c3 07             	add    ebx,0x7
    949f:	48 83 c0 04          	add    rax,0x4
    94a3:	75 d1                	jne    9476 <s315+0x24>
    94a5:	31 db                	xor    ebx,ebx
    94a7:	f3 0f 10 15 00 00 00 	movss  xmm2,DWORD PTR [rip+0x0]        # 94af <s315+0x5d>
    94ae:	00 
    94af:	31 c0                	xor    eax,eax
    94b1:	31 c9                	xor    ecx,ecx
    94b3:	0f 28 c2             	movaps xmm0,xmm2
    94b6:	0f 2e d0             	ucomiss xmm2,xmm0
    94b9:	0f 47 c8             	cmova  ecx,eax
    94bc:	f3 0f 5f d0          	maxss  xmm2,xmm0
    94c0:	f3 0f 10 0c 85 00 00 	movss  xmm1,DWORD PTR [rax*4+0x0]
    94c7:	00 00 
    94c9:	0f 2e ca             	ucomiss xmm1,xmm2
    94cc:	8d 50 01             	lea    edx,[rax+0x1]
    94cf:	0f 46 d1             	cmovbe edx,ecx
    94d2:	f3 0f 5f ca          	maxss  xmm1,xmm2
    94d6:	f3 0f 10 04 85 00 00 	movss  xmm0,DWORD PTR [rax*4+0x0]
    94dd:	00 00 
    94df:	0f 2e c1             	ucomiss xmm0,xmm1
    94e2:	8d 48 02             	lea    ecx,[rax+0x2]
    94e5:	0f 46 ca             	cmovbe ecx,edx
    94e8:	f3 0f 5f c1          	maxss  xmm0,xmm1
    94ec:	f3 0f 10 0c 85 00 00 	movss  xmm1,DWORD PTR [rax*4+0x0]
    94f3:	00 00 
    94f5:	0f 2e c8             	ucomiss xmm1,xmm0
    94f8:	8d 50 03             	lea    edx,[rax+0x3]
    94fb:	0f 46 d1             	cmovbe edx,ecx
    94fe:	f3 0f 5f c8          	maxss  xmm1,xmm0
    9502:	f3 0f 10 04 85 00 00 	movss  xmm0,DWORD PTR [rax*4+0x0]
    9509:	00 00 
    950b:	0f 2e c1             	ucomiss xmm0,xmm1
    950e:	8d 48 04             	lea    ecx,[rax+0x4]
    9511:	0f 46 ca             	cmovbe ecx,edx
    9514:	f3 0f 5f c1          	maxss  xmm0,xmm1
    9518:	f3 0f 10 0c 85 00 00 	movss  xmm1,DWORD PTR [rax*4+0x0]
    951f:	00 00 
    9521:	0f 2e c8             	ucomiss xmm1,xmm0
    9524:	8d 50 05             	lea    edx,[rax+0x5]
    9527:	0f 46 d1             	cmovbe edx,ecx
    952a:	f3 0f 5f c8          	maxss  xmm1,xmm0
    952e:	f3 0f 10 14 85 00 00 	movss  xmm2,DWORD PTR [rax*4+0x0]
    9535:	00 00 
    9537:	0f 2e d1             	ucomiss xmm2,xmm1
    953a:	8d 70 06             	lea    esi,[rax+0x6]
    953d:	0f 46 f2             	cmovbe esi,edx
    9540:	f3 0f 5f d1          	maxss  xmm2,xmm1
    9544:	f3 0f 10 04 85 00 00 	movss  xmm0,DWORD PTR [rax*4+0x0]
    954b:	00 00 
    954d:	0f 2e c2             	ucomiss xmm0,xmm2
    9550:	8d 48 07             	lea    ecx,[rax+0x7]
    9553:	0f 46 ce             	cmovbe ecx,esi
    9556:	f3 0f 5f c2          	maxss  xmm0,xmm2
    955a:	48 8d 50 08          	lea    rdx,[rax+0x8]
    955e:	48 81 fa 00 7d 00 00 	cmp    rdx,0x7d00
    9565:	74 11                	je     9578 <s315+0x126>
    9567:	f3 0f 10 14 85 00 00 	movss  xmm2,DWORD PTR [rax*4+0x0]
    956e:	00 00 
    9570:	48 89 d0             	mov    rax,rdx
    9573:	e9 3e ff ff ff       	jmp    94b6 <s315+0x64>
    9578:	0f 57 c9             	xorps  xmm1,xmm1
    957b:	f3 0f 2a c9          	cvtsi2ss xmm1,ecx
    957f:	f3 0f 58 c1          	addss  xmm0,xmm1
    9583:	f3 0f 11 44 24 04    	movss  DWORD PTR [rsp+0x4],xmm0
    9589:	bf 00 00 00 00       	mov    edi,0x0
    958e:	be 00 00 00 00       	mov    esi,0x0
    9593:	ba 00 00 00 00       	mov    edx,0x0
    9598:	b9 00 00 00 00       	mov    ecx,0x0
    959d:	41 b8 00 00 00 00    	mov    r8d,0x0
    95a3:	41 b9 00 00 00 00    	mov    r9d,0x0
    95a9:	68 00 00 00 00       	push   0x0
    95ae:	68 00 00 00 00       	push   0x0
    95b3:	e8 00 00 00 00       	call   95b8 <s315+0x166>
    95b8:	48 83 c4 10          	add    rsp,0x10
    95bc:	ff c3                	inc    ebx
    95be:	81 fb a0 86 01 00    	cmp    ebx,0x186a0
    95c4:	0f 85 dd fe ff ff    	jne    94a7 <s315+0x55>
    95ca:	49 83 c6 10          	add    r14,0x10
    95ce:	4c 89 f7             	mov    rdi,r14
    95d1:	31 f6                	xor    esi,esi
    95d3:	e8 00 00 00 00       	call   95d8 <s315+0x186>
    95d8:	f3 0f 10 44 24 04    	movss  xmm0,DWORD PTR [rsp+0x4]
    95de:	f3 0f 58 05 00 00 00 	addss  xmm0,DWORD PTR [rip+0x0]        # 95e6 <s315+0x194>
    95e5:	00 
    95e6:	48 83 c4 08          	add    rsp,0x8
    95ea:	5b                   	pop    rbx
    95eb:	41 5e                	pop    r14
    95ed:	c3                   	ret    

00000000000095ee <s316>:
    95ee:	41 56                	push   r14
    95f0:	53                   	push   rbx
    95f1:	50                   	push   rax
    95f2:	49 89 fe             	mov    r14,rdi
    95f5:	bf 00 00 00 00       	mov    edi,0x0
    95fa:	e8 00 00 00 00       	call   95ff <s316+0x11>
    95ff:	31 db                	xor    ebx,ebx
    9601:	4c 89 f7             	mov    rdi,r14
    9604:	31 f6                	xor    esi,esi
    9606:	e8 00 00 00 00       	call   960b <s316+0x1d>
    960b:	48 c7 c0 20 0c fe ff 	mov    rax,0xfffffffffffe0c20
    9612:	f3 0f 10 15 00 00 00 	movss  xmm2,DWORD PTR [rip+0x0]        # 961a <s316+0x2c>
    9619:	00 
    961a:	f3 0f 10 88 00 00 00 	movss  xmm1,DWORD PTR [rax+0x0]
    9621:	00 
    9622:	f3 0f 5d ca          	minss  xmm1,xmm2
    9626:	f3 0f 10 80 00 00 00 	movss  xmm0,DWORD PTR [rax+0x0]
    962d:	00 
    962e:	f3 0f 5d c1          	minss  xmm0,xmm1
    9632:	f3 0f 10 88 00 00 00 	movss  xmm1,DWORD PTR [rax+0x0]
    9639:	00 
    963a:	f3 0f 5d c8          	minss  xmm1,xmm0
    963e:	f3 0f 10 80 00 00 00 	movss  xmm0,DWORD PTR [rax+0x0]
    9645:	00 
    9646:	f3 0f 5d c1          	minss  xmm0,xmm1
    964a:	f3 0f 10 88 00 00 00 	movss  xmm1,DWORD PTR [rax+0x0]
    9651:	00 
    9652:	f3 0f 5d c8          	minss  xmm1,xmm0
    9656:	f3 0f 10 90 00 00 00 	movss  xmm2,DWORD PTR [rax+0x0]
    965d:	00 
    965e:	f3 0f 5d d1          	minss  xmm2,xmm1
    9662:	f3 0f 10 80 00 00 00 	movss  xmm0,DWORD PTR [rax+0x0]
    9669:	00 
    966a:	f3 0f 5d c2          	minss  xmm0,xmm2
    966e:	48 85 c0             	test   rax,rax
    9671:	74 12                	je     9685 <s316+0x97>
    9673:	f3 0f 10 90 00 00 00 	movss  xmm2,DWORD PTR [rax+0x0]
    967a:	00 
    967b:	f3 0f 5d d0          	minss  xmm2,xmm0
    967f:	48 83 c0 20          	add    rax,0x20
    9683:	eb 95                	jmp    961a <s316+0x2c>
    9685:	bf 00 00 00 00       	mov    edi,0x0
    968a:	be 00 00 00 00       	mov    esi,0x0
    968f:	ba 00 00 00 00       	mov    edx,0x0
    9694:	b9 00 00 00 00       	mov    ecx,0x0
    9699:	41 b8 00 00 00 00    	mov    r8d,0x0
    969f:	41 b9 00 00 00 00    	mov    r9d,0x0
    96a5:	f3 0f 11 44 24 04    	movss  DWORD PTR [rsp+0x4],xmm0
    96ab:	68 00 00 00 00       	push   0x0
    96b0:	68 00 00 00 00       	push   0x0
    96b5:	e8 00 00 00 00       	call   96ba <s316+0xcc>
    96ba:	48 83 c4 10          	add    rsp,0x10
    96be:	ff c3                	inc    ebx
    96c0:	81 fb 20 a1 07 00    	cmp    ebx,0x7a120
    96c6:	0f 85 3f ff ff ff    	jne    960b <s316+0x1d>
    96cc:	49 83 c6 10          	add    r14,0x10
    96d0:	4c 89 f7             	mov    rdi,r14
    96d3:	31 f6                	xor    esi,esi
    96d5:	e8 00 00 00 00       	call   96da <s316+0xec>
    96da:	f3 0f 10 44 24 04    	movss  xmm0,DWORD PTR [rsp+0x4]
    96e0:	48 83 c4 08          	add    rsp,0x8
    96e4:	5b                   	pop    rbx
    96e5:	41 5e                	pop    r14
    96e7:	c3                   	ret    

00000000000096e8 <s317>:
    96e8:	41 56                	push   r14
    96ea:	53                   	push   rbx
    96eb:	50                   	push   rax
    96ec:	49 89 fe             	mov    r14,rdi
    96ef:	bf 00 00 00 00       	mov    edi,0x0
    96f4:	e8 00 00 00 00       	call   96f9 <s317+0x11>
    96f9:	31 db                	xor    ebx,ebx
    96fb:	4c 89 f7             	mov    rdi,r14
    96fe:	31 f6                	xor    esi,esi
    9700:	e8 00 00 00 00       	call   9705 <s317+0x1d>
    9705:	f3 0f 10 0d 00 00 00 	movss  xmm1,DWORD PTR [rip+0x0]        # 970d <s317+0x25>
    970c:	00 
    970d:	31 c0                	xor    eax,eax
    970f:	f3 0f 10 05 00 00 00 	movss  xmm0,DWORD PTR [rip+0x0]        # 9717 <s317+0x2f>
    9716:	00 
    9717:	b1 08                	mov    cl,0x8
    9719:	f3 0f 59 c1          	mulss  xmm0,xmm1
    971d:	fe c9                	dec    cl
    971f:	75 f8                	jne    9719 <s317+0x31>
    9721:	83 c0 08             	add    eax,0x8
    9724:	3d 80 3e 00 00       	cmp    eax,0x3e80
    9729:	75 ec                	jne    9717 <s317+0x2f>
    972b:	bf 00 00 00 00       	mov    edi,0x0
    9730:	be 00 00 00 00       	mov    esi,0x0
    9735:	ba 00 00 00 00       	mov    edx,0x0
    973a:	b9 00 00 00 00       	mov    ecx,0x0
    973f:	41 b8 00 00 00 00    	mov    r8d,0x0
    9745:	41 b9 00 00 00 00    	mov    r9d,0x0
    974b:	f3 0f 11 44 24 04    	movss  DWORD PTR [rsp+0x4],xmm0
    9751:	68 00 00 00 00       	push   0x0
    9756:	68 00 00 00 00       	push   0x0
    975b:	e8 00 00 00 00       	call   9760 <s317+0x78>
    9760:	f3 0f 10 0d 00 00 00 	movss  xmm1,DWORD PTR [rip+0x0]        # 9768 <s317+0x80>
    9767:	00 
    9768:	48 83 c4 10          	add    rsp,0x10
    976c:	ff c3                	inc    ebx
    976e:	81 fb 20 a1 07 00    	cmp    ebx,0x7a120
    9774:	75 97                	jne    970d <s317+0x25>
    9776:	49 83 c6 10          	add    r14,0x10
    977a:	4c 89 f7             	mov    rdi,r14
    977d:	31 f6                	xor    esi,esi
    977f:	e8 00 00 00 00       	call   9784 <s317+0x9c>
    9784:	f3 0f 10 44 24 04    	movss  xmm0,DWORD PTR [rsp+0x4]
    978a:	48 83 c4 08          	add    rsp,0x8
    978e:	5b                   	pop    rbx
    978f:	41 5e                	pop    r14
    9791:	c3                   	ret    

0000000000009792 <s318>:
    9792:	55                   	push   rbp
    9793:	41 57                	push   r15
    9795:	41 56                	push   r14
    9797:	41 55                	push   r13
    9799:	41 54                	push   r12
    979b:	53                   	push   rbx
    979c:	48 83 ec 18          	sub    rsp,0x18
    97a0:	49 89 fe             	mov    r14,rdi
    97a3:	48 8b 47 20          	mov    rax,QWORD PTR [rdi+0x20]
    97a7:	4c 63 28             	movsxd r13,DWORD PTR [rax]
    97aa:	bf 00 00 00 00       	mov    edi,0x0
    97af:	e8 00 00 00 00       	call   97b4 <s318+0x22>
    97b4:	45 31 ff             	xor    r15d,r15d
    97b7:	4c 89 f7             	mov    rdi,r14
    97ba:	31 f6                	xor    esi,esi
    97bc:	e8 00 00 00 00       	call   97c1 <s318+0x2f>
    97c1:	4e 8d 24 ad 00 00 00 	lea    r12,[r13*4+0x0]
    97c8:	00 
    97c9:	4c 89 eb             	mov    rbx,r13
    97cc:	48 c1 e3 05          	shl    rbx,0x5
    97d0:	4a 8d 2c ad 00 00 00 	lea    rbp,[r13*4+0x0]
    97d7:	00 
    97d8:	0f 28 1d 00 00 00 00 	movaps xmm3,XMMWORD PTR [rip+0x0]        # 97df <s318+0x4d>
    97df:	f3 0f 10 25 00 00 00 	movss  xmm4,DWORD PTR [rip+0x0]        # 97e7 <s318+0x55>
    97e6:	00 
    97e7:	0f 54 e3             	andps  xmm4,xmm3
    97ea:	b8 01 00 00 00       	mov    eax,0x1
    97ef:	4c 89 e1             	mov    rcx,r12
    97f2:	31 ff                	xor    edi,edi
    97f4:	f3 0f 10 09          	movss  xmm1,DWORD PTR [rcx]
    97f8:	0f 54 cb             	andps  xmm1,xmm3
    97fb:	0f 2e e1             	ucomiss xmm4,xmm1
    97fe:	0f 42 f8             	cmovb  edi,eax
    9801:	0f 28 d1             	movaps xmm2,xmm1
    9804:	f3 0f c2 d4 06       	cmpnless xmm2,xmm4
    9809:	0f 54 ca             	andps  xmm1,xmm2
    980c:	0f 55 d4             	andnps xmm2,xmm4
    980f:	0f 56 d1             	orps   xmm2,xmm1
    9812:	48 8d 34 29          	lea    rsi,[rcx+rbp*1]
    9816:	f3 0f 10 0c 29       	movss  xmm1,DWORD PTR [rcx+rbp*1]
    981b:	0f 54 cb             	andps  xmm1,xmm3
    981e:	8d 50 01             	lea    edx,[rax+0x1]
    9821:	0f 2e d1             	ucomiss xmm2,xmm1
    9824:	0f 43 d7             	cmovae edx,edi
    9827:	72 03                	jb     982c <s318+0x9a>
    9829:	0f 28 ca             	movaps xmm1,xmm2
    982c:	f3 0f 10 44 35 00    	movss  xmm0,DWORD PTR [rbp+rsi*1+0x0]
    9832:	48 01 ee             	add    rsi,rbp
    9835:	0f 54 c3             	andps  xmm0,xmm3
    9838:	8d 78 02             	lea    edi,[rax+0x2]
    983b:	0f 2e c8             	ucomiss xmm1,xmm0
    983e:	0f 42 d7             	cmovb  edx,edi
    9841:	72 03                	jb     9846 <s318+0xb4>
    9843:	0f 28 c1             	movaps xmm0,xmm1
    9846:	f3 0f 10 4c 35 00    	movss  xmm1,DWORD PTR [rbp+rsi*1+0x0]
    984c:	48 01 ee             	add    rsi,rbp
    984f:	0f 54 cb             	andps  xmm1,xmm3
    9852:	8d 78 03             	lea    edi,[rax+0x3]
    9855:	0f 2e c1             	ucomiss xmm0,xmm1
    9858:	0f 42 d7             	cmovb  edx,edi
    985b:	72 03                	jb     9860 <s318+0xce>
    985d:	0f 28 c8             	movaps xmm1,xmm0
    9860:	f3 0f 10 44 35 00    	movss  xmm0,DWORD PTR [rbp+rsi*1+0x0]
    9866:	48 01 ee             	add    rsi,rbp
    9869:	0f 54 c3             	andps  xmm0,xmm3
    986c:	8d 78 04             	lea    edi,[rax+0x4]
    986f:	0f 2e c8             	ucomiss xmm1,xmm0
    9872:	0f 42 d7             	cmovb  edx,edi
    9875:	72 03                	jb     987a <s318+0xe8>
    9877:	0f 28 c1             	movaps xmm0,xmm1
    987a:	f3 0f 10 4c 35 00    	movss  xmm1,DWORD PTR [rbp+rsi*1+0x0]
    9880:	48 01 ee             	add    rsi,rbp
    9883:	0f 54 cb             	andps  xmm1,xmm3
    9886:	8d 78 05             	lea    edi,[rax+0x5]
    9889:	0f 2e c1             	ucomiss xmm0,xmm1
    988c:	0f 42 d7             	cmovb  edx,edi
    988f:	72 03                	jb     9894 <s318+0x102>
    9891:	0f 28 c8             	movaps xmm1,xmm0
    9894:	f3 0f 10 44 35 00    	movss  xmm0,DWORD PTR [rbp+rsi*1+0x0]
    989a:	0f 54 c3             	andps  xmm0,xmm3
    989d:	8d 78 06             	lea    edi,[rax+0x6]
    98a0:	0f 2e c8             	ucomiss xmm1,xmm0
    98a3:	0f 42 d7             	cmovb  edx,edi
    98a6:	72 03                	jb     98ab <s318+0x119>
    98a8:	0f 28 c1             	movaps xmm0,xmm1
    98ab:	83 c0 07             	add    eax,0x7
    98ae:	3d 00 7d 00 00       	cmp    eax,0x7d00
    98b3:	74 2f                	je     98e4 <s318+0x152>
    98b5:	48 01 ee             	add    rsi,rbp
    98b8:	f3 42 0f 10 0c ae    	movss  xmm1,DWORD PTR [rsi+r13*4]
    98be:	0f 54 cb             	andps  xmm1,xmm3
    98c1:	0f 2e c1             	ucomiss xmm0,xmm1
    98c4:	0f 42 d0             	cmovb  edx,eax
    98c7:	0f 28 e1             	movaps xmm4,xmm1
    98ca:	f3 0f c2 e0 06       	cmpnless xmm4,xmm0
    98cf:	0f 54 cc             	andps  xmm1,xmm4
    98d2:	0f 55 e0             	andnps xmm4,xmm0
    98d5:	0f 56 e1             	orps   xmm4,xmm1
    98d8:	48 01 d9             	add    rcx,rbx
    98db:	ff c0                	inc    eax
    98dd:	89 d7                	mov    edi,edx
    98df:	e9 10 ff ff ff       	jmp    97f4 <s318+0x62>
    98e4:	0f 57 c9             	xorps  xmm1,xmm1
    98e7:	f3 0f 2a ca          	cvtsi2ss xmm1,edx
    98eb:	f3 0f 58 c1          	addss  xmm0,xmm1
    98ef:	0f 29 04 24          	movaps XMMWORD PTR [rsp],xmm0
    98f3:	bf 00 00 00 00       	mov    edi,0x0
    98f8:	be 00 00 00 00       	mov    esi,0x0
    98fd:	ba 00 00 00 00       	mov    edx,0x0
    9902:	b9 00 00 00 00       	mov    ecx,0x0
    9907:	41 b8 00 00 00 00    	mov    r8d,0x0
    990d:	41 b9 00 00 00 00    	mov    r9d,0x0
    9913:	68 00 00 00 00       	push   0x0
    9918:	68 00 00 00 00       	push   0x0
    991d:	e8 00 00 00 00       	call   9922 <s318+0x190>
    9922:	0f 28 1d 00 00 00 00 	movaps xmm3,XMMWORD PTR [rip+0x0]        # 9929 <s318+0x197>
    9929:	48 83 c4 10          	add    rsp,0x10
    992d:	41 ff c7             	inc    r15d
    9930:	41 81 ff 50 c3 00 00 	cmp    r15d,0xc350
    9937:	0f 85 a2 fe ff ff    	jne    97df <s318+0x4d>
    993d:	49 83 c6 10          	add    r14,0x10
    9941:	4c 89 f7             	mov    rdi,r14
    9944:	31 f6                	xor    esi,esi
    9946:	e8 00 00 00 00       	call   994b <s318+0x1b9>
    994b:	0f 28 04 24          	movaps xmm0,XMMWORD PTR [rsp]
    994f:	f3 0f 58 05 00 00 00 	addss  xmm0,DWORD PTR [rip+0x0]        # 9957 <s318+0x1c5>
    9956:	00 
    9957:	48 83 c4 18          	add    rsp,0x18
    995b:	5b                   	pop    rbx
    995c:	41 5c                	pop    r12
    995e:	41 5d                	pop    r13
    9960:	41 5e                	pop    r14
    9962:	41 5f                	pop    r15
    9964:	5d                   	pop    rbp
    9965:	c3                   	ret    

0000000000009966 <s319>:
    9966:	41 56                	push   r14
    9968:	53                   	push   rbx
    9969:	48 83 ec 48          	sub    rsp,0x48
    996d:	49 89 fe             	mov    r14,rdi
    9970:	bf 00 00 00 00       	mov    edi,0x0
    9975:	e8 00 00 00 00       	call   997a <s319+0x14>
    997a:	31 db                	xor    ebx,ebx
    997c:	4c 89 f7             	mov    rdi,r14
    997f:	31 f6                	xor    esi,esi
    9981:	e8 00 00 00 00       	call   9986 <s319+0x20>
    9986:	0f 57 c0             	xorps  xmm0,xmm0
    9989:	31 c0                	xor    eax,eax
    998b:	31 c9                	xor    ecx,ecx
    998d:	48 89 c2             	mov    rdx,rax
    9990:	48 09 ca             	or     rdx,rcx
    9993:	f3 0f 10 14 95 00 00 	movss  xmm2,DWORD PTR [rdx*4+0x0]
    999a:	00 00 
    999c:	f3 0f 10 0c 95 00 00 	movss  xmm1,DWORD PTR [rdx*4+0x0]
    99a3:	00 00 
    99a5:	f3 0f 58 ca          	addss  xmm1,xmm2
    99a9:	f3 0f 11 4c 8c 08    	movss  DWORD PTR [rsp+rcx*4+0x8],xmm1
    99af:	f3 0f 11 0c 95 00 00 	movss  DWORD PTR [rdx*4+0x0],xmm1
    99b6:	00 00 
    99b8:	f3 0f 58 14 95 00 00 	addss  xmm2,DWORD PTR [rdx*4+0x0]
    99bf:	00 00 
    99c1:	f3 0f 11 54 8c 28    	movss  DWORD PTR [rsp+rcx*4+0x28],xmm2
    99c7:	f3 0f 11 14 95 00 00 	movss  DWORD PTR [rdx*4+0x0],xmm2
    99ce:	00 00 
    99d0:	48 ff c1             	inc    rcx
    99d3:	48 83 f9 08          	cmp    rcx,0x8
    99d7:	75 b4                	jne    998d <s319+0x27>
    99d9:	f3 0f 58 44 24 08    	addss  xmm0,DWORD PTR [rsp+0x8]
    99df:	f3 0f 58 44 24 28    	addss  xmm0,DWORD PTR [rsp+0x28]
    99e5:	f3 0f 58 44 24 0c    	addss  xmm0,DWORD PTR [rsp+0xc]
    99eb:	f3 0f 58 44 24 2c    	addss  xmm0,DWORD PTR [rsp+0x2c]
    99f1:	f3 0f 58 44 24 10    	addss  xmm0,DWORD PTR [rsp+0x10]
    99f7:	f3 0f 58 44 24 30    	addss  xmm0,DWORD PTR [rsp+0x30]
    99fd:	f3 0f 58 44 24 14    	addss  xmm0,DWORD PTR [rsp+0x14]
    9a03:	f3 0f 58 44 24 34    	addss  xmm0,DWORD PTR [rsp+0x34]
    9a09:	f3 0f 58 44 24 18    	addss  xmm0,DWORD PTR [rsp+0x18]
    9a0f:	f3 0f 58 44 24 38    	addss  xmm0,DWORD PTR [rsp+0x38]
    9a15:	f3 0f 58 44 24 1c    	addss  xmm0,DWORD PTR [rsp+0x1c]
    9a1b:	f3 0f 58 44 24 3c    	addss  xmm0,DWORD PTR [rsp+0x3c]
    9a21:	f3 0f 58 44 24 20    	addss  xmm0,DWORD PTR [rsp+0x20]
    9a27:	f3 0f 58 44 24 40    	addss  xmm0,DWORD PTR [rsp+0x40]
    9a2d:	f3 0f 58 44 24 24    	addss  xmm0,DWORD PTR [rsp+0x24]
    9a33:	f3 0f 58 44 24 44    	addss  xmm0,DWORD PTR [rsp+0x44]
    9a39:	48 83 c0 08          	add    rax,0x8
    9a3d:	48 3d 00 7d 00 00    	cmp    rax,0x7d00
    9a43:	0f 85 42 ff ff ff    	jne    998b <s319+0x25>
    9a49:	bf 00 00 00 00       	mov    edi,0x0
    9a4e:	be 00 00 00 00       	mov    esi,0x0
    9a53:	ba 00 00 00 00       	mov    edx,0x0
    9a58:	b9 00 00 00 00       	mov    ecx,0x0
    9a5d:	41 b8 00 00 00 00    	mov    r8d,0x0
    9a63:	41 b9 00 00 00 00    	mov    r9d,0x0
    9a69:	68 00 00 00 00       	push   0x0
    9a6e:	68 00 00 00 00       	push   0x0
    9a73:	f3 0f 11 44 24 14    	movss  DWORD PTR [rsp+0x14],xmm0
    9a79:	e8 00 00 00 00       	call   9a7e <s319+0x118>
    9a7e:	48 83 c4 10          	add    rsp,0x10
    9a82:	ff c3                	inc    ebx
    9a84:	81 fb 40 0d 03 00    	cmp    ebx,0x30d40
    9a8a:	0f 85 f6 fe ff ff    	jne    9986 <s319+0x20>
    9a90:	49 83 c6 10          	add    r14,0x10
    9a94:	4c 89 f7             	mov    rdi,r14
    9a97:	31 f6                	xor    esi,esi
    9a99:	e8 00 00 00 00       	call   9a9e <s319+0x138>
    9a9e:	f3 0f 10 44 24 04    	movss  xmm0,DWORD PTR [rsp+0x4]
    9aa4:	48 83 c4 48          	add    rsp,0x48
    9aa8:	5b                   	pop    rbx
    9aa9:	41 5e                	pop    r14
    9aab:	c3                   	ret    

0000000000009aac <s3110>:
    9aac:	41 57                	push   r15
    9aae:	41 56                	push   r14
    9ab0:	53                   	push   rbx
    9ab1:	48 83 ec 10          	sub    rsp,0x10
    9ab5:	49 89 fe             	mov    r14,rdi
    9ab8:	bf 00 00 00 00       	mov    edi,0x0
    9abd:	e8 00 00 00 00       	call   9ac2 <s3110+0x16>
    9ac2:	45 31 ff             	xor    r15d,r15d
    9ac5:	4c 89 f7             	mov    rdi,r14
    9ac8:	31 f6                	xor    esi,esi
    9aca:	e8 00 00 00 00       	call   9acf <s3110+0x23>
    9acf:	b8 00 00 00 00       	mov    eax,0x0
    9ad4:	f3 0f 10 25 00 00 00 	movss  xmm4,DWORD PTR [rip+0x0]        # 9adc <s3110+0x30>
    9adb:	00 
    9adc:	31 c9                	xor    ecx,ecx
    9ade:	31 d2                	xor    edx,edx
    9ae0:	31 db                	xor    ebx,ebx
    9ae2:	31 f6                	xor    esi,esi
    9ae4:	44 0f 28 dc          	movaps xmm11,xmm4
    9ae8:	f3 44 0f 10 44 b0 e4 	movss  xmm8,DWORD PTR [rax+rsi*4-0x1c]
    9aef:	45 0f 2e c3          	ucomiss xmm8,xmm11
    9af3:	89 f7                	mov    edi,esi
    9af5:	77 02                	ja     9af9 <s3110+0x4d>
    9af7:	89 df                	mov    edi,ebx
    9af9:	f3 44 0f 10 4c b0 e8 	movss  xmm9,DWORD PTR [rax+rsi*4-0x18]
    9b00:	45 0f 28 e8          	movaps xmm13,xmm8
    9b04:	f3 45 0f 5f eb       	maxss  xmm13,xmm11
    9b09:	45 0f 2e cd          	ucomiss xmm9,xmm13
    9b0d:	76 03                	jbe    9b12 <s3110+0x66>
    9b0f:	8d 7e 01             	lea    edi,[rsi+0x1]
    9b12:	45 0f 28 f9          	movaps xmm15,xmm9
    9b16:	f3 45 0f 5f fd       	maxss  xmm15,xmm13
    9b1b:	f3 44 0f 10 54 b0 ec 	movss  xmm10,DWORD PTR [rax+rsi*4-0x14]
    9b22:	45 0f 2e d7          	ucomiss xmm10,xmm15
    9b26:	76 03                	jbe    9b2b <s3110+0x7f>
    9b28:	8d 7e 02             	lea    edi,[rsi+0x2]
    9b2b:	41 0f 28 f2          	movaps xmm6,xmm10
    9b2f:	f3 41 0f 5f f7       	maxss  xmm6,xmm15
    9b34:	f3 44 0f 10 64 b0 f0 	movss  xmm12,DWORD PTR [rax+rsi*4-0x10]
    9b3b:	44 0f 2e e6          	ucomiss xmm12,xmm6
    9b3f:	76 03                	jbe    9b44 <s3110+0x98>
    9b41:	8d 7e 03             	lea    edi,[rsi+0x3]
    9b44:	41 0f 28 fc          	movaps xmm7,xmm12
    9b48:	f3 0f 5f fe          	maxss  xmm7,xmm6
    9b4c:	f3 44 0f 10 74 b0 f4 	movss  xmm14,DWORD PTR [rax+rsi*4-0xc]
    9b53:	44 0f 2e f7          	ucomiss xmm14,xmm7
    9b57:	76 03                	jbe    9b5c <s3110+0xb0>
    9b59:	8d 7e 04             	lea    edi,[rsi+0x4]
    9b5c:	41 0f 28 d6          	movaps xmm2,xmm14
    9b60:	f3 0f 5f d7          	maxss  xmm2,xmm7
    9b64:	f3 0f 10 5c b0 f8    	movss  xmm3,DWORD PTR [rax+rsi*4-0x8]
    9b6a:	0f 2e da             	ucomiss xmm3,xmm2
    9b6d:	76 03                	jbe    9b72 <s3110+0xc6>
    9b6f:	8d 7e 05             	lea    edi,[rsi+0x5]
    9b72:	0f 28 c3             	movaps xmm0,xmm3
    9b75:	f3 0f 5f c2          	maxss  xmm0,xmm2
    9b79:	f3 0f 10 4c b0 fc    	movss  xmm1,DWORD PTR [rax+rsi*4-0x4]
    9b7f:	0f 2e c8             	ucomiss xmm1,xmm0
    9b82:	76 03                	jbe    9b87 <s3110+0xdb>
    9b84:	8d 7e 06             	lea    edi,[rsi+0x6]
    9b87:	0f 28 e9             	movaps xmm5,xmm1
    9b8a:	f3 0f 5f e8          	maxss  xmm5,xmm0
    9b8e:	f3 0f 10 24 b0       	movss  xmm4,DWORD PTR [rax+rsi*4]
    9b93:	0f 2e e5             	ucomiss xmm4,xmm5
    9b96:	77 04                	ja     9b9c <s3110+0xf0>
    9b98:	89 fb                	mov    ebx,edi
    9b9a:	eb 05                	jmp    9ba1 <s3110+0xf5>
    9b9c:	8d 5e 07             	lea    ebx,[rsi+0x7]
    9b9f:	89 ca                	mov    edx,ecx
    9ba1:	0f 2e c8             	ucomiss xmm1,xmm0
    9ba4:	89 cf                	mov    edi,ecx
    9ba6:	77 02                	ja     9baa <s3110+0xfe>
    9ba8:	89 d7                	mov    edi,edx
    9baa:	0f 2e da             	ucomiss xmm3,xmm2
    9bad:	0f 47 f9             	cmova  edi,ecx
    9bb0:	44 0f 2e f7          	ucomiss xmm14,xmm7
    9bb4:	0f 47 f9             	cmova  edi,ecx
    9bb7:	44 0f 2e e6          	ucomiss xmm12,xmm6
    9bbb:	0f 47 f9             	cmova  edi,ecx
    9bbe:	45 0f 2e d7          	ucomiss xmm10,xmm15
    9bc2:	0f 47 f9             	cmova  edi,ecx
    9bc5:	45 0f 2e cd          	ucomiss xmm9,xmm13
    9bc9:	0f 47 f9             	cmova  edi,ecx
    9bcc:	45 0f 2e c3          	ucomiss xmm8,xmm11
    9bd0:	89 fa                	mov    edx,edi
    9bd2:	0f 47 d1             	cmova  edx,ecx
    9bd5:	f3 0f 5f e5          	maxss  xmm4,xmm5
    9bd9:	48 83 c6 08          	add    rsi,0x8
    9bdd:	44 0f 28 dc          	movaps xmm11,xmm4
    9be1:	48 81 fe 00 01 00 00 	cmp    rsi,0x100
    9be8:	0f 85 fa fe ff ff    	jne    9ae8 <s3110+0x3c>
    9bee:	48 ff c1             	inc    rcx
    9bf1:	48 05 00 04 00 00    	add    rax,0x400
    9bf7:	48 81 f9 00 01 00 00 	cmp    rcx,0x100
    9bfe:	0f 85 de fe ff ff    	jne    9ae2 <s3110+0x36>
    9c04:	0f 57 c0             	xorps  xmm0,xmm0
    9c07:	f3 0f 2a c2          	cvtsi2ss xmm0,edx
    9c0b:	f3 0f 58 e0          	addss  xmm4,xmm0
    9c0f:	f3 0f 11 64 24 08    	movss  DWORD PTR [rsp+0x8],xmm4
    9c15:	0f 57 c9             	xorps  xmm1,xmm1
    9c18:	f3 0f 2a cb          	cvtsi2ss xmm1,ebx
    9c1c:	0f 28 c4             	movaps xmm0,xmm4
    9c1f:	f3 0f 11 4c 24 0c    	movss  DWORD PTR [rsp+0xc],xmm1
    9c25:	f3 0f 58 c1          	addss  xmm0,xmm1
    9c29:	bf 00 00 00 00       	mov    edi,0x0
    9c2e:	be 00 00 00 00       	mov    esi,0x0
    9c33:	ba 00 00 00 00       	mov    edx,0x0
    9c38:	b9 00 00 00 00       	mov    ecx,0x0
    9c3d:	41 b8 00 00 00 00    	mov    r8d,0x0
    9c43:	41 b9 00 00 00 00    	mov    r9d,0x0
    9c49:	68 00 00 00 00       	push   0x0
    9c4e:	68 00 00 00 00       	push   0x0
    9c53:	e8 00 00 00 00       	call   9c58 <s3110+0x1ac>
    9c58:	48 83 c4 10          	add    rsp,0x10
    9c5c:	41 ff c7             	inc    r15d
    9c5f:	41 81 ff 58 98 00 00 	cmp    r15d,0x9858
    9c66:	0f 85 63 fe ff ff    	jne    9acf <s3110+0x23>
    9c6c:	49 83 c6 10          	add    r14,0x10
    9c70:	4c 89 f7             	mov    rdi,r14
    9c73:	31 f6                	xor    esi,esi
    9c75:	e8 00 00 00 00       	call   9c7a <s3110+0x1ce>
    9c7a:	f3 0f 10 0d 00 00 00 	movss  xmm1,DWORD PTR [rip+0x0]        # 9c82 <s3110+0x1d6>
    9c81:	00 
    9c82:	f3 0f 10 44 24 08    	movss  xmm0,DWORD PTR [rsp+0x8]
    9c88:	f3 0f 58 c1          	addss  xmm0,xmm1
    9c8c:	f3 0f 58 44 24 0c    	addss  xmm0,DWORD PTR [rsp+0xc]
    9c92:	f3 0f 58 c1          	addss  xmm0,xmm1
    9c96:	48 83 c4 10          	add    rsp,0x10
    9c9a:	5b                   	pop    rbx
    9c9b:	41 5e                	pop    r14
    9c9d:	41 5f                	pop    r15
    9c9f:	c3                   	ret    

0000000000009ca0 <s13110>:
    9ca0:	41 57                	push   r15
    9ca2:	41 56                	push   r14
    9ca4:	53                   	push   rbx
    9ca5:	48 83 ec 10          	sub    rsp,0x10
    9ca9:	49 89 fe             	mov    r14,rdi
    9cac:	bf 00 00 00 00       	mov    edi,0x0
    9cb1:	e8 00 00 00 00       	call   9cb6 <s13110+0x16>
    9cb6:	45 31 ff             	xor    r15d,r15d
    9cb9:	4c 89 f7             	mov    rdi,r14
    9cbc:	31 f6                	xor    esi,esi
    9cbe:	e8 00 00 00 00       	call   9cc3 <s13110+0x23>
    9cc3:	b8 00 00 00 00       	mov    eax,0x0
    9cc8:	f3 0f 10 25 00 00 00 	movss  xmm4,DWORD PTR [rip+0x0]        # 9cd0 <s13110+0x30>
    9ccf:	00 
    9cd0:	31 c9                	xor    ecx,ecx
    9cd2:	31 d2                	xor    edx,edx
    9cd4:	31 db                	xor    ebx,ebx
    9cd6:	31 f6                	xor    esi,esi
    9cd8:	44 0f 28 dc          	movaps xmm11,xmm4
    9cdc:	f3 44 0f 10 44 b0 e4 	movss  xmm8,DWORD PTR [rax+rsi*4-0x1c]
    9ce3:	45 0f 2e c3          	ucomiss xmm8,xmm11
    9ce7:	89 f7                	mov    edi,esi
    9ce9:	77 02                	ja     9ced <s13110+0x4d>
    9ceb:	89 df                	mov    edi,ebx
    9ced:	f3 44 0f 10 4c b0 e8 	movss  xmm9,DWORD PTR [rax+rsi*4-0x18]
    9cf4:	45 0f 28 e8          	movaps xmm13,xmm8
    9cf8:	f3 45 0f 5f eb       	maxss  xmm13,xmm11
    9cfd:	45 0f 2e cd          	ucomiss xmm9,xmm13
    9d01:	76 03                	jbe    9d06 <s13110+0x66>
    9d03:	8d 7e 01             	lea    edi,[rsi+0x1]
    9d06:	45 0f 28 f9          	movaps xmm15,xmm9
    9d0a:	f3 45 0f 5f fd       	maxss  xmm15,xmm13
    9d0f:	f3 44 0f 10 54 b0 ec 	movss  xmm10,DWORD PTR [rax+rsi*4-0x14]
    9d16:	45 0f 2e d7          	ucomiss xmm10,xmm15
    9d1a:	76 03                	jbe    9d1f <s13110+0x7f>
    9d1c:	8d 7e 02             	lea    edi,[rsi+0x2]
    9d1f:	41 0f 28 f2          	movaps xmm6,xmm10
    9d23:	f3 41 0f 5f f7       	maxss  xmm6,xmm15
    9d28:	f3 44 0f 10 64 b0 f0 	movss  xmm12,DWORD PTR [rax+rsi*4-0x10]
    9d2f:	44 0f 2e e6          	ucomiss xmm12,xmm6
    9d33:	76 03                	jbe    9d38 <s13110+0x98>
    9d35:	8d 7e 03             	lea    edi,[rsi+0x3]
    9d38:	41 0f 28 fc          	movaps xmm7,xmm12
    9d3c:	f3 0f 5f fe          	maxss  xmm7,xmm6
    9d40:	f3 44 0f 10 74 b0 f4 	movss  xmm14,DWORD PTR [rax+rsi*4-0xc]
    9d47:	44 0f 2e f7          	ucomiss xmm14,xmm7
    9d4b:	76 03                	jbe    9d50 <s13110+0xb0>
    9d4d:	8d 7e 04             	lea    edi,[rsi+0x4]
    9d50:	41 0f 28 d6          	movaps xmm2,xmm14
    9d54:	f3 0f 5f d7          	maxss  xmm2,xmm7
    9d58:	f3 0f 10 5c b0 f8    	movss  xmm3,DWORD PTR [rax+rsi*4-0x8]
    9d5e:	0f 2e da             	ucomiss xmm3,xmm2
    9d61:	76 03                	jbe    9d66 <s13110+0xc6>
    9d63:	8d 7e 05             	lea    edi,[rsi+0x5]
    9d66:	0f 28 c3             	movaps xmm0,xmm3
    9d69:	f3 0f 5f c2          	maxss  xmm0,xmm2
    9d6d:	f3 0f 10 4c b0 fc    	movss  xmm1,DWORD PTR [rax+rsi*4-0x4]
    9d73:	0f 2e c8             	ucomiss xmm1,xmm0
    9d76:	76 03                	jbe    9d7b <s13110+0xdb>
    9d78:	8d 7e 06             	lea    edi,[rsi+0x6]
    9d7b:	0f 28 e9             	movaps xmm5,xmm1
    9d7e:	f3 0f 5f e8          	maxss  xmm5,xmm0
    9d82:	f3 0f 10 24 b0       	movss  xmm4,DWORD PTR [rax+rsi*4]
    9d87:	0f 2e e5             	ucomiss xmm4,xmm5
    9d8a:	77 04                	ja     9d90 <s13110+0xf0>
    9d8c:	89 fb                	mov    ebx,edi
    9d8e:	eb 05                	jmp    9d95 <s13110+0xf5>
    9d90:	8d 5e 07             	lea    ebx,[rsi+0x7]
    9d93:	89 ca                	mov    edx,ecx
    9d95:	0f 2e c8             	ucomiss xmm1,xmm0
    9d98:	89 cf                	mov    edi,ecx
    9d9a:	77 02                	ja     9d9e <s13110+0xfe>
    9d9c:	89 d7                	mov    edi,edx
    9d9e:	0f 2e da             	ucomiss xmm3,xmm2
    9da1:	0f 47 f9             	cmova  edi,ecx
    9da4:	44 0f 2e f7          	ucomiss xmm14,xmm7
    9da8:	0f 47 f9             	cmova  edi,ecx
    9dab:	44 0f 2e e6          	ucomiss xmm12,xmm6
    9daf:	0f 47 f9             	cmova  edi,ecx
    9db2:	45 0f 2e d7          	ucomiss xmm10,xmm15
    9db6:	0f 47 f9             	cmova  edi,ecx
    9db9:	45 0f 2e cd          	ucomiss xmm9,xmm13
    9dbd:	0f 47 f9             	cmova  edi,ecx
    9dc0:	45 0f 2e c3          	ucomiss xmm8,xmm11
    9dc4:	89 fa                	mov    edx,edi
    9dc6:	0f 47 d1             	cmova  edx,ecx
    9dc9:	f3 0f 5f e5          	maxss  xmm4,xmm5
    9dcd:	48 83 c6 08          	add    rsi,0x8
    9dd1:	44 0f 28 dc          	movaps xmm11,xmm4
    9dd5:	48 81 fe 00 01 00 00 	cmp    rsi,0x100
    9ddc:	0f 85 fa fe ff ff    	jne    9cdc <s13110+0x3c>
    9de2:	48 ff c1             	inc    rcx
    9de5:	48 05 00 04 00 00    	add    rax,0x400
    9deb:	48 81 f9 00 01 00 00 	cmp    rcx,0x100
    9df2:	0f 85 de fe ff ff    	jne    9cd6 <s13110+0x36>
    9df8:	0f 57 c0             	xorps  xmm0,xmm0
    9dfb:	f3 0f 2a c2          	cvtsi2ss xmm0,edx
    9dff:	f3 0f 58 e0          	addss  xmm4,xmm0
    9e03:	f3 0f 11 64 24 08    	movss  DWORD PTR [rsp+0x8],xmm4
    9e09:	0f 57 c9             	xorps  xmm1,xmm1
    9e0c:	f3 0f 2a cb          	cvtsi2ss xmm1,ebx
    9e10:	0f 28 c4             	movaps xmm0,xmm4
    9e13:	f3 0f 11 4c 24 0c    	movss  DWORD PTR [rsp+0xc],xmm1
    9e19:	f3 0f 58 c1          	addss  xmm0,xmm1
    9e1d:	bf 00 00 00 00       	mov    edi,0x0
    9e22:	be 00 00 00 00       	mov    esi,0x0
    9e27:	ba 00 00 00 00       	mov    edx,0x0
    9e2c:	b9 00 00 00 00       	mov    ecx,0x0
    9e31:	41 b8 00 00 00 00    	mov    r8d,0x0
    9e37:	41 b9 00 00 00 00    	mov    r9d,0x0
    9e3d:	68 00 00 00 00       	push   0x0
    9e42:	68 00 00 00 00       	push   0x0
    9e47:	e8 00 00 00 00       	call   9e4c <s13110+0x1ac>
    9e4c:	48 83 c4 10          	add    rsp,0x10
    9e50:	41 ff c7             	inc    r15d
    9e53:	41 81 ff 58 98 00 00 	cmp    r15d,0x9858
    9e5a:	0f 85 63 fe ff ff    	jne    9cc3 <s13110+0x23>
    9e60:	49 83 c6 10          	add    r14,0x10
    9e64:	4c 89 f7             	mov    rdi,r14
    9e67:	31 f6                	xor    esi,esi
    9e69:	e8 00 00 00 00       	call   9e6e <s13110+0x1ce>
    9e6e:	f3 0f 10 0d 00 00 00 	movss  xmm1,DWORD PTR [rip+0x0]        # 9e76 <s13110+0x1d6>
    9e75:	00 
    9e76:	f3 0f 10 44 24 08    	movss  xmm0,DWORD PTR [rsp+0x8]
    9e7c:	f3 0f 58 c1          	addss  xmm0,xmm1
    9e80:	f3 0f 58 44 24 0c    	addss  xmm0,DWORD PTR [rsp+0xc]
    9e86:	f3 0f 58 c1          	addss  xmm0,xmm1
    9e8a:	48 83 c4 10          	add    rsp,0x10
    9e8e:	5b                   	pop    rbx
    9e8f:	41 5e                	pop    r14
    9e91:	41 5f                	pop    r15
    9e93:	c3                   	ret    

0000000000009e94 <s3111>:
    9e94:	41 56                	push   r14
    9e96:	53                   	push   rbx
    9e97:	48 83 ec 18          	sub    rsp,0x18
    9e9b:	49 89 fe             	mov    r14,rdi
    9e9e:	bf 00 00 00 00       	mov    edi,0x0
    9ea3:	e8 00 00 00 00       	call   9ea8 <s3111+0x14>
    9ea8:	31 db                	xor    ebx,ebx
    9eaa:	4c 89 f7             	mov    rdi,r14
    9ead:	31 f6                	xor    esi,esi
    9eaf:	e8 00 00 00 00       	call   9eb4 <s3111+0x20>
    9eb4:	48 c7 c0 00 0c fe ff 	mov    rax,0xfffffffffffe0c00
    9ebb:	0f 57 c0             	xorps  xmm0,xmm0
    9ebe:	f3 0f 10 98 00 00 00 	movss  xmm3,DWORD PTR [rax+0x0]
    9ec5:	00 
    9ec6:	0f 28 c8             	movaps xmm1,xmm0
    9ec9:	f3 0f 58 cb          	addss  xmm1,xmm3
    9ecd:	0f 57 d2             	xorps  xmm2,xmm2
    9ed0:	f3 0f c2 d3 01       	cmpltss xmm2,xmm3
    9ed5:	0f 54 ca             	andps  xmm1,xmm2
    9ed8:	0f 55 d0             	andnps xmm2,xmm0
    9edb:	0f 56 d1             	orps   xmm2,xmm1
    9ede:	f3 0f 10 80 00 00 00 	movss  xmm0,DWORD PTR [rax+0x0]
    9ee5:	00 
    9ee6:	0f 57 c9             	xorps  xmm1,xmm1
    9ee9:	f3 0f c2 c8 01       	cmpltss xmm1,xmm0
    9eee:	0f 28 d9             	movaps xmm3,xmm1
    9ef1:	0f 55 da             	andnps xmm3,xmm2
    9ef4:	f3 0f 58 d0          	addss  xmm2,xmm0
    9ef8:	0f 54 ca             	andps  xmm1,xmm2
    9efb:	0f 56 cb             	orps   xmm1,xmm3
    9efe:	f3 0f 10 80 00 00 00 	movss  xmm0,DWORD PTR [rax+0x0]
    9f05:	00 
    9f06:	0f 57 d2             	xorps  xmm2,xmm2
    9f09:	f3 0f c2 d0 01       	cmpltss xmm2,xmm0
    9f0e:	0f 28 da             	movaps xmm3,xmm2
    9f11:	0f 55 d9             	andnps xmm3,xmm1
    9f14:	f3 0f 58 c8          	addss  xmm1,xmm0
    9f18:	0f 54 d1             	andps  xmm2,xmm1
    9f1b:	0f 56 d3             	orps   xmm2,xmm3
    9f1e:	f3 0f 10 80 00 00 00 	movss  xmm0,DWORD PTR [rax+0x0]
    9f25:	00 
    9f26:	0f 57 c9             	xorps  xmm1,xmm1
    9f29:	f3 0f c2 c8 01       	cmpltss xmm1,xmm0
    9f2e:	0f 28 d9             	movaps xmm3,xmm1
    9f31:	0f 55 da             	andnps xmm3,xmm2
    9f34:	f3 0f 58 d0          	addss  xmm2,xmm0
    9f38:	0f 54 ca             	andps  xmm1,xmm2
    9f3b:	0f 56 cb             	orps   xmm1,xmm3
    9f3e:	f3 0f 10 80 00 00 00 	movss  xmm0,DWORD PTR [rax+0x0]
    9f45:	00 
    9f46:	0f 57 d2             	xorps  xmm2,xmm2
    9f49:	f3 0f c2 d0 01       	cmpltss xmm2,xmm0
    9f4e:	0f 28 da             	movaps xmm3,xmm2
    9f51:	0f 55 d9             	andnps xmm3,xmm1
    9f54:	f3 0f 58 c8          	addss  xmm1,xmm0
    9f58:	0f 54 d1             	andps  xmm2,xmm1
    9f5b:	0f 56 d3             	orps   xmm2,xmm3
    9f5e:	f3 0f 10 80 00 00 00 	movss  xmm0,DWORD PTR [rax+0x0]
    9f65:	00 
    9f66:	0f 57 c9             	xorps  xmm1,xmm1
    9f69:	f3 0f c2 c8 01       	cmpltss xmm1,xmm0
    9f6e:	0f 28 d9             	movaps xmm3,xmm1
    9f71:	0f 55 da             	andnps xmm3,xmm2
    9f74:	f3 0f 58 d0          	addss  xmm2,xmm0
    9f78:	0f 54 ca             	andps  xmm1,xmm2
    9f7b:	0f 56 cb             	orps   xmm1,xmm3
    9f7e:	f3 0f 10 80 00 00 00 	movss  xmm0,DWORD PTR [rax+0x0]
    9f85:	00 
    9f86:	0f 57 d2             	xorps  xmm2,xmm2
    9f89:	f3 0f c2 d0 01       	cmpltss xmm2,xmm0
    9f8e:	0f 28 da             	movaps xmm3,xmm2
    9f91:	0f 55 d9             	andnps xmm3,xmm1
    9f94:	f3 0f 58 c8          	addss  xmm1,xmm0
    9f98:	0f 54 d1             	andps  xmm2,xmm1
    9f9b:	0f 56 d3             	orps   xmm2,xmm3
    9f9e:	f3 0f 10 98 00 00 00 	movss  xmm3,DWORD PTR [rax+0x0]
    9fa5:	00 
    9fa6:	0f 57 c0             	xorps  xmm0,xmm0
    9fa9:	f3 0f c2 c3 01       	cmpltss xmm0,xmm3
    9fae:	0f 28 c8             	movaps xmm1,xmm0
    9fb1:	0f 55 ca             	andnps xmm1,xmm2
    9fb4:	f3 0f 58 d3          	addss  xmm2,xmm3
    9fb8:	0f 54 c2             	andps  xmm0,xmm2
    9fbb:	0f 56 c1             	orps   xmm0,xmm1
    9fbe:	48 83 c0 20          	add    rax,0x20
    9fc2:	0f 85 f6 fe ff ff    	jne    9ebe <s3111+0x2a>
    9fc8:	bf 00 00 00 00       	mov    edi,0x0
    9fcd:	be 00 00 00 00       	mov    esi,0x0
    9fd2:	ba 00 00 00 00       	mov    edx,0x0
    9fd7:	b9 00 00 00 00       	mov    ecx,0x0
    9fdc:	41 b8 00 00 00 00    	mov    r8d,0x0
    9fe2:	41 b9 00 00 00 00    	mov    r9d,0x0
    9fe8:	0f 29 04 24          	movaps XMMWORD PTR [rsp],xmm0
    9fec:	68 00 00 00 00       	push   0x0
    9ff1:	68 00 00 00 00       	push   0x0
    9ff6:	e8 00 00 00 00       	call   9ffb <s3111+0x167>
    9ffb:	48 83 c4 10          	add    rsp,0x10
    9fff:	ff c3                	inc    ebx
    a001:	81 fb 50 c3 00 00    	cmp    ebx,0xc350
    a007:	0f 85 a7 fe ff ff    	jne    9eb4 <s3111+0x20>
    a00d:	49 83 c6 10          	add    r14,0x10
    a011:	4c 89 f7             	mov    rdi,r14
    a014:	31 f6                	xor    esi,esi
    a016:	e8 00 00 00 00       	call   a01b <s3111+0x187>
    a01b:	0f 28 04 24          	movaps xmm0,XMMWORD PTR [rsp]
    a01f:	48 83 c4 18          	add    rsp,0x18
    a023:	5b                   	pop    rbx
    a024:	41 5e                	pop    r14
    a026:	c3                   	ret    

000000000000a027 <s3112>:
    a027:	41 56                	push   r14
    a029:	53                   	push   rbx
    a02a:	48 83 ec 28          	sub    rsp,0x28
    a02e:	49 89 fe             	mov    r14,rdi
    a031:	bf 00 00 00 00       	mov    edi,0x0
    a036:	e8 00 00 00 00       	call   a03b <s3112+0x14>
    a03b:	31 db                	xor    ebx,ebx
    a03d:	4c 89 f7             	mov    rdi,r14
    a040:	31 f6                	xor    esi,esi
    a042:	e8 00 00 00 00       	call   a047 <s3112+0x20>
    a047:	0f 57 c0             	xorps  xmm0,xmm0
    a04a:	31 c0                	xor    eax,eax
    a04c:	31 c9                	xor    ecx,ecx
    a04e:	48 89 c2             	mov    rdx,rax
    a051:	48 09 ca             	or     rdx,rcx
    a054:	f3 0f 58 04 95 00 00 	addss  xmm0,DWORD PTR [rdx*4+0x0]
    a05b:	00 00 
    a05d:	f3 0f 11 44 8c 08    	movss  DWORD PTR [rsp+rcx*4+0x8],xmm0
    a063:	f3 0f 11 04 95 00 00 	movss  DWORD PTR [rdx*4+0x0],xmm0
    a06a:	00 00 
    a06c:	48 ff c1             	inc    rcx
    a06f:	48 83 f9 08          	cmp    rcx,0x8
    a073:	75 d9                	jne    a04e <s3112+0x27>
    a075:	f3 0f 10 44 24 24    	movss  xmm0,DWORD PTR [rsp+0x24]
    a07b:	48 83 c0 08          	add    rax,0x8
    a07f:	48 3d 00 7d 00 00    	cmp    rax,0x7d00
    a085:	75 c5                	jne    a04c <s3112+0x25>
    a087:	bf 00 00 00 00       	mov    edi,0x0
    a08c:	be 00 00 00 00       	mov    esi,0x0
    a091:	ba 00 00 00 00       	mov    edx,0x0
    a096:	b9 00 00 00 00       	mov    ecx,0x0
    a09b:	41 b8 00 00 00 00    	mov    r8d,0x0
    a0a1:	41 b9 00 00 00 00    	mov    r9d,0x0
    a0a7:	f3 0f 11 44 24 04    	movss  DWORD PTR [rsp+0x4],xmm0
    a0ad:	68 00 00 00 00       	push   0x0
    a0b2:	68 00 00 00 00       	push   0x0
    a0b7:	e8 00 00 00 00       	call   a0bc <s3112+0x95>
    a0bc:	48 83 c4 10          	add    rsp,0x10
    a0c0:	ff c3                	inc    ebx
    a0c2:	81 fb a0 86 01 00    	cmp    ebx,0x186a0
    a0c8:	0f 85 79 ff ff ff    	jne    a047 <s3112+0x20>
    a0ce:	49 83 c6 10          	add    r14,0x10
    a0d2:	4c 89 f7             	mov    rdi,r14
    a0d5:	31 f6                	xor    esi,esi
    a0d7:	e8 00 00 00 00       	call   a0dc <s3112+0xb5>
    a0dc:	f3 0f 10 44 24 04    	movss  xmm0,DWORD PTR [rsp+0x4]
    a0e2:	48 83 c4 28          	add    rsp,0x28
    a0e6:	5b                   	pop    rbx
    a0e7:	41 5e                	pop    r14
    a0e9:	c3                   	ret    

000000000000a0ea <s3113>:
    a0ea:	41 56                	push   r14
    a0ec:	53                   	push   rbx
    a0ed:	48 83 ec 18          	sub    rsp,0x18
    a0f1:	49 89 fe             	mov    r14,rdi
    a0f4:	bf 00 00 00 00       	mov    edi,0x0
    a0f9:	e8 00 00 00 00       	call   a0fe <s3113+0x14>
    a0fe:	31 db                	xor    ebx,ebx
    a100:	4c 89 f7             	mov    rdi,r14
    a103:	31 f6                	xor    esi,esi
    a105:	e8 00 00 00 00       	call   a10a <s3113+0x20>
    a10a:	0f 28 15 00 00 00 00 	movaps xmm2,XMMWORD PTR [rip+0x0]        # a111 <s3113+0x27>
    a111:	f3 0f 10 1d 00 00 00 	movss  xmm3,DWORD PTR [rip+0x0]        # a119 <s3113+0x2f>
    a118:	00 
    a119:	0f 28 c3             	movaps xmm0,xmm3
    a11c:	0f 54 c2             	andps  xmm0,xmm2
    a11f:	48 c7 c0 20 0c fe ff 	mov    rax,0xfffffffffffe0c20
    a126:	0f 54 da             	andps  xmm3,xmm2
    a129:	f3 0f 5f d8          	maxss  xmm3,xmm0
    a12d:	f3 0f 10 88 00 00 00 	movss  xmm1,DWORD PTR [rax+0x0]
    a134:	00 
    a135:	0f 54 ca             	andps  xmm1,xmm2
    a138:	f3 0f 5f cb          	maxss  xmm1,xmm3
    a13c:	f3 0f 10 80 00 00 00 	movss  xmm0,DWORD PTR [rax+0x0]
    a143:	00 
    a144:	0f 54 c2             	andps  xmm0,xmm2
    a147:	f3 0f 5f c1          	maxss  xmm0,xmm1
    a14b:	f3 0f 10 88 00 00 00 	movss  xmm1,DWORD PTR [rax+0x0]
    a152:	00 
    a153:	0f 54 ca             	andps  xmm1,xmm2
    a156:	f3 0f 5f c8          	maxss  xmm1,xmm0
    a15a:	f3 0f 10 80 00 00 00 	movss  xmm0,DWORD PTR [rax+0x0]
    a161:	00 
    a162:	0f 54 c2             	andps  xmm0,xmm2
    a165:	f3 0f 5f c1          	maxss  xmm0,xmm1
    a169:	f3 0f 10 88 00 00 00 	movss  xmm1,DWORD PTR [rax+0x0]
    a170:	00 
    a171:	0f 54 ca             	andps  xmm1,xmm2
    a174:	f3 0f 5f c8          	maxss  xmm1,xmm0
    a178:	f3 0f 10 98 00 00 00 	movss  xmm3,DWORD PTR [rax+0x0]
    a17f:	00 
    a180:	0f 54 da             	andps  xmm3,xmm2
    a183:	f3 0f 5f d9          	maxss  xmm3,xmm1
    a187:	f3 0f 10 80 00 00 00 	movss  xmm0,DWORD PTR [rax+0x0]
    a18e:	00 
    a18f:	0f 54 c2             	andps  xmm0,xmm2
    a192:	f3 0f 5f c3          	maxss  xmm0,xmm3
    a196:	48 85 c0             	test   rax,rax
    a199:	74 11                	je     a1ac <s3113+0xc2>
    a19b:	f3 0f 10 98 00 00 00 	movss  xmm3,DWORD PTR [rax+0x0]
    a1a2:	00 
    a1a3:	48 83 c0 20          	add    rax,0x20
    a1a7:	e9 7a ff ff ff       	jmp    a126 <s3113+0x3c>
    a1ac:	bf 00 00 00 00       	mov    edi,0x0
    a1b1:	be 00 00 00 00       	mov    esi,0x0
    a1b6:	ba 00 00 00 00       	mov    edx,0x0
    a1bb:	b9 00 00 00 00       	mov    ecx,0x0
    a1c0:	41 b8 00 00 00 00    	mov    r8d,0x0
    a1c6:	41 b9 00 00 00 00    	mov    r9d,0x0
    a1cc:	68 00 00 00 00       	push   0x0
    a1d1:	68 00 00 00 00       	push   0x0
    a1d6:	0f 29 44 24 10       	movaps XMMWORD PTR [rsp+0x10],xmm0
    a1db:	e8 00 00 00 00       	call   a1e0 <s3113+0xf6>
    a1e0:	0f 28 15 00 00 00 00 	movaps xmm2,XMMWORD PTR [rip+0x0]        # a1e7 <s3113+0xfd>
    a1e7:	48 83 c4 10          	add    rsp,0x10
    a1eb:	ff c3                	inc    ebx
    a1ed:	81 fb 80 1a 06 00    	cmp    ebx,0x61a80
    a1f3:	0f 85 18 ff ff ff    	jne    a111 <s3113+0x27>
    a1f9:	49 83 c6 10          	add    r14,0x10
    a1fd:	4c 89 f7             	mov    rdi,r14
    a200:	31 f6                	xor    esi,esi
    a202:	e8 00 00 00 00       	call   a207 <s3113+0x11d>
    a207:	0f 28 04 24          	movaps xmm0,XMMWORD PTR [rsp]
    a20b:	48 83 c4 18          	add    rsp,0x18
    a20f:	5b                   	pop    rbx
    a210:	41 5e                	pop    r14
    a212:	c3                   	ret    

000000000000a213 <s321>:
    a213:	41 56                	push   r14
    a215:	53                   	push   rbx
    a216:	48 83 ec 28          	sub    rsp,0x28
    a21a:	49 89 fe             	mov    r14,rdi
    a21d:	bf 00 00 00 00       	mov    edi,0x0
    a222:	e8 00 00 00 00       	call   a227 <s321+0x14>
    a227:	31 db                	xor    ebx,ebx
    a229:	4c 89 f7             	mov    rdi,r14
    a22c:	31 f6                	xor    esi,esi
    a22e:	e8 00 00 00 00       	call   a233 <s321+0x20>
    a233:	b8 01 00 00 00       	mov    eax,0x1
    a238:	f3 0f 10 05 00 00 00 	movss  xmm0,DWORD PTR [rip+0x0]        # a240 <s321+0x2d>
    a23f:	00 
    a240:	31 c9                	xor    ecx,ecx
    a242:	31 d2                	xor    edx,edx
    a244:	f3 0f 59 84 91 00 00 	mulss  xmm0,DWORD PTR [rcx+rdx*4+0x0]
    a24b:	00 00 
    a24d:	f3 0f 58 84 91 00 00 	addss  xmm0,DWORD PTR [rcx+rdx*4+0x0]
    a254:	00 00 
    a256:	f3 0f 11 44 94 0c    	movss  DWORD PTR [rsp+rdx*4+0xc],xmm0
    a25c:	f3 0f 11 84 91 00 00 	movss  DWORD PTR [rcx+rdx*4+0x0],xmm0
    a263:	00 00 
    a265:	48 ff c2             	inc    rdx
    a268:	48 83 fa 07          	cmp    rdx,0x7
    a26c:	75 d6                	jne    a244 <s321+0x31>
    a26e:	48 3d f9 7c 00 00    	cmp    rax,0x7cf9
    a274:	74 2b                	je     a2a1 <s321+0x8e>
    a276:	f3 0f 10 44 24 24    	movss  xmm0,DWORD PTR [rsp+0x24]
    a27c:	f3 0f 59 04 85 00 00 	mulss  xmm0,DWORD PTR [rax*4+0x0]
    a283:	00 00 
    a285:	f3 0f 58 04 85 00 00 	addss  xmm0,DWORD PTR [rax*4+0x0]
    a28c:	00 00 
    a28e:	f3 0f 11 04 85 00 00 	movss  DWORD PTR [rax*4+0x0],xmm0
    a295:	00 00 
    a297:	48 83 c0 08          	add    rax,0x8
    a29b:	48 83 c1 20          	add    rcx,0x20
    a29f:	eb a1                	jmp    a242 <s321+0x2f>
    a2a1:	bf 00 00 00 00       	mov    edi,0x0
    a2a6:	be 00 00 00 00       	mov    esi,0x0
    a2ab:	ba 00 00 00 00       	mov    edx,0x0
    a2b0:	b9 00 00 00 00       	mov    ecx,0x0
    a2b5:	41 b8 00 00 00 00    	mov    r8d,0x0
    a2bb:	41 b9 00 00 00 00    	mov    r9d,0x0
    a2c1:	0f 57 c0             	xorps  xmm0,xmm0
    a2c4:	68 00 00 00 00       	push   0x0
    a2c9:	68 00 00 00 00       	push   0x0
    a2ce:	e8 00 00 00 00       	call   a2d3 <s321+0xc0>
    a2d3:	48 83 c4 10          	add    rsp,0x10
    a2d7:	ff c3                	inc    ebx
    a2d9:	81 fb a0 86 01 00    	cmp    ebx,0x186a0
    a2df:	0f 85 4e ff ff ff    	jne    a233 <s321+0x20>
    a2e5:	49 83 c6 10          	add    r14,0x10
    a2e9:	4c 89 f7             	mov    rdi,r14
    a2ec:	31 f6                	xor    esi,esi
    a2ee:	e8 00 00 00 00       	call   a2f3 <s321+0xe0>
    a2f3:	bf 00 00 00 00       	mov    edi,0x0
    a2f8:	48 83 c4 28          	add    rsp,0x28
    a2fc:	5b                   	pop    rbx
    a2fd:	41 5e                	pop    r14
    a2ff:	e9 00 00 00 00       	jmp    a304 <s322>

000000000000a304 <s322>:
    a304:	41 56                	push   r14
    a306:	53                   	push   rbx
    a307:	50                   	push   rax
    a308:	49 89 fe             	mov    r14,rdi
    a30b:	bf 00 00 00 00       	mov    edi,0x0
    a310:	e8 00 00 00 00       	call   a315 <s322+0x11>
    a315:	31 db                	xor    ebx,ebx
    a317:	4c 89 f7             	mov    rdi,r14
    a31a:	31 f6                	xor    esi,esi
    a31c:	e8 00 00 00 00       	call   a321 <s322+0x1d>
    a321:	f3 0f 10 05 00 00 00 	movss  xmm0,DWORD PTR [rip+0x0]        # a329 <s322+0x25>
    a328:	00 
    a329:	48 c7 c0 20 0c fe ff 	mov    rax,0xfffffffffffe0c20
    a330:	f3 0f 10 0d 00 00 00 	movss  xmm1,DWORD PTR [rip+0x0]        # a338 <s322+0x34>
    a337:	00 
    a338:	f3 0f 10 90 00 00 00 	movss  xmm2,DWORD PTR [rax+0x0]
    a33f:	00 
    a340:	f3 0f 59 d0          	mulss  xmm2,xmm0
    a344:	f3 0f 58 90 00 00 00 	addss  xmm2,DWORD PTR [rax+0x0]
    a34b:	00 
    a34c:	f3 0f 59 88 00 00 00 	mulss  xmm1,DWORD PTR [rax+0x0]
    a353:	00 
    a354:	f3 0f 58 ca          	addss  xmm1,xmm2
    a358:	f3 0f 11 88 00 00 00 	movss  DWORD PTR [rax+0x0],xmm1
    a35f:	00 
    a360:	f3 0f 10 90 00 00 00 	movss  xmm2,DWORD PTR [rax+0x0]
    a367:	00 
    a368:	f3 0f 59 d1          	mulss  xmm2,xmm1
    a36c:	f3 0f 58 90 00 00 00 	addss  xmm2,DWORD PTR [rax+0x0]
    a373:	00 
    a374:	f3 0f 59 80 00 00 00 	mulss  xmm0,DWORD PTR [rax+0x0]
    a37b:	00 
    a37c:	f3 0f 58 c2          	addss  xmm0,xmm2
    a380:	f3 0f 11 80 00 00 00 	movss  DWORD PTR [rax+0x0],xmm0
    a387:	00 
    a388:	f3 0f 10 90 00 00 00 	movss  xmm2,DWORD PTR [rax+0x0]
    a38f:	00 
    a390:	f3 0f 59 d0          	mulss  xmm2,xmm0
    a394:	f3 0f 58 90 00 00 00 	addss  xmm2,DWORD PTR [rax+0x0]
    a39b:	00 
    a39c:	f3 0f 59 88 00 00 00 	mulss  xmm1,DWORD PTR [rax+0x0]
    a3a3:	00 
    a3a4:	f3 0f 58 ca          	addss  xmm1,xmm2
    a3a8:	f3 0f 11 88 00 00 00 	movss  DWORD PTR [rax+0x0],xmm1
    a3af:	00 
    a3b0:	f3 0f 10 90 00 00 00 	movss  xmm2,DWORD PTR [rax+0x0]
    a3b7:	00 
    a3b8:	f3 0f 59 d1          	mulss  xmm2,xmm1
    a3bc:	f3 0f 58 90 00 00 00 	addss  xmm2,DWORD PTR [rax+0x0]
    a3c3:	00 
    a3c4:	f3 0f 59 80 00 00 00 	mulss  xmm0,DWORD PTR [rax+0x0]
    a3cb:	00 
    a3cc:	f3 0f 58 c2          	addss  xmm0,xmm2
    a3d0:	f3 0f 11 80 00 00 00 	movss  DWORD PTR [rax+0x0],xmm0
    a3d7:	00 
    a3d8:	f3 0f 10 90 00 00 00 	movss  xmm2,DWORD PTR [rax+0x0]
    a3df:	00 
    a3e0:	f3 0f 59 d0          	mulss  xmm2,xmm0
    a3e4:	f3 0f 58 90 00 00 00 	addss  xmm2,DWORD PTR [rax+0x0]
    a3eb:	00 
    a3ec:	f3 0f 59 88 00 00 00 	mulss  xmm1,DWORD PTR [rax+0x0]
    a3f3:	00 
    a3f4:	f3 0f 58 ca          	addss  xmm1,xmm2
    a3f8:	f3 0f 11 88 00 00 00 	movss  DWORD PTR [rax+0x0],xmm1
    a3ff:	00 
    a400:	f3 0f 10 90 00 00 00 	movss  xmm2,DWORD PTR [rax+0x0]
    a407:	00 
    a408:	f3 0f 59 d1          	mulss  xmm2,xmm1
    a40c:	f3 0f 58 90 00 00 00 	addss  xmm2,DWORD PTR [rax+0x0]
    a413:	00 
    a414:	f3 0f 59 80 00 00 00 	mulss  xmm0,DWORD PTR [rax+0x0]
    a41b:	00 
    a41c:	f3 0f 58 c2          	addss  xmm0,xmm2
    a420:	f3 0f 11 80 00 00 00 	movss  DWORD PTR [rax+0x0],xmm0
    a427:	00 
    a428:	48 85 c0             	test   rax,rax
    a42b:	74 59                	je     a486 <s322+0x182>
    a42d:	f3 0f 10 90 00 00 00 	movss  xmm2,DWORD PTR [rax+0x0]
    a434:	00 
    a435:	f3 0f 59 d0          	mulss  xmm2,xmm0
    a439:	f3 0f 58 90 00 00 00 	addss  xmm2,DWORD PTR [rax+0x0]
    a440:	00 
    a441:	f3 0f 59 88 00 00 00 	mulss  xmm1,DWORD PTR [rax+0x0]
    a448:	00 
    a449:	f3 0f 58 ca          	addss  xmm1,xmm2
    a44d:	f3 0f 11 88 00 00 00 	movss  DWORD PTR [rax+0x0],xmm1
    a454:	00 
    a455:	f3 0f 10 90 00 00 00 	movss  xmm2,DWORD PTR [rax+0x0]
    a45c:	00 
    a45d:	f3 0f 59 d1          	mulss  xmm2,xmm1
    a461:	f3 0f 58 90 00 00 00 	addss  xmm2,DWORD PTR [rax+0x0]
    a468:	00 
    a469:	f3 0f 59 80 00 00 00 	mulss  xmm0,DWORD PTR [rax+0x0]
    a470:	00 
    a471:	f3 0f 58 c2          	addss  xmm0,xmm2
    a475:	f3 0f 11 80 00 00 00 	movss  DWORD PTR [rax+0x0],xmm0
    a47c:	00 
    a47d:	48 83 c0 20          	add    rax,0x20
    a481:	e9 b2 fe ff ff       	jmp    a338 <s322+0x34>
    a486:	bf 00 00 00 00       	mov    edi,0x0
    a48b:	be 00 00 00 00       	mov    esi,0x0
    a490:	ba 00 00 00 00       	mov    edx,0x0
    a495:	b9 00 00 00 00       	mov    ecx,0x0
    a49a:	41 b8 00 00 00 00    	mov    r8d,0x0
    a4a0:	41 b9 00 00 00 00    	mov    r9d,0x0
    a4a6:	0f 57 c0             	xorps  xmm0,xmm0
    a4a9:	68 00 00 00 00       	push   0x0
    a4ae:	68 00 00 00 00       	push   0x0
    a4b3:	e8 00 00 00 00       	call   a4b8 <s322+0x1b4>
    a4b8:	48 83 c4 10          	add    rsp,0x10
    a4bc:	ff c3                	inc    ebx
    a4be:	81 fb 50 c3 00 00    	cmp    ebx,0xc350
    a4c4:	0f 85 57 fe ff ff    	jne    a321 <s322+0x1d>
    a4ca:	49 83 c6 10          	add    r14,0x10
    a4ce:	4c 89 f7             	mov    rdi,r14
    a4d1:	31 f6                	xor    esi,esi
    a4d3:	e8 00 00 00 00       	call   a4d8 <s322+0x1d4>
    a4d8:	bf 00 00 00 00       	mov    edi,0x0
    a4dd:	48 83 c4 08          	add    rsp,0x8
    a4e1:	5b                   	pop    rbx
    a4e2:	41 5e                	pop    r14
    a4e4:	e9 00 00 00 00       	jmp    a4e9 <s323>

000000000000a4e9 <s323>:
    a4e9:	41 56                	push   r14
    a4eb:	53                   	push   rbx
    a4ec:	50                   	push   rax
    a4ed:	49 89 fe             	mov    r14,rdi
    a4f0:	bf 00 00 00 00       	mov    edi,0x0
    a4f5:	e8 00 00 00 00       	call   a4fa <s323+0x11>
    a4fa:	31 db                	xor    ebx,ebx
    a4fc:	4c 89 f7             	mov    rdi,r14
    a4ff:	31 f6                	xor    esi,esi
    a501:	e8 00 00 00 00       	call   a506 <s323+0x1d>
    a506:	f3 0f 10 05 00 00 00 	movss  xmm0,DWORD PTR [rip+0x0]        # a50e <s323+0x25>
    a50d:	00 
    a50e:	31 c0                	xor    eax,eax
    a510:	f3 0f 10 88 00 00 00 	movss  xmm1,DWORD PTR [rax+0x0]
    a517:	00 
    a518:	f3 0f 10 90 00 00 00 	movss  xmm2,DWORD PTR [rax+0x0]
    a51f:	00 
    a520:	f3 0f 59 d1          	mulss  xmm2,xmm1
    a524:	f3 0f 58 d0          	addss  xmm2,xmm0
    a528:	f3 0f 11 90 00 00 00 	movss  DWORD PTR [rax+0x0],xmm2
    a52f:	00 
    a530:	f3 0f 59 88 00 00 00 	mulss  xmm1,DWORD PTR [rax+0x0]
    a537:	00 
    a538:	f3 0f 58 ca          	addss  xmm1,xmm2
    a53c:	f3 0f 11 88 00 00 00 	movss  DWORD PTR [rax+0x0],xmm1
    a543:	00 
    a544:	f3 0f 10 80 00 00 00 	movss  xmm0,DWORD PTR [rax+0x0]
    a54b:	00 
    a54c:	f3 0f 10 90 00 00 00 	movss  xmm2,DWORD PTR [rax+0x0]
    a553:	00 
    a554:	f3 0f 59 d0          	mulss  xmm2,xmm0
    a558:	f3 0f 58 d1          	addss  xmm2,xmm1
    a55c:	f3 0f 11 90 00 00 00 	movss  DWORD PTR [rax+0x0],xmm2
    a563:	00 
    a564:	f3 0f 59 80 00 00 00 	mulss  xmm0,DWORD PTR [rax+0x0]
    a56b:	00 
    a56c:	f3 0f 58 c2          	addss  xmm0,xmm2
    a570:	f3 0f 11 80 00 00 00 	movss  DWORD PTR [rax+0x0],xmm0
    a577:	00 
    a578:	f3 0f 10 88 00 00 00 	movss  xmm1,DWORD PTR [rax+0x0]
    a57f:	00 
    a580:	f3 0f 10 90 00 00 00 	movss  xmm2,DWORD PTR [rax+0x0]
    a587:	00 
    a588:	f3 0f 59 d1          	mulss  xmm2,xmm1
    a58c:	f3 0f 58 d0          	addss  xmm2,xmm0
    a590:	f3 0f 59 88 00 00 00 	mulss  xmm1,DWORD PTR [rax+0x0]
    a597:	00 
    a598:	f3 0f 11 90 00 00 00 	movss  DWORD PTR [rax+0x0],xmm2
    a59f:	00 
    a5a0:	f3 0f 58 ca          	addss  xmm1,xmm2
    a5a4:	f3 0f 11 88 00 00 00 	movss  DWORD PTR [rax+0x0],xmm1
    a5ab:	00 
    a5ac:	f3 0f 10 80 00 00 00 	movss  xmm0,DWORD PTR [rax+0x0]
    a5b3:	00 
    a5b4:	f3 0f 10 90 00 00 00 	movss  xmm2,DWORD PTR [rax+0x0]
    a5bb:	00 
    a5bc:	f3 0f 59 d0          	mulss  xmm2,xmm0
    a5c0:	f3 0f 58 d1          	addss  xmm2,xmm1
    a5c4:	f3 0f 11 90 00 00 00 	movss  DWORD PTR [rax+0x0],xmm2
    a5cb:	00 
    a5cc:	f3 0f 59 80 00 00 00 	mulss  xmm0,DWORD PTR [rax+0x0]
    a5d3:	00 
    a5d4:	f3 0f 58 c2          	addss  xmm0,xmm2
    a5d8:	f3 0f 11 80 00 00 00 	movss  DWORD PTR [rax+0x0],xmm0
    a5df:	00 
    a5e0:	f3 0f 10 88 00 00 00 	movss  xmm1,DWORD PTR [rax+0x0]
    a5e7:	00 
    a5e8:	f3 0f 10 90 00 00 00 	movss  xmm2,DWORD PTR [rax+0x0]
    a5ef:	00 
    a5f0:	f3 0f 59 d1          	mulss  xmm2,xmm1
    a5f4:	f3 0f 58 d0          	addss  xmm2,xmm0
    a5f8:	f3 0f 11 90 00 00 00 	movss  DWORD PTR [rax+0x0],xmm2
    a5ff:	00 
    a600:	f3 0f 59 88 00 00 00 	mulss  xmm1,DWORD PTR [rax+0x0]
    a607:	00 
    a608:	f3 0f 58 ca          	addss  xmm1,xmm2
    a60c:	f3 0f 11 88 00 00 00 	movss  DWORD PTR [rax+0x0],xmm1
    a613:	00 
    a614:	f3 0f 10 80 00 00 00 	movss  xmm0,DWORD PTR [rax+0x0]
    a61b:	00 
    a61c:	f3 0f 10 90 00 00 00 	movss  xmm2,DWORD PTR [rax+0x0]
    a623:	00 
    a624:	f3 0f 59 d0          	mulss  xmm2,xmm0
    a628:	f3 0f 58 d1          	addss  xmm2,xmm1
    a62c:	f3 0f 11 90 00 00 00 	movss  DWORD PTR [rax+0x0],xmm2
    a633:	00 
    a634:	f3 0f 59 80 00 00 00 	mulss  xmm0,DWORD PTR [rax+0x0]
    a63b:	00 
    a63c:	f3 0f 58 c2          	addss  xmm0,xmm2
    a640:	f3 0f 11 80 00 00 00 	movss  DWORD PTR [rax+0x0],xmm0
    a647:	00 
    a648:	f3 0f 10 88 00 00 00 	movss  xmm1,DWORD PTR [rax+0x0]
    a64f:	00 
    a650:	f3 0f 10 90 00 00 00 	movss  xmm2,DWORD PTR [rax+0x0]
    a657:	00 
    a658:	f3 0f 59 d1          	mulss  xmm2,xmm1
    a65c:	f3 0f 58 d0          	addss  xmm2,xmm0
    a660:	f3 0f 59 88 00 00 00 	mulss  xmm1,DWORD PTR [rax+0x0]
    a667:	00 
    a668:	f3 0f 11 90 00 00 00 	movss  DWORD PTR [rax+0x0],xmm2
    a66f:	00 
    a670:	f3 0f 58 ca          	addss  xmm1,xmm2
    a674:	f3 0f 11 88 00 00 00 	movss  DWORD PTR [rax+0x0],xmm1
    a67b:	00 
    a67c:	48 3d e0 f3 01 00    	cmp    rax,0x1f3e0
    a682:	74 3d                	je     a6c1 <s323+0x1d8>
    a684:	f3 0f 10 80 00 00 00 	movss  xmm0,DWORD PTR [rax+0x0]
    a68b:	00 
    a68c:	f3 0f 10 90 00 00 00 	movss  xmm2,DWORD PTR [rax+0x0]
    a693:	00 
    a694:	f3 0f 59 d0          	mulss  xmm2,xmm0
    a698:	f3 0f 58 ca          	addss  xmm1,xmm2
    a69c:	f3 0f 59 80 00 00 00 	mulss  xmm0,DWORD PTR [rax+0x0]
    a6a3:	00 
    a6a4:	f3 0f 11 88 00 00 00 	movss  DWORD PTR [rax+0x0],xmm1
    a6ab:	00 
    a6ac:	f3 0f 58 c1          	addss  xmm0,xmm1
    a6b0:	f3 0f 11 80 00 00 00 	movss  DWORD PTR [rax+0x0],xmm0
    a6b7:	00 
    a6b8:	48 83 c0 20          	add    rax,0x20
    a6bc:	e9 4f fe ff ff       	jmp    a510 <s323+0x27>
    a6c1:	bf 00 00 00 00       	mov    edi,0x0
    a6c6:	be 00 00 00 00       	mov    esi,0x0
    a6cb:	ba 00 00 00 00       	mov    edx,0x0
    a6d0:	b9 00 00 00 00       	mov    ecx,0x0
    a6d5:	41 b8 00 00 00 00    	mov    r8d,0x0
    a6db:	41 b9 00 00 00 00    	mov    r9d,0x0
    a6e1:	0f 57 c0             	xorps  xmm0,xmm0
    a6e4:	68 00 00 00 00       	push   0x0
    a6e9:	68 00 00 00 00       	push   0x0
    a6ee:	e8 00 00 00 00       	call   a6f3 <s323+0x20a>
    a6f3:	48 83 c4 10          	add    rsp,0x10
    a6f7:	ff c3                	inc    ebx
    a6f9:	81 fb 50 c3 00 00    	cmp    ebx,0xc350
    a6ff:	0f 85 01 fe ff ff    	jne    a506 <s323+0x1d>
    a705:	49 83 c6 10          	add    r14,0x10
    a709:	4c 89 f7             	mov    rdi,r14
    a70c:	31 f6                	xor    esi,esi
    a70e:	e8 00 00 00 00       	call   a713 <s323+0x22a>
    a713:	bf 00 00 00 00       	mov    edi,0x0
    a718:	48 83 c4 08          	add    rsp,0x8
    a71c:	5b                   	pop    rbx
    a71d:	41 5e                	pop    r14
    a71f:	e9 00 00 00 00       	jmp    a724 <s331>

000000000000a724 <s331>:
    a724:	55                   	push   rbp
    a725:	41 56                	push   r14
    a727:	53                   	push   rbx
    a728:	49 89 fe             	mov    r14,rdi
    a72b:	bf 00 00 00 00       	mov    edi,0x0
    a730:	e8 00 00 00 00       	call   a735 <s331+0x11>
    a735:	31 db                	xor    ebx,ebx
    a737:	4c 89 f7             	mov    rdi,r14
    a73a:	31 f6                	xor    esi,esi
    a73c:	e8 00 00 00 00       	call   a741 <s331+0x1d>
    a741:	0f 57 c0             	xorps  xmm0,xmm0
    a744:	bd ff ff ff ff       	mov    ebp,0xffffffff
    a749:	31 c0                	xor    eax,eax
    a74b:	0f 2e 04 85 00 00 00 	ucomiss xmm0,DWORD PTR [rax*4+0x0]
    a752:	00 
    a753:	0f 47 e8             	cmova  ebp,eax
    a756:	0f 2e 04 85 00 00 00 	ucomiss xmm0,DWORD PTR [rax*4+0x0]
    a75d:	00 
    a75e:	8d 48 01             	lea    ecx,[rax+0x1]
    a761:	0f 46 cd             	cmovbe ecx,ebp
    a764:	0f 2e 04 85 00 00 00 	ucomiss xmm0,DWORD PTR [rax*4+0x0]
    a76b:	00 
    a76c:	8d 50 02             	lea    edx,[rax+0x2]
    a76f:	0f 46 d1             	cmovbe edx,ecx
    a772:	0f 2e 04 85 00 00 00 	ucomiss xmm0,DWORD PTR [rax*4+0x0]
    a779:	00 
    a77a:	8d 48 03             	lea    ecx,[rax+0x3]
    a77d:	0f 46 ca             	cmovbe ecx,edx
    a780:	0f 2e 04 85 00 00 00 	ucomiss xmm0,DWORD PTR [rax*4+0x0]
    a787:	00 
    a788:	8d 50 04             	lea    edx,[rax+0x4]
    a78b:	0f 46 d1             	cmovbe edx,ecx
    a78e:	0f 2e 04 85 00 00 00 	ucomiss xmm0,DWORD PTR [rax*4+0x0]
    a795:	00 
    a796:	8d 48 05             	lea    ecx,[rax+0x5]
    a799:	0f 46 ca             	cmovbe ecx,edx
    a79c:	0f 2e 04 85 00 00 00 	ucomiss xmm0,DWORD PTR [rax*4+0x0]
    a7a3:	00 
    a7a4:	8d 50 06             	lea    edx,[rax+0x6]
    a7a7:	0f 46 d1             	cmovbe edx,ecx
    a7aa:	0f 2e 04 85 00 00 00 	ucomiss xmm0,DWORD PTR [rax*4+0x0]
    a7b1:	00 
    a7b2:	8d 68 07             	lea    ebp,[rax+0x7]
    a7b5:	0f 46 ea             	cmovbe ebp,edx
    a7b8:	48 83 c0 08          	add    rax,0x8
    a7bc:	48 3d 00 7d 00 00    	cmp    rax,0x7d00
    a7c2:	75 87                	jne    a74b <s331+0x27>
    a7c4:	0f 57 c0             	xorps  xmm0,xmm0
    a7c7:	f3 0f 2a c5          	cvtsi2ss xmm0,ebp
    a7cb:	bf 00 00 00 00       	mov    edi,0x0
    a7d0:	be 00 00 00 00       	mov    esi,0x0
    a7d5:	ba 00 00 00 00       	mov    edx,0x0
    a7da:	b9 00 00 00 00       	mov    ecx,0x0
    a7df:	41 b8 00 00 00 00    	mov    r8d,0x0
    a7e5:	41 b9 00 00 00 00    	mov    r9d,0x0
    a7eb:	68 00 00 00 00       	push   0x0
    a7f0:	68 00 00 00 00       	push   0x0
    a7f5:	e8 00 00 00 00       	call   a7fa <s331+0xd6>
    a7fa:	0f 57 c0             	xorps  xmm0,xmm0
    a7fd:	48 83 c4 10          	add    rsp,0x10
    a801:	ff c3                	inc    ebx
    a803:	81 fb a0 86 01 00    	cmp    ebx,0x186a0
    a809:	0f 85 35 ff ff ff    	jne    a744 <s331+0x20>
    a80f:	49 83 c6 10          	add    r14,0x10
    a813:	4c 89 f7             	mov    rdi,r14
    a816:	31 f6                	xor    esi,esi
    a818:	e8 00 00 00 00       	call   a81d <s331+0xf9>
    a81d:	ff c5                	inc    ebp
    a81f:	0f 57 c0             	xorps  xmm0,xmm0
    a822:	f3 0f 2a c5          	cvtsi2ss xmm0,ebp
    a826:	5b                   	pop    rbx
    a827:	41 5e                	pop    r14
    a829:	5d                   	pop    rbp
    a82a:	c3                   	ret    

000000000000a82b <s332>:
    a82b:	41 56                	push   r14
    a82d:	53                   	push   rbx
    a82e:	50                   	push   rax
    a82f:	49 89 fe             	mov    r14,rdi
    a832:	48 8b 47 20          	mov    rax,QWORD PTR [rdi+0x20]
    a836:	f3 0f 2a 00          	cvtsi2ss xmm0,DWORD PTR [rax]
    a83a:	f3 0f 11 44 24 04    	movss  DWORD PTR [rsp+0x4],xmm0
    a840:	bf 00 00 00 00       	mov    edi,0x0
    a845:	e8 00 00 00 00       	call   a84a <s332+0x1f>
    a84a:	31 db                	xor    ebx,ebx
    a84c:	4c 89 f7             	mov    rdi,r14
    a84f:	31 f6                	xor    esi,esi
    a851:	e8 00 00 00 00       	call   a856 <s332+0x2b>
    a856:	48 c7 c0 00 83 ff ff 	mov    rax,0xffffffffffff8300
    a85d:	f3 0f 10 44 24 04    	movss  xmm0,DWORD PTR [rsp+0x4]
    a863:	f3 0f 10 0c 85 00 00 	movss  xmm1,DWORD PTR [rax*4+0x0]
    a86a:	00 00 
    a86c:	0f 2e c8             	ucomiss xmm1,xmm0
    a86f:	77 77                	ja     a8e8 <s332+0xbd>
    a871:	f3 0f 10 0c 85 00 00 	movss  xmm1,DWORD PTR [rax*4+0x0]
    a878:	00 00 
    a87a:	0f 2e c8             	ucomiss xmm1,xmm0
    a87d:	77 70                	ja     a8ef <s332+0xc4>
    a87f:	f3 0f 10 0c 85 00 00 	movss  xmm1,DWORD PTR [rax*4+0x0]
    a886:	00 00 
    a888:	0f 2e c8             	ucomiss xmm1,xmm0
    a88b:	77 69                	ja     a8f6 <s332+0xcb>
    a88d:	f3 0f 10 0c 85 00 00 	movss  xmm1,DWORD PTR [rax*4+0x0]
    a894:	00 00 
    a896:	0f 2e c8             	ucomiss xmm1,xmm0
    a899:	77 62                	ja     a8fd <s332+0xd2>
    a89b:	f3 0f 10 0c 85 00 00 	movss  xmm1,DWORD PTR [rax*4+0x0]
    a8a2:	00 00 
    a8a4:	0f 2e c8             	ucomiss xmm1,xmm0
    a8a7:	77 5b                	ja     a904 <s332+0xd9>
    a8a9:	f3 0f 10 0c 85 00 00 	movss  xmm1,DWORD PTR [rax*4+0x0]
    a8b0:	00 00 
    a8b2:	0f 2e c8             	ucomiss xmm1,xmm0
    a8b5:	77 54                	ja     a90b <s332+0xe0>
    a8b7:	f3 0f 10 0c 85 00 00 	movss  xmm1,DWORD PTR [rax*4+0x0]
    a8be:	00 00 
    a8c0:	0f 2e c8             	ucomiss xmm1,xmm0
    a8c3:	77 4d                	ja     a912 <s332+0xe7>
    a8c5:	f3 0f 10 0c 85 00 00 	movss  xmm1,DWORD PTR [rax*4+0x0]
    a8cc:	00 00 
    a8ce:	0f 2e c8             	ucomiss xmm1,xmm0
    a8d1:	77 46                	ja     a919 <s332+0xee>
    a8d3:	48 83 c0 08          	add    rax,0x8
    a8d7:	75 8a                	jne    a863 <s332+0x38>
    a8d9:	b8 fe ff ff ff       	mov    eax,0xfffffffe
    a8de:	f3 0f 10 0d 00 00 00 	movss  xmm1,DWORD PTR [rip+0x0]        # a8e6 <s332+0xbb>
    a8e5:	00 
    a8e6:	eb 36                	jmp    a91e <s332+0xf3>
    a8e8:	05 00 7d 00 00       	add    eax,0x7d00
    a8ed:	eb 2f                	jmp    a91e <s332+0xf3>
    a8ef:	05 01 7d 00 00       	add    eax,0x7d01
    a8f4:	eb 28                	jmp    a91e <s332+0xf3>
    a8f6:	05 02 7d 00 00       	add    eax,0x7d02
    a8fb:	eb 21                	jmp    a91e <s332+0xf3>
    a8fd:	05 03 7d 00 00       	add    eax,0x7d03
    a902:	eb 1a                	jmp    a91e <s332+0xf3>
    a904:	05 04 7d 00 00       	add    eax,0x7d04
    a909:	eb 13                	jmp    a91e <s332+0xf3>
    a90b:	05 05 7d 00 00       	add    eax,0x7d05
    a910:	eb 0c                	jmp    a91e <s332+0xf3>
    a912:	05 06 7d 00 00       	add    eax,0x7d06
    a917:	eb 05                	jmp    a91e <s332+0xf3>
    a919:	05 07 7d 00 00       	add    eax,0x7d07
    a91e:	f3 0f 11 0c 24       	movss  DWORD PTR [rsp],xmm1
    a923:	0f 57 c0             	xorps  xmm0,xmm0
    a926:	f3 0f 2a c0          	cvtsi2ss xmm0,eax
    a92a:	f3 0f 58 c1          	addss  xmm0,xmm1
    a92e:	bf 00 00 00 00       	mov    edi,0x0
    a933:	be 00 00 00 00       	mov    esi,0x0
    a938:	ba 00 00 00 00       	mov    edx,0x0
    a93d:	b9 00 00 00 00       	mov    ecx,0x0
    a942:	41 b8 00 00 00 00    	mov    r8d,0x0
    a948:	41 b9 00 00 00 00    	mov    r9d,0x0
    a94e:	68 00 00 00 00       	push   0x0
    a953:	68 00 00 00 00       	push   0x0
    a958:	e8 00 00 00 00       	call   a95d <s332+0x132>
    a95d:	48 83 c4 10          	add    rsp,0x10
    a961:	ff c3                	inc    ebx
    a963:	81 fb a0 86 01 00    	cmp    ebx,0x186a0
    a969:	0f 85 e7 fe ff ff    	jne    a856 <s332+0x2b>
    a96f:	49 83 c6 10          	add    r14,0x10
    a973:	4c 89 f7             	mov    rdi,r14
    a976:	31 f6                	xor    esi,esi
    a978:	e8 00 00 00 00       	call   a97d <s332+0x152>
    a97d:	f3 0f 10 04 24       	movss  xmm0,DWORD PTR [rsp]
    a982:	48 83 c4 08          	add    rsp,0x8
    a986:	5b                   	pop    rbx
    a987:	41 5e                	pop    r14
    a989:	c3                   	ret    

000000000000a98a <s341>:
    a98a:	41 56                	push   r14
    a98c:	53                   	push   rbx
    a98d:	50                   	push   rax
    a98e:	49 89 fe             	mov    r14,rdi
    a991:	bf 00 00 00 00       	mov    edi,0x0
    a996:	e8 00 00 00 00       	call   a99b <s341+0x11>
    a99b:	31 db                	xor    ebx,ebx
    a99d:	4c 89 f7             	mov    rdi,r14
    a9a0:	31 f6                	xor    esi,esi
    a9a2:	e8 00 00 00 00       	call   a9a7 <s341+0x1d>
    a9a7:	0f 57 c9             	xorps  xmm1,xmm1
    a9aa:	b8 ff ff ff ff       	mov    eax,0xffffffff
    a9af:	48 c7 c1 00 0c fe ff 	mov    rcx,0xfffffffffffe0c00
    a9b6:	f3 0f 10 81 00 00 00 	movss  xmm0,DWORD PTR [rcx+0x0]
    a9bd:	00 
    a9be:	0f 2e c1             	ucomiss xmm0,xmm1
    a9c1:	76 0e                	jbe    a9d1 <s341+0x47>
    a9c3:	48 63 d0             	movsxd rdx,eax
    a9c6:	ff c0                	inc    eax
    a9c8:	f3 0f 11 04 95 00 00 	movss  DWORD PTR [rdx*4+0x0],xmm0
    a9cf:	00 00 
    a9d1:	f3 0f 10 81 00 00 00 	movss  xmm0,DWORD PTR [rcx+0x0]
    a9d8:	00 
    a9d9:	0f 2e c1             	ucomiss xmm0,xmm1
    a9dc:	76 0e                	jbe    a9ec <s341+0x62>
    a9de:	48 63 d0             	movsxd rdx,eax
    a9e1:	ff c0                	inc    eax
    a9e3:	f3 0f 11 04 95 00 00 	movss  DWORD PTR [rdx*4+0x0],xmm0
    a9ea:	00 00 
    a9ec:	f3 0f 10 81 00 00 00 	movss  xmm0,DWORD PTR [rcx+0x0]
    a9f3:	00 
    a9f4:	0f 2e c1             	ucomiss xmm0,xmm1
    a9f7:	76 0e                	jbe    aa07 <s341+0x7d>
    a9f9:	48 63 d0             	movsxd rdx,eax
    a9fc:	ff c0                	inc    eax
    a9fe:	f3 0f 11 04 95 00 00 	movss  DWORD PTR [rdx*4+0x0],xmm0
    aa05:	00 00 
    aa07:	f3 0f 10 81 00 00 00 	movss  xmm0,DWORD PTR [rcx+0x0]
    aa0e:	00 
    aa0f:	0f 2e c1             	ucomiss xmm0,xmm1
    aa12:	76 0e                	jbe    aa22 <s341+0x98>
    aa14:	48 63 d0             	movsxd rdx,eax
    aa17:	ff c0                	inc    eax
    aa19:	f3 0f 11 04 95 00 00 	movss  DWORD PTR [rdx*4+0x0],xmm0
    aa20:	00 00 
    aa22:	f3 0f 10 81 00 00 00 	movss  xmm0,DWORD PTR [rcx+0x0]
    aa29:	00 
    aa2a:	0f 2e c1             	ucomiss xmm0,xmm1
    aa2d:	76 0e                	jbe    aa3d <s341+0xb3>
    aa2f:	48 63 d0             	movsxd rdx,eax
    aa32:	ff c0                	inc    eax
    aa34:	f3 0f 11 04 95 00 00 	movss  DWORD PTR [rdx*4+0x0],xmm0
    aa3b:	00 00 
    aa3d:	f3 0f 10 81 00 00 00 	movss  xmm0,DWORD PTR [rcx+0x0]
    aa44:	00 
    aa45:	0f 2e c1             	ucomiss xmm0,xmm1
    aa48:	76 0e                	jbe    aa58 <s341+0xce>
    aa4a:	48 63 d0             	movsxd rdx,eax
    aa4d:	ff c0                	inc    eax
    aa4f:	f3 0f 11 04 95 00 00 	movss  DWORD PTR [rdx*4+0x0],xmm0
    aa56:	00 00 
    aa58:	f3 0f 10 81 00 00 00 	movss  xmm0,DWORD PTR [rcx+0x0]
    aa5f:	00 
    aa60:	0f 2e c1             	ucomiss xmm0,xmm1
    aa63:	76 0e                	jbe    aa73 <s341+0xe9>
    aa65:	48 63 d0             	movsxd rdx,eax
    aa68:	ff c0                	inc    eax
    aa6a:	f3 0f 11 04 95 00 00 	movss  DWORD PTR [rdx*4+0x0],xmm0
    aa71:	00 00 
    aa73:	f3 0f 10 81 00 00 00 	movss  xmm0,DWORD PTR [rcx+0x0]
    aa7a:	00 
    aa7b:	0f 2e c1             	ucomiss xmm0,xmm1
    aa7e:	76 0e                	jbe    aa8e <s341+0x104>
    aa80:	48 63 d0             	movsxd rdx,eax
    aa83:	ff c0                	inc    eax
    aa85:	f3 0f 11 04 95 00 00 	movss  DWORD PTR [rdx*4+0x0],xmm0
    aa8c:	00 00 
    aa8e:	48 83 c1 20          	add    rcx,0x20
    aa92:	0f 85 1e ff ff ff    	jne    a9b6 <s341+0x2c>
    aa98:	bf 00 00 00 00       	mov    edi,0x0
    aa9d:	be 00 00 00 00       	mov    esi,0x0
    aaa2:	ba 00 00 00 00       	mov    edx,0x0
    aaa7:	b9 00 00 00 00       	mov    ecx,0x0
    aaac:	41 b8 00 00 00 00    	mov    r8d,0x0
    aab2:	41 b9 00 00 00 00    	mov    r9d,0x0
    aab8:	0f 57 c0             	xorps  xmm0,xmm0
    aabb:	68 00 00 00 00       	push   0x0
    aac0:	68 00 00 00 00       	push   0x0
    aac5:	e8 00 00 00 00       	call   aaca <s341+0x140>
    aaca:	0f 57 c9             	xorps  xmm1,xmm1
    aacd:	48 83 c4 10          	add    rsp,0x10
    aad1:	ff c3                	inc    ebx
    aad3:	81 fb a0 86 01 00    	cmp    ebx,0x186a0
    aad9:	0f 85 cb fe ff ff    	jne    a9aa <s341+0x20>
    aadf:	49 83 c6 10          	add    r14,0x10
    aae3:	4c 89 f7             	mov    rdi,r14
    aae6:	31 f6                	xor    esi,esi
    aae8:	e8 00 00 00 00       	call   aaed <s341+0x163>
    aaed:	bf 00 00 00 00       	mov    edi,0x0
    aaf2:	48 83 c4 08          	add    rsp,0x8
    aaf6:	5b                   	pop    rbx
    aaf7:	41 5e                	pop    r14
    aaf9:	e9 00 00 00 00       	jmp    aafe <s342>

000000000000aafe <s342>:
    aafe:	41 56                	push   r14
    ab00:	53                   	push   rbx
    ab01:	50                   	push   rax
    ab02:	49 89 fe             	mov    r14,rdi
    ab05:	bf 00 00 00 00       	mov    edi,0x0
    ab0a:	e8 00 00 00 00       	call   ab0f <s342+0x11>
    ab0f:	31 db                	xor    ebx,ebx
    ab11:	4c 89 f7             	mov    rdi,r14
    ab14:	31 f6                	xor    esi,esi
    ab16:	e8 00 00 00 00       	call   ab1b <s342+0x1d>
    ab1b:	0f 57 c9             	xorps  xmm1,xmm1
    ab1e:	b8 ff ff ff ff       	mov    eax,0xffffffff
    ab23:	48 c7 c1 00 0c fe ff 	mov    rcx,0xfffffffffffe0c00
    ab2a:	f3 0f 10 81 00 00 00 	movss  xmm0,DWORD PTR [rcx+0x0]
    ab31:	00 
    ab32:	0f 2e c1             	ucomiss xmm0,xmm1
    ab35:	76 16                	jbe    ab4d <s342+0x4f>
    ab37:	48 63 d0             	movsxd rdx,eax
    ab3a:	ff c0                	inc    eax
    ab3c:	f3 0f 10 04 95 00 00 	movss  xmm0,DWORD PTR [rdx*4+0x0]
    ab43:	00 00 
    ab45:	f3 0f 11 81 00 00 00 	movss  DWORD PTR [rcx+0x0],xmm0
    ab4c:	00 
    ab4d:	f3 0f 10 81 00 00 00 	movss  xmm0,DWORD PTR [rcx+0x0]
    ab54:	00 
    ab55:	0f 2e c1             	ucomiss xmm0,xmm1
    ab58:	76 16                	jbe    ab70 <s342+0x72>
    ab5a:	48 63 d0             	movsxd rdx,eax
    ab5d:	ff c0                	inc    eax
    ab5f:	f3 0f 10 04 95 00 00 	movss  xmm0,DWORD PTR [rdx*4+0x0]
    ab66:	00 00 
    ab68:	f3 0f 11 81 00 00 00 	movss  DWORD PTR [rcx+0x0],xmm0
    ab6f:	00 
    ab70:	f3 0f 10 81 00 00 00 	movss  xmm0,DWORD PTR [rcx+0x0]
    ab77:	00 
    ab78:	0f 2e c1             	ucomiss xmm0,xmm1
    ab7b:	76 16                	jbe    ab93 <s342+0x95>
    ab7d:	48 63 d0             	movsxd rdx,eax
    ab80:	ff c0                	inc    eax
    ab82:	f3 0f 10 04 95 00 00 	movss  xmm0,DWORD PTR [rdx*4+0x0]
    ab89:	00 00 
    ab8b:	f3 0f 11 81 00 00 00 	movss  DWORD PTR [rcx+0x0],xmm0
    ab92:	00 
    ab93:	f3 0f 10 81 00 00 00 	movss  xmm0,DWORD PTR [rcx+0x0]
    ab9a:	00 
    ab9b:	0f 2e c1             	ucomiss xmm0,xmm1
    ab9e:	76 16                	jbe    abb6 <s342+0xb8>
    aba0:	48 63 d0             	movsxd rdx,eax
    aba3:	ff c0                	inc    eax
    aba5:	f3 0f 10 04 95 00 00 	movss  xmm0,DWORD PTR [rdx*4+0x0]
    abac:	00 00 
    abae:	f3 0f 11 81 00 00 00 	movss  DWORD PTR [rcx+0x0],xmm0
    abb5:	00 
    abb6:	f3 0f 10 81 00 00 00 	movss  xmm0,DWORD PTR [rcx+0x0]
    abbd:	00 
    abbe:	0f 2e c1             	ucomiss xmm0,xmm1
    abc1:	76 16                	jbe    abd9 <s342+0xdb>
    abc3:	48 63 d0             	movsxd rdx,eax
    abc6:	ff c0                	inc    eax
    abc8:	f3 0f 10 04 95 00 00 	movss  xmm0,DWORD PTR [rdx*4+0x0]
    abcf:	00 00 
    abd1:	f3 0f 11 81 00 00 00 	movss  DWORD PTR [rcx+0x0],xmm0
    abd8:	00 
    abd9:	f3 0f 10 81 00 00 00 	movss  xmm0,DWORD PTR [rcx+0x0]
    abe0:	00 
    abe1:	0f 2e c1             	ucomiss xmm0,xmm1
    abe4:	76 16                	jbe    abfc <s342+0xfe>
    abe6:	48 63 d0             	movsxd rdx,eax
    abe9:	ff c0                	inc    eax
    abeb:	f3 0f 10 04 95 00 00 	movss  xmm0,DWORD PTR [rdx*4+0x0]
    abf2:	00 00 
    abf4:	f3 0f 11 81 00 00 00 	movss  DWORD PTR [rcx+0x0],xmm0
    abfb:	00 
    abfc:	f3 0f 10 81 00 00 00 	movss  xmm0,DWORD PTR [rcx+0x0]
    ac03:	00 
    ac04:	0f 2e c1             	ucomiss xmm0,xmm1
    ac07:	76 16                	jbe    ac1f <s342+0x121>
    ac09:	48 63 d0             	movsxd rdx,eax
    ac0c:	ff c0                	inc    eax
    ac0e:	f3 0f 10 04 95 00 00 	movss  xmm0,DWORD PTR [rdx*4+0x0]
    ac15:	00 00 
    ac17:	f3 0f 11 81 00 00 00 	movss  DWORD PTR [rcx+0x0],xmm0
    ac1e:	00 
    ac1f:	f3 0f 10 81 00 00 00 	movss  xmm0,DWORD PTR [rcx+0x0]
    ac26:	00 
    ac27:	0f 2e c1             	ucomiss xmm0,xmm1
    ac2a:	76 16                	jbe    ac42 <s342+0x144>
    ac2c:	48 63 d0             	movsxd rdx,eax
    ac2f:	ff c0                	inc    eax
    ac31:	f3 0f 10 04 95 00 00 	movss  xmm0,DWORD PTR [rdx*4+0x0]
    ac38:	00 00 
    ac3a:	f3 0f 11 81 00 00 00 	movss  DWORD PTR [rcx+0x0],xmm0
    ac41:	00 
    ac42:	48 83 c1 20          	add    rcx,0x20
    ac46:	0f 85 de fe ff ff    	jne    ab2a <s342+0x2c>
    ac4c:	bf 00 00 00 00       	mov    edi,0x0
    ac51:	be 00 00 00 00       	mov    esi,0x0
    ac56:	ba 00 00 00 00       	mov    edx,0x0
    ac5b:	b9 00 00 00 00       	mov    ecx,0x0
    ac60:	41 b8 00 00 00 00    	mov    r8d,0x0
    ac66:	41 b9 00 00 00 00    	mov    r9d,0x0
    ac6c:	0f 57 c0             	xorps  xmm0,xmm0
    ac6f:	68 00 00 00 00       	push   0x0
    ac74:	68 00 00 00 00       	push   0x0
    ac79:	e8 00 00 00 00       	call   ac7e <s342+0x180>
    ac7e:	0f 57 c9             	xorps  xmm1,xmm1
    ac81:	48 83 c4 10          	add    rsp,0x10
    ac85:	ff c3                	inc    ebx
    ac87:	81 fb a0 86 01 00    	cmp    ebx,0x186a0
    ac8d:	0f 85 8b fe ff ff    	jne    ab1e <s342+0x20>
    ac93:	49 83 c6 10          	add    r14,0x10
    ac97:	4c 89 f7             	mov    rdi,r14
    ac9a:	31 f6                	xor    esi,esi
    ac9c:	e8 00 00 00 00       	call   aca1 <s342+0x1a3>
    aca1:	bf 00 00 00 00       	mov    edi,0x0
    aca6:	48 83 c4 08          	add    rsp,0x8
    acaa:	5b                   	pop    rbx
    acab:	41 5e                	pop    r14
    acad:	e9 00 00 00 00       	jmp    acb2 <s343>

000000000000acb2 <s343>:
    acb2:	41 56                	push   r14
    acb4:	53                   	push   rbx
    acb5:	50                   	push   rax
    acb6:	49 89 fe             	mov    r14,rdi
    acb9:	bf 00 00 00 00       	mov    edi,0x0
    acbe:	e8 00 00 00 00       	call   acc3 <s343+0x11>
    acc3:	31 db                	xor    ebx,ebx
    acc5:	4c 89 f7             	mov    rdi,r14
    acc8:	31 f6                	xor    esi,esi
    acca:	e8 00 00 00 00       	call   accf <s343+0x1d>
    accf:	0f 57 c9             	xorps  xmm1,xmm1
    acd2:	b8 ff ff ff ff       	mov    eax,0xffffffff
    acd7:	b9 00 1c 00 00       	mov    ecx,0x1c00
    acdc:	31 d2                	xor    edx,edx
    acde:	48 c7 c6 00 00 fc ff 	mov    rsi,0xfffffffffffc0000
    ace5:	f3 0f 10 84 31 00 00 	movss  xmm0,DWORD PTR [rcx+rsi*1+0x0]
    acec:	00 00 
    acee:	0f 2e c1             	ucomiss xmm0,xmm1
    acf1:	76 17                	jbe    ad0a <s343+0x58>
    acf3:	f3 0f 10 84 31 00 00 	movss  xmm0,DWORD PTR [rcx+rsi*1+0x0]
    acfa:	00 00 
    acfc:	48 63 f8             	movsxd rdi,eax
    acff:	ff c0                	inc    eax
    ad01:	f3 0f 11 04 bd 00 00 	movss  DWORD PTR [rdi*4+0x0],xmm0
    ad08:	00 00 
    ad0a:	f3 0f 10 84 31 00 00 	movss  xmm0,DWORD PTR [rcx+rsi*1+0x0]
    ad11:	00 00 
    ad13:	0f 2e c1             	ucomiss xmm0,xmm1
    ad16:	76 17                	jbe    ad2f <s343+0x7d>
    ad18:	f3 0f 10 84 31 00 00 	movss  xmm0,DWORD PTR [rcx+rsi*1+0x0]
    ad1f:	00 00 
    ad21:	48 63 f8             	movsxd rdi,eax
    ad24:	ff c0                	inc    eax
    ad26:	f3 0f 11 04 bd 00 00 	movss  DWORD PTR [rdi*4+0x0],xmm0
    ad2d:	00 00 
    ad2f:	f3 0f 10 84 31 00 00 	movss  xmm0,DWORD PTR [rcx+rsi*1+0x0]
    ad36:	00 00 
    ad38:	0f 2e c1             	ucomiss xmm0,xmm1
    ad3b:	76 17                	jbe    ad54 <s343+0xa2>
    ad3d:	f3 0f 10 84 31 00 00 	movss  xmm0,DWORD PTR [rcx+rsi*1+0x0]
    ad44:	00 00 
    ad46:	48 63 f8             	movsxd rdi,eax
    ad49:	ff c0                	inc    eax
    ad4b:	f3 0f 11 04 bd 00 00 	movss  DWORD PTR [rdi*4+0x0],xmm0
    ad52:	00 00 
    ad54:	f3 0f 10 84 31 00 00 	movss  xmm0,DWORD PTR [rcx+rsi*1+0x0]
    ad5b:	00 00 
    ad5d:	0f 2e c1             	ucomiss xmm0,xmm1
    ad60:	76 17                	jbe    ad79 <s343+0xc7>
    ad62:	f3 0f 10 84 31 00 00 	movss  xmm0,DWORD PTR [rcx+rsi*1+0x0]
    ad69:	00 00 
    ad6b:	48 63 f8             	movsxd rdi,eax
    ad6e:	ff c0                	inc    eax
    ad70:	f3 0f 11 04 bd 00 00 	movss  DWORD PTR [rdi*4+0x0],xmm0
    ad77:	00 00 
    ad79:	f3 0f 10 84 31 00 00 	movss  xmm0,DWORD PTR [rcx+rsi*1+0x0]
    ad80:	00 00 
    ad82:	0f 2e c1             	ucomiss xmm0,xmm1
    ad85:	76 17                	jbe    ad9e <s343+0xec>
    ad87:	f3 0f 10 84 31 00 00 	movss  xmm0,DWORD PTR [rcx+rsi*1+0x0]
    ad8e:	00 00 
    ad90:	48 63 f8             	movsxd rdi,eax
    ad93:	ff c0                	inc    eax
    ad95:	f3 0f 11 04 bd 00 00 	movss  DWORD PTR [rdi*4+0x0],xmm0
    ad9c:	00 00 
    ad9e:	f3 0f 10 84 31 00 00 	movss  xmm0,DWORD PTR [rcx+rsi*1+0x0]
    ada5:	00 00 
    ada7:	0f 2e c1             	ucomiss xmm0,xmm1
    adaa:	76 17                	jbe    adc3 <s343+0x111>
    adac:	f3 0f 10 84 31 00 00 	movss  xmm0,DWORD PTR [rcx+rsi*1+0x0]
    adb3:	00 00 
    adb5:	48 63 f8             	movsxd rdi,eax
    adb8:	ff c0                	inc    eax
    adba:	f3 0f 11 04 bd 00 00 	movss  DWORD PTR [rdi*4+0x0],xmm0
    adc1:	00 00 
    adc3:	f3 0f 10 84 31 00 00 	movss  xmm0,DWORD PTR [rcx+rsi*1+0x0]
    adca:	00 00 
    adcc:	0f 2e c1             	ucomiss xmm0,xmm1
    adcf:	76 17                	jbe    ade8 <s343+0x136>
    add1:	f3 0f 10 84 31 00 00 	movss  xmm0,DWORD PTR [rcx+rsi*1+0x0]
    add8:	00 00 
    adda:	48 63 f8             	movsxd rdi,eax
    addd:	ff c0                	inc    eax
    addf:	f3 0f 11 04 bd 00 00 	movss  DWORD PTR [rdi*4+0x0],xmm0
    ade6:	00 00 
    ade8:	f3 0f 10 84 31 00 00 	movss  xmm0,DWORD PTR [rcx+rsi*1+0x0]
    adef:	00 00 
    adf1:	0f 2e c1             	ucomiss xmm0,xmm1
    adf4:	76 17                	jbe    ae0d <s343+0x15b>
    adf6:	f3 0f 10 84 31 00 00 	movss  xmm0,DWORD PTR [rcx+rsi*1+0x0]
    adfd:	00 00 
    adff:	48 63 f8             	movsxd rdi,eax
    ae02:	ff c0                	inc    eax
    ae04:	f3 0f 11 04 bd 00 00 	movss  DWORD PTR [rdi*4+0x0],xmm0
    ae0b:	00 00 
    ae0d:	48 81 c6 00 20 00 00 	add    rsi,0x2000
    ae14:	0f 85 cb fe ff ff    	jne    ace5 <s343+0x33>
    ae1a:	48 ff c2             	inc    rdx
    ae1d:	48 83 c1 04          	add    rcx,0x4
    ae21:	48 81 fa 00 01 00 00 	cmp    rdx,0x100
    ae28:	0f 85 b0 fe ff ff    	jne    acde <s343+0x2c>
    ae2e:	bf 00 00 00 00       	mov    edi,0x0
    ae33:	be 00 00 00 00       	mov    esi,0x0
    ae38:	ba 00 00 00 00       	mov    edx,0x0
    ae3d:	b9 00 00 00 00       	mov    ecx,0x0
    ae42:	41 b8 00 00 00 00    	mov    r8d,0x0
    ae48:	41 b9 00 00 00 00    	mov    r9d,0x0
    ae4e:	0f 57 c0             	xorps  xmm0,xmm0
    ae51:	68 00 00 00 00       	push   0x0
    ae56:	68 00 00 00 00       	push   0x0
    ae5b:	e8 00 00 00 00       	call   ae60 <s343+0x1ae>
    ae60:	0f 57 c9             	xorps  xmm1,xmm1
    ae63:	48 83 c4 10          	add    rsp,0x10
    ae67:	ff c3                	inc    ebx
    ae69:	81 fb 3c 0f 00 00    	cmp    ebx,0xf3c
    ae6f:	0f 85 5d fe ff ff    	jne    acd2 <s343+0x20>
    ae75:	49 83 c6 10          	add    r14,0x10
    ae79:	4c 89 f7             	mov    rdi,r14
    ae7c:	31 f6                	xor    esi,esi
    ae7e:	e8 00 00 00 00       	call   ae83 <s343+0x1d1>
    ae83:	bf 00 00 00 00       	mov    edi,0x0
    ae88:	48 83 c4 08          	add    rsp,0x8
    ae8c:	5b                   	pop    rbx
    ae8d:	41 5e                	pop    r14
    ae8f:	e9 00 00 00 00       	jmp    ae94 <s351>

000000000000ae94 <s351>:
    ae94:	41 56                	push   r14
    ae96:	53                   	push   rbx
    ae97:	50                   	push   rax
    ae98:	49 89 fe             	mov    r14,rdi
    ae9b:	bf 00 00 00 00       	mov    edi,0x0
    aea0:	e8 00 00 00 00       	call   aea5 <s351+0x11>
    aea5:	31 db                	xor    ebx,ebx
    aea7:	4c 89 f7             	mov    rdi,r14
    aeaa:	31 f6                	xor    esi,esi
    aeac:	e8 00 00 00 00       	call   aeb1 <s351+0x1d>
    aeb1:	f3 0f 10 0d 00 00 00 	movss  xmm1,DWORD PTR [rip+0x0]        # aeb9 <s351+0x25>
    aeb8:	00 
    aeb9:	f3 0f 11 4c 24 04    	movss  DWORD PTR [rsp+0x4],xmm1
    aebf:	31 c0                	xor    eax,eax
    aec1:	31 c9                	xor    ecx,ecx
    aec3:	48 c7 c2 ec ff ff ff 	mov    rdx,0xffffffffffffffec
    aeca:	f3 0f 10 84 10 00 00 	movss  xmm0,DWORD PTR [rax+rdx*1+0x0]
    aed1:	00 00 
    aed3:	f3 0f 59 c1          	mulss  xmm0,xmm1
    aed7:	f3 0f 58 84 10 00 00 	addss  xmm0,DWORD PTR [rax+rdx*1+0x0]
    aede:	00 00 
    aee0:	f3 0f 11 84 10 00 00 	movss  DWORD PTR [rax+rdx*1+0x0],xmm0
    aee7:	00 00 
    aee9:	48 83 c2 04          	add    rdx,0x4
    aeed:	75 db                	jne    aeca <s351+0x36>
    aeef:	48 8d 51 05          	lea    rdx,[rcx+0x5]
    aef3:	48 83 c0 14          	add    rax,0x14
    aef7:	48 81 f9 fb 7c 00 00 	cmp    rcx,0x7cfb
    aefe:	48 89 d1             	mov    rcx,rdx
    af01:	72 c0                	jb     aec3 <s351+0x2f>
    af03:	bf 00 00 00 00       	mov    edi,0x0
    af08:	be 00 00 00 00       	mov    esi,0x0
    af0d:	ba 00 00 00 00       	mov    edx,0x0
    af12:	b9 00 00 00 00       	mov    ecx,0x0
    af17:	41 b8 00 00 00 00    	mov    r8d,0x0
    af1d:	41 b9 00 00 00 00    	mov    r9d,0x0
    af23:	0f 57 c0             	xorps  xmm0,xmm0
    af26:	68 00 00 00 00       	push   0x0
    af2b:	68 00 00 00 00       	push   0x0
    af30:	e8 00 00 00 00       	call   af35 <s351+0xa1>
    af35:	f3 0f 10 4c 24 14    	movss  xmm1,DWORD PTR [rsp+0x14]
    af3b:	48 83 c4 10          	add    rsp,0x10
    af3f:	ff c3                	inc    ebx
    af41:	81 fb 00 35 0c 00    	cmp    ebx,0xc3500
    af47:	0f 85 72 ff ff ff    	jne    aebf <s351+0x2b>
    af4d:	49 83 c6 10          	add    r14,0x10
    af51:	4c 89 f7             	mov    rdi,r14
    af54:	31 f6                	xor    esi,esi
    af56:	e8 00 00 00 00       	call   af5b <s351+0xc7>
    af5b:	bf 00 00 00 00       	mov    edi,0x0
    af60:	48 83 c4 08          	add    rsp,0x8
    af64:	5b                   	pop    rbx
    af65:	41 5e                	pop    r14
    af67:	e9 00 00 00 00       	jmp    af6c <s1351>

000000000000af6c <s1351>:
    af6c:	41 56                	push   r14
    af6e:	53                   	push   rbx
    af6f:	50                   	push   rax
    af70:	49 89 fe             	mov    r14,rdi
    af73:	bf 00 00 00 00       	mov    edi,0x0
    af78:	e8 00 00 00 00       	call   af7d <s1351+0x11>
    af7d:	31 db                	xor    ebx,ebx
    af7f:	4c 89 f7             	mov    rdi,r14
    af82:	31 f6                	xor    esi,esi
    af84:	e8 00 00 00 00       	call   af89 <s1351+0x1d>
    af89:	31 c0                	xor    eax,eax
    af8b:	b9 00 00 00 00       	mov    ecx,0x0
    af90:	ba 00 00 00 00       	mov    edx,0x0
    af95:	be 00 00 00 00       	mov    esi,0x0
    af9a:	31 ff                	xor    edi,edi
    af9c:	f3 0f 10 04 ba       	movss  xmm0,DWORD PTR [rdx+rdi*4]
    afa1:	f3 0f 58 04 b9       	addss  xmm0,DWORD PTR [rcx+rdi*4]
    afa6:	f3 0f 11 04 be       	movss  DWORD PTR [rsi+rdi*4],xmm0
    afab:	48 ff c7             	inc    rdi
    afae:	48 83 ff 08          	cmp    rdi,0x8
    afb2:	75 e8                	jne    af9c <s1351+0x30>
    afb4:	48 83 c6 20          	add    rsi,0x20
    afb8:	48 83 c2 20          	add    rdx,0x20
    afbc:	48 83 c1 20          	add    rcx,0x20
    afc0:	83 c0 08             	add    eax,0x8
    afc3:	3d 00 7d 00 00       	cmp    eax,0x7d00
    afc8:	75 d0                	jne    af9a <s1351+0x2e>
    afca:	bf 00 00 00 00       	mov    edi,0x0
    afcf:	be 00 00 00 00       	mov    esi,0x0
    afd4:	ba 00 00 00 00       	mov    edx,0x0
    afd9:	b9 00 00 00 00       	mov    ecx,0x0
    afde:	41 b8 00 00 00 00    	mov    r8d,0x0
    afe4:	41 b9 00 00 00 00    	mov    r9d,0x0
    afea:	0f 57 c0             	xorps  xmm0,xmm0
    afed:	68 00 00 00 00       	push   0x0
    aff2:	68 00 00 00 00       	push   0x0
    aff7:	e8 00 00 00 00       	call   affc <s1351+0x90>
    affc:	48 83 c4 10          	add    rsp,0x10
    b000:	ff c3                	inc    ebx
    b002:	81 fb 00 35 0c 00    	cmp    ebx,0xc3500
    b008:	0f 85 7b ff ff ff    	jne    af89 <s1351+0x1d>
    b00e:	49 83 c6 10          	add    r14,0x10
    b012:	4c 89 f7             	mov    rdi,r14
    b015:	31 f6                	xor    esi,esi
    b017:	e8 00 00 00 00       	call   b01c <s1351+0xb0>
    b01c:	bf 00 00 00 00       	mov    edi,0x0
    b021:	48 83 c4 08          	add    rsp,0x8
    b025:	5b                   	pop    rbx
    b026:	41 5e                	pop    r14
    b028:	e9 00 00 00 00       	jmp    b02d <s352>

000000000000b02d <s352>:
    b02d:	41 56                	push   r14
    b02f:	53                   	push   rbx
    b030:	50                   	push   rax
    b031:	49 89 fe             	mov    r14,rdi
    b034:	bf 00 00 00 00       	mov    edi,0x0
    b039:	e8 00 00 00 00       	call   b03e <s352+0x11>
    b03e:	31 db                	xor    ebx,ebx
    b040:	4c 89 f7             	mov    rdi,r14
    b043:	31 f6                	xor    esi,esi
    b045:	e8 00 00 00 00       	call   b04a <s352+0x1d>
    b04a:	0f 57 c0             	xorps  xmm0,xmm0
    b04d:	31 c0                	xor    eax,eax
    b04f:	31 c9                	xor    ecx,ecx
    b051:	48 c7 c2 ec ff ff ff 	mov    rdx,0xffffffffffffffec
    b058:	f3 0f 10 8c 10 00 00 	movss  xmm1,DWORD PTR [rax+rdx*1+0x0]
    b05f:	00 00 
    b061:	f3 0f 59 8c 10 00 00 	mulss  xmm1,DWORD PTR [rax+rdx*1+0x0]
    b068:	00 00 
    b06a:	f3 0f 58 c1          	addss  xmm0,xmm1
    b06e:	48 83 c2 04          	add    rdx,0x4
    b072:	75 e4                	jne    b058 <s352+0x2b>
    b074:	48 8d 51 05          	lea    rdx,[rcx+0x5]
    b078:	48 83 c0 14          	add    rax,0x14
    b07c:	48 81 f9 fb 7c 00 00 	cmp    rcx,0x7cfb
    b083:	48 89 d1             	mov    rcx,rdx
    b086:	72 c9                	jb     b051 <s352+0x24>
    b088:	bf 00 00 00 00       	mov    edi,0x0
    b08d:	be 00 00 00 00       	mov    esi,0x0
    b092:	ba 00 00 00 00       	mov    edx,0x0
    b097:	b9 00 00 00 00       	mov    ecx,0x0
    b09c:	41 b8 00 00 00 00    	mov    r8d,0x0
    b0a2:	41 b9 00 00 00 00    	mov    r9d,0x0
    b0a8:	68 00 00 00 00       	push   0x0
    b0ad:	68 00 00 00 00       	push   0x0
    b0b2:	f3 0f 11 44 24 14    	movss  DWORD PTR [rsp+0x14],xmm0
    b0b8:	e8 00 00 00 00       	call   b0bd <s352+0x90>
    b0bd:	48 83 c4 10          	add    rsp,0x10
    b0c1:	ff c3                	inc    ebx
    b0c3:	81 fb 00 35 0c 00    	cmp    ebx,0xc3500
    b0c9:	0f 85 7b ff ff ff    	jne    b04a <s352+0x1d>
    b0cf:	49 83 c6 10          	add    r14,0x10
    b0d3:	4c 89 f7             	mov    rdi,r14
    b0d6:	31 f6                	xor    esi,esi
    b0d8:	e8 00 00 00 00       	call   b0dd <s352+0xb0>
    b0dd:	f3 0f 10 44 24 04    	movss  xmm0,DWORD PTR [rsp+0x4]
    b0e3:	48 83 c4 08          	add    rsp,0x8
    b0e7:	5b                   	pop    rbx
    b0e8:	41 5e                	pop    r14
    b0ea:	c3                   	ret    

000000000000b0eb <s353>:
    b0eb:	41 57                	push   r15
    b0ed:	41 56                	push   r14
    b0ef:	53                   	push   rbx
    b0f0:	48 83 ec 10          	sub    rsp,0x10
    b0f4:	49 89 fe             	mov    r14,rdi
    b0f7:	4c 8b 7f 20          	mov    r15,QWORD PTR [rdi+0x20]
    b0fb:	bf 00 00 00 00       	mov    edi,0x0
    b100:	e8 00 00 00 00       	call   b105 <s353+0x1a>
    b105:	31 db                	xor    ebx,ebx
    b107:	4c 89 f7             	mov    rdi,r14
    b10a:	31 f6                	xor    esi,esi
    b10c:	e8 00 00 00 00       	call   b111 <s353+0x26>
    b111:	f3 0f 10 0d 00 00 00 	movss  xmm1,DWORD PTR [rip+0x0]        # b119 <s353+0x2e>
    b118:	00 
    b119:	f3 0f 11 4c 24 0c    	movss  DWORD PTR [rsp+0xc],xmm1
    b11f:	4c 89 f8             	mov    rax,r15
    b122:	b9 00 00 00 00       	mov    ecx,0x0
    b127:	31 d2                	xor    edx,edx
    b129:	31 f6                	xor    esi,esi
    b12b:	48 63 3c b0          	movsxd rdi,DWORD PTR [rax+rsi*4]
    b12f:	f3 0f 10 04 bd 00 00 	movss  xmm0,DWORD PTR [rdi*4+0x0]
    b136:	00 00 
    b138:	f3 0f 59 c1          	mulss  xmm0,xmm1
    b13c:	f3 0f 58 04 b1       	addss  xmm0,DWORD PTR [rcx+rsi*4]
    b141:	f3 0f 11 04 b1       	movss  DWORD PTR [rcx+rsi*4],xmm0
    b146:	48 ff c6             	inc    rsi
    b149:	48 83 fe 05          	cmp    rsi,0x5
    b14d:	75 dc                	jne    b12b <s353+0x40>
    b14f:	48 8d 72 05          	lea    rsi,[rdx+0x5]
    b153:	48 83 c1 14          	add    rcx,0x14
    b157:	48 83 c0 14          	add    rax,0x14
    b15b:	48 81 fa fb 7c 00 00 	cmp    rdx,0x7cfb
    b162:	48 89 f2             	mov    rdx,rsi
    b165:	72 c2                	jb     b129 <s353+0x3e>
    b167:	bf 00 00 00 00       	mov    edi,0x0
    b16c:	be 00 00 00 00       	mov    esi,0x0
    b171:	ba 00 00 00 00       	mov    edx,0x0
    b176:	b9 00 00 00 00       	mov    ecx,0x0
    b17b:	41 b8 00 00 00 00    	mov    r8d,0x0
    b181:	41 b9 00 00 00 00    	mov    r9d,0x0
    b187:	0f 57 c0             	xorps  xmm0,xmm0
    b18a:	68 00 00 00 00       	push   0x0
    b18f:	68 00 00 00 00       	push   0x0
    b194:	e8 00 00 00 00       	call   b199 <s353+0xae>
    b199:	f3 0f 10 4c 24 1c    	movss  xmm1,DWORD PTR [rsp+0x1c]
    b19f:	48 83 c4 10          	add    rsp,0x10
    b1a3:	ff c3                	inc    ebx
    b1a5:	81 fb a0 86 01 00    	cmp    ebx,0x186a0
    b1ab:	0f 85 6e ff ff ff    	jne    b11f <s353+0x34>
    b1b1:	49 83 c6 10          	add    r14,0x10
    b1b5:	4c 89 f7             	mov    rdi,r14
    b1b8:	31 f6                	xor    esi,esi
    b1ba:	e8 00 00 00 00       	call   b1bf <s353+0xd4>
    b1bf:	bf 00 00 00 00       	mov    edi,0x0
    b1c4:	48 83 c4 10          	add    rsp,0x10
    b1c8:	5b                   	pop    rbx
    b1c9:	41 5e                	pop    r14
    b1cb:	41 5f                	pop    r15
    b1cd:	e9 00 00 00 00       	jmp    b1d2 <s421>

000000000000b1d2 <s421>:
    b1d2:	41 56                	push   r14
    b1d4:	53                   	push   rbx
    b1d5:	48 83 ec 78          	sub    rsp,0x78
    b1d9:	49 89 fe             	mov    r14,rdi
    b1dc:	bf 00 00 00 00       	mov    edi,0x0
    b1e1:	e8 00 00 00 00       	call   b1e6 <s421+0x14>
    b1e6:	31 db                	xor    ebx,ebx
    b1e8:	4c 89 f7             	mov    rdi,r14
    b1eb:	31 f6                	xor    esi,esi
    b1ed:	e8 00 00 00 00       	call   b1f2 <s421+0x20>
    b1f2:	48 c7 05 00 00 00 00 	mov    QWORD PTR [rip+0x0],0x0        # b1fd <s421+0x2b>
    b1f9:	00 00 00 00 
    b1fd:	b8 00 00 00 00       	mov    eax,0x0
    b202:	48 89 05 00 00 00 00 	mov    QWORD PTR [rip+0x0],rax        # b209 <s421+0x37>
    b209:	31 c9                	xor    ecx,ecx
    b20b:	31 d2                	xor    edx,edx
    b20d:	48 8d 72 01          	lea    rsi,[rdx+0x1]
    b211:	48 89 f7             	mov    rdi,rsi
    b214:	48 09 cf             	or     rdi,rcx
    b217:	48 89 7c d4 08       	mov    QWORD PTR [rsp+rdx*8+0x8],rdi
    b21c:	48 8d 3c b8          	lea    rdi,[rax+rdi*4]
    b220:	48 89 7c d4 40       	mov    QWORD PTR [rsp+rdx*8+0x40],rdi
    b225:	f3 0f 10 07          	movss  xmm0,DWORD PTR [rdi]
    b229:	48 09 ca             	or     rdx,rcx
    b22c:	f3 0f 58 04 95 00 00 	addss  xmm0,DWORD PTR [rdx*4+0x0]
    b233:	00 00 
    b235:	f3 0f 11 04 90       	movss  DWORD PTR [rax+rdx*4],xmm0
    b23a:	48 89 f2             	mov    rdx,rsi
    b23d:	48 83 fe 07          	cmp    rsi,0x7
    b241:	75 ca                	jne    b20d <s421+0x3b>
    b243:	48 8b 54 24 38       	mov    rdx,QWORD PTR [rsp+0x38]
    b248:	48 81 fa ff 7c 00 00 	cmp    rdx,0x7cff
    b24f:	74 1e                	je     b26f <s421+0x9d>
    b251:	48 8b 74 24 70       	mov    rsi,QWORD PTR [rsp+0x70]
    b256:	f3 0f 10 44 88 20    	movss  xmm0,DWORD PTR [rax+rcx*4+0x20]
    b25c:	48 83 c1 08          	add    rcx,0x8
    b260:	f3 0f 58 04 95 00 00 	addss  xmm0,DWORD PTR [rdx*4+0x0]
    b267:	00 00 
    b269:	f3 0f 11 06          	movss  DWORD PTR [rsi],xmm0
    b26d:	eb 9c                	jmp    b20b <s421+0x39>
    b26f:	bf 00 00 00 00       	mov    edi,0x0
    b274:	be 00 00 00 00       	mov    esi,0x0
    b279:	ba 00 00 00 00       	mov    edx,0x0
    b27e:	b9 00 00 00 00       	mov    ecx,0x0
    b283:	41 b8 00 00 00 00    	mov    r8d,0x0
    b289:	41 b9 00 00 00 00    	mov    r9d,0x0
    b28f:	f3 0f 10 05 00 00 00 	movss  xmm0,DWORD PTR [rip+0x0]        # b297 <s421+0xc5>
    b296:	00 
    b297:	68 00 00 00 00       	push   0x0
    b29c:	68 00 00 00 00       	push   0x0
    b2a1:	e8 00 00 00 00       	call   b2a6 <s421+0xd4>
    b2a6:	48 83 c4 10          	add    rsp,0x10
    b2aa:	ff c3                	inc    ebx
    b2ac:	81 fb 80 1a 06 00    	cmp    ebx,0x61a80
    b2b2:	74 0c                	je     b2c0 <s421+0xee>
    b2b4:	48 8b 05 00 00 00 00 	mov    rax,QWORD PTR [rip+0x0]        # b2bb <s421+0xe9>
    b2bb:	e9 42 ff ff ff       	jmp    b202 <s421+0x30>
    b2c0:	49 83 c6 10          	add    r14,0x10
    b2c4:	4c 89 f7             	mov    rdi,r14
    b2c7:	31 f6                	xor    esi,esi
    b2c9:	e8 00 00 00 00       	call   b2ce <s421+0xfc>
    b2ce:	bf 00 00 00 00       	mov    edi,0x0
    b2d3:	48 83 c4 78          	add    rsp,0x78
    b2d7:	5b                   	pop    rbx
    b2d8:	41 5e                	pop    r14
    b2da:	e9 00 00 00 00       	jmp    b2df <s1421>

000000000000b2df <s1421>:
    b2df:	41 56                	push   r14
    b2e1:	53                   	push   rbx
    b2e2:	50                   	push   rax
    b2e3:	49 89 fe             	mov    r14,rdi
    b2e6:	bf 00 00 00 00       	mov    edi,0x0
    b2eb:	e8 00 00 00 00       	call   b2f0 <s1421+0x11>
    b2f0:	31 db                	xor    ebx,ebx
    b2f2:	4c 89 f7             	mov    rdi,r14
    b2f5:	31 f6                	xor    esi,esi
    b2f7:	e8 00 00 00 00       	call   b2fc <s1421+0x1d>
    b2fc:	48 c7 05 00 00 00 00 	mov    QWORD PTR [rip+0x0],0x0        # b307 <s1421+0x28>
    b303:	00 00 00 00 
    b307:	b8 00 00 00 00       	mov    eax,0x0
    b30c:	31 c9                	xor    ecx,ecx
    b30e:	31 d2                	xor    edx,edx
    b310:	48 89 ce             	mov    rsi,rcx
    b313:	48 09 d6             	or     rsi,rdx
    b316:	f3 0f 10 04 b0       	movss  xmm0,DWORD PTR [rax+rsi*4]
    b31b:	f3 0f 58 04 b5 00 00 	addss  xmm0,DWORD PTR [rsi*4+0x0]
    b322:	00 00 
    b324:	f3 0f 11 04 b5 00 00 	movss  DWORD PTR [rsi*4+0x0],xmm0
    b32b:	00 00 
    b32d:	48 ff c2             	inc    rdx
    b330:	48 83 fa 08          	cmp    rdx,0x8
    b334:	75 da                	jne    b310 <s1421+0x31>
    b336:	48 83 c1 08          	add    rcx,0x8
    b33a:	48 81 f9 80 3e 00 00 	cmp    rcx,0x3e80
    b341:	75 cb                	jne    b30e <s1421+0x2f>
    b343:	bf 00 00 00 00       	mov    edi,0x0
    b348:	be 00 00 00 00       	mov    esi,0x0
    b34d:	ba 00 00 00 00       	mov    edx,0x0
    b352:	b9 00 00 00 00       	mov    ecx,0x0
    b357:	41 b8 00 00 00 00    	mov    r8d,0x0
    b35d:	41 b9 00 00 00 00    	mov    r9d,0x0
    b363:	f3 0f 10 05 00 00 00 	movss  xmm0,DWORD PTR [rip+0x0]        # b36b <s1421+0x8c>
    b36a:	00 
    b36b:	68 00 00 00 00       	push   0x0
    b370:	68 00 00 00 00       	push   0x0
    b375:	e8 00 00 00 00       	call   b37a <s1421+0x9b>
    b37a:	48 83 c4 10          	add    rsp,0x10
    b37e:	ff c3                	inc    ebx
    b380:	81 fb 00 35 0c 00    	cmp    ebx,0xc3500
    b386:	74 0c                	je     b394 <s1421+0xb5>
    b388:	48 8b 05 00 00 00 00 	mov    rax,QWORD PTR [rip+0x0]        # b38f <s1421+0xb0>
    b38f:	e9 78 ff ff ff       	jmp    b30c <s1421+0x2d>
    b394:	49 83 c6 10          	add    r14,0x10
    b398:	4c 89 f7             	mov    rdi,r14
    b39b:	31 f6                	xor    esi,esi
    b39d:	e8 00 00 00 00       	call   b3a2 <s1421+0xc3>
    b3a2:	bf 00 00 00 00       	mov    edi,0x0
    b3a7:	48 83 c4 08          	add    rsp,0x8
    b3ab:	5b                   	pop    rbx
    b3ac:	41 5e                	pop    r14
    b3ae:	e9 00 00 00 00       	jmp    b3b3 <s422>

000000000000b3b3 <s422>:
    b3b3:	41 57                	push   r15
    b3b5:	41 56                	push   r14
    b3b7:	53                   	push   rbx
    b3b8:	49 89 fe             	mov    r14,rdi
    b3bb:	bf 00 00 00 00       	mov    edi,0x0
    b3c0:	e8 00 00 00 00       	call   b3c5 <s422+0x12>
    b3c5:	45 31 ff             	xor    r15d,r15d
    b3c8:	4c 89 f7             	mov    rdi,r14
    b3cb:	31 f6                	xor    esi,esi
    b3cd:	e8 00 00 00 00       	call   b3d2 <s422+0x1f>
    b3d2:	48 c7 05 00 00 00 00 	mov    QWORD PTR [rip+0x0],0x0        # b3dd <s422+0x2a>
    b3d9:	00 00 00 00 
    b3dd:	b8 00 00 00 00       	mov    eax,0x0
    b3e2:	b9 00 00 00 00       	mov    ecx,0x0
    b3e7:	31 f6                	xor    esi,esi
    b3e9:	48 8d 5e 08          	lea    rbx,[rsi+0x8]
    b3ed:	31 ff                	xor    edi,edi
    b3ef:	f3 0f 10 04 b9       	movss  xmm0,DWORD PTR [rcx+rdi*4]
    b3f4:	48 89 f2             	mov    rdx,rsi
    b3f7:	48 09 fa             	or     rdx,rdi
    b3fa:	f3 0f 58 04 95 00 00 	addss  xmm0,DWORD PTR [rdx*4+0x0]
    b401:	00 00 
    b403:	f3 0f 11 04 90       	movss  DWORD PTR [rax+rdx*4],xmm0
    b408:	48 ff c7             	inc    rdi
    b40b:	48 83 ff 08          	cmp    rdi,0x8
    b40f:	75 de                	jne    b3ef <s422+0x3c>
    b411:	48 83 c1 20          	add    rcx,0x20
    b415:	48 89 de             	mov    rsi,rbx
    b418:	48 81 fb 00 7d 00 00 	cmp    rbx,0x7d00
    b41f:	75 c8                	jne    b3e9 <s422+0x36>
    b421:	bf 00 00 00 00       	mov    edi,0x0
    b426:	be 00 00 00 00       	mov    esi,0x0
    b42b:	ba 00 00 00 00       	mov    edx,0x0
    b430:	b9 00 00 00 00       	mov    ecx,0x0
    b435:	41 b8 00 00 00 00    	mov    r8d,0x0
    b43b:	41 b9 00 00 00 00    	mov    r9d,0x0
    b441:	0f 57 c0             	xorps  xmm0,xmm0
    b444:	68 00 00 00 00       	push   0x0
    b449:	68 00 00 00 00       	push   0x0
    b44e:	e8 00 00 00 00       	call   b453 <s422+0xa0>
    b453:	48 83 c4 10          	add    rsp,0x10
    b457:	41 ff c7             	inc    r15d
    b45a:	41 81 ff 00 35 0c 00 	cmp    r15d,0xc3500
    b461:	74 0c                	je     b46f <s422+0xbc>
    b463:	48 8b 05 00 00 00 00 	mov    rax,QWORD PTR [rip+0x0]        # b46a <s422+0xb7>
    b46a:	e9 73 ff ff ff       	jmp    b3e2 <s422+0x2f>
    b46f:	49 83 c6 10          	add    r14,0x10
    b473:	4c 89 f7             	mov    rdi,r14
    b476:	31 f6                	xor    esi,esi
    b478:	e8 00 00 00 00       	call   b47d <s422+0xca>
    b47d:	bf 00 00 00 00       	mov    edi,0x0
    b482:	5b                   	pop    rbx
    b483:	41 5e                	pop    r14
    b485:	41 5f                	pop    r15
    b487:	e9 00 00 00 00       	jmp    b48c <s423>

000000000000b48c <s423>:
    b48c:	41 56                	push   r14
    b48e:	53                   	push   rbx
    b48f:	48 83 ec 38          	sub    rsp,0x38
    b493:	49 89 fe             	mov    r14,rdi
    b496:	48 c7 05 00 00 00 00 	mov    QWORD PTR [rip+0x0],0x0        # b4a1 <s423+0x15>
    b49d:	00 00 00 00 
    b4a1:	bf 00 00 00 00       	mov    edi,0x0
    b4a6:	e8 00 00 00 00       	call   b4ab <s423+0x1f>
    b4ab:	31 db                	xor    ebx,ebx
    b4ad:	4c 89 f7             	mov    rdi,r14
    b4b0:	31 f6                	xor    esi,esi
    b4b2:	e8 00 00 00 00       	call   b4b7 <s423+0x2b>
    b4b7:	48 8b 05 00 00 00 00 	mov    rax,QWORD PTR [rip+0x0]        # b4be <s423+0x32>
    b4be:	31 c9                	xor    ecx,ecx
    b4c0:	31 d2                	xor    edx,edx
    b4c2:	48 89 ce             	mov    rsi,rcx
    b4c5:	48 09 d6             	or     rsi,rdx
    b4c8:	f3 0f 10 04 b0       	movss  xmm0,DWORD PTR [rax+rsi*4]
    b4cd:	f3 0f 58 04 b5 00 00 	addss  xmm0,DWORD PTR [rsi*4+0x0]
    b4d4:	00 00 
    b4d6:	48 8d 72 01          	lea    rsi,[rdx+0x1]
    b4da:	48 89 f7             	mov    rdi,rsi
    b4dd:	48 09 cf             	or     rdi,rcx
    b4e0:	48 89 3c d4          	mov    QWORD PTR [rsp+rdx*8],rdi
    b4e4:	f3 0f 11 04 bd 00 00 	movss  DWORD PTR [rdi*4+0x0],xmm0
    b4eb:	00 00 
    b4ed:	48 89 f2             	mov    rdx,rsi
    b4f0:	48 83 fe 07          	cmp    rsi,0x7
    b4f4:	75 cc                	jne    b4c2 <s423+0x36>
    b4f6:	48 8b 54 24 30       	mov    rdx,QWORD PTR [rsp+0x30]
    b4fb:	48 81 fa ff 7c 00 00 	cmp    rdx,0x7cff
    b502:	74 1d                	je     b521 <s423+0x95>
    b504:	f3 0f 10 04 90       	movss  xmm0,DWORD PTR [rax+rdx*4]
    b509:	f3 0f 58 04 95 00 00 	addss  xmm0,DWORD PTR [rdx*4+0x0]
    b510:	00 00 
    b512:	f3 0f 11 04 8d 00 00 	movss  DWORD PTR [rcx*4+0x0],xmm0
    b519:	00 00 
    b51b:	48 83 c1 08          	add    rcx,0x8
    b51f:	eb 9f                	jmp    b4c0 <s423+0x34>
    b521:	bf 00 00 00 00       	mov    edi,0x0
    b526:	be 00 00 00 00       	mov    esi,0x0
    b52b:	ba 00 00 00 00       	mov    edx,0x0
    b530:	b9 00 00 00 00       	mov    ecx,0x0
    b535:	41 b8 00 00 00 00    	mov    r8d,0x0
    b53b:	41 b9 00 00 00 00    	mov    r9d,0x0
    b541:	f3 0f 10 05 00 00 00 	movss  xmm0,DWORD PTR [rip+0x0]        # b549 <s423+0xbd>
    b548:	00 
    b549:	68 00 00 00 00       	push   0x0
    b54e:	68 00 00 00 00       	push   0x0
    b553:	e8 00 00 00 00       	call   b558 <s423+0xcc>
    b558:	48 83 c4 10          	add    rsp,0x10
    b55c:	ff c3                	inc    ebx
    b55e:	81 fb 80 1a 06 00    	cmp    ebx,0x61a80
    b564:	0f 85 4d ff ff ff    	jne    b4b7 <s423+0x2b>
    b56a:	49 83 c6 10          	add    r14,0x10
    b56e:	4c 89 f7             	mov    rdi,r14
    b571:	31 f6                	xor    esi,esi
    b573:	e8 00 00 00 00       	call   b578 <s423+0xec>
    b578:	bf 00 00 00 00       	mov    edi,0x0
    b57d:	48 83 c4 38          	add    rsp,0x38
    b581:	5b                   	pop    rbx
    b582:	41 5e                	pop    r14
    b584:	e9 00 00 00 00       	jmp    b589 <s424>

000000000000b589 <s424>:
    b589:	41 56                	push   r14
    b58b:	53                   	push   rbx
    b58c:	48 83 ec 38          	sub    rsp,0x38
    b590:	49 89 fe             	mov    r14,rdi
    b593:	48 c7 05 00 00 00 00 	mov    QWORD PTR [rip+0x0],0x0        # b59e <s424+0x15>
    b59a:	00 00 00 00 
    b59e:	bf 00 00 00 00       	mov    edi,0x0
    b5a3:	e8 00 00 00 00       	call   b5a8 <s424+0x1f>
    b5a8:	31 db                	xor    ebx,ebx
    b5aa:	4c 89 f7             	mov    rdi,r14
    b5ad:	31 f6                	xor    esi,esi
    b5af:	e8 00 00 00 00       	call   b5b4 <s424+0x2b>
    b5b4:	48 8b 05 00 00 00 00 	mov    rax,QWORD PTR [rip+0x0]        # b5bb <s424+0x32>
    b5bb:	31 c9                	xor    ecx,ecx
    b5bd:	31 d2                	xor    edx,edx
    b5bf:	48 89 ce             	mov    rsi,rcx
    b5c2:	48 09 d6             	or     rsi,rdx
    b5c5:	f3 0f 10 04 b5 00 00 	movss  xmm0,DWORD PTR [rsi*4+0x0]
    b5cc:	00 00 
    b5ce:	f3 0f 58 04 b5 00 00 	addss  xmm0,DWORD PTR [rsi*4+0x0]
    b5d5:	00 00 
    b5d7:	48 8d 72 01          	lea    rsi,[rdx+0x1]
    b5db:	48 89 f7             	mov    rdi,rsi
    b5de:	48 09 cf             	or     rdi,rcx
    b5e1:	48 89 3c d4          	mov    QWORD PTR [rsp+rdx*8],rdi
    b5e5:	f3 0f 11 04 b8       	movss  DWORD PTR [rax+rdi*4],xmm0
    b5ea:	48 89 f2             	mov    rdx,rsi
    b5ed:	48 83 fe 07          	cmp    rsi,0x7
    b5f1:	75 cc                	jne    b5bf <s424+0x36>
    b5f3:	48 8b 54 24 30       	mov    rdx,QWORD PTR [rsp+0x30]
    b5f8:	48 81 fa ff 7c 00 00 	cmp    rdx,0x7cff
    b5ff:	74 1e                	je     b61f <s424+0x96>
    b601:	f3 0f 10 04 95 00 00 	movss  xmm0,DWORD PTR [rdx*4+0x0]
    b608:	00 00 
    b60a:	f3 0f 58 04 95 00 00 	addss  xmm0,DWORD PTR [rdx*4+0x0]
    b611:	00 00 
    b613:	f3 0f 11 44 88 20    	movss  DWORD PTR [rax+rcx*4+0x20],xmm0
    b619:	48 83 c1 08          	add    rcx,0x8
    b61d:	eb 9e                	jmp    b5bd <s424+0x34>
    b61f:	bf 00 00 00 00       	mov    edi,0x0
    b624:	be 00 00 00 00       	mov    esi,0x0
    b629:	ba 00 00 00 00       	mov    edx,0x0
    b62e:	b9 00 00 00 00       	mov    ecx,0x0
    b633:	41 b8 00 00 00 00    	mov    r8d,0x0
    b639:	41 b9 00 00 00 00    	mov    r9d,0x0
    b63f:	f3 0f 10 05 00 00 00 	movss  xmm0,DWORD PTR [rip+0x0]        # b647 <s424+0xbe>
    b646:	00 
    b647:	68 00 00 00 00       	push   0x0
    b64c:	68 00 00 00 00       	push   0x0
    b651:	e8 00 00 00 00       	call   b656 <s424+0xcd>
    b656:	48 83 c4 10          	add    rsp,0x10
    b65a:	ff c3                	inc    ebx
    b65c:	81 fb 80 1a 06 00    	cmp    ebx,0x61a80
    b662:	0f 85 4c ff ff ff    	jne    b5b4 <s424+0x2b>
    b668:	49 83 c6 10          	add    r14,0x10
    b66c:	4c 89 f7             	mov    rdi,r14
    b66f:	31 f6                	xor    esi,esi
    b671:	e8 00 00 00 00       	call   b676 <s424+0xed>
    b676:	bf 00 00 00 00       	mov    edi,0x0
    b67b:	48 83 c4 38          	add    rsp,0x38
    b67f:	5b                   	pop    rbx
    b680:	41 5e                	pop    r14
    b682:	e9 00 00 00 00       	jmp    b687 <s431>

000000000000b687 <s431>:
    b687:	41 56                	push   r14
    b689:	53                   	push   rbx
    b68a:	50                   	push   rax
    b68b:	49 89 fe             	mov    r14,rdi
    b68e:	bf 00 00 00 00       	mov    edi,0x0
    b693:	e8 00 00 00 00       	call   b698 <s431+0x11>
    b698:	31 db                	xor    ebx,ebx
    b69a:	4c 89 f7             	mov    rdi,r14
    b69d:	31 f6                	xor    esi,esi
    b69f:	e8 00 00 00 00       	call   b6a4 <s431+0x1d>
    b6a4:	31 c0                	xor    eax,eax
    b6a6:	31 c9                	xor    ecx,ecx
    b6a8:	48 89 c2             	mov    rdx,rax
    b6ab:	48 09 ca             	or     rdx,rcx
    b6ae:	f3 0f 10 04 95 00 00 	movss  xmm0,DWORD PTR [rdx*4+0x0]
    b6b5:	00 00 
    b6b7:	f3 0f 58 04 95 00 00 	addss  xmm0,DWORD PTR [rdx*4+0x0]
    b6be:	00 00 
    b6c0:	f3 0f 11 04 95 00 00 	movss  DWORD PTR [rdx*4+0x0],xmm0
    b6c7:	00 00 
    b6c9:	48 ff c1             	inc    rcx
    b6cc:	48 83 f9 08          	cmp    rcx,0x8
    b6d0:	75 d6                	jne    b6a8 <s431+0x21>
    b6d2:	48 83 c0 08          	add    rax,0x8
    b6d6:	48 3d 00 7d 00 00    	cmp    rax,0x7d00
    b6dc:	75 c8                	jne    b6a6 <s431+0x1f>
    b6de:	bf 00 00 00 00       	mov    edi,0x0
    b6e3:	be 00 00 00 00       	mov    esi,0x0
    b6e8:	ba 00 00 00 00       	mov    edx,0x0
    b6ed:	b9 00 00 00 00       	mov    ecx,0x0
    b6f2:	41 b8 00 00 00 00    	mov    r8d,0x0
    b6f8:	41 b9 00 00 00 00    	mov    r9d,0x0
    b6fe:	0f 57 c0             	xorps  xmm0,xmm0
    b701:	68 00 00 00 00       	push   0x0
    b706:	68 00 00 00 00       	push   0x0
    b70b:	e8 00 00 00 00       	call   b710 <s431+0x89>
    b710:	48 83 c4 10          	add    rsp,0x10
    b714:	ff c3                	inc    ebx
    b716:	81 fb 40 42 0f 00    	cmp    ebx,0xf4240
    b71c:	75 86                	jne    b6a4 <s431+0x1d>
    b71e:	49 83 c6 10          	add    r14,0x10
    b722:	4c 89 f7             	mov    rdi,r14
    b725:	31 f6                	xor    esi,esi
    b727:	e8 00 00 00 00       	call   b72c <s431+0xa5>
    b72c:	bf 00 00 00 00       	mov    edi,0x0
    b731:	48 83 c4 08          	add    rsp,0x8
    b735:	5b                   	pop    rbx
    b736:	41 5e                	pop    r14
    b738:	e9 00 00 00 00       	jmp    b73d <s441>

000000000000b73d <s441>:
    b73d:	41 56                	push   r14
    b73f:	53                   	push   rbx
    b740:	50                   	push   rax
    b741:	49 89 fe             	mov    r14,rdi
    b744:	bf 00 00 00 00       	mov    edi,0x0
    b749:	e8 00 00 00 00       	call   b74e <s441+0x11>
    b74e:	31 db                	xor    ebx,ebx
    b750:	4c 89 f7             	mov    rdi,r14
    b753:	31 f6                	xor    esi,esi
    b755:	e8 00 00 00 00       	call   b75a <s441+0x1d>
    b75a:	0f 57 c9             	xorps  xmm1,xmm1
    b75d:	48 c7 c0 00 0c fe ff 	mov    rax,0xfffffffffffe0c00
    b764:	f3 0f 10 80 00 00 00 	movss  xmm0,DWORD PTR [rax+0x0]
    b76b:	00 
    b76c:	0f 2e c8             	ucomiss xmm1,xmm0
    b76f:	76 12                	jbe    b783 <s441+0x46>
    b771:	f3 0f 10 80 00 00 00 	movss  xmm0,DWORD PTR [rax+0x0]
    b778:	00 
    b779:	f3 0f 59 80 00 00 00 	mulss  xmm0,DWORD PTR [rax+0x0]
    b780:	00 
    b781:	eb 1d                	jmp    b7a0 <s441+0x63>
    b783:	0f 2e c1             	ucomiss xmm0,xmm1
    b786:	75 0c                	jne    b794 <s441+0x57>
    b788:	7a 0a                	jp     b794 <s441+0x57>
    b78a:	f3 0f 10 80 00 00 00 	movss  xmm0,DWORD PTR [rax+0x0]
    b791:	00 
    b792:	eb 08                	jmp    b79c <s441+0x5f>
    b794:	f3 0f 10 80 00 00 00 	movss  xmm0,DWORD PTR [rax+0x0]
    b79b:	00 
    b79c:	f3 0f 59 c0          	mulss  xmm0,xmm0
    b7a0:	f3 0f 58 80 00 00 00 	addss  xmm0,DWORD PTR [rax+0x0]
    b7a7:	00 
    b7a8:	f3 0f 11 80 00 00 00 	movss  DWORD PTR [rax+0x0],xmm0
    b7af:	00 
    b7b0:	f3 0f 10 80 00 00 00 	movss  xmm0,DWORD PTR [rax+0x0]
    b7b7:	00 
    b7b8:	0f 2e c8             	ucomiss xmm1,xmm0
    b7bb:	76 12                	jbe    b7cf <s441+0x92>
    b7bd:	f3 0f 10 80 00 00 00 	movss  xmm0,DWORD PTR [rax+0x0]
    b7c4:	00 
    b7c5:	f3 0f 59 80 00 00 00 	mulss  xmm0,DWORD PTR [rax+0x0]
    b7cc:	00 
    b7cd:	eb 1d                	jmp    b7ec <s441+0xaf>
    b7cf:	0f 2e c1             	ucomiss xmm0,xmm1
    b7d2:	75 0c                	jne    b7e0 <s441+0xa3>
    b7d4:	7a 0a                	jp     b7e0 <s441+0xa3>
    b7d6:	f3 0f 10 80 00 00 00 	movss  xmm0,DWORD PTR [rax+0x0]
    b7dd:	00 
    b7de:	eb 08                	jmp    b7e8 <s441+0xab>
    b7e0:	f3 0f 10 80 00 00 00 	movss  xmm0,DWORD PTR [rax+0x0]
    b7e7:	00 
    b7e8:	f3 0f 59 c0          	mulss  xmm0,xmm0
    b7ec:	f3 0f 58 80 00 00 00 	addss  xmm0,DWORD PTR [rax+0x0]
    b7f3:	00 
    b7f4:	f3 0f 11 80 00 00 00 	movss  DWORD PTR [rax+0x0],xmm0
    b7fb:	00 
    b7fc:	f3 0f 10 80 00 00 00 	movss  xmm0,DWORD PTR [rax+0x0]
    b803:	00 
    b804:	0f 2e c8             	ucomiss xmm1,xmm0
    b807:	76 12                	jbe    b81b <s441+0xde>
    b809:	f3 0f 10 80 00 00 00 	movss  xmm0,DWORD PTR [rax+0x0]
    b810:	00 
    b811:	f3 0f 59 80 00 00 00 	mulss  xmm0,DWORD PTR [rax+0x0]
    b818:	00 
    b819:	eb 1d                	jmp    b838 <s441+0xfb>
    b81b:	0f 2e c1             	ucomiss xmm0,xmm1
    b81e:	75 0c                	jne    b82c <s441+0xef>
    b820:	7a 0a                	jp     b82c <s441+0xef>
    b822:	f3 0f 10 80 00 00 00 	movss  xmm0,DWORD PTR [rax+0x0]
    b829:	00 
    b82a:	eb 08                	jmp    b834 <s441+0xf7>
    b82c:	f3 0f 10 80 00 00 00 	movss  xmm0,DWORD PTR [rax+0x0]
    b833:	00 
    b834:	f3 0f 59 c0          	mulss  xmm0,xmm0
    b838:	f3 0f 58 80 00 00 00 	addss  xmm0,DWORD PTR [rax+0x0]
    b83f:	00 
    b840:	f3 0f 11 80 00 00 00 	movss  DWORD PTR [rax+0x0],xmm0
    b847:	00 
    b848:	f3 0f 10 80 00 00 00 	movss  xmm0,DWORD PTR [rax+0x0]
    b84f:	00 
    b850:	0f 2e c8             	ucomiss xmm1,xmm0
    b853:	76 12                	jbe    b867 <s441+0x12a>
    b855:	f3 0f 10 80 00 00 00 	movss  xmm0,DWORD PTR [rax+0x0]
    b85c:	00 
    b85d:	f3 0f 59 80 00 00 00 	mulss  xmm0,DWORD PTR [rax+0x0]
    b864:	00 
    b865:	eb 1d                	jmp    b884 <s441+0x147>
    b867:	0f 2e c1             	ucomiss xmm0,xmm1
    b86a:	75 0c                	jne    b878 <s441+0x13b>
    b86c:	7a 0a                	jp     b878 <s441+0x13b>
    b86e:	f3 0f 10 80 00 00 00 	movss  xmm0,DWORD PTR [rax+0x0]
    b875:	00 
    b876:	eb 08                	jmp    b880 <s441+0x143>
    b878:	f3 0f 10 80 00 00 00 	movss  xmm0,DWORD PTR [rax+0x0]
    b87f:	00 
    b880:	f3 0f 59 c0          	mulss  xmm0,xmm0
    b884:	f3 0f 58 80 00 00 00 	addss  xmm0,DWORD PTR [rax+0x0]
    b88b:	00 
    b88c:	f3 0f 11 80 00 00 00 	movss  DWORD PTR [rax+0x0],xmm0
    b893:	00 
    b894:	f3 0f 10 80 00 00 00 	movss  xmm0,DWORD PTR [rax+0x0]
    b89b:	00 
    b89c:	0f 2e c8             	ucomiss xmm1,xmm0
    b89f:	76 12                	jbe    b8b3 <s441+0x176>
    b8a1:	f3 0f 10 80 00 00 00 	movss  xmm0,DWORD PTR [rax+0x0]
    b8a8:	00 
    b8a9:	f3 0f 59 80 00 00 00 	mulss  xmm0,DWORD PTR [rax+0x0]
    b8b0:	00 
    b8b1:	eb 1d                	jmp    b8d0 <s441+0x193>
    b8b3:	0f 2e c1             	ucomiss xmm0,xmm1
    b8b6:	75 0c                	jne    b8c4 <s441+0x187>
    b8b8:	7a 0a                	jp     b8c4 <s441+0x187>
    b8ba:	f3 0f 10 80 00 00 00 	movss  xmm0,DWORD PTR [rax+0x0]
    b8c1:	00 
    b8c2:	eb 08                	jmp    b8cc <s441+0x18f>
    b8c4:	f3 0f 10 80 00 00 00 	movss  xmm0,DWORD PTR [rax+0x0]
    b8cb:	00 
    b8cc:	f3 0f 59 c0          	mulss  xmm0,xmm0
    b8d0:	f3 0f 58 80 00 00 00 	addss  xmm0,DWORD PTR [rax+0x0]
    b8d7:	00 
    b8d8:	f3 0f 11 80 00 00 00 	movss  DWORD PTR [rax+0x0],xmm0
    b8df:	00 
    b8e0:	f3 0f 10 80 00 00 00 	movss  xmm0,DWORD PTR [rax+0x0]
    b8e7:	00 
    b8e8:	0f 2e c8             	ucomiss xmm1,xmm0
    b8eb:	76 12                	jbe    b8ff <s441+0x1c2>
    b8ed:	f3 0f 10 80 00 00 00 	movss  xmm0,DWORD PTR [rax+0x0]
    b8f4:	00 
    b8f5:	f3 0f 59 80 00 00 00 	mulss  xmm0,DWORD PTR [rax+0x0]
    b8fc:	00 
    b8fd:	eb 1d                	jmp    b91c <s441+0x1df>
    b8ff:	0f 2e c1             	ucomiss xmm0,xmm1
    b902:	75 0c                	jne    b910 <s441+0x1d3>
    b904:	7a 0a                	jp     b910 <s441+0x1d3>
    b906:	f3 0f 10 80 00 00 00 	movss  xmm0,DWORD PTR [rax+0x0]
    b90d:	00 
    b90e:	eb 08                	jmp    b918 <s441+0x1db>
    b910:	f3 0f 10 80 00 00 00 	movss  xmm0,DWORD PTR [rax+0x0]
    b917:	00 
    b918:	f3 0f 59 c0          	mulss  xmm0,xmm0
    b91c:	f3 0f 58 80 00 00 00 	addss  xmm0,DWORD PTR [rax+0x0]
    b923:	00 
    b924:	f3 0f 11 80 00 00 00 	movss  DWORD PTR [rax+0x0],xmm0
    b92b:	00 
    b92c:	f3 0f 10 80 00 00 00 	movss  xmm0,DWORD PTR [rax+0x0]
    b933:	00 
    b934:	0f 2e c8             	ucomiss xmm1,xmm0
    b937:	76 12                	jbe    b94b <s441+0x20e>
    b939:	f3 0f 10 80 00 00 00 	movss  xmm0,DWORD PTR [rax+0x0]
    b940:	00 
    b941:	f3 0f 59 80 00 00 00 	mulss  xmm0,DWORD PTR [rax+0x0]
    b948:	00 
    b949:	eb 1d                	jmp    b968 <s441+0x22b>
    b94b:	0f 2e c1             	ucomiss xmm0,xmm1
    b94e:	75 0c                	jne    b95c <s441+0x21f>
    b950:	7a 0a                	jp     b95c <s441+0x21f>
    b952:	f3 0f 10 80 00 00 00 	movss  xmm0,DWORD PTR [rax+0x0]
    b959:	00 
    b95a:	eb 08                	jmp    b964 <s441+0x227>
    b95c:	f3 0f 10 80 00 00 00 	movss  xmm0,DWORD PTR [rax+0x0]
    b963:	00 
    b964:	f3 0f 59 c0          	mulss  xmm0,xmm0
    b968:	f3 0f 58 80 00 00 00 	addss  xmm0,DWORD PTR [rax+0x0]
    b96f:	00 
    b970:	f3 0f 11 80 00 00 00 	movss  DWORD PTR [rax+0x0],xmm0
    b977:	00 
    b978:	f3 0f 10 80 00 00 00 	movss  xmm0,DWORD PTR [rax+0x0]
    b97f:	00 
    b980:	0f 2e c8             	ucomiss xmm1,xmm0
    b983:	76 12                	jbe    b997 <s441+0x25a>
    b985:	f3 0f 10 80 00 00 00 	movss  xmm0,DWORD PTR [rax+0x0]
    b98c:	00 
    b98d:	f3 0f 59 80 00 00 00 	mulss  xmm0,DWORD PTR [rax+0x0]
    b994:	00 
    b995:	eb 1d                	jmp    b9b4 <s441+0x277>
    b997:	0f 2e c1             	ucomiss xmm0,xmm1
    b99a:	75 0c                	jne    b9a8 <s441+0x26b>
    b99c:	7a 0a                	jp     b9a8 <s441+0x26b>
    b99e:	f3 0f 10 80 00 00 00 	movss  xmm0,DWORD PTR [rax+0x0]
    b9a5:	00 
    b9a6:	eb 08                	jmp    b9b0 <s441+0x273>
    b9a8:	f3 0f 10 80 00 00 00 	movss  xmm0,DWORD PTR [rax+0x0]
    b9af:	00 
    b9b0:	f3 0f 59 c0          	mulss  xmm0,xmm0
    b9b4:	f3 0f 58 80 00 00 00 	addss  xmm0,DWORD PTR [rax+0x0]
    b9bb:	00 
    b9bc:	f3 0f 11 80 00 00 00 	movss  DWORD PTR [rax+0x0],xmm0
    b9c3:	00 
    b9c4:	48 83 c0 20          	add    rax,0x20
    b9c8:	0f 85 96 fd ff ff    	jne    b764 <s441+0x27>
    b9ce:	bf 00 00 00 00       	mov    edi,0x0
    b9d3:	be 00 00 00 00       	mov    esi,0x0
    b9d8:	ba 00 00 00 00       	mov    edx,0x0
    b9dd:	b9 00 00 00 00       	mov    ecx,0x0
    b9e2:	41 b8 00 00 00 00    	mov    r8d,0x0
    b9e8:	41 b9 00 00 00 00    	mov    r9d,0x0
    b9ee:	0f 57 c0             	xorps  xmm0,xmm0
    b9f1:	68 00 00 00 00       	push   0x0
    b9f6:	68 00 00 00 00       	push   0x0
    b9fb:	e8 00 00 00 00       	call   ba00 <s441+0x2c3>
    ba00:	0f 57 c9             	xorps  xmm1,xmm1
    ba03:	48 83 c4 10          	add    rsp,0x10
    ba07:	ff c3                	inc    ebx
    ba09:	81 fb a0 86 01 00    	cmp    ebx,0x186a0
    ba0f:	0f 85 48 fd ff ff    	jne    b75d <s441+0x20>
    ba15:	49 83 c6 10          	add    r14,0x10
    ba19:	4c 89 f7             	mov    rdi,r14
    ba1c:	31 f6                	xor    esi,esi
    ba1e:	e8 00 00 00 00       	call   ba23 <s441+0x2e6>
    ba23:	bf 00 00 00 00       	mov    edi,0x0
    ba28:	48 83 c4 08          	add    rsp,0x8
    ba2c:	5b                   	pop    rbx
    ba2d:	41 5e                	pop    r14
    ba2f:	e9 00 00 00 00       	jmp    ba34 <s442>

000000000000ba34 <s442>:
    ba34:	41 56                	push   r14
    ba36:	53                   	push   rbx
    ba37:	50                   	push   rax
    ba38:	49 89 fe             	mov    r14,rdi
    ba3b:	bf 00 00 00 00       	mov    edi,0x0
    ba40:	e8 00 00 00 00       	call   ba45 <s442+0x11>
    ba45:	31 db                	xor    ebx,ebx
    ba47:	4c 89 f7             	mov    rdi,r14
    ba4a:	31 f6                	xor    esi,esi
    ba4c:	e8 00 00 00 00       	call   ba51 <s442+0x1d>
    ba51:	48 c7 c0 00 0c fe ff 	mov    rax,0xfffffffffffe0c00
    ba58:	8b 88 00 00 00 00    	mov    ecx,DWORD PTR [rax+0x0]
    ba5e:	83 f9 02             	cmp    ecx,0x2
    ba61:	74 1e                	je     ba81 <s442+0x4d>
    ba63:	83 f9 03             	cmp    ecx,0x3
    ba66:	74 0f                	je     ba77 <s442+0x43>
    ba68:	83 f9 04             	cmp    ecx,0x4
    ba6b:	75 1e                	jne    ba8b <s442+0x57>
    ba6d:	f3 0f 10 80 00 00 00 	movss  xmm0,DWORD PTR [rax+0x0]
    ba74:	00 
    ba75:	eb 1c                	jmp    ba93 <s442+0x5f>
    ba77:	f3 0f 10 80 00 00 00 	movss  xmm0,DWORD PTR [rax+0x0]
    ba7e:	00 
    ba7f:	eb 12                	jmp    ba93 <s442+0x5f>
    ba81:	f3 0f 10 80 00 00 00 	movss  xmm0,DWORD PTR [rax+0x0]
    ba88:	00 
    ba89:	eb 08                	jmp    ba93 <s442+0x5f>
    ba8b:	f3 0f 10 80 00 00 00 	movss  xmm0,DWORD PTR [rax+0x0]
    ba92:	00 
    ba93:	f3 0f 59 c0          	mulss  xmm0,xmm0
    ba97:	f3 0f 58 80 00 00 00 	addss  xmm0,DWORD PTR [rax+0x0]
    ba9e:	00 
    ba9f:	f3 0f 11 80 00 00 00 	movss  DWORD PTR [rax+0x0],xmm0
    baa6:	00 
    baa7:	8b 88 00 00 00 00    	mov    ecx,DWORD PTR [rax+0x0]
    baad:	83 f9 02             	cmp    ecx,0x2
    bab0:	74 1e                	je     bad0 <s442+0x9c>
    bab2:	83 f9 04             	cmp    ecx,0x4
    bab5:	74 0f                	je     bac6 <s442+0x92>
    bab7:	83 f9 03             	cmp    ecx,0x3
    baba:	75 1e                	jne    bada <s442+0xa6>
    babc:	f3 0f 10 80 00 00 00 	movss  xmm0,DWORD PTR [rax+0x0]
    bac3:	00 
    bac4:	eb 1c                	jmp    bae2 <s442+0xae>
    bac6:	f3 0f 10 80 00 00 00 	movss  xmm0,DWORD PTR [rax+0x0]
    bacd:	00 
    bace:	eb 12                	jmp    bae2 <s442+0xae>
    bad0:	f3 0f 10 80 00 00 00 	movss  xmm0,DWORD PTR [rax+0x0]
    bad7:	00 
    bad8:	eb 08                	jmp    bae2 <s442+0xae>
    bada:	f3 0f 10 80 00 00 00 	movss  xmm0,DWORD PTR [rax+0x0]
    bae1:	00 
    bae2:	f3 0f 59 c0          	mulss  xmm0,xmm0
    bae6:	f3 0f 58 80 00 00 00 	addss  xmm0,DWORD PTR [rax+0x0]
    baed:	00 
    baee:	f3 0f 11 80 00 00 00 	movss  DWORD PTR [rax+0x0],xmm0
    baf5:	00 
    baf6:	8b 88 00 00 00 00    	mov    ecx,DWORD PTR [rax+0x0]
    bafc:	83 f9 02             	cmp    ecx,0x2
    baff:	74 1e                	je     bb1f <s442+0xeb>
    bb01:	83 f9 04             	cmp    ecx,0x4
    bb04:	74 0f                	je     bb15 <s442+0xe1>
    bb06:	83 f9 03             	cmp    ecx,0x3
    bb09:	75 1e                	jne    bb29 <s442+0xf5>
    bb0b:	f3 0f 10 80 00 00 00 	movss  xmm0,DWORD PTR [rax+0x0]
    bb12:	00 
    bb13:	eb 1c                	jmp    bb31 <s442+0xfd>
    bb15:	f3 0f 10 80 00 00 00 	movss  xmm0,DWORD PTR [rax+0x0]
    bb1c:	00 
    bb1d:	eb 12                	jmp    bb31 <s442+0xfd>
    bb1f:	f3 0f 10 80 00 00 00 	movss  xmm0,DWORD PTR [rax+0x0]
    bb26:	00 
    bb27:	eb 08                	jmp    bb31 <s442+0xfd>
    bb29:	f3 0f 10 80 00 00 00 	movss  xmm0,DWORD PTR [rax+0x0]
    bb30:	00 
    bb31:	f3 0f 59 c0          	mulss  xmm0,xmm0
    bb35:	f3 0f 58 80 00 00 00 	addss  xmm0,DWORD PTR [rax+0x0]
    bb3c:	00 
    bb3d:	f3 0f 11 80 00 00 00 	movss  DWORD PTR [rax+0x0],xmm0
    bb44:	00 
    bb45:	8b 88 00 00 00 00    	mov    ecx,DWORD PTR [rax+0x0]
    bb4b:	83 f9 02             	cmp    ecx,0x2
    bb4e:	74 1e                	je     bb6e <s442+0x13a>
    bb50:	83 f9 04             	cmp    ecx,0x4
    bb53:	74 0f                	je     bb64 <s442+0x130>
    bb55:	83 f9 03             	cmp    ecx,0x3
    bb58:	75 1e                	jne    bb78 <s442+0x144>
    bb5a:	f3 0f 10 80 00 00 00 	movss  xmm0,DWORD PTR [rax+0x0]
    bb61:	00 
    bb62:	eb 1c                	jmp    bb80 <s442+0x14c>
    bb64:	f3 0f 10 80 00 00 00 	movss  xmm0,DWORD PTR [rax+0x0]
    bb6b:	00 
    bb6c:	eb 12                	jmp    bb80 <s442+0x14c>
    bb6e:	f3 0f 10 80 00 00 00 	movss  xmm0,DWORD PTR [rax+0x0]
    bb75:	00 
    bb76:	eb 08                	jmp    bb80 <s442+0x14c>
    bb78:	f3 0f 10 80 00 00 00 	movss  xmm0,DWORD PTR [rax+0x0]
    bb7f:	00 
    bb80:	f3 0f 59 c0          	mulss  xmm0,xmm0
    bb84:	f3 0f 58 80 00 00 00 	addss  xmm0,DWORD PTR [rax+0x0]
    bb8b:	00 
    bb8c:	f3 0f 11 80 00 00 00 	movss  DWORD PTR [rax+0x0],xmm0
    bb93:	00 
    bb94:	8b 88 00 00 00 00    	mov    ecx,DWORD PTR [rax+0x0]
    bb9a:	83 f9 02             	cmp    ecx,0x2
    bb9d:	74 1e                	je     bbbd <s442+0x189>
    bb9f:	83 f9 04             	cmp    ecx,0x4
    bba2:	74 0f                	je     bbb3 <s442+0x17f>
    bba4:	83 f9 03             	cmp    ecx,0x3
    bba7:	75 1e                	jne    bbc7 <s442+0x193>
    bba9:	f3 0f 10 80 00 00 00 	movss  xmm0,DWORD PTR [rax+0x0]
    bbb0:	00 
    bbb1:	eb 1c                	jmp    bbcf <s442+0x19b>
    bbb3:	f3 0f 10 80 00 00 00 	movss  xmm0,DWORD PTR [rax+0x0]
    bbba:	00 
    bbbb:	eb 12                	jmp    bbcf <s442+0x19b>
    bbbd:	f3 0f 10 80 00 00 00 	movss  xmm0,DWORD PTR [rax+0x0]
    bbc4:	00 
    bbc5:	eb 08                	jmp    bbcf <s442+0x19b>
    bbc7:	f3 0f 10 80 00 00 00 	movss  xmm0,DWORD PTR [rax+0x0]
    bbce:	00 
    bbcf:	f3 0f 59 c0          	mulss  xmm0,xmm0
    bbd3:	f3 0f 58 80 00 00 00 	addss  xmm0,DWORD PTR [rax+0x0]
    bbda:	00 
    bbdb:	f3 0f 11 80 00 00 00 	movss  DWORD PTR [rax+0x0],xmm0
    bbe2:	00 
    bbe3:	8b 88 00 00 00 00    	mov    ecx,DWORD PTR [rax+0x0]
    bbe9:	83 f9 02             	cmp    ecx,0x2
    bbec:	74 1e                	je     bc0c <s442+0x1d8>
    bbee:	83 f9 04             	cmp    ecx,0x4
    bbf1:	74 0f                	je     bc02 <s442+0x1ce>
    bbf3:	83 f9 03             	cmp    ecx,0x3
    bbf6:	75 1e                	jne    bc16 <s442+0x1e2>
    bbf8:	f3 0f 10 80 00 00 00 	movss  xmm0,DWORD PTR [rax+0x0]
    bbff:	00 
    bc00:	eb 1c                	jmp    bc1e <s442+0x1ea>
    bc02:	f3 0f 10 80 00 00 00 	movss  xmm0,DWORD PTR [rax+0x0]
    bc09:	00 
    bc0a:	eb 12                	jmp    bc1e <s442+0x1ea>
    bc0c:	f3 0f 10 80 00 00 00 	movss  xmm0,DWORD PTR [rax+0x0]
    bc13:	00 
    bc14:	eb 08                	jmp    bc1e <s442+0x1ea>
    bc16:	f3 0f 10 80 00 00 00 	movss  xmm0,DWORD PTR [rax+0x0]
    bc1d:	00 
    bc1e:	f3 0f 59 c0          	mulss  xmm0,xmm0
    bc22:	f3 0f 58 80 00 00 00 	addss  xmm0,DWORD PTR [rax+0x0]
    bc29:	00 
    bc2a:	f3 0f 11 80 00 00 00 	movss  DWORD PTR [rax+0x0],xmm0
    bc31:	00 
    bc32:	8b 88 00 00 00 00    	mov    ecx,DWORD PTR [rax+0x0]
    bc38:	83 f9 02             	cmp    ecx,0x2
    bc3b:	74 1e                	je     bc5b <s442+0x227>
    bc3d:	83 f9 04             	cmp    ecx,0x4
    bc40:	74 0f                	je     bc51 <s442+0x21d>
    bc42:	83 f9 03             	cmp    ecx,0x3
    bc45:	75 1e                	jne    bc65 <s442+0x231>
    bc47:	f3 0f 10 80 00 00 00 	movss  xmm0,DWORD PTR [rax+0x0]
    bc4e:	00 
    bc4f:	eb 1c                	jmp    bc6d <s442+0x239>
    bc51:	f3 0f 10 80 00 00 00 	movss  xmm0,DWORD PTR [rax+0x0]
    bc58:	00 
    bc59:	eb 12                	jmp    bc6d <s442+0x239>
    bc5b:	f3 0f 10 80 00 00 00 	movss  xmm0,DWORD PTR [rax+0x0]
    bc62:	00 
    bc63:	eb 08                	jmp    bc6d <s442+0x239>
    bc65:	f3 0f 10 80 00 00 00 	movss  xmm0,DWORD PTR [rax+0x0]
    bc6c:	00 
    bc6d:	f3 0f 59 c0          	mulss  xmm0,xmm0
    bc71:	f3 0f 58 80 00 00 00 	addss  xmm0,DWORD PTR [rax+0x0]
    bc78:	00 
    bc79:	f3 0f 11 80 00 00 00 	movss  DWORD PTR [rax+0x0],xmm0
    bc80:	00 
    bc81:	8b 88 00 00 00 00    	mov    ecx,DWORD PTR [rax+0x0]
    bc87:	83 f9 02             	cmp    ecx,0x2
    bc8a:	74 1e                	je     bcaa <s442+0x276>
    bc8c:	83 f9 04             	cmp    ecx,0x4
    bc8f:	74 0f                	je     bca0 <s442+0x26c>
    bc91:	83 f9 03             	cmp    ecx,0x3
    bc94:	75 1e                	jne    bcb4 <s442+0x280>
    bc96:	f3 0f 10 80 00 00 00 	movss  xmm0,DWORD PTR [rax+0x0]
    bc9d:	00 
    bc9e:	eb 1c                	jmp    bcbc <s442+0x288>
    bca0:	f3 0f 10 80 00 00 00 	movss  xmm0,DWORD PTR [rax+0x0]
    bca7:	00 
    bca8:	eb 12                	jmp    bcbc <s442+0x288>
    bcaa:	f3 0f 10 80 00 00 00 	movss  xmm0,DWORD PTR [rax+0x0]
    bcb1:	00 
    bcb2:	eb 08                	jmp    bcbc <s442+0x288>
    bcb4:	f3 0f 10 80 00 00 00 	movss  xmm0,DWORD PTR [rax+0x0]
    bcbb:	00 
    bcbc:	f3 0f 59 c0          	mulss  xmm0,xmm0
    bcc0:	f3 0f 58 80 00 00 00 	addss  xmm0,DWORD PTR [rax+0x0]
    bcc7:	00 
    bcc8:	f3 0f 11 80 00 00 00 	movss  DWORD PTR [rax+0x0],xmm0
    bccf:	00 
    bcd0:	48 83 c0 20          	add    rax,0x20
    bcd4:	0f 85 7e fd ff ff    	jne    ba58 <s442+0x24>
    bcda:	bf 00 00 00 00       	mov    edi,0x0
    bcdf:	be 00 00 00 00       	mov    esi,0x0
    bce4:	ba 00 00 00 00       	mov    edx,0x0
    bce9:	b9 00 00 00 00       	mov    ecx,0x0
    bcee:	41 b8 00 00 00 00    	mov    r8d,0x0
    bcf4:	41 b9 00 00 00 00    	mov    r9d,0x0
    bcfa:	0f 57 c0             	xorps  xmm0,xmm0
    bcfd:	68 00 00 00 00       	push   0x0
    bd02:	68 00 00 00 00       	push   0x0
    bd07:	e8 00 00 00 00       	call   bd0c <s442+0x2d8>
    bd0c:	48 83 c4 10          	add    rsp,0x10
    bd10:	ff c3                	inc    ebx
    bd12:	81 fb 50 c3 00 00    	cmp    ebx,0xc350
    bd18:	0f 85 33 fd ff ff    	jne    ba51 <s442+0x1d>
    bd1e:	49 83 c6 10          	add    r14,0x10
    bd22:	4c 89 f7             	mov    rdi,r14
    bd25:	31 f6                	xor    esi,esi
    bd27:	e8 00 00 00 00       	call   bd2c <s442+0x2f8>
    bd2c:	bf 00 00 00 00       	mov    edi,0x0
    bd31:	48 83 c4 08          	add    rsp,0x8
    bd35:	5b                   	pop    rbx
    bd36:	41 5e                	pop    r14
    bd38:	e9 00 00 00 00       	jmp    bd3d <s443>

000000000000bd3d <s443>:
    bd3d:	41 56                	push   r14
    bd3f:	53                   	push   rbx
    bd40:	50                   	push   rax
    bd41:	49 89 fe             	mov    r14,rdi
    bd44:	bf 00 00 00 00       	mov    edi,0x0
    bd49:	e8 00 00 00 00       	call   bd4e <s443+0x11>
    bd4e:	31 db                	xor    ebx,ebx
    bd50:	4c 89 f7             	mov    rdi,r14
    bd53:	31 f6                	xor    esi,esi
    bd55:	e8 00 00 00 00       	call   bd5a <s443+0x1d>
    bd5a:	0f 57 d2             	xorps  xmm2,xmm2
    bd5d:	48 c7 c0 00 0c fe ff 	mov    rax,0xfffffffffffe0c00
    bd64:	0f 2e 90 00 00 00 00 	ucomiss xmm2,DWORD PTR [rax+0x0]
    bd6b:	f3 0f 10 80 00 00 00 	movss  xmm0,DWORD PTR [rax+0x0]
    bd72:	00 
    bd73:	0f 28 c8             	movaps xmm1,xmm0
    bd76:	72 08                	jb     bd80 <s443+0x43>
    bd78:	f3 0f 10 88 00 00 00 	movss  xmm1,DWORD PTR [rax+0x0]
    bd7f:	00 
    bd80:	f3 0f 59 c1          	mulss  xmm0,xmm1
    bd84:	f3 0f 58 80 00 00 00 	addss  xmm0,DWORD PTR [rax+0x0]
    bd8b:	00 
    bd8c:	f3 0f 11 80 00 00 00 	movss  DWORD PTR [rax+0x0],xmm0
    bd93:	00 
    bd94:	0f 2e 90 00 00 00 00 	ucomiss xmm2,DWORD PTR [rax+0x0]
    bd9b:	f3 0f 10 80 00 00 00 	movss  xmm0,DWORD PTR [rax+0x0]
    bda2:	00 
    bda3:	0f 28 c8             	movaps xmm1,xmm0
    bda6:	72 08                	jb     bdb0 <s443+0x73>
    bda8:	f3 0f 10 88 00 00 00 	movss  xmm1,DWORD PTR [rax+0x0]
    bdaf:	00 
    bdb0:	f3 0f 59 c1          	mulss  xmm0,xmm1
    bdb4:	f3 0f 58 80 00 00 00 	addss  xmm0,DWORD PTR [rax+0x0]
    bdbb:	00 
    bdbc:	f3 0f 11 80 00 00 00 	movss  DWORD PTR [rax+0x0],xmm0
    bdc3:	00 
    bdc4:	0f 2e 90 00 00 00 00 	ucomiss xmm2,DWORD PTR [rax+0x0]
    bdcb:	f3 0f 10 80 00 00 00 	movss  xmm0,DWORD PTR [rax+0x0]
    bdd2:	00 
    bdd3:	0f 28 c8             	movaps xmm1,xmm0
    bdd6:	72 08                	jb     bde0 <s443+0xa3>
    bdd8:	f3 0f 10 88 00 00 00 	movss  xmm1,DWORD PTR [rax+0x0]
    bddf:	00 
    bde0:	f3 0f 59 c1          	mulss  xmm0,xmm1
    bde4:	f3 0f 58 80 00 00 00 	addss  xmm0,DWORD PTR [rax+0x0]
    bdeb:	00 
    bdec:	f3 0f 11 80 00 00 00 	movss  DWORD PTR [rax+0x0],xmm0
    bdf3:	00 
    bdf4:	0f 2e 90 00 00 00 00 	ucomiss xmm2,DWORD PTR [rax+0x0]
    bdfb:	f3 0f 10 80 00 00 00 	movss  xmm0,DWORD PTR [rax+0x0]
    be02:	00 
    be03:	0f 28 c8             	movaps xmm1,xmm0
    be06:	72 08                	jb     be10 <s443+0xd3>
    be08:	f3 0f 10 88 00 00 00 	movss  xmm1,DWORD PTR [rax+0x0]
    be0f:	00 
    be10:	f3 0f 59 c1          	mulss  xmm0,xmm1
    be14:	f3 0f 58 80 00 00 00 	addss  xmm0,DWORD PTR [rax+0x0]
    be1b:	00 
    be1c:	f3 0f 11 80 00 00 00 	movss  DWORD PTR [rax+0x0],xmm0
    be23:	00 
    be24:	0f 2e 90 00 00 00 00 	ucomiss xmm2,DWORD PTR [rax+0x0]
    be2b:	f3 0f 10 80 00 00 00 	movss  xmm0,DWORD PTR [rax+0x0]
    be32:	00 
    be33:	0f 28 c8             	movaps xmm1,xmm0
    be36:	72 08                	jb     be40 <s443+0x103>
    be38:	f3 0f 10 88 00 00 00 	movss  xmm1,DWORD PTR [rax+0x0]
    be3f:	00 
    be40:	f3 0f 59 c1          	mulss  xmm0,xmm1
    be44:	f3 0f 58 80 00 00 00 	addss  xmm0,DWORD PTR [rax+0x0]
    be4b:	00 
    be4c:	f3 0f 11 80 00 00 00 	movss  DWORD PTR [rax+0x0],xmm0
    be53:	00 
    be54:	0f 2e 90 00 00 00 00 	ucomiss xmm2,DWORD PTR [rax+0x0]
    be5b:	f3 0f 10 80 00 00 00 	movss  xmm0,DWORD PTR [rax+0x0]
    be62:	00 
    be63:	0f 28 c8             	movaps xmm1,xmm0
    be66:	72 08                	jb     be70 <s443+0x133>
    be68:	f3 0f 10 88 00 00 00 	movss  xmm1,DWORD PTR [rax+0x0]
    be6f:	00 
    be70:	f3 0f 59 c1          	mulss  xmm0,xmm1
    be74:	f3 0f 58 80 00 00 00 	addss  xmm0,DWORD PTR [rax+0x0]
    be7b:	00 
    be7c:	f3 0f 11 80 00 00 00 	movss  DWORD PTR [rax+0x0],xmm0
    be83:	00 
    be84:	0f 2e 90 00 00 00 00 	ucomiss xmm2,DWORD PTR [rax+0x0]
    be8b:	f3 0f 10 80 00 00 00 	movss  xmm0,DWORD PTR [rax+0x0]
    be92:	00 
    be93:	0f 28 c8             	movaps xmm1,xmm0
    be96:	72 08                	jb     bea0 <s443+0x163>
    be98:	f3 0f 10 88 00 00 00 	movss  xmm1,DWORD PTR [rax+0x0]
    be9f:	00 
    bea0:	f3 0f 59 c1          	mulss  xmm0,xmm1
    bea4:	f3 0f 58 80 00 00 00 	addss  xmm0,DWORD PTR [rax+0x0]
    beab:	00 
    beac:	f3 0f 11 80 00 00 00 	movss  DWORD PTR [rax+0x0],xmm0
    beb3:	00 
    beb4:	0f 2e 90 00 00 00 00 	ucomiss xmm2,DWORD PTR [rax+0x0]
    bebb:	f3 0f 10 80 00 00 00 	movss  xmm0,DWORD PTR [rax+0x0]
    bec2:	00 
    bec3:	0f 28 c8             	movaps xmm1,xmm0
    bec6:	72 08                	jb     bed0 <s443+0x193>
    bec8:	f3 0f 10 88 00 00 00 	movss  xmm1,DWORD PTR [rax+0x0]
    becf:	00 
    bed0:	f3 0f 59 c1          	mulss  xmm0,xmm1
    bed4:	f3 0f 58 80 00 00 00 	addss  xmm0,DWORD PTR [rax+0x0]
    bedb:	00 
    bedc:	f3 0f 11 80 00 00 00 	movss  DWORD PTR [rax+0x0],xmm0
    bee3:	00 
    bee4:	48 83 c0 20          	add    rax,0x20
    bee8:	0f 85 76 fe ff ff    	jne    bd64 <s443+0x27>
    beee:	bf 00 00 00 00       	mov    edi,0x0
    bef3:	be 00 00 00 00       	mov    esi,0x0
    bef8:	ba 00 00 00 00       	mov    edx,0x0
    befd:	b9 00 00 00 00       	mov    ecx,0x0
    bf02:	41 b8 00 00 00 00    	mov    r8d,0x0
    bf08:	41 b9 00 00 00 00    	mov    r9d,0x0
    bf0e:	0f 57 c0             	xorps  xmm0,xmm0
    bf11:	68 00 00 00 00       	push   0x0
    bf16:	68 00 00 00 00       	push   0x0
    bf1b:	e8 00 00 00 00       	call   bf20 <s443+0x1e3>
    bf20:	0f 57 d2             	xorps  xmm2,xmm2
    bf23:	48 83 c4 10          	add    rsp,0x10
    bf27:	ff c3                	inc    ebx
    bf29:	81 fb 40 0d 03 00    	cmp    ebx,0x30d40
    bf2f:	0f 85 28 fe ff ff    	jne    bd5d <s443+0x20>
    bf35:	49 83 c6 10          	add    r14,0x10
    bf39:	4c 89 f7             	mov    rdi,r14
    bf3c:	31 f6                	xor    esi,esi
    bf3e:	e8 00 00 00 00       	call   bf43 <s443+0x206>
    bf43:	bf 00 00 00 00       	mov    edi,0x0
    bf48:	48 83 c4 08          	add    rsp,0x8
    bf4c:	5b                   	pop    rbx
    bf4d:	41 5e                	pop    r14
    bf4f:	e9 00 00 00 00       	jmp    bf54 <s451>

000000000000bf54 <s451>:
    bf54:	41 57                	push   r15
    bf56:	41 56                	push   r14
    bf58:	41 55                	push   r13
    bf5a:	41 54                	push   r12
    bf5c:	53                   	push   rbx
    bf5d:	48 83 ec 10          	sub    rsp,0x10
    bf61:	49 89 fe             	mov    r14,rdi
    bf64:	bf 00 00 00 00       	mov    edi,0x0
    bf69:	e8 00 00 00 00       	call   bf6e <s451+0x1a>
    bf6e:	45 31 ff             	xor    r15d,r15d
    bf71:	4c 89 f7             	mov    rdi,r14
    bf74:	31 f6                	xor    esi,esi
    bf76:	e8 00 00 00 00       	call   bf7b <s451+0x27>
    bf7b:	45 31 e4             	xor    r12d,r12d
    bf7e:	31 db                	xor    ebx,ebx
    bf80:	4d 89 e5             	mov    r13,r12
    bf83:	49 09 dd             	or     r13,rbx
    bf86:	f3 42 0f 10 04 ad 00 	movss  xmm0,DWORD PTR [r13*4+0x0]
    bf8d:	00 00 00 
    bf90:	e8 00 00 00 00       	call   bf95 <s451+0x41>
    bf95:	f3 0f 11 44 24 0c    	movss  DWORD PTR [rsp+0xc],xmm0
    bf9b:	f3 42 0f 10 04 ad 00 	movss  xmm0,DWORD PTR [r13*4+0x0]
    bfa2:	00 00 00 
    bfa5:	e8 00 00 00 00       	call   bfaa <s451+0x56>
    bfaa:	f3 0f 58 44 24 0c    	addss  xmm0,DWORD PTR [rsp+0xc]
    bfb0:	f3 42 0f 11 04 ad 00 	movss  DWORD PTR [r13*4+0x0],xmm0
    bfb7:	00 00 00 
    bfba:	48 ff c3             	inc    rbx
    bfbd:	48 83 fb 08          	cmp    rbx,0x8
    bfc1:	75 bd                	jne    bf80 <s451+0x2c>
    bfc3:	49 83 c4 08          	add    r12,0x8
    bfc7:	49 81 fc 00 7d 00 00 	cmp    r12,0x7d00
    bfce:	75 ae                	jne    bf7e <s451+0x2a>
    bfd0:	bf 00 00 00 00       	mov    edi,0x0
    bfd5:	be 00 00 00 00       	mov    esi,0x0
    bfda:	ba 00 00 00 00       	mov    edx,0x0
    bfdf:	b9 00 00 00 00       	mov    ecx,0x0
    bfe4:	41 b8 00 00 00 00    	mov    r8d,0x0
    bfea:	41 b9 00 00 00 00    	mov    r9d,0x0
    bff0:	0f 57 c0             	xorps  xmm0,xmm0
    bff3:	68 00 00 00 00       	push   0x0
    bff8:	68 00 00 00 00       	push   0x0
    bffd:	e8 00 00 00 00       	call   c002 <s451+0xae>
    c002:	48 83 c4 10          	add    rsp,0x10
    c006:	41 ff c7             	inc    r15d
    c009:	41 81 ff 20 4e 00 00 	cmp    r15d,0x4e20
    c010:	0f 85 65 ff ff ff    	jne    bf7b <s451+0x27>
    c016:	49 83 c6 10          	add    r14,0x10
    c01a:	4c 89 f7             	mov    rdi,r14
    c01d:	31 f6                	xor    esi,esi
    c01f:	e8 00 00 00 00       	call   c024 <s451+0xd0>
    c024:	bf 00 00 00 00       	mov    edi,0x0
    c029:	48 83 c4 10          	add    rsp,0x10
    c02d:	5b                   	pop    rbx
    c02e:	41 5c                	pop    r12
    c030:	41 5d                	pop    r13
    c032:	41 5e                	pop    r14
    c034:	41 5f                	pop    r15
    c036:	e9 00 00 00 00       	jmp    c03b <s452>

000000000000c03b <s452>:
    c03b:	41 56                	push   r14
    c03d:	53                   	push   rbx
    c03e:	48 83 ec 48          	sub    rsp,0x48
    c042:	49 89 fe             	mov    r14,rdi
    c045:	bf 00 00 00 00       	mov    edi,0x0
    c04a:	e8 00 00 00 00       	call   c04f <s452+0x14>
    c04f:	31 db                	xor    ebx,ebx
    c051:	4c 89 f7             	mov    rdi,r14
    c054:	31 f6                	xor    esi,esi
    c056:	e8 00 00 00 00       	call   c05b <s452+0x20>
    c05b:	31 c0                	xor    eax,eax
    c05d:	31 c9                	xor    ecx,ecx
    c05f:	48 89 c2             	mov    rdx,rax
    c062:	48 09 ca             	or     rdx,rcx
    c065:	48 8b 34 cd 00 00 00 	mov    rsi,QWORD PTR [rcx*8+0x0]
    c06c:	00 
    c06d:	48 8d 3c 06          	lea    rdi,[rsi+rax*1]
    c071:	09 fe                	or     esi,edi
    c073:	0f 57 c0             	xorps  xmm0,xmm0
    c076:	f3 0f 2a c6          	cvtsi2ss xmm0,esi
    c07a:	f3 0f 59 04 95 00 00 	mulss  xmm0,DWORD PTR [rdx*4+0x0]
    c081:	00 00 
    c083:	f3 0f 58 04 95 00 00 	addss  xmm0,DWORD PTR [rdx*4+0x0]
    c08a:	00 00 
    c08c:	48 89 7c cc 08       	mov    QWORD PTR [rsp+rcx*8+0x8],rdi
    c091:	f3 0f 11 04 95 00 00 	movss  DWORD PTR [rdx*4+0x0],xmm0
    c098:	00 00 
    c09a:	48 ff c1             	inc    rcx
    c09d:	48 83 f9 08          	cmp    rcx,0x8
    c0a1:	75 bc                	jne    c05f <s452+0x24>
    c0a3:	48 8b 44 24 40       	mov    rax,QWORD PTR [rsp+0x40]
    c0a8:	48 3d 00 7d 00 00    	cmp    rax,0x7d00
    c0ae:	75 ad                	jne    c05d <s452+0x22>
    c0b0:	bf 00 00 00 00       	mov    edi,0x0
    c0b5:	be 00 00 00 00       	mov    esi,0x0
    c0ba:	ba 00 00 00 00       	mov    edx,0x0
    c0bf:	b9 00 00 00 00       	mov    ecx,0x0
    c0c4:	41 b8 00 00 00 00    	mov    r8d,0x0
    c0ca:	41 b9 00 00 00 00    	mov    r9d,0x0
    c0d0:	0f 57 c0             	xorps  xmm0,xmm0
    c0d3:	68 00 00 00 00       	push   0x0
    c0d8:	68 00 00 00 00       	push   0x0
    c0dd:	e8 00 00 00 00       	call   c0e2 <s452+0xa7>
    c0e2:	48 83 c4 10          	add    rsp,0x10
    c0e6:	ff c3                	inc    ebx
    c0e8:	81 fb 80 1a 06 00    	cmp    ebx,0x61a80
    c0ee:	0f 85 67 ff ff ff    	jne    c05b <s452+0x20>
    c0f4:	49 83 c6 10          	add    r14,0x10
    c0f8:	4c 89 f7             	mov    rdi,r14
    c0fb:	31 f6                	xor    esi,esi
    c0fd:	e8 00 00 00 00       	call   c102 <s452+0xc7>
    c102:	bf 00 00 00 00       	mov    edi,0x0
    c107:	48 83 c4 48          	add    rsp,0x48
    c10b:	5b                   	pop    rbx
    c10c:	41 5e                	pop    r14
    c10e:	e9 00 00 00 00       	jmp    c113 <s453>

000000000000c113 <s453>:
    c113:	41 56                	push   r14
    c115:	53                   	push   rbx
    c116:	48 83 ec 28          	sub    rsp,0x28
    c11a:	49 89 fe             	mov    r14,rdi
    c11d:	bf 00 00 00 00       	mov    edi,0x0
    c122:	e8 00 00 00 00       	call   c127 <s453+0x14>
    c127:	31 db                	xor    ebx,ebx
    c129:	4c 89 f7             	mov    rdi,r14
    c12c:	31 f6                	xor    esi,esi
    c12e:	e8 00 00 00 00       	call   c133 <s453+0x20>
    c133:	f3 0f 10 15 00 00 00 	movss  xmm2,DWORD PTR [rip+0x0]        # c13b <s453+0x28>
    c13a:	00 
    c13b:	31 c0                	xor    eax,eax
    c13d:	0f 57 c0             	xorps  xmm0,xmm0
    c140:	31 c9                	xor    ecx,ecx
    c142:	f3 0f 58 c2          	addss  xmm0,xmm2
    c146:	f3 0f 11 44 8c 08    	movss  DWORD PTR [rsp+rcx*4+0x8],xmm0
    c14c:	48 89 c2             	mov    rdx,rax
    c14f:	48 09 ca             	or     rdx,rcx
    c152:	f3 0f 10 0c 95 00 00 	movss  xmm1,DWORD PTR [rdx*4+0x0]
    c159:	00 00 
    c15b:	f3 0f 59 c8          	mulss  xmm1,xmm0
    c15f:	f3 0f 11 0c 95 00 00 	movss  DWORD PTR [rdx*4+0x0],xmm1
    c166:	00 00 
    c168:	48 ff c1             	inc    rcx
    c16b:	48 83 f9 08          	cmp    rcx,0x8
    c16f:	75 d1                	jne    c142 <s453+0x2f>
    c171:	f3 0f 10 44 24 24    	movss  xmm0,DWORD PTR [rsp+0x24]
    c177:	48 83 c0 08          	add    rax,0x8
    c17b:	48 3d 00 7d 00 00    	cmp    rax,0x7d00
    c181:	75 bd                	jne    c140 <s453+0x2d>
    c183:	bf 00 00 00 00       	mov    edi,0x0
    c188:	be 00 00 00 00       	mov    esi,0x0
    c18d:	ba 00 00 00 00       	mov    edx,0x0
    c192:	b9 00 00 00 00       	mov    ecx,0x0
    c197:	41 b8 00 00 00 00    	mov    r8d,0x0
    c19d:	41 b9 00 00 00 00    	mov    r9d,0x0
    c1a3:	0f 57 c0             	xorps  xmm0,xmm0
    c1a6:	68 00 00 00 00       	push   0x0
    c1ab:	68 00 00 00 00       	push   0x0
    c1b0:	e8 00 00 00 00       	call   c1b5 <s453+0xa2>
    c1b5:	f3 0f 10 15 00 00 00 	movss  xmm2,DWORD PTR [rip+0x0]        # c1bd <s453+0xaa>
    c1bc:	00 
    c1bd:	48 83 c4 10          	add    rsp,0x10
    c1c1:	ff c3                	inc    ebx
    c1c3:	81 fb 40 0d 03 00    	cmp    ebx,0x30d40
    c1c9:	0f 85 6c ff ff ff    	jne    c13b <s453+0x28>
    c1cf:	49 83 c6 10          	add    r14,0x10
    c1d3:	4c 89 f7             	mov    rdi,r14
    c1d6:	31 f6                	xor    esi,esi
    c1d8:	e8 00 00 00 00       	call   c1dd <s453+0xca>
    c1dd:	bf 00 00 00 00       	mov    edi,0x0
    c1e2:	48 83 c4 28          	add    rsp,0x28
    c1e6:	5b                   	pop    rbx
    c1e7:	41 5e                	pop    r14
    c1e9:	e9 00 00 00 00       	jmp    c1ee <s471s>

000000000000c1ee <s471s>:
    c1ee:	31 c0                	xor    eax,eax
    c1f0:	c3                   	ret    

000000000000c1f1 <s471>:
    c1f1:	41 56                	push   r14
    c1f3:	53                   	push   rbx
    c1f4:	50                   	push   rax
    c1f5:	49 89 fe             	mov    r14,rdi
    c1f8:	bf 00 00 00 00       	mov    edi,0x0
    c1fd:	e8 00 00 00 00       	call   c202 <s471+0x11>
    c202:	31 db                	xor    ebx,ebx
    c204:	4c 89 f7             	mov    rdi,r14
    c207:	31 f6                	xor    esi,esi
    c209:	e8 00 00 00 00       	call   c20e <s471+0x1d>
    c20e:	31 c0                	xor    eax,eax
    c210:	31 c9                	xor    ecx,ecx
    c212:	48 89 c2             	mov    rdx,rax
    c215:	48 09 ca             	or     rdx,rcx
    c218:	f3 0f 10 04 95 00 00 	movss  xmm0,DWORD PTR [rdx*4+0x0]
    c21f:	00 00 
    c221:	0f 28 c8             	movaps xmm1,xmm0
    c224:	f3 0f 59 c8          	mulss  xmm1,xmm0
    c228:	f3 0f 58 0c 95 00 00 	addss  xmm1,DWORD PTR [rdx*4+0x0]
    c22f:	00 00 
    c231:	f3 0f 59 04 95 00 00 	mulss  xmm0,DWORD PTR [rdx*4+0x0]
    c238:	00 00 
    c23a:	f3 0f 58 04 95 00 00 	addss  xmm0,DWORD PTR [rdx*4+0x0]
    c241:	00 00 
    c243:	f3 0f 11 0c 95 00 00 	movss  DWORD PTR [rdx*4+0x0],xmm1
    c24a:	00 00 
    c24c:	f3 0f 11 04 95 00 00 	movss  DWORD PTR [rdx*4+0x0],xmm0
    c253:	00 00 
    c255:	48 ff c1             	inc    rcx
    c258:	48 83 f9 08          	cmp    rcx,0x8
    c25c:	75 b4                	jne    c212 <s471+0x21>
    c25e:	48 83 c0 08          	add    rax,0x8
    c262:	48 3d 00 7d 00 00    	cmp    rax,0x7d00
    c268:	75 a6                	jne    c210 <s471+0x1f>
    c26a:	bf 00 00 00 00       	mov    edi,0x0
    c26f:	be 00 00 00 00       	mov    esi,0x0
    c274:	ba 00 00 00 00       	mov    edx,0x0
    c279:	b9 00 00 00 00       	mov    ecx,0x0
    c27e:	41 b8 00 00 00 00    	mov    r8d,0x0
    c284:	41 b9 00 00 00 00    	mov    r9d,0x0
    c28a:	0f 57 c0             	xorps  xmm0,xmm0
    c28d:	68 00 00 00 00       	push   0x0
    c292:	68 00 00 00 00       	push   0x0
    c297:	e8 00 00 00 00       	call   c29c <s471+0xab>
    c29c:	48 83 c4 10          	add    rsp,0x10
    c2a0:	ff c3                	inc    ebx
    c2a2:	81 fb 50 c3 00 00    	cmp    ebx,0xc350
    c2a8:	0f 85 60 ff ff ff    	jne    c20e <s471+0x1d>
    c2ae:	49 83 c6 10          	add    r14,0x10
    c2b2:	4c 89 f7             	mov    rdi,r14
    c2b5:	31 f6                	xor    esi,esi
    c2b7:	e8 00 00 00 00       	call   c2bc <s471+0xcb>
    c2bc:	bf 00 00 00 00       	mov    edi,0x0
    c2c1:	48 83 c4 08          	add    rsp,0x8
    c2c5:	5b                   	pop    rbx
    c2c6:	41 5e                	pop    r14
    c2c8:	e9 00 00 00 00       	jmp    c2cd <s481>

000000000000c2cd <s481>:
    c2cd:	41 56                	push   r14
    c2cf:	53                   	push   rbx
    c2d0:	50                   	push   rax
    c2d1:	49 89 fe             	mov    r14,rdi
    c2d4:	bf 00 00 00 00       	mov    edi,0x0
    c2d9:	e8 00 00 00 00       	call   c2de <s481+0x11>
    c2de:	31 db                	xor    ebx,ebx
    c2e0:	4c 89 f7             	mov    rdi,r14
    c2e3:	31 f6                	xor    esi,esi
    c2e5:	e8 00 00 00 00       	call   c2ea <s481+0x1d>
    c2ea:	0f 57 c9             	xorps  xmm1,xmm1
    c2ed:	48 c7 c0 00 0c fe ff 	mov    rax,0xfffffffffffe0c00
    c2f4:	0f 2e 88 00 00 00 00 	ucomiss xmm1,DWORD PTR [rax+0x0]
    c2fb:	0f 87 cb 01 00 00    	ja     c4cc <s481+0x1ff>
    c301:	f3 0f 10 80 00 00 00 	movss  xmm0,DWORD PTR [rax+0x0]
    c308:	00 
    c309:	f3 0f 59 80 00 00 00 	mulss  xmm0,DWORD PTR [rax+0x0]
    c310:	00 
    c311:	f3 0f 58 80 00 00 00 	addss  xmm0,DWORD PTR [rax+0x0]
    c318:	00 
    c319:	f3 0f 11 80 00 00 00 	movss  DWORD PTR [rax+0x0],xmm0
    c320:	00 
    c321:	0f 2e 88 00 00 00 00 	ucomiss xmm1,DWORD PTR [rax+0x0]
    c328:	0f 87 9e 01 00 00    	ja     c4cc <s481+0x1ff>
    c32e:	f3 0f 10 80 00 00 00 	movss  xmm0,DWORD PTR [rax+0x0]
    c335:	00 
    c336:	f3 0f 59 80 00 00 00 	mulss  xmm0,DWORD PTR [rax+0x0]
    c33d:	00 
    c33e:	f3 0f 58 80 00 00 00 	addss  xmm0,DWORD PTR [rax+0x0]
    c345:	00 
    c346:	f3 0f 11 80 00 00 00 	movss  DWORD PTR [rax+0x0],xmm0
    c34d:	00 
    c34e:	0f 2e 88 00 00 00 00 	ucomiss xmm1,DWORD PTR [rax+0x0]
    c355:	0f 87 71 01 00 00    	ja     c4cc <s481+0x1ff>
    c35b:	f3 0f 10 80 00 00 00 	movss  xmm0,DWORD PTR [rax+0x0]
    c362:	00 
    c363:	f3 0f 59 80 00 00 00 	mulss  xmm0,DWORD PTR [rax+0x0]
    c36a:	00 
    c36b:	f3 0f 58 80 00 00 00 	addss  xmm0,DWORD PTR [rax+0x0]
    c372:	00 
    c373:	f3 0f 11 80 00 00 00 	movss  DWORD PTR [rax+0x0],xmm0
    c37a:	00 
    c37b:	0f 2e 88 00 00 00 00 	ucomiss xmm1,DWORD PTR [rax+0x0]
    c382:	0f 87 44 01 00 00    	ja     c4cc <s481+0x1ff>
    c388:	f3 0f 10 80 00 00 00 	movss  xmm0,DWORD PTR [rax+0x0]
    c38f:	00 
    c390:	f3 0f 59 80 00 00 00 	mulss  xmm0,DWORD PTR [rax+0x0]
    c397:	00 
    c398:	f3 0f 58 80 00 00 00 	addss  xmm0,DWORD PTR [rax+0x0]
    c39f:	00 
    c3a0:	f3 0f 11 80 00 00 00 	movss  DWORD PTR [rax+0x0],xmm0
    c3a7:	00 
    c3a8:	0f 2e 88 00 00 00 00 	ucomiss xmm1,DWORD PTR [rax+0x0]
    c3af:	0f 87 17 01 00 00    	ja     c4cc <s481+0x1ff>
    c3b5:	f3 0f 10 80 00 00 00 	movss  xmm0,DWORD PTR [rax+0x0]
    c3bc:	00 
    c3bd:	f3 0f 59 80 00 00 00 	mulss  xmm0,DWORD PTR [rax+0x0]
    c3c4:	00 
    c3c5:	f3 0f 58 80 00 00 00 	addss  xmm0,DWORD PTR [rax+0x0]
    c3cc:	00 
    c3cd:	f3 0f 11 80 00 00 00 	movss  DWORD PTR [rax+0x0],xmm0
    c3d4:	00 
    c3d5:	0f 2e 88 00 00 00 00 	ucomiss xmm1,DWORD PTR [rax+0x0]
    c3dc:	0f 87 ea 00 00 00    	ja     c4cc <s481+0x1ff>
    c3e2:	f3 0f 10 80 00 00 00 	movss  xmm0,DWORD PTR [rax+0x0]
    c3e9:	00 
    c3ea:	f3 0f 59 80 00 00 00 	mulss  xmm0,DWORD PTR [rax+0x0]
    c3f1:	00 
    c3f2:	f3 0f 58 80 00 00 00 	addss  xmm0,DWORD PTR [rax+0x0]
    c3f9:	00 
    c3fa:	f3 0f 11 80 00 00 00 	movss  DWORD PTR [rax+0x0],xmm0
    c401:	00 
    c402:	0f 2e 88 00 00 00 00 	ucomiss xmm1,DWORD PTR [rax+0x0]
    c409:	0f 87 bd 00 00 00    	ja     c4cc <s481+0x1ff>
    c40f:	f3 0f 10 80 00 00 00 	movss  xmm0,DWORD PTR [rax+0x0]
    c416:	00 
    c417:	f3 0f 59 80 00 00 00 	mulss  xmm0,DWORD PTR [rax+0x0]
    c41e:	00 
    c41f:	f3 0f 58 80 00 00 00 	addss  xmm0,DWORD PTR [rax+0x0]
    c426:	00 
    c427:	f3 0f 11 80 00 00 00 	movss  DWORD PTR [rax+0x0],xmm0
    c42e:	00 
    c42f:	0f 2e 88 00 00 00 00 	ucomiss xmm1,DWORD PTR [rax+0x0]
    c436:	0f 87 90 00 00 00    	ja     c4cc <s481+0x1ff>
    c43c:	f3 0f 10 80 00 00 00 	movss  xmm0,DWORD PTR [rax+0x0]
    c443:	00 
    c444:	f3 0f 59 80 00 00 00 	mulss  xmm0,DWORD PTR [rax+0x0]
    c44b:	00 
    c44c:	f3 0f 58 80 00 00 00 	addss  xmm0,DWORD PTR [rax+0x0]
    c453:	00 
    c454:	f3 0f 11 80 00 00 00 	movss  DWORD PTR [rax+0x0],xmm0
    c45b:	00 
    c45c:	48 83 c0 20          	add    rax,0x20
    c460:	0f 85 8e fe ff ff    	jne    c2f4 <s481+0x27>
    c466:	bf 00 00 00 00       	mov    edi,0x0
    c46b:	be 00 00 00 00       	mov    esi,0x0
    c470:	ba 00 00 00 00       	mov    edx,0x0
    c475:	b9 00 00 00 00       	mov    ecx,0x0
    c47a:	41 b8 00 00 00 00    	mov    r8d,0x0
    c480:	41 b9 00 00 00 00    	mov    r9d,0x0
    c486:	0f 57 c0             	xorps  xmm0,xmm0
    c489:	68 00 00 00 00       	push   0x0
    c48e:	68 00 00 00 00       	push   0x0
    c493:	e8 00 00 00 00       	call   c498 <s481+0x1cb>
    c498:	0f 57 c9             	xorps  xmm1,xmm1
    c49b:	48 83 c4 10          	add    rsp,0x10
    c49f:	ff c3                	inc    ebx
    c4a1:	81 fb a0 86 01 00    	cmp    ebx,0x186a0
    c4a7:	0f 85 40 fe ff ff    	jne    c2ed <s481+0x20>
    c4ad:	49 83 c6 10          	add    r14,0x10
    c4b1:	4c 89 f7             	mov    rdi,r14
    c4b4:	31 f6                	xor    esi,esi
    c4b6:	e8 00 00 00 00       	call   c4bb <s481+0x1ee>
    c4bb:	bf 00 00 00 00       	mov    edi,0x0
    c4c0:	48 83 c4 08          	add    rsp,0x8
    c4c4:	5b                   	pop    rbx
    c4c5:	41 5e                	pop    r14
    c4c7:	e9 00 00 00 00       	jmp    c4cc <s481+0x1ff>
    c4cc:	31 ff                	xor    edi,edi
    c4ce:	e8 00 00 00 00       	call   c4d3 <s482>

000000000000c4d3 <s482>:
    c4d3:	41 56                	push   r14
    c4d5:	53                   	push   rbx
    c4d6:	50                   	push   rax
    c4d7:	49 89 fe             	mov    r14,rdi
    c4da:	bf 00 00 00 00       	mov    edi,0x0
    c4df:	e8 00 00 00 00       	call   c4e4 <s482+0x11>
    c4e4:	31 db                	xor    ebx,ebx
    c4e6:	4c 89 f7             	mov    rdi,r14
    c4e9:	31 f6                	xor    esi,esi
    c4eb:	e8 00 00 00 00       	call   c4f0 <s482+0x1d>
    c4f0:	48 c7 c0 00 0c fe ff 	mov    rax,0xfffffffffffe0c00
    c4f7:	f3 0f 10 80 00 00 00 	movss  xmm0,DWORD PTR [rax+0x0]
    c4fe:	00 
    c4ff:	f3 0f 10 88 00 00 00 	movss  xmm1,DWORD PTR [rax+0x0]
    c506:	00 
    c507:	0f 2e c8             	ucomiss xmm1,xmm0
    c50a:	f3 0f 59 c1          	mulss  xmm0,xmm1
    c50e:	f3 0f 58 80 00 00 00 	addss  xmm0,DWORD PTR [rax+0x0]
    c515:	00 
    c516:	f3 0f 11 80 00 00 00 	movss  DWORD PTR [rax+0x0],xmm0
    c51d:	00 
    c51e:	0f 87 39 01 00 00    	ja     c65d <s482+0x18a>
    c524:	f3 0f 10 80 00 00 00 	movss  xmm0,DWORD PTR [rax+0x0]
    c52b:	00 
    c52c:	f3 0f 10 88 00 00 00 	movss  xmm1,DWORD PTR [rax+0x0]
    c533:	00 
    c534:	0f 2e c8             	ucomiss xmm1,xmm0
    c537:	f3 0f 59 c1          	mulss  xmm0,xmm1
    c53b:	f3 0f 58 80 00 00 00 	addss  xmm0,DWORD PTR [rax+0x0]
    c542:	00 
    c543:	f3 0f 11 80 00 00 00 	movss  DWORD PTR [rax+0x0],xmm0
    c54a:	00 
    c54b:	0f 87 0c 01 00 00    	ja     c65d <s482+0x18a>
    c551:	f3 0f 10 80 00 00 00 	movss  xmm0,DWORD PTR [rax+0x0]
    c558:	00 
    c559:	f3 0f 10 88 00 00 00 	movss  xmm1,DWORD PTR [rax+0x0]
    c560:	00 
    c561:	0f 2e c8             	ucomiss xmm1,xmm0
    c564:	f3 0f 59 c1          	mulss  xmm0,xmm1
    c568:	f3 0f 58 80 00 00 00 	addss  xmm0,DWORD PTR [rax+0x0]
    c56f:	00 
    c570:	f3 0f 11 80 00 00 00 	movss  DWORD PTR [rax+0x0],xmm0
    c577:	00 
    c578:	0f 87 df 00 00 00    	ja     c65d <s482+0x18a>
    c57e:	f3 0f 10 80 00 00 00 	movss  xmm0,DWORD PTR [rax+0x0]
    c585:	00 
    c586:	f3 0f 10 88 00 00 00 	movss  xmm1,DWORD PTR [rax+0x0]
    c58d:	00 
    c58e:	0f 2e c8             	ucomiss xmm1,xmm0
    c591:	f3 0f 59 c1          	mulss  xmm0,xmm1
    c595:	f3 0f 58 80 00 00 00 	addss  xmm0,DWORD PTR [rax+0x0]
    c59c:	00 
    c59d:	f3 0f 11 80 00 00 00 	movss  DWORD PTR [rax+0x0],xmm0
    c5a4:	00 
    c5a5:	0f 87 b2 00 00 00    	ja     c65d <s482+0x18a>
    c5ab:	f3 0f 10 80 00 00 00 	movss  xmm0,DWORD PTR [rax+0x0]
    c5b2:	00 
    c5b3:	f3 0f 10 88 00 00 00 	movss  xmm1,DWORD PTR [rax+0x0]
    c5ba:	00 
    c5bb:	0f 2e c8             	ucomiss xmm1,xmm0
    c5be:	f3 0f 59 c1          	mulss  xmm0,xmm1
    c5c2:	f3 0f 58 80 00 00 00 	addss  xmm0,DWORD PTR [rax+0x0]
    c5c9:	00 
    c5ca:	f3 0f 11 80 00 00 00 	movss  DWORD PTR [rax+0x0],xmm0
    c5d1:	00 
    c5d2:	0f 87 85 00 00 00    	ja     c65d <s482+0x18a>
    c5d8:	f3 0f 10 80 00 00 00 	movss  xmm0,DWORD PTR [rax+0x0]
    c5df:	00 
    c5e0:	f3 0f 10 88 00 00 00 	movss  xmm1,DWORD PTR [rax+0x0]
    c5e7:	00 
    c5e8:	0f 2e c8             	ucomiss xmm1,xmm0
    c5eb:	f3 0f 59 c1          	mulss  xmm0,xmm1
    c5ef:	f3 0f 58 80 00 00 00 	addss  xmm0,DWORD PTR [rax+0x0]
    c5f6:	00 
    c5f7:	f3 0f 11 80 00 00 00 	movss  DWORD PTR [rax+0x0],xmm0
    c5fe:	00 
    c5ff:	77 5c                	ja     c65d <s482+0x18a>
    c601:	f3 0f 10 80 00 00 00 	movss  xmm0,DWORD PTR [rax+0x0]
    c608:	00 
    c609:	f3 0f 10 88 00 00 00 	movss  xmm1,DWORD PTR [rax+0x0]
    c610:	00 
    c611:	0f 2e c8             	ucomiss xmm1,xmm0
    c614:	f3 0f 59 c1          	mulss  xmm0,xmm1
    c618:	f3 0f 58 80 00 00 00 	addss  xmm0,DWORD PTR [rax+0x0]
    c61f:	00 
    c620:	f3 0f 11 80 00 00 00 	movss  DWORD PTR [rax+0x0],xmm0
    c627:	00 
    c628:	77 33                	ja     c65d <s482+0x18a>
    c62a:	f3 0f 10 80 00 00 00 	movss  xmm0,DWORD PTR [rax+0x0]
    c631:	00 
    c632:	f3 0f 10 88 00 00 00 	movss  xmm1,DWORD PTR [rax+0x0]
    c639:	00 
    c63a:	0f 2e c8             	ucomiss xmm1,xmm0
    c63d:	f3 0f 59 c1          	mulss  xmm0,xmm1
    c641:	f3 0f 58 80 00 00 00 	addss  xmm0,DWORD PTR [rax+0x0]
    c648:	00 
    c649:	f3 0f 11 80 00 00 00 	movss  DWORD PTR [rax+0x0],xmm0
    c650:	00 
    c651:	77 0a                	ja     c65d <s482+0x18a>
    c653:	48 83 c0 20          	add    rax,0x20
    c657:	0f 85 9a fe ff ff    	jne    c4f7 <s482+0x24>
    c65d:	bf 00 00 00 00       	mov    edi,0x0
    c662:	be 00 00 00 00       	mov    esi,0x0
    c667:	ba 00 00 00 00       	mov    edx,0x0
    c66c:	b9 00 00 00 00       	mov    ecx,0x0
    c671:	41 b8 00 00 00 00    	mov    r8d,0x0
    c677:	41 b9 00 00 00 00    	mov    r9d,0x0
    c67d:	0f 57 c0             	xorps  xmm0,xmm0
    c680:	68 00 00 00 00       	push   0x0
    c685:	68 00 00 00 00       	push   0x0
    c68a:	e8 00 00 00 00       	call   c68f <s482+0x1bc>
    c68f:	48 83 c4 10          	add    rsp,0x10
    c693:	ff c3                	inc    ebx
    c695:	81 fb a0 86 01 00    	cmp    ebx,0x186a0
    c69b:	0f 85 4f fe ff ff    	jne    c4f0 <s482+0x1d>
    c6a1:	49 83 c6 10          	add    r14,0x10
    c6a5:	4c 89 f7             	mov    rdi,r14
    c6a8:	31 f6                	xor    esi,esi
    c6aa:	e8 00 00 00 00       	call   c6af <s482+0x1dc>
    c6af:	bf 00 00 00 00       	mov    edi,0x0
    c6b4:	48 83 c4 08          	add    rsp,0x8
    c6b8:	5b                   	pop    rbx
    c6b9:	41 5e                	pop    r14
    c6bb:	e9 00 00 00 00       	jmp    c6c0 <s491>

000000000000c6c0 <s491>:
    c6c0:	41 57                	push   r15
    c6c2:	41 56                	push   r14
    c6c4:	53                   	push   rbx
    c6c5:	49 89 fe             	mov    r14,rdi
    c6c8:	48 8b 5f 20          	mov    rbx,QWORD PTR [rdi+0x20]
    c6cc:	bf 00 00 00 00       	mov    edi,0x0
    c6d1:	e8 00 00 00 00       	call   c6d6 <s491+0x16>
    c6d6:	45 31 ff             	xor    r15d,r15d
    c6d9:	4c 89 f7             	mov    rdi,r14
    c6dc:	31 f6                	xor    esi,esi
    c6de:	e8 00 00 00 00       	call   c6e3 <s491+0x23>
    c6e3:	31 c0                	xor    eax,eax
    c6e5:	31 c9                	xor    ecx,ecx
    c6e7:	48 89 c2             	mov    rdx,rax
    c6ea:	48 09 ca             	or     rdx,rcx
    c6ed:	f3 0f 10 04 95 00 00 	movss  xmm0,DWORD PTR [rdx*4+0x0]
    c6f4:	00 00 
    c6f6:	f3 0f 59 04 95 00 00 	mulss  xmm0,DWORD PTR [rdx*4+0x0]
    c6fd:	00 00 
    c6ff:	f3 0f 58 04 95 00 00 	addss  xmm0,DWORD PTR [rdx*4+0x0]
    c706:	00 00 
    c708:	48 63 14 93          	movsxd rdx,DWORD PTR [rbx+rdx*4]
    c70c:	f3 0f 11 04 95 00 00 	movss  DWORD PTR [rdx*4+0x0],xmm0
    c713:	00 00 
    c715:	48 ff c1             	inc    rcx
    c718:	48 83 f9 08          	cmp    rcx,0x8
    c71c:	75 c9                	jne    c6e7 <s491+0x27>
    c71e:	48 83 c0 08          	add    rax,0x8
    c722:	48 3d 00 7d 00 00    	cmp    rax,0x7d00
    c728:	75 bb                	jne    c6e5 <s491+0x25>
    c72a:	bf 00 00 00 00       	mov    edi,0x0
    c72f:	be 00 00 00 00       	mov    esi,0x0
    c734:	ba 00 00 00 00       	mov    edx,0x0
    c739:	b9 00 00 00 00       	mov    ecx,0x0
    c73e:	41 b8 00 00 00 00    	mov    r8d,0x0
    c744:	41 b9 00 00 00 00    	mov    r9d,0x0
    c74a:	0f 57 c0             	xorps  xmm0,xmm0
    c74d:	68 00 00 00 00       	push   0x0
    c752:	68 00 00 00 00       	push   0x0
    c757:	e8 00 00 00 00       	call   c75c <s491+0x9c>
    c75c:	48 83 c4 10          	add    rsp,0x10
    c760:	41 ff c7             	inc    r15d
    c763:	41 81 ff a0 86 01 00 	cmp    r15d,0x186a0
    c76a:	0f 85 73 ff ff ff    	jne    c6e3 <s491+0x23>
    c770:	49 83 c6 10          	add    r14,0x10
    c774:	4c 89 f7             	mov    rdi,r14
    c777:	31 f6                	xor    esi,esi
    c779:	e8 00 00 00 00       	call   c77e <s491+0xbe>
    c77e:	bf 00 00 00 00       	mov    edi,0x0
    c783:	5b                   	pop    rbx
    c784:	41 5e                	pop    r14
    c786:	41 5f                	pop    r15
    c788:	e9 00 00 00 00       	jmp    c78d <s4112>

000000000000c78d <s4112>:
    c78d:	41 57                	push   r15
    c78f:	41 56                	push   r14
    c791:	53                   	push   rbx
    c792:	48 83 ec 10          	sub    rsp,0x10
    c796:	49 89 fe             	mov    r14,rdi
    c799:	48 8b 47 20          	mov    rax,QWORD PTR [rdi+0x20]
    c79d:	48 8b 18             	mov    rbx,QWORD PTR [rax]
    c7a0:	f3 0f 10 40 08       	movss  xmm0,DWORD PTR [rax+0x8]
    c7a5:	f3 0f 11 44 24 0c    	movss  DWORD PTR [rsp+0xc],xmm0
    c7ab:	bf 00 00 00 00       	mov    edi,0x0
    c7b0:	e8 00 00 00 00       	call   c7b5 <s4112+0x28>
    c7b5:	45 31 ff             	xor    r15d,r15d
    c7b8:	4c 89 f7             	mov    rdi,r14
    c7bb:	31 f6                	xor    esi,esi
    c7bd:	e8 00 00 00 00       	call   c7c2 <s4112+0x35>
    c7c2:	31 c0                	xor    eax,eax
    c7c4:	f3 0f 10 4c 24 0c    	movss  xmm1,DWORD PTR [rsp+0xc]
    c7ca:	31 c9                	xor    ecx,ecx
    c7cc:	48 89 c2             	mov    rdx,rax
    c7cf:	48 09 ca             	or     rdx,rcx
    c7d2:	48 63 34 93          	movsxd rsi,DWORD PTR [rbx+rdx*4]
    c7d6:	f3 0f 10 04 b5 00 00 	movss  xmm0,DWORD PTR [rsi*4+0x0]
    c7dd:	00 00 
    c7df:	f3 0f 59 c1          	mulss  xmm0,xmm1
    c7e3:	f3 0f 58 04 95 00 00 	addss  xmm0,DWORD PTR [rdx*4+0x0]
    c7ea:	00 00 
    c7ec:	f3 0f 11 04 95 00 00 	movss  DWORD PTR [rdx*4+0x0],xmm0
    c7f3:	00 00 
    c7f5:	48 ff c1             	inc    rcx
    c7f8:	48 83 f9 08          	cmp    rcx,0x8
    c7fc:	75 ce                	jne    c7cc <s4112+0x3f>
    c7fe:	48 83 c0 08          	add    rax,0x8
    c802:	48 3d 00 7d 00 00    	cmp    rax,0x7d00
    c808:	75 c0                	jne    c7ca <s4112+0x3d>
    c80a:	bf 00 00 00 00       	mov    edi,0x0
    c80f:	be 00 00 00 00       	mov    esi,0x0
    c814:	ba 00 00 00 00       	mov    edx,0x0
    c819:	b9 00 00 00 00       	mov    ecx,0x0
    c81e:	41 b8 00 00 00 00    	mov    r8d,0x0
    c824:	41 b9 00 00 00 00    	mov    r9d,0x0
    c82a:	0f 57 c0             	xorps  xmm0,xmm0
    c82d:	68 00 00 00 00       	push   0x0
    c832:	68 00 00 00 00       	push   0x0
    c837:	e8 00 00 00 00       	call   c83c <s4112+0xaf>
    c83c:	48 83 c4 10          	add    rsp,0x10
    c840:	41 ff c7             	inc    r15d
    c843:	41 81 ff a0 86 01 00 	cmp    r15d,0x186a0
    c84a:	0f 85 72 ff ff ff    	jne    c7c2 <s4112+0x35>
    c850:	49 83 c6 10          	add    r14,0x10
    c854:	4c 89 f7             	mov    rdi,r14
    c857:	31 f6                	xor    esi,esi
    c859:	e8 00 00 00 00       	call   c85e <s4112+0xd1>
    c85e:	bf 00 00 00 00       	mov    edi,0x0
    c863:	48 83 c4 10          	add    rsp,0x10
    c867:	5b                   	pop    rbx
    c868:	41 5e                	pop    r14
    c86a:	41 5f                	pop    r15
    c86c:	e9 00 00 00 00       	jmp    c871 <s4113>

000000000000c871 <s4113>:
    c871:	41 57                	push   r15
    c873:	41 56                	push   r14
    c875:	53                   	push   rbx
    c876:	49 89 fe             	mov    r14,rdi
    c879:	48 8b 5f 20          	mov    rbx,QWORD PTR [rdi+0x20]
    c87d:	bf 00 00 00 00       	mov    edi,0x0
    c882:	e8 00 00 00 00       	call   c887 <s4113+0x16>
    c887:	45 31 ff             	xor    r15d,r15d
    c88a:	4c 89 f7             	mov    rdi,r14
    c88d:	31 f6                	xor    esi,esi
    c88f:	e8 00 00 00 00       	call   c894 <s4113+0x23>
    c894:	31 c0                	xor    eax,eax
    c896:	31 c9                	xor    ecx,ecx
    c898:	48 89 c2             	mov    rdx,rax
    c89b:	48 09 ca             	or     rdx,rcx
    c89e:	48 63 34 93          	movsxd rsi,DWORD PTR [rbx+rdx*4]
    c8a2:	f3 0f 10 04 b5 00 00 	movss  xmm0,DWORD PTR [rsi*4+0x0]
    c8a9:	00 00 
    c8ab:	f3 0f 58 04 95 00 00 	addss  xmm0,DWORD PTR [rdx*4+0x0]
    c8b2:	00 00 
    c8b4:	f3 0f 11 04 b5 00 00 	movss  DWORD PTR [rsi*4+0x0],xmm0
    c8bb:	00 00 
    c8bd:	48 ff c1             	inc    rcx
    c8c0:	48 83 f9 08          	cmp    rcx,0x8
    c8c4:	75 d2                	jne    c898 <s4113+0x27>
    c8c6:	48 83 c0 08          	add    rax,0x8
    c8ca:	48 3d 00 7d 00 00    	cmp    rax,0x7d00
    c8d0:	75 c4                	jne    c896 <s4113+0x25>
    c8d2:	bf 00 00 00 00       	mov    edi,0x0
    c8d7:	be 00 00 00 00       	mov    esi,0x0
    c8dc:	ba 00 00 00 00       	mov    edx,0x0
    c8e1:	b9 00 00 00 00       	mov    ecx,0x0
    c8e6:	41 b8 00 00 00 00    	mov    r8d,0x0
    c8ec:	41 b9 00 00 00 00    	mov    r9d,0x0
    c8f2:	0f 57 c0             	xorps  xmm0,xmm0
    c8f5:	68 00 00 00 00       	push   0x0
    c8fa:	68 00 00 00 00       	push   0x0
    c8ff:	e8 00 00 00 00       	call   c904 <s4113+0x93>
    c904:	48 83 c4 10          	add    rsp,0x10
    c908:	41 ff c7             	inc    r15d
    c90b:	41 81 ff a0 86 01 00 	cmp    r15d,0x186a0
    c912:	75 80                	jne    c894 <s4113+0x23>
    c914:	49 83 c6 10          	add    r14,0x10
    c918:	4c 89 f7             	mov    rdi,r14
    c91b:	31 f6                	xor    esi,esi
    c91d:	e8 00 00 00 00       	call   c922 <s4113+0xb1>
    c922:	bf 00 00 00 00       	mov    edi,0x0
    c927:	5b                   	pop    rbx
    c928:	41 5e                	pop    r14
    c92a:	41 5f                	pop    r15
    c92c:	e9 00 00 00 00       	jmp    c931 <s4114>

000000000000c931 <s4114>:
    c931:	55                   	push   rbp
    c932:	41 57                	push   r15
    c934:	41 56                	push   r14
    c936:	41 55                	push   r13
    c938:	41 54                	push   r12
    c93a:	53                   	push   rbx
    c93b:	50                   	push   rax
    c93c:	48 89 fd             	mov    rbp,rdi
    c93f:	48 8b 47 20          	mov    rax,QWORD PTR [rdi+0x20]
    c943:	48 8b 18             	mov    rbx,QWORD PTR [rax]
    c946:	44 8b 78 08          	mov    r15d,DWORD PTR [rax+0x8]
    c94a:	bf 00 00 00 00       	mov    edi,0x0
    c94f:	e8 00 00 00 00       	call   c954 <s4114+0x23>
    c954:	45 31 e4             	xor    r12d,r12d
    c957:	48 89 2c 24          	mov    QWORD PTR [rsp],rbp
    c95b:	48 89 ef             	mov    rdi,rbp
    c95e:	31 f6                	xor    esi,esi
    c960:	e8 00 00 00 00       	call   c965 <s4114+0x34>
    c965:	41 8d 47 ff          	lea    eax,[r15-0x1]
    c969:	4c 63 e8             	movsxd r13,eax
    c96c:	bd ff 7c 00 00       	mov    ebp,0x7cff
    c971:	41 39 ed             	cmp    r13d,ebp
    c974:	41 0f 4f ed          	cmovg  ebp,r13d
    c978:	44 29 fd             	sub    ebp,r15d
    c97b:	44 8d 75 02          	lea    r14d,[rbp+0x2]
    c97f:	ff c5                	inc    ebp
    c981:	41 83 e6 07          	and    r14d,0x7
    c985:	41 81 ff 00 7d 00 00 	cmp    r15d,0x7d00
    c98c:	0f 8f a7 00 00 00    	jg     ca39 <s4114+0x108>
    c992:	4c 89 e8             	mov    rax,r13
    c995:	45 85 f6             	test   r14d,r14d
    c998:	74 3c                	je     c9d6 <s4114+0xa5>
    c99a:	4c 89 e8             	mov    rax,r13
    c99d:	44 89 f1             	mov    ecx,r14d
    c9a0:	ba ff 7c 00 00       	mov    edx,0x7cff
    c9a5:	2b 14 83             	sub    edx,DWORD PTR [rbx+rax*4]
    c9a8:	48 63 d2             	movsxd rdx,edx
    c9ab:	f3 0f 10 04 95 00 00 	movss  xmm0,DWORD PTR [rdx*4+0x0]
    c9b2:	00 00 
    c9b4:	f3 0f 59 04 85 00 00 	mulss  xmm0,DWORD PTR [rax*4+0x0]
    c9bb:	00 00 
    c9bd:	f3 0f 58 04 85 00 00 	addss  xmm0,DWORD PTR [rax*4+0x0]
    c9c4:	00 00 
    c9c6:	f3 0f 11 04 85 00 00 	movss  DWORD PTR [rax*4+0x0],xmm0
    c9cd:	00 00 
    c9cf:	48 ff c0             	inc    rax
    c9d2:	ff c9                	dec    ecx
    c9d4:	75 ca                	jne    c9a0 <s4114+0x6f>
    c9d6:	83 fd 07             	cmp    ebp,0x7
    c9d9:	72 5e                	jb     ca39 <s4114+0x108>
    c9db:	48 8d 0c 85 00 00 00 	lea    rcx,[rax*4+0x0]
    c9e2:	00 
    c9e3:	48 8d 14 83          	lea    rdx,[rbx+rax*4]
    c9e7:	31 f6                	xor    esi,esi
    c9e9:	bf ff 7c 00 00       	mov    edi,0x7cff
    c9ee:	2b 3c 32             	sub    edi,DWORD PTR [rdx+rsi*1]
    c9f1:	48 63 ff             	movsxd rdi,edi
    c9f4:	f3 0f 10 04 bd 00 00 	movss  xmm0,DWORD PTR [rdi*4+0x0]
    c9fb:	00 00 
    c9fd:	f3 0f 59 84 31 00 00 	mulss  xmm0,DWORD PTR [rcx+rsi*1+0x0]
    ca04:	00 00 
    ca06:	f3 0f 58 84 31 00 00 	addss  xmm0,DWORD PTR [rcx+rsi*1+0x0]
    ca0d:	00 00 
    ca0f:	f3 0f 11 84 31 00 00 	movss  DWORD PTR [rcx+rsi*1+0x0],xmm0
    ca16:	00 00 
    ca18:	48 83 c6 04          	add    rsi,0x4
    ca1c:	48 83 fe 20          	cmp    rsi,0x20
    ca20:	75 c7                	jne    c9e9 <s4114+0xb8>
    ca22:	48 8d 70 08          	lea    rsi,[rax+0x8]
    ca26:	48 83 c1 20          	add    rcx,0x20
    ca2a:	48 83 c2 20          	add    rdx,0x20
    ca2e:	48 3d f8 7c 00 00    	cmp    rax,0x7cf8
    ca34:	48 89 f0             	mov    rax,rsi
    ca37:	7c ae                	jl     c9e7 <s4114+0xb6>
    ca39:	bf 00 00 00 00       	mov    edi,0x0
    ca3e:	be 00 00 00 00       	mov    esi,0x0
    ca43:	ba 00 00 00 00       	mov    edx,0x0
    ca48:	b9 00 00 00 00       	mov    ecx,0x0
    ca4d:	41 b8 00 00 00 00    	mov    r8d,0x0
    ca53:	41 b9 00 00 00 00    	mov    r9d,0x0
    ca59:	0f 57 c0             	xorps  xmm0,xmm0
    ca5c:	68 00 00 00 00       	push   0x0
    ca61:	68 00 00 00 00       	push   0x0
    ca66:	e8 00 00 00 00       	call   ca6b <s4114+0x13a>
    ca6b:	48 83 c4 10          	add    rsp,0x10
    ca6f:	41 ff c4             	inc    r12d
    ca72:	41 81 fc a0 86 01 00 	cmp    r12d,0x186a0
    ca79:	0f 85 06 ff ff ff    	jne    c985 <s4114+0x54>
    ca7f:	48 8b 3c 24          	mov    rdi,QWORD PTR [rsp]
    ca83:	48 83 c7 10          	add    rdi,0x10
    ca87:	31 f6                	xor    esi,esi
    ca89:	e8 00 00 00 00       	call   ca8e <s4114+0x15d>
    ca8e:	bf 00 00 00 00       	mov    edi,0x0
    ca93:	48 83 c4 08          	add    rsp,0x8
    ca97:	5b                   	pop    rbx
    ca98:	41 5c                	pop    r12
    ca9a:	41 5d                	pop    r13
    ca9c:	41 5e                	pop    r14
    ca9e:	41 5f                	pop    r15
    caa0:	5d                   	pop    rbp
    caa1:	e9 00 00 00 00       	jmp    caa6 <s4115>

000000000000caa6 <s4115>:
    caa6:	41 57                	push   r15
    caa8:	41 56                	push   r14
    caaa:	53                   	push   rbx
    caab:	48 83 ec 10          	sub    rsp,0x10
    caaf:	49 89 fe             	mov    r14,rdi
    cab2:	48 8b 5f 20          	mov    rbx,QWORD PTR [rdi+0x20]
    cab6:	bf 00 00 00 00       	mov    edi,0x0
    cabb:	e8 00 00 00 00       	call   cac0 <s4115+0x1a>
    cac0:	45 31 ff             	xor    r15d,r15d
    cac3:	4c 89 f7             	mov    rdi,r14
    cac6:	31 f6                	xor    esi,esi
    cac8:	e8 00 00 00 00       	call   cacd <s4115+0x27>
    cacd:	31 c0                	xor    eax,eax
    cacf:	0f 57 c9             	xorps  xmm1,xmm1
    cad2:	31 c9                	xor    ecx,ecx
    cad4:	48 89 c2             	mov    rdx,rax
    cad7:	48 09 ca             	or     rdx,rcx
    cada:	f3 0f 10 04 95 00 00 	movss  xmm0,DWORD PTR [rdx*4+0x0]
    cae1:	00 00 
    cae3:	48 63 14 93          	movsxd rdx,DWORD PTR [rbx+rdx*4]
    cae7:	f3 0f 59 04 95 00 00 	mulss  xmm0,DWORD PTR [rdx*4+0x0]
    caee:	00 00 
    caf0:	f3 0f 58 c8          	addss  xmm1,xmm0
    caf4:	48 ff c1             	inc    rcx
    caf7:	48 83 f9 08          	cmp    rcx,0x8
    cafb:	75 d7                	jne    cad4 <s4115+0x2e>
    cafd:	48 83 c0 08          	add    rax,0x8
    cb01:	48 3d 00 7d 00 00    	cmp    rax,0x7d00
    cb07:	75 c9                	jne    cad2 <s4115+0x2c>
    cb09:	f3 0f 11 4c 24 0c    	movss  DWORD PTR [rsp+0xc],xmm1
    cb0f:	bf 00 00 00 00       	mov    edi,0x0
    cb14:	be 00 00 00 00       	mov    esi,0x0
    cb19:	ba 00 00 00 00       	mov    edx,0x0
    cb1e:	b9 00 00 00 00       	mov    ecx,0x0
    cb23:	41 b8 00 00 00 00    	mov    r8d,0x0
    cb29:	41 b9 00 00 00 00    	mov    r9d,0x0
    cb2f:	0f 57 c0             	xorps  xmm0,xmm0
    cb32:	68 00 00 00 00       	push   0x0
    cb37:	68 00 00 00 00       	push   0x0
    cb3c:	e8 00 00 00 00       	call   cb41 <s4115+0x9b>
    cb41:	48 83 c4 10          	add    rsp,0x10
    cb45:	41 ff c7             	inc    r15d
    cb48:	41 81 ff a0 86 01 00 	cmp    r15d,0x186a0
    cb4f:	0f 85 78 ff ff ff    	jne    cacd <s4115+0x27>
    cb55:	49 83 c6 10          	add    r14,0x10
    cb59:	4c 89 f7             	mov    rdi,r14
    cb5c:	31 f6                	xor    esi,esi
    cb5e:	e8 00 00 00 00       	call   cb63 <s4115+0xbd>
    cb63:	f3 0f 10 44 24 0c    	movss  xmm0,DWORD PTR [rsp+0xc]
    cb69:	48 83 c4 10          	add    rsp,0x10
    cb6d:	5b                   	pop    rbx
    cb6e:	41 5e                	pop    r14
    cb70:	41 5f                	pop    r15
    cb72:	c3                   	ret    

000000000000cb73 <s4116>:
    cb73:	41 57                	push   r15
    cb75:	41 56                	push   r14
    cb77:	41 55                	push   r13
    cb79:	41 54                	push   r12
    cb7b:	53                   	push   rbx
    cb7c:	48 83 ec 10          	sub    rsp,0x10
    cb80:	49 89 fe             	mov    r14,rdi
    cb83:	48 8b 47 20          	mov    rax,QWORD PTR [rdi+0x20]
    cb87:	4c 8b 38             	mov    r15,QWORD PTR [rax]
    cb8a:	4c 63 68 08          	movsxd r13,DWORD PTR [rax+0x8]
    cb8e:	48 63 58 0c          	movsxd rbx,DWORD PTR [rax+0xc]
    cb92:	bf 00 00 00 00       	mov    edi,0x0
    cb97:	e8 00 00 00 00       	call   cb9c <s4116+0x29>
    cb9c:	45 31 e4             	xor    r12d,r12d
    cb9f:	4c 89 f7             	mov    rdi,r14
    cba2:	31 f6                	xor    esi,esi
    cba4:	e8 00 00 00 00       	call   cba9 <s4116+0x36>
    cba9:	49 ff cd             	dec    r13
    cbac:	48 8d 1c 9d 00 00 00 	lea    rbx,[rbx*4+0x0]
    cbb3:	00 
    cbb4:	49 c1 e5 0a          	shl    r13,0xa
    cbb8:	b8 07 00 00 00       	mov    eax,0x7
    cbbd:	0f 57 db             	xorps  xmm3,xmm3
    cbc0:	49 63 4c 87 e4       	movsxd rcx,DWORD PTR [r15+rax*4-0x1c]
    cbc5:	f3 0f 10 44 83 e4    	movss  xmm0,DWORD PTR [rbx+rax*4-0x1c]
    cbcb:	f3 41 0f 59 84 8d 00 	mulss  xmm0,DWORD PTR [r13+rcx*4+0x0]
    cbd2:	00 00 00 
    cbd5:	f3 0f 10 4c 83 e8    	movss  xmm1,DWORD PTR [rbx+rax*4-0x18]
    cbdb:	49 63 4c 87 e8       	movsxd rcx,DWORD PTR [r15+rax*4-0x18]
    cbe0:	f3 41 0f 59 8c 8d 00 	mulss  xmm1,DWORD PTR [r13+rcx*4+0x0]
    cbe7:	00 00 00 
    cbea:	f3 0f 58 c3          	addss  xmm0,xmm3
    cbee:	f3 0f 58 c8          	addss  xmm1,xmm0
    cbf2:	f3 0f 10 44 83 ec    	movss  xmm0,DWORD PTR [rbx+rax*4-0x14]
    cbf8:	49 63 4c 87 ec       	movsxd rcx,DWORD PTR [r15+rax*4-0x14]
    cbfd:	f3 41 0f 59 84 8d 00 	mulss  xmm0,DWORD PTR [r13+rcx*4+0x0]
    cc04:	00 00 00 
    cc07:	f3 0f 58 c1          	addss  xmm0,xmm1
    cc0b:	f3 0f 10 4c 83 f0    	movss  xmm1,DWORD PTR [rbx+rax*4-0x10]
    cc11:	49 63 4c 87 f0       	movsxd rcx,DWORD PTR [r15+rax*4-0x10]
    cc16:	f3 41 0f 59 8c 8d 00 	mulss  xmm1,DWORD PTR [r13+rcx*4+0x0]
    cc1d:	00 00 00 
    cc20:	f3 0f 58 c8          	addss  xmm1,xmm0
    cc24:	f3 0f 10 44 83 f4    	movss  xmm0,DWORD PTR [rbx+rax*4-0xc]
    cc2a:	49 63 4c 87 f4       	movsxd rcx,DWORD PTR [r15+rax*4-0xc]
    cc2f:	f3 41 0f 59 84 8d 00 	mulss  xmm0,DWORD PTR [r13+rcx*4+0x0]
    cc36:	00 00 00 
    cc39:	f3 0f 10 54 83 f8    	movss  xmm2,DWORD PTR [rbx+rax*4-0x8]
    cc3f:	49 63 4c 87 f8       	movsxd rcx,DWORD PTR [r15+rax*4-0x8]
    cc44:	f3 41 0f 59 94 8d 00 	mulss  xmm2,DWORD PTR [r13+rcx*4+0x0]
    cc4b:	00 00 00 
    cc4e:	f3 0f 58 c1          	addss  xmm0,xmm1
    cc52:	f3 0f 58 d0          	addss  xmm2,xmm0
    cc56:	f3 0f 10 5c 83 fc    	movss  xmm3,DWORD PTR [rbx+rax*4-0x4]
    cc5c:	49 63 4c 87 fc       	movsxd rcx,DWORD PTR [r15+rax*4-0x4]
    cc61:	f3 41 0f 59 9c 8d 00 	mulss  xmm3,DWORD PTR [r13+rcx*4+0x0]
    cc68:	00 00 00 
    cc6b:	f3 0f 58 da          	addss  xmm3,xmm2
    cc6f:	48 3d ff 00 00 00    	cmp    rax,0xff
    cc75:	74 20                	je     cc97 <s4116+0x124>
    cc77:	f3 0f 10 04 83       	movss  xmm0,DWORD PTR [rbx+rax*4]
    cc7c:	49 63 0c 87          	movsxd rcx,DWORD PTR [r15+rax*4]
    cc80:	f3 41 0f 59 84 8d 00 	mulss  xmm0,DWORD PTR [r13+rcx*4+0x0]
    cc87:	00 00 00 
    cc8a:	f3 0f 58 d8          	addss  xmm3,xmm0
    cc8e:	48 83 c0 08          	add    rax,0x8
    cc92:	e9 29 ff ff ff       	jmp    cbc0 <s4116+0x4d>
    cc97:	f3 0f 11 5c 24 0c    	movss  DWORD PTR [rsp+0xc],xmm3
    cc9d:	bf 00 00 00 00       	mov    edi,0x0
    cca2:	be 00 00 00 00       	mov    esi,0x0
    cca7:	ba 00 00 00 00       	mov    edx,0x0
    ccac:	b9 00 00 00 00       	mov    ecx,0x0
    ccb1:	41 b8 00 00 00 00    	mov    r8d,0x0
    ccb7:	41 b9 00 00 00 00    	mov    r9d,0x0
    ccbd:	0f 57 c0             	xorps  xmm0,xmm0
    ccc0:	68 00 00 00 00       	push   0x0
    ccc5:	68 00 00 00 00       	push   0x0
    ccca:	e8 00 00 00 00       	call   cccf <s4116+0x15c>
    cccf:	48 83 c4 10          	add    rsp,0x10
    ccd3:	41 ff c4             	inc    r12d
    ccd6:	41 81 fc 80 96 98 00 	cmp    r12d,0x989680
    ccdd:	0f 85 d5 fe ff ff    	jne    cbb8 <s4116+0x45>
    cce3:	49 83 c6 10          	add    r14,0x10
    cce7:	4c 89 f7             	mov    rdi,r14
    ccea:	31 f6                	xor    esi,esi
    ccec:	e8 00 00 00 00       	call   ccf1 <s4116+0x17e>
    ccf1:	f3 0f 10 44 24 0c    	movss  xmm0,DWORD PTR [rsp+0xc]
    ccf7:	48 83 c4 10          	add    rsp,0x10
    ccfb:	5b                   	pop    rbx
    ccfc:	41 5c                	pop    r12
    ccfe:	41 5d                	pop    r13
    cd00:	41 5e                	pop    r14
    cd02:	41 5f                	pop    r15
    cd04:	c3                   	ret    

000000000000cd05 <s4117>:
    cd05:	41 56                	push   r14
    cd07:	53                   	push   rbx
    cd08:	50                   	push   rax
    cd09:	49 89 fe             	mov    r14,rdi
    cd0c:	bf 00 00 00 00       	mov    edi,0x0
    cd11:	e8 00 00 00 00       	call   cd16 <s4117+0x11>
    cd16:	31 db                	xor    ebx,ebx
    cd18:	4c 89 f7             	mov    rdi,r14
    cd1b:	31 f6                	xor    esi,esi
    cd1d:	e8 00 00 00 00       	call   cd22 <s4117+0x1d>
    cd22:	31 c0                	xor    eax,eax
    cd24:	31 c9                	xor    ecx,ecx
    cd26:	48 89 c2             	mov    rdx,rax
    cd29:	48 09 ca             	or     rdx,rcx
    cd2c:	48 8b 34 cd 00 00 00 	mov    rsi,QWORD PTR [rcx*8+0x0]
    cd33:	00 
    cd34:	48 89 f7             	mov    rdi,rsi
    cd37:	48 09 c7             	or     rdi,rax
    cd3a:	48 d1 ef             	shr    rdi,1
    cd3d:	48 21 f7             	and    rdi,rsi
    cd40:	f3 0f 10 04 bd 00 00 	movss  xmm0,DWORD PTR [rdi*4+0x0]
    cd47:	00 00 
    cd49:	f3 0f 59 04 95 00 00 	mulss  xmm0,DWORD PTR [rdx*4+0x0]
    cd50:	00 00 
    cd52:	f3 0f 58 04 95 00 00 	addss  xmm0,DWORD PTR [rdx*4+0x0]
    cd59:	00 00 
    cd5b:	f3 0f 11 04 95 00 00 	movss  DWORD PTR [rdx*4+0x0],xmm0
    cd62:	00 00 
    cd64:	48 ff c1             	inc    rcx
    cd67:	48 83 f9 08          	cmp    rcx,0x8
    cd6b:	75 b9                	jne    cd26 <s4117+0x21>
    cd6d:	48 83 c0 08          	add    rax,0x8
    cd71:	48 3d 00 7d 00 00    	cmp    rax,0x7d00
    cd77:	75 ab                	jne    cd24 <s4117+0x1f>
    cd79:	bf 00 00 00 00       	mov    edi,0x0
    cd7e:	be 00 00 00 00       	mov    esi,0x0
    cd83:	ba 00 00 00 00       	mov    edx,0x0
    cd88:	b9 00 00 00 00       	mov    ecx,0x0
    cd8d:	41 b8 00 00 00 00    	mov    r8d,0x0
    cd93:	41 b9 00 00 00 00    	mov    r9d,0x0
    cd99:	0f 57 c0             	xorps  xmm0,xmm0
    cd9c:	68 00 00 00 00       	push   0x0
    cda1:	68 00 00 00 00       	push   0x0
    cda6:	e8 00 00 00 00       	call   cdab <s4117+0xa6>
    cdab:	48 83 c4 10          	add    rsp,0x10
    cdaf:	ff c3                	inc    ebx
    cdb1:	81 fb a0 86 01 00    	cmp    ebx,0x186a0
    cdb7:	0f 85 65 ff ff ff    	jne    cd22 <s4117+0x1d>
    cdbd:	49 83 c6 10          	add    r14,0x10
    cdc1:	4c 89 f7             	mov    rdi,r14
    cdc4:	31 f6                	xor    esi,esi
    cdc6:	e8 00 00 00 00       	call   cdcb <s4117+0xc6>
    cdcb:	bf 00 00 00 00       	mov    edi,0x0
    cdd0:	48 83 c4 08          	add    rsp,0x8
    cdd4:	5b                   	pop    rbx
    cdd5:	41 5e                	pop    r14
    cdd7:	e9 00 00 00 00       	jmp    cddc <f>

000000000000cddc <f>:
    cddc:	f3 0f 59 c1          	mulss  xmm0,xmm1
    cde0:	c3                   	ret    

000000000000cde1 <s4121>:
    cde1:	41 56                	push   r14
    cde3:	53                   	push   rbx
    cde4:	50                   	push   rax
    cde5:	49 89 fe             	mov    r14,rdi
    cde8:	bf 00 00 00 00       	mov    edi,0x0
    cded:	e8 00 00 00 00       	call   cdf2 <s4121+0x11>
    cdf2:	31 db                	xor    ebx,ebx
    cdf4:	4c 89 f7             	mov    rdi,r14
    cdf7:	31 f6                	xor    esi,esi
    cdf9:	e8 00 00 00 00       	call   cdfe <s4121+0x1d>
    cdfe:	31 c0                	xor    eax,eax
    ce00:	31 c9                	xor    ecx,ecx
    ce02:	48 89 c2             	mov    rdx,rax
    ce05:	48 09 ca             	or     rdx,rcx
    ce08:	f3 0f 10 04 95 00 00 	movss  xmm0,DWORD PTR [rdx*4+0x0]
    ce0f:	00 00 
    ce11:	f3 0f 59 04 95 00 00 	mulss  xmm0,DWORD PTR [rdx*4+0x0]
    ce18:	00 00 
    ce1a:	f3 0f 58 04 95 00 00 	addss  xmm0,DWORD PTR [rdx*4+0x0]
    ce21:	00 00 
    ce23:	f3 0f 11 04 95 00 00 	movss  DWORD PTR [rdx*4+0x0],xmm0
    ce2a:	00 00 
    ce2c:	48 ff c1             	inc    rcx
    ce2f:	48 83 f9 08          	cmp    rcx,0x8
    ce33:	75 cd                	jne    ce02 <s4121+0x21>
    ce35:	48 83 c0 08          	add    rax,0x8
    ce39:	48 3d 00 7d 00 00    	cmp    rax,0x7d00
    ce3f:	75 bf                	jne    ce00 <s4121+0x1f>
    ce41:	bf 00 00 00 00       	mov    edi,0x0
    ce46:	be 00 00 00 00       	mov    esi,0x0
    ce4b:	ba 00 00 00 00       	mov    edx,0x0
    ce50:	b9 00 00 00 00       	mov    ecx,0x0
    ce55:	41 b8 00 00 00 00    	mov    r8d,0x0
    ce5b:	41 b9 00 00 00 00    	mov    r9d,0x0
    ce61:	0f 57 c0             	xorps  xmm0,xmm0
    ce64:	68 00 00 00 00       	push   0x0
    ce69:	68 00 00 00 00       	push   0x0
    ce6e:	e8 00 00 00 00       	call   ce73 <s4121+0x92>
    ce73:	48 83 c4 10          	add    rsp,0x10
    ce77:	ff c3                	inc    ebx
    ce79:	81 fb a0 86 01 00    	cmp    ebx,0x186a0
    ce7f:	0f 85 79 ff ff ff    	jne    cdfe <s4121+0x1d>
    ce85:	49 83 c6 10          	add    r14,0x10
    ce89:	4c 89 f7             	mov    rdi,r14
    ce8c:	31 f6                	xor    esi,esi
    ce8e:	e8 00 00 00 00       	call   ce93 <s4121+0xb2>
    ce93:	bf 00 00 00 00       	mov    edi,0x0
    ce98:	48 83 c4 08          	add    rsp,0x8
    ce9c:	5b                   	pop    rbx
    ce9d:	41 5e                	pop    r14
    ce9f:	e9 00 00 00 00       	jmp    cea4 <va>

000000000000cea4 <va>:
    cea4:	55                   	push   rbp
    cea5:	53                   	push   rbx
    cea6:	50                   	push   rax
    cea7:	48 89 fb             	mov    rbx,rdi
    ceaa:	bf 00 00 00 00       	mov    edi,0x0
    ceaf:	e8 00 00 00 00       	call   ceb4 <va+0x10>
    ceb4:	48 89 df             	mov    rdi,rbx
    ceb7:	31 f6                	xor    esi,esi
    ceb9:	e8 00 00 00 00       	call   cebe <va+0x1a>
    cebe:	bd 40 42 0f 00       	mov    ebp,0xf4240
    cec3:	bf 00 00 00 00       	mov    edi,0x0
    cec8:	be 00 00 00 00       	mov    esi,0x0
    cecd:	ba 00 f4 01 00       	mov    edx,0x1f400
    ced2:	e8 00 00 00 00       	call   ced7 <va+0x33>
    ced7:	bf 00 00 00 00       	mov    edi,0x0
    cedc:	be 00 00 00 00       	mov    esi,0x0
    cee1:	ba 00 00 00 00       	mov    edx,0x0
    cee6:	b9 00 00 00 00       	mov    ecx,0x0
    ceeb:	41 b8 00 00 00 00    	mov    r8d,0x0
    cef1:	41 b9 00 00 00 00    	mov    r9d,0x0
    cef7:	0f 57 c0             	xorps  xmm0,xmm0
    cefa:	68 00 00 00 00       	push   0x0
    ceff:	68 00 00 00 00       	push   0x0
    cf04:	e8 00 00 00 00       	call   cf09 <va+0x65>
    cf09:	48 83 c4 10          	add    rsp,0x10
    cf0d:	ff cd                	dec    ebp
    cf0f:	75 b2                	jne    cec3 <va+0x1f>
    cf11:	48 83 c3 10          	add    rbx,0x10
    cf15:	48 89 df             	mov    rdi,rbx
    cf18:	31 f6                	xor    esi,esi
    cf1a:	e8 00 00 00 00       	call   cf1f <va+0x7b>
    cf1f:	bf 00 00 00 00       	mov    edi,0x0
    cf24:	48 83 c4 08          	add    rsp,0x8
    cf28:	5b                   	pop    rbx
    cf29:	5d                   	pop    rbp
    cf2a:	e9 00 00 00 00       	jmp    cf2f <vag>

000000000000cf2f <vag>:
    cf2f:	41 57                	push   r15
    cf31:	41 56                	push   r14
    cf33:	53                   	push   rbx
    cf34:	49 89 fe             	mov    r14,rdi
    cf37:	48 8b 5f 20          	mov    rbx,QWORD PTR [rdi+0x20]
    cf3b:	bf 00 00 00 00       	mov    edi,0x0
    cf40:	e8 00 00 00 00       	call   cf45 <vag+0x16>
    cf45:	45 31 ff             	xor    r15d,r15d
    cf48:	4c 89 f7             	mov    rdi,r14
    cf4b:	31 f6                	xor    esi,esi
    cf4d:	e8 00 00 00 00       	call   cf52 <vag+0x23>
    cf52:	31 c0                	xor    eax,eax
    cf54:	31 c9                	xor    ecx,ecx
    cf56:	48 89 c2             	mov    rdx,rax
    cf59:	48 09 ca             	or     rdx,rcx
    cf5c:	48 63 34 93          	movsxd rsi,DWORD PTR [rbx+rdx*4]
    cf60:	f3 0f 10 04 b5 00 00 	movss  xmm0,DWORD PTR [rsi*4+0x0]
    cf67:	00 00 
    cf69:	f3 0f 11 04 95 00 00 	movss  DWORD PTR [rdx*4+0x0],xmm0
    cf70:	00 00 
    cf72:	48 ff c1             	inc    rcx
    cf75:	48 83 f9 08          	cmp    rcx,0x8
    cf79:	75 db                	jne    cf56 <vag+0x27>
    cf7b:	48 83 c0 08          	add    rax,0x8
    cf7f:	48 3d 00 7d 00 00    	cmp    rax,0x7d00
    cf85:	75 cd                	jne    cf54 <vag+0x25>
    cf87:	bf 00 00 00 00       	mov    edi,0x0
    cf8c:	be 00 00 00 00       	mov    esi,0x0
    cf91:	ba 00 00 00 00       	mov    edx,0x0
    cf96:	b9 00 00 00 00       	mov    ecx,0x0
    cf9b:	41 b8 00 00 00 00    	mov    r8d,0x0
    cfa1:	41 b9 00 00 00 00    	mov    r9d,0x0
    cfa7:	0f 57 c0             	xorps  xmm0,xmm0
    cfaa:	68 00 00 00 00       	push   0x0
    cfaf:	68 00 00 00 00       	push   0x0
    cfb4:	e8 00 00 00 00       	call   cfb9 <vag+0x8a>
    cfb9:	48 83 c4 10          	add    rsp,0x10
    cfbd:	41 ff c7             	inc    r15d
    cfc0:	41 81 ff 40 0d 03 00 	cmp    r15d,0x30d40
    cfc7:	75 89                	jne    cf52 <vag+0x23>
    cfc9:	49 83 c6 10          	add    r14,0x10
    cfcd:	4c 89 f7             	mov    rdi,r14
    cfd0:	31 f6                	xor    esi,esi
    cfd2:	e8 00 00 00 00       	call   cfd7 <vag+0xa8>
    cfd7:	bf 00 00 00 00       	mov    edi,0x0
    cfdc:	5b                   	pop    rbx
    cfdd:	41 5e                	pop    r14
    cfdf:	41 5f                	pop    r15
    cfe1:	e9 00 00 00 00       	jmp    cfe6 <vas>

000000000000cfe6 <vas>:
    cfe6:	41 57                	push   r15
    cfe8:	41 56                	push   r14
    cfea:	53                   	push   rbx
    cfeb:	49 89 fe             	mov    r14,rdi
    cfee:	48 8b 5f 20          	mov    rbx,QWORD PTR [rdi+0x20]
    cff2:	bf 00 00 00 00       	mov    edi,0x0
    cff7:	e8 00 00 00 00       	call   cffc <vas+0x16>
    cffc:	45 31 ff             	xor    r15d,r15d
    cfff:	4c 89 f7             	mov    rdi,r14
    d002:	31 f6                	xor    esi,esi
    d004:	e8 00 00 00 00       	call   d009 <vas+0x23>
    d009:	31 c0                	xor    eax,eax
    d00b:	31 c9                	xor    ecx,ecx
    d00d:	48 89 c2             	mov    rdx,rax
    d010:	48 09 ca             	or     rdx,rcx
    d013:	f3 0f 10 04 95 00 00 	movss  xmm0,DWORD PTR [rdx*4+0x0]
    d01a:	00 00 
    d01c:	48 63 14 93          	movsxd rdx,DWORD PTR [rbx+rdx*4]
    d020:	f3 0f 11 04 95 00 00 	movss  DWORD PTR [rdx*4+0x0],xmm0
    d027:	00 00 
    d029:	48 ff c1             	inc    rcx
    d02c:	48 83 f9 08          	cmp    rcx,0x8
    d030:	75 db                	jne    d00d <vas+0x27>
    d032:	48 83 c0 08          	add    rax,0x8
    d036:	48 3d 00 7d 00 00    	cmp    rax,0x7d00
    d03c:	75 cd                	jne    d00b <vas+0x25>
    d03e:	bf 00 00 00 00       	mov    edi,0x0
    d043:	be 00 00 00 00       	mov    esi,0x0
    d048:	ba 00 00 00 00       	mov    edx,0x0
    d04d:	b9 00 00 00 00       	mov    ecx,0x0
    d052:	41 b8 00 00 00 00    	mov    r8d,0x0
    d058:	41 b9 00 00 00 00    	mov    r9d,0x0
    d05e:	0f 57 c0             	xorps  xmm0,xmm0
    d061:	68 00 00 00 00       	push   0x0
    d066:	68 00 00 00 00       	push   0x0
    d06b:	e8 00 00 00 00       	call   d070 <vas+0x8a>
    d070:	48 83 c4 10          	add    rsp,0x10
    d074:	41 ff c7             	inc    r15d
    d077:	41 81 ff 40 0d 03 00 	cmp    r15d,0x30d40
    d07e:	75 89                	jne    d009 <vas+0x23>
    d080:	49 83 c6 10          	add    r14,0x10
    d084:	4c 89 f7             	mov    rdi,r14
    d087:	31 f6                	xor    esi,esi
    d089:	e8 00 00 00 00       	call   d08e <vas+0xa8>
    d08e:	bf 00 00 00 00       	mov    edi,0x0
    d093:	5b                   	pop    rbx
    d094:	41 5e                	pop    r14
    d096:	41 5f                	pop    r15
    d098:	e9 00 00 00 00       	jmp    d09d <vif>

000000000000d09d <vif>:
    d09d:	41 56                	push   r14
    d09f:	53                   	push   rbx
    d0a0:	50                   	push   rax
    d0a1:	49 89 fe             	mov    r14,rdi
    d0a4:	bf 00 00 00 00       	mov    edi,0x0
    d0a9:	e8 00 00 00 00       	call   d0ae <vif+0x11>
    d0ae:	31 db                	xor    ebx,ebx
    d0b0:	4c 89 f7             	mov    rdi,r14
    d0b3:	31 f6                	xor    esi,esi
    d0b5:	e8 00 00 00 00       	call   d0ba <vif+0x1d>
    d0ba:	0f 57 c9             	xorps  xmm1,xmm1
    d0bd:	48 c7 c0 00 0c fe ff 	mov    rax,0xfffffffffffe0c00
    d0c4:	f3 0f 10 80 00 00 00 	movss  xmm0,DWORD PTR [rax+0x0]
    d0cb:	00 
    d0cc:	0f 2e c1             	ucomiss xmm0,xmm1
    d0cf:	76 08                	jbe    d0d9 <vif+0x3c>
    d0d1:	f3 0f 11 80 00 00 00 	movss  DWORD PTR [rax+0x0],xmm0
    d0d8:	00 
    d0d9:	f3 0f 10 80 00 00 00 	movss  xmm0,DWORD PTR [rax+0x0]
    d0e0:	00 
    d0e1:	0f 2e c1             	ucomiss xmm0,xmm1
    d0e4:	76 08                	jbe    d0ee <vif+0x51>
    d0e6:	f3 0f 11 80 00 00 00 	movss  DWORD PTR [rax+0x0],xmm0
    d0ed:	00 
    d0ee:	f3 0f 10 80 00 00 00 	movss  xmm0,DWORD PTR [rax+0x0]
    d0f5:	00 
    d0f6:	0f 2e c1             	ucomiss xmm0,xmm1
    d0f9:	76 08                	jbe    d103 <vif+0x66>
    d0fb:	f3 0f 11 80 00 00 00 	movss  DWORD PTR [rax+0x0],xmm0
    d102:	00 
    d103:	f3 0f 10 80 00 00 00 	movss  xmm0,DWORD PTR [rax+0x0]
    d10a:	00 
    d10b:	0f 2e c1             	ucomiss xmm0,xmm1
    d10e:	76 08                	jbe    d118 <vif+0x7b>
    d110:	f3 0f 11 80 00 00 00 	movss  DWORD PTR [rax+0x0],xmm0
    d117:	00 
    d118:	f3 0f 10 80 00 00 00 	movss  xmm0,DWORD PTR [rax+0x0]
    d11f:	00 
    d120:	0f 2e c1             	ucomiss xmm0,xmm1
    d123:	76 08                	jbe    d12d <vif+0x90>
    d125:	f3 0f 11 80 00 00 00 	movss  DWORD PTR [rax+0x0],xmm0
    d12c:	00 
    d12d:	f3 0f 10 80 00 00 00 	movss  xmm0,DWORD PTR [rax+0x0]
    d134:	00 
    d135:	0f 2e c1             	ucomiss xmm0,xmm1
    d138:	76 08                	jbe    d142 <vif+0xa5>
    d13a:	f3 0f 11 80 00 00 00 	movss  DWORD PTR [rax+0x0],xmm0
    d141:	00 
    d142:	f3 0f 10 80 00 00 00 	movss  xmm0,DWORD PTR [rax+0x0]
    d149:	00 
    d14a:	0f 2e c1             	ucomiss xmm0,xmm1
    d14d:	76 08                	jbe    d157 <vif+0xba>
    d14f:	f3 0f 11 80 00 00 00 	movss  DWORD PTR [rax+0x0],xmm0
    d156:	00 
    d157:	f3 0f 10 80 00 00 00 	movss  xmm0,DWORD PTR [rax+0x0]
    d15e:	00 
    d15f:	0f 2e c1             	ucomiss xmm0,xmm1
    d162:	76 08                	jbe    d16c <vif+0xcf>
    d164:	f3 0f 11 80 00 00 00 	movss  DWORD PTR [rax+0x0],xmm0
    d16b:	00 
    d16c:	48 83 c0 20          	add    rax,0x20
    d170:	0f 85 4e ff ff ff    	jne    d0c4 <vif+0x27>
    d176:	bf 00 00 00 00       	mov    edi,0x0
    d17b:	be 00 00 00 00       	mov    esi,0x0
    d180:	ba 00 00 00 00       	mov    edx,0x0
    d185:	b9 00 00 00 00       	mov    ecx,0x0
    d18a:	41 b8 00 00 00 00    	mov    r8d,0x0
    d190:	41 b9 00 00 00 00    	mov    r9d,0x0
    d196:	0f 57 c0             	xorps  xmm0,xmm0
    d199:	68 00 00 00 00       	push   0x0
    d19e:	68 00 00 00 00       	push   0x0
    d1a3:	e8 00 00 00 00       	call   d1a8 <vif+0x10b>
    d1a8:	0f 57 c9             	xorps  xmm1,xmm1
    d1ab:	48 83 c4 10          	add    rsp,0x10
    d1af:	ff c3                	inc    ebx
    d1b1:	81 fb a0 86 01 00    	cmp    ebx,0x186a0
    d1b7:	0f 85 00 ff ff ff    	jne    d0bd <vif+0x20>
    d1bd:	49 83 c6 10          	add    r14,0x10
    d1c1:	4c 89 f7             	mov    rdi,r14
    d1c4:	31 f6                	xor    esi,esi
    d1c6:	e8 00 00 00 00       	call   d1cb <vif+0x12e>
    d1cb:	bf 00 00 00 00       	mov    edi,0x0
    d1d0:	48 83 c4 08          	add    rsp,0x8
    d1d4:	5b                   	pop    rbx
    d1d5:	41 5e                	pop    r14
    d1d7:	e9 00 00 00 00       	jmp    d1dc <vpv>

000000000000d1dc <vpv>:
    d1dc:	41 56                	push   r14
    d1de:	53                   	push   rbx
    d1df:	50                   	push   rax
    d1e0:	49 89 fe             	mov    r14,rdi
    d1e3:	bf 00 00 00 00       	mov    edi,0x0
    d1e8:	e8 00 00 00 00       	call   d1ed <vpv+0x11>
    d1ed:	31 db                	xor    ebx,ebx
    d1ef:	4c 89 f7             	mov    rdi,r14
    d1f2:	31 f6                	xor    esi,esi
    d1f4:	e8 00 00 00 00       	call   d1f9 <vpv+0x1d>
    d1f9:	31 c0                	xor    eax,eax
    d1fb:	31 c9                	xor    ecx,ecx
    d1fd:	48 89 c2             	mov    rdx,rax
    d200:	48 09 ca             	or     rdx,rcx
    d203:	f3 0f 10 04 95 00 00 	movss  xmm0,DWORD PTR [rdx*4+0x0]
    d20a:	00 00 
    d20c:	f3 0f 58 04 95 00 00 	addss  xmm0,DWORD PTR [rdx*4+0x0]
    d213:	00 00 
    d215:	f3 0f 11 04 95 00 00 	movss  DWORD PTR [rdx*4+0x0],xmm0
    d21c:	00 00 
    d21e:	48 ff c1             	inc    rcx
    d221:	48 83 f9 08          	cmp    rcx,0x8
    d225:	75 d6                	jne    d1fd <vpv+0x21>
    d227:	48 83 c0 08          	add    rax,0x8
    d22b:	48 3d 00 7d 00 00    	cmp    rax,0x7d00
    d231:	75 c8                	jne    d1fb <vpv+0x1f>
    d233:	bf 00 00 00 00       	mov    edi,0x0
    d238:	be 00 00 00 00       	mov    esi,0x0
    d23d:	ba 00 00 00 00       	mov    edx,0x0
    d242:	b9 00 00 00 00       	mov    ecx,0x0
    d247:	41 b8 00 00 00 00    	mov    r8d,0x0
    d24d:	41 b9 00 00 00 00    	mov    r9d,0x0
    d253:	0f 57 c0             	xorps  xmm0,xmm0
    d256:	68 00 00 00 00       	push   0x0
    d25b:	68 00 00 00 00       	push   0x0
    d260:	e8 00 00 00 00       	call   d265 <vpv+0x89>
    d265:	48 83 c4 10          	add    rsp,0x10
    d269:	ff c3                	inc    ebx
    d26b:	81 fb 40 42 0f 00    	cmp    ebx,0xf4240
    d271:	75 86                	jne    d1f9 <vpv+0x1d>
    d273:	49 83 c6 10          	add    r14,0x10
    d277:	4c 89 f7             	mov    rdi,r14
    d27a:	31 f6                	xor    esi,esi
    d27c:	e8 00 00 00 00       	call   d281 <vpv+0xa5>
    d281:	bf 00 00 00 00       	mov    edi,0x0
    d286:	48 83 c4 08          	add    rsp,0x8
    d28a:	5b                   	pop    rbx
    d28b:	41 5e                	pop    r14
    d28d:	e9 00 00 00 00       	jmp    d292 <vtv>

000000000000d292 <vtv>:
    d292:	41 56                	push   r14
    d294:	53                   	push   rbx
    d295:	50                   	push   rax
    d296:	49 89 fe             	mov    r14,rdi
    d299:	bf 00 00 00 00       	mov    edi,0x0
    d29e:	e8 00 00 00 00       	call   d2a3 <vtv+0x11>
    d2a3:	31 db                	xor    ebx,ebx
    d2a5:	4c 89 f7             	mov    rdi,r14
    d2a8:	31 f6                	xor    esi,esi
    d2aa:	e8 00 00 00 00       	call   d2af <vtv+0x1d>
    d2af:	31 c0                	xor    eax,eax
    d2b1:	31 c9                	xor    ecx,ecx
    d2b3:	48 89 c2             	mov    rdx,rax
    d2b6:	48 09 ca             	or     rdx,rcx
    d2b9:	f3 0f 10 04 95 00 00 	movss  xmm0,DWORD PTR [rdx*4+0x0]
    d2c0:	00 00 
    d2c2:	f3 0f 59 04 95 00 00 	mulss  xmm0,DWORD PTR [rdx*4+0x0]
    d2c9:	00 00 
    d2cb:	f3 0f 11 04 95 00 00 	movss  DWORD PTR [rdx*4+0x0],xmm0
    d2d2:	00 00 
    d2d4:	48 ff c1             	inc    rcx
    d2d7:	48 83 f9 08          	cmp    rcx,0x8
    d2db:	75 d6                	jne    d2b3 <vtv+0x21>
    d2dd:	48 83 c0 08          	add    rax,0x8
    d2e1:	48 3d 00 7d 00 00    	cmp    rax,0x7d00
    d2e7:	75 c8                	jne    d2b1 <vtv+0x1f>
    d2e9:	bf 00 00 00 00       	mov    edi,0x0
    d2ee:	be 00 00 00 00       	mov    esi,0x0
    d2f3:	ba 00 00 00 00       	mov    edx,0x0
    d2f8:	b9 00 00 00 00       	mov    ecx,0x0
    d2fd:	41 b8 00 00 00 00    	mov    r8d,0x0
    d303:	41 b9 00 00 00 00    	mov    r9d,0x0
    d309:	0f 57 c0             	xorps  xmm0,xmm0
    d30c:	68 00 00 00 00       	push   0x0
    d311:	68 00 00 00 00       	push   0x0
    d316:	e8 00 00 00 00       	call   d31b <vtv+0x89>
    d31b:	48 83 c4 10          	add    rsp,0x10
    d31f:	ff c3                	inc    ebx
    d321:	81 fb 40 42 0f 00    	cmp    ebx,0xf4240
    d327:	75 86                	jne    d2af <vtv+0x1d>
    d329:	49 83 c6 10          	add    r14,0x10
    d32d:	4c 89 f7             	mov    rdi,r14
    d330:	31 f6                	xor    esi,esi
    d332:	e8 00 00 00 00       	call   d337 <vtv+0xa5>
    d337:	bf 00 00 00 00       	mov    edi,0x0
    d33c:	48 83 c4 08          	add    rsp,0x8
    d340:	5b                   	pop    rbx
    d341:	41 5e                	pop    r14
    d343:	e9 00 00 00 00       	jmp    d348 <vpvtv>

000000000000d348 <vpvtv>:
    d348:	41 56                	push   r14
    d34a:	53                   	push   rbx
    d34b:	50                   	push   rax
    d34c:	49 89 fe             	mov    r14,rdi
    d34f:	bf 00 00 00 00       	mov    edi,0x0
    d354:	e8 00 00 00 00       	call   d359 <vpvtv+0x11>
    d359:	31 db                	xor    ebx,ebx
    d35b:	4c 89 f7             	mov    rdi,r14
    d35e:	31 f6                	xor    esi,esi
    d360:	e8 00 00 00 00       	call   d365 <vpvtv+0x1d>
    d365:	31 c0                	xor    eax,eax
    d367:	31 c9                	xor    ecx,ecx
    d369:	48 89 c2             	mov    rdx,rax
    d36c:	48 09 ca             	or     rdx,rcx
    d36f:	f3 0f 10 04 95 00 00 	movss  xmm0,DWORD PTR [rdx*4+0x0]
    d376:	00 00 
    d378:	f3 0f 59 04 95 00 00 	mulss  xmm0,DWORD PTR [rdx*4+0x0]
    d37f:	00 00 
    d381:	f3 0f 58 04 95 00 00 	addss  xmm0,DWORD PTR [rdx*4+0x0]
    d388:	00 00 
    d38a:	f3 0f 11 04 95 00 00 	movss  DWORD PTR [rdx*4+0x0],xmm0
    d391:	00 00 
    d393:	48 ff c1             	inc    rcx
    d396:	48 83 f9 08          	cmp    rcx,0x8
    d39a:	75 cd                	jne    d369 <vpvtv+0x21>
    d39c:	48 83 c0 08          	add    rax,0x8
    d3a0:	48 3d 00 7d 00 00    	cmp    rax,0x7d00
    d3a6:	75 bf                	jne    d367 <vpvtv+0x1f>
    d3a8:	bf 00 00 00 00       	mov    edi,0x0
    d3ad:	be 00 00 00 00       	mov    esi,0x0
    d3b2:	ba 00 00 00 00       	mov    edx,0x0
    d3b7:	b9 00 00 00 00       	mov    ecx,0x0
    d3bc:	41 b8 00 00 00 00    	mov    r8d,0x0
    d3c2:	41 b9 00 00 00 00    	mov    r9d,0x0
    d3c8:	0f 57 c0             	xorps  xmm0,xmm0
    d3cb:	68 00 00 00 00       	push   0x0
    d3d0:	68 00 00 00 00       	push   0x0
    d3d5:	e8 00 00 00 00       	call   d3da <vpvtv+0x92>
    d3da:	48 83 c4 10          	add    rsp,0x10
    d3de:	ff c3                	inc    ebx
    d3e0:	81 fb 80 1a 06 00    	cmp    ebx,0x61a80
    d3e6:	0f 85 79 ff ff ff    	jne    d365 <vpvtv+0x1d>
    d3ec:	49 83 c6 10          	add    r14,0x10
    d3f0:	4c 89 f7             	mov    rdi,r14
    d3f3:	31 f6                	xor    esi,esi
    d3f5:	e8 00 00 00 00       	call   d3fa <vpvtv+0xb2>
    d3fa:	bf 00 00 00 00       	mov    edi,0x0
    d3ff:	48 83 c4 08          	add    rsp,0x8
    d403:	5b                   	pop    rbx
    d404:	41 5e                	pop    r14
    d406:	e9 00 00 00 00       	jmp    d40b <vpvts>

000000000000d40b <vpvts>:
    d40b:	41 56                	push   r14
    d40d:	53                   	push   rbx
    d40e:	50                   	push   rax
    d40f:	49 89 fe             	mov    r14,rdi
    d412:	48 8b 47 20          	mov    rax,QWORD PTR [rdi+0x20]
    d416:	f3 0f 2a 00          	cvtsi2ss xmm0,DWORD PTR [rax]
    d41a:	f3 0f 11 44 24 04    	movss  DWORD PTR [rsp+0x4],xmm0
    d420:	bf 00 00 00 00       	mov    edi,0x0
    d425:	e8 00 00 00 00       	call   d42a <vpvts+0x1f>
    d42a:	31 db                	xor    ebx,ebx
    d42c:	4c 89 f7             	mov    rdi,r14
    d42f:	31 f6                	xor    esi,esi
    d431:	e8 00 00 00 00       	call   d436 <vpvts+0x2b>
    d436:	31 c0                	xor    eax,eax
    d438:	f3 0f 10 4c 24 04    	movss  xmm1,DWORD PTR [rsp+0x4]
    d43e:	31 c9                	xor    ecx,ecx
    d440:	48 89 c2             	mov    rdx,rax
    d443:	48 09 ca             	or     rdx,rcx
    d446:	f3 0f 10 04 95 00 00 	movss  xmm0,DWORD PTR [rdx*4+0x0]
    d44d:	00 00 
    d44f:	f3 0f 59 c1          	mulss  xmm0,xmm1
    d453:	f3 0f 58 04 95 00 00 	addss  xmm0,DWORD PTR [rdx*4+0x0]
    d45a:	00 00 
    d45c:	f3 0f 11 04 95 00 00 	movss  DWORD PTR [rdx*4+0x0],xmm0
    d463:	00 00 
    d465:	48 ff c1             	inc    rcx
    d468:	48 83 f9 08          	cmp    rcx,0x8
    d46c:	75 d2                	jne    d440 <vpvts+0x35>
    d46e:	48 83 c0 08          	add    rax,0x8
    d472:	48 3d 00 7d 00 00    	cmp    rax,0x7d00
    d478:	75 c4                	jne    d43e <vpvts+0x33>
    d47a:	bf 00 00 00 00       	mov    edi,0x0
    d47f:	be 00 00 00 00       	mov    esi,0x0
    d484:	ba 00 00 00 00       	mov    edx,0x0
    d489:	b9 00 00 00 00       	mov    ecx,0x0
    d48e:	41 b8 00 00 00 00    	mov    r8d,0x0
    d494:	41 b9 00 00 00 00    	mov    r9d,0x0
    d49a:	0f 57 c0             	xorps  xmm0,xmm0
    d49d:	68 00 00 00 00       	push   0x0
    d4a2:	68 00 00 00 00       	push   0x0
    d4a7:	e8 00 00 00 00       	call   d4ac <vpvts+0xa1>
    d4ac:	48 83 c4 10          	add    rsp,0x10
    d4b0:	ff c3                	inc    ebx
    d4b2:	81 fb a0 86 01 00    	cmp    ebx,0x186a0
    d4b8:	0f 85 78 ff ff ff    	jne    d436 <vpvts+0x2b>
    d4be:	49 83 c6 10          	add    r14,0x10
    d4c2:	4c 89 f7             	mov    rdi,r14
    d4c5:	31 f6                	xor    esi,esi
    d4c7:	e8 00 00 00 00       	call   d4cc <vpvts+0xc1>
    d4cc:	bf 00 00 00 00       	mov    edi,0x0
    d4d1:	48 83 c4 08          	add    rsp,0x8
    d4d5:	5b                   	pop    rbx
    d4d6:	41 5e                	pop    r14
    d4d8:	e9 00 00 00 00       	jmp    d4dd <vpvpv>

000000000000d4dd <vpvpv>:
    d4dd:	41 56                	push   r14
    d4df:	53                   	push   rbx
    d4e0:	50                   	push   rax
    d4e1:	49 89 fe             	mov    r14,rdi
    d4e4:	bf 00 00 00 00       	mov    edi,0x0
    d4e9:	e8 00 00 00 00       	call   d4ee <vpvpv+0x11>
    d4ee:	31 db                	xor    ebx,ebx
    d4f0:	4c 89 f7             	mov    rdi,r14
    d4f3:	31 f6                	xor    esi,esi
    d4f5:	e8 00 00 00 00       	call   d4fa <vpvpv+0x1d>
    d4fa:	31 c0                	xor    eax,eax
    d4fc:	31 c9                	xor    ecx,ecx
    d4fe:	48 89 c2             	mov    rdx,rax
    d501:	48 09 ca             	or     rdx,rcx
    d504:	f3 0f 10 04 95 00 00 	movss  xmm0,DWORD PTR [rdx*4+0x0]
    d50b:	00 00 
    d50d:	f3 0f 58 04 95 00 00 	addss  xmm0,DWORD PTR [rdx*4+0x0]
    d514:	00 00 
    d516:	f3 0f 58 04 95 00 00 	addss  xmm0,DWORD PTR [rdx*4+0x0]
    d51d:	00 00 
    d51f:	f3 0f 11 04 95 00 00 	movss  DWORD PTR [rdx*4+0x0],xmm0
    d526:	00 00 
    d528:	48 ff c1             	inc    rcx
    d52b:	48 83 f9 08          	cmp    rcx,0x8
    d52f:	75 cd                	jne    d4fe <vpvpv+0x21>
    d531:	48 83 c0 08          	add    rax,0x8
    d535:	48 3d 00 7d 00 00    	cmp    rax,0x7d00
    d53b:	75 bf                	jne    d4fc <vpvpv+0x1f>
    d53d:	bf 00 00 00 00       	mov    edi,0x0
    d542:	be 00 00 00 00       	mov    esi,0x0
    d547:	ba 00 00 00 00       	mov    edx,0x0
    d54c:	b9 00 00 00 00       	mov    ecx,0x0
    d551:	41 b8 00 00 00 00    	mov    r8d,0x0
    d557:	41 b9 00 00 00 00    	mov    r9d,0x0
    d55d:	0f 57 c0             	xorps  xmm0,xmm0
    d560:	68 00 00 00 00       	push   0x0
    d565:	68 00 00 00 00       	push   0x0
    d56a:	e8 00 00 00 00       	call   d56f <vpvpv+0x92>
    d56f:	48 83 c4 10          	add    rsp,0x10
    d573:	ff c3                	inc    ebx
    d575:	81 fb 80 1a 06 00    	cmp    ebx,0x61a80
    d57b:	0f 85 79 ff ff ff    	jne    d4fa <vpvpv+0x1d>
    d581:	49 83 c6 10          	add    r14,0x10
    d585:	4c 89 f7             	mov    rdi,r14
    d588:	31 f6                	xor    esi,esi
    d58a:	e8 00 00 00 00       	call   d58f <vpvpv+0xb2>
    d58f:	bf 00 00 00 00       	mov    edi,0x0
    d594:	48 83 c4 08          	add    rsp,0x8
    d598:	5b                   	pop    rbx
    d599:	41 5e                	pop    r14
    d59b:	e9 00 00 00 00       	jmp    d5a0 <vtvtv>

000000000000d5a0 <vtvtv>:
    d5a0:	41 56                	push   r14
    d5a2:	53                   	push   rbx
    d5a3:	50                   	push   rax
    d5a4:	49 89 fe             	mov    r14,rdi
    d5a7:	bf 00 00 00 00       	mov    edi,0x0
    d5ac:	e8 00 00 00 00       	call   d5b1 <vtvtv+0x11>
    d5b1:	31 db                	xor    ebx,ebx
    d5b3:	4c 89 f7             	mov    rdi,r14
    d5b6:	31 f6                	xor    esi,esi
    d5b8:	e8 00 00 00 00       	call   d5bd <vtvtv+0x1d>
    d5bd:	31 c0                	xor    eax,eax
    d5bf:	31 c9                	xor    ecx,ecx
    d5c1:	48 89 c2             	mov    rdx,rax
    d5c4:	48 09 ca             	or     rdx,rcx
    d5c7:	f3 0f 10 04 95 00 00 	movss  xmm0,DWORD PTR [rdx*4+0x0]
    d5ce:	00 00 
    d5d0:	f3 0f 59 04 95 00 00 	mulss  xmm0,DWORD PTR [rdx*4+0x0]
    d5d7:	00 00 
    d5d9:	f3 0f 59 04 95 00 00 	mulss  xmm0,DWORD PTR [rdx*4+0x0]
    d5e0:	00 00 
    d5e2:	f3 0f 11 04 95 00 00 	movss  DWORD PTR [rdx*4+0x0],xmm0
    d5e9:	00 00 
    d5eb:	48 ff c1             	inc    rcx
    d5ee:	48 83 f9 08          	cmp    rcx,0x8
    d5f2:	75 cd                	jne    d5c1 <vtvtv+0x21>
    d5f4:	48 83 c0 08          	add    rax,0x8
    d5f8:	48 3d 00 7d 00 00    	cmp    rax,0x7d00
    d5fe:	75 bf                	jne    d5bf <vtvtv+0x1f>
    d600:	bf 00 00 00 00       	mov    edi,0x0
    d605:	be 00 00 00 00       	mov    esi,0x0
    d60a:	ba 00 00 00 00       	mov    edx,0x0
    d60f:	b9 00 00 00 00       	mov    ecx,0x0
    d614:	41 b8 00 00 00 00    	mov    r8d,0x0
    d61a:	41 b9 00 00 00 00    	mov    r9d,0x0
    d620:	0f 57 c0             	xorps  xmm0,xmm0
    d623:	68 00 00 00 00       	push   0x0
    d628:	68 00 00 00 00       	push   0x0
    d62d:	e8 00 00 00 00       	call   d632 <vtvtv+0x92>
    d632:	48 83 c4 10          	add    rsp,0x10
    d636:	ff c3                	inc    ebx
    d638:	81 fb 80 1a 06 00    	cmp    ebx,0x61a80
    d63e:	0f 85 79 ff ff ff    	jne    d5bd <vtvtv+0x1d>
    d644:	49 83 c6 10          	add    r14,0x10
    d648:	4c 89 f7             	mov    rdi,r14
    d64b:	31 f6                	xor    esi,esi
    d64d:	e8 00 00 00 00       	call   d652 <vtvtv+0xb2>
    d652:	bf 00 00 00 00       	mov    edi,0x0
    d657:	48 83 c4 08          	add    rsp,0x8
    d65b:	5b                   	pop    rbx
    d65c:	41 5e                	pop    r14
    d65e:	e9 00 00 00 00       	jmp    d663 <vsumr>

000000000000d663 <vsumr>:
    d663:	41 56                	push   r14
    d665:	53                   	push   rbx
    d666:	50                   	push   rax
    d667:	49 89 fe             	mov    r14,rdi
    d66a:	bf 00 00 00 00       	mov    edi,0x0
    d66f:	e8 00 00 00 00       	call   d674 <vsumr+0x11>
    d674:	31 db                	xor    ebx,ebx
    d676:	4c 89 f7             	mov    rdi,r14
    d679:	31 f6                	xor    esi,esi
    d67b:	e8 00 00 00 00       	call   d680 <vsumr+0x1d>
    d680:	0f 57 c0             	xorps  xmm0,xmm0
    d683:	31 c0                	xor    eax,eax
    d685:	31 c9                	xor    ecx,ecx
    d687:	48 89 c2             	mov    rdx,rax
    d68a:	48 09 ca             	or     rdx,rcx
    d68d:	f3 0f 58 04 95 00 00 	addss  xmm0,DWORD PTR [rdx*4+0x0]
    d694:	00 00 
    d696:	48 ff c1             	inc    rcx
    d699:	48 83 f9 08          	cmp    rcx,0x8
    d69d:	75 e8                	jne    d687 <vsumr+0x24>
    d69f:	48 83 c0 08          	add    rax,0x8
    d6a3:	48 3d 00 7d 00 00    	cmp    rax,0x7d00
    d6a9:	75 da                	jne    d685 <vsumr+0x22>
    d6ab:	bf 00 00 00 00       	mov    edi,0x0
    d6b0:	be 00 00 00 00       	mov    esi,0x0
    d6b5:	ba 00 00 00 00       	mov    edx,0x0
    d6ba:	b9 00 00 00 00       	mov    ecx,0x0
    d6bf:	41 b8 00 00 00 00    	mov    r8d,0x0
    d6c5:	41 b9 00 00 00 00    	mov    r9d,0x0
    d6cb:	f3 0f 11 44 24 04    	movss  DWORD PTR [rsp+0x4],xmm0
    d6d1:	68 00 00 00 00       	push   0x0
    d6d6:	68 00 00 00 00       	push   0x0
    d6db:	e8 00 00 00 00       	call   d6e0 <vsumr+0x7d>
    d6e0:	48 83 c4 10          	add    rsp,0x10
    d6e4:	ff c3                	inc    ebx
    d6e6:	81 fb 40 42 0f 00    	cmp    ebx,0xf4240
    d6ec:	75 92                	jne    d680 <vsumr+0x1d>
    d6ee:	49 83 c6 10          	add    r14,0x10
    d6f2:	4c 89 f7             	mov    rdi,r14
    d6f5:	31 f6                	xor    esi,esi
    d6f7:	e8 00 00 00 00       	call   d6fc <vsumr+0x99>
    d6fc:	f3 0f 10 44 24 04    	movss  xmm0,DWORD PTR [rsp+0x4]
    d702:	48 83 c4 08          	add    rsp,0x8
    d706:	5b                   	pop    rbx
    d707:	41 5e                	pop    r14
    d709:	c3                   	ret    

000000000000d70a <vdotr>:
    d70a:	41 56                	push   r14
    d70c:	53                   	push   rbx
    d70d:	50                   	push   rax
    d70e:	49 89 fe             	mov    r14,rdi
    d711:	bf 00 00 00 00       	mov    edi,0x0
    d716:	e8 00 00 00 00       	call   d71b <vdotr+0x11>
    d71b:	31 db                	xor    ebx,ebx
    d71d:	4c 89 f7             	mov    rdi,r14
    d720:	31 f6                	xor    esi,esi
    d722:	e8 00 00 00 00       	call   d727 <vdotr+0x1d>
    d727:	0f 57 c0             	xorps  xmm0,xmm0
    d72a:	31 c0                	xor    eax,eax
    d72c:	31 c9                	xor    ecx,ecx
    d72e:	48 89 c2             	mov    rdx,rax
    d731:	48 09 ca             	or     rdx,rcx
    d734:	f3 0f 10 0c 95 00 00 	movss  xmm1,DWORD PTR [rdx*4+0x0]
    d73b:	00 00 
    d73d:	f3 0f 59 0c 95 00 00 	mulss  xmm1,DWORD PTR [rdx*4+0x0]
    d744:	00 00 
    d746:	f3 0f 58 c1          	addss  xmm0,xmm1
    d74a:	48 ff c1             	inc    rcx
    d74d:	48 83 f9 08          	cmp    rcx,0x8
    d751:	75 db                	jne    d72e <vdotr+0x24>
    d753:	48 83 c0 08          	add    rax,0x8
    d757:	48 3d 00 7d 00 00    	cmp    rax,0x7d00
    d75d:	75 cd                	jne    d72c <vdotr+0x22>
    d75f:	bf 00 00 00 00       	mov    edi,0x0
    d764:	be 00 00 00 00       	mov    esi,0x0
    d769:	ba 00 00 00 00       	mov    edx,0x0
    d76e:	b9 00 00 00 00       	mov    ecx,0x0
    d773:	41 b8 00 00 00 00    	mov    r8d,0x0
    d779:	41 b9 00 00 00 00    	mov    r9d,0x0
    d77f:	68 00 00 00 00       	push   0x0
    d784:	68 00 00 00 00       	push   0x0
    d789:	f3 0f 11 44 24 14    	movss  DWORD PTR [rsp+0x14],xmm0
    d78f:	e8 00 00 00 00       	call   d794 <vdotr+0x8a>
    d794:	48 83 c4 10          	add    rsp,0x10
    d798:	ff c3                	inc    ebx
    d79a:	81 fb 40 42 0f 00    	cmp    ebx,0xf4240
    d7a0:	75 85                	jne    d727 <vdotr+0x1d>
    d7a2:	49 83 c6 10          	add    r14,0x10
    d7a6:	4c 89 f7             	mov    rdi,r14
    d7a9:	31 f6                	xor    esi,esi
    d7ab:	e8 00 00 00 00       	call   d7b0 <vdotr+0xa6>
    d7b0:	f3 0f 10 44 24 04    	movss  xmm0,DWORD PTR [rsp+0x4]
    d7b6:	48 83 c4 08          	add    rsp,0x8
    d7ba:	5b                   	pop    rbx
    d7bb:	41 5e                	pop    r14
    d7bd:	c3                   	ret    

000000000000d7be <vbor>:
    d7be:	41 56                	push   r14
    d7c0:	53                   	push   rbx
    d7c1:	50                   	push   rax
    d7c2:	49 89 fe             	mov    r14,rdi
    d7c5:	bf 00 00 00 00       	mov    edi,0x0
    d7ca:	e8 00 00 00 00       	call   d7cf <vbor+0x11>
    d7cf:	31 db                	xor    ebx,ebx
    d7d1:	4c 89 f7             	mov    rdi,r14
    d7d4:	31 f6                	xor    esi,esi
    d7d6:	e8 00 00 00 00       	call   d7db <vbor+0x1d>
    d7db:	48 c7 c0 00 fc ff ff 	mov    rax,0xfffffffffffffc00
    d7e2:	f3 0f 10 a8 00 00 00 	movss  xmm5,DWORD PTR [rax+0x0]
    d7e9:	00 
    d7ea:	f3 0f 10 98 00 00 00 	movss  xmm3,DWORD PTR [rax+0x0]
    d7f1:	00 
    d7f2:	f3 0f 10 80 00 00 00 	movss  xmm0,DWORD PTR [rax+0x0]
    d7f9:	00 
    d7fa:	f3 0f 10 88 00 00 00 	movss  xmm1,DWORD PTR [rax+0x0]
    d801:	00 
    d802:	f3 0f 10 a0 00 00 00 	movss  xmm4,DWORD PTR [rax+0x0]
    d809:	00 
    d80a:	f3 44 0f 10 80 00 00 	movss  xmm8,DWORD PTR [rax+0x0]
    d811:	00 00 
    d813:	0f 28 f5             	movaps xmm6,xmm5
    d816:	f3 0f 59 f3          	mulss  xmm6,xmm3
    d81a:	0f 28 fe             	movaps xmm7,xmm6
    d81d:	f3 0f 59 f8          	mulss  xmm7,xmm0
    d821:	0f 28 d6             	movaps xmm2,xmm6
    d824:	f3 0f 59 d1          	mulss  xmm2,xmm1
    d828:	f3 0f 58 d7          	addss  xmm2,xmm7
    d82c:	0f 28 fe             	movaps xmm7,xmm6
    d82f:	f3 0f 59 fc          	mulss  xmm7,xmm4
    d833:	f3 0f 58 fa          	addss  xmm7,xmm2
    d837:	f3 41 0f 59 f0       	mulss  xmm6,xmm8
    d83c:	f3 0f 58 f7          	addss  xmm6,xmm7
    d840:	0f 28 d5             	movaps xmm2,xmm5
    d843:	f3 0f 59 d0          	mulss  xmm2,xmm0
    d847:	0f 28 fa             	movaps xmm7,xmm2
    d84a:	f3 0f 59 f9          	mulss  xmm7,xmm1
    d84e:	f3 0f 58 fe          	addss  xmm7,xmm6
    d852:	0f 28 f2             	movaps xmm6,xmm2
    d855:	f3 0f 59 f4          	mulss  xmm6,xmm4
    d859:	f3 0f 58 f7          	addss  xmm6,xmm7
    d85d:	f3 41 0f 59 d0       	mulss  xmm2,xmm8
    d862:	f3 0f 58 d6          	addss  xmm2,xmm6
    d866:	0f 28 f5             	movaps xmm6,xmm5
    d869:	f3 0f 59 f1          	mulss  xmm6,xmm1
    d86d:	0f 28 fe             	movaps xmm7,xmm6
    d870:	f3 0f 59 fc          	mulss  xmm7,xmm4
    d874:	f3 0f 58 fa          	addss  xmm7,xmm2
    d878:	f3 41 0f 59 f0       	mulss  xmm6,xmm8
    d87d:	f3 0f 58 f7          	addss  xmm6,xmm7
    d881:	f3 0f 59 ec          	mulss  xmm5,xmm4
    d885:	f3 41 0f 59 e8       	mulss  xmm5,xmm8
    d88a:	f3 0f 58 ee          	addss  xmm5,xmm6
    d88e:	0f 28 d3             	movaps xmm2,xmm3
    d891:	f3 0f 59 d0          	mulss  xmm2,xmm0
    d895:	0f 28 f2             	movaps xmm6,xmm2
    d898:	f3 0f 59 f1          	mulss  xmm6,xmm1
    d89c:	0f 28 fa             	movaps xmm7,xmm2
    d89f:	f3 0f 59 fc          	mulss  xmm7,xmm4
    d8a3:	f3 0f 58 fe          	addss  xmm7,xmm6
    d8a7:	f3 41 0f 59 d0       	mulss  xmm2,xmm8
    d8ac:	f3 0f 58 d7          	addss  xmm2,xmm7
    d8b0:	0f 28 f3             	movaps xmm6,xmm3
    d8b3:	f3 0f 59 f1          	mulss  xmm6,xmm1
    d8b7:	0f 28 fe             	movaps xmm7,xmm6
    d8ba:	f3 0f 59 fc          	mulss  xmm7,xmm4
    d8be:	f3 0f 58 fa          	addss  xmm7,xmm2
    d8c2:	f3 41 0f 59 f0       	mulss  xmm6,xmm8
    d8c7:	f3 0f 58 f7          	addss  xmm6,xmm7
    d8cb:	f3 0f 59 dc          	mulss  xmm3,xmm4
    d8cf:	f3 41 0f 59 d8       	mulss  xmm3,xmm8
    d8d4:	f3 0f 58 de          	addss  xmm3,xmm6
    d8d8:	f3 0f 59 dd          	mulss  xmm3,xmm5
    d8dc:	0f 28 d0             	movaps xmm2,xmm0
    d8df:	f3 0f 59 d1          	mulss  xmm2,xmm1
    d8e3:	0f 28 ea             	movaps xmm5,xmm2
    d8e6:	f3 0f 59 ec          	mulss  xmm5,xmm4
    d8ea:	f3 41 0f 59 d0       	mulss  xmm2,xmm8
    d8ef:	f3 0f 58 d5          	addss  xmm2,xmm5
    d8f3:	f3 0f 59 c4          	mulss  xmm0,xmm4
    d8f7:	f3 41 0f 59 c0       	mulss  xmm0,xmm8
    d8fc:	f3 0f 58 c2          	addss  xmm0,xmm2
    d900:	f3 0f 59 c3          	mulss  xmm0,xmm3
    d904:	f3 0f 59 cc          	mulss  xmm1,xmm4
    d908:	f3 41 0f 59 c8       	mulss  xmm1,xmm8
    d90d:	f3 0f 59 c8          	mulss  xmm1,xmm0
    d911:	f3 0f 11 88 00 00 00 	movss  DWORD PTR [rax+0x0],xmm1
    d918:	00 
    d919:	48 83 c0 04          	add    rax,0x4
    d91d:	0f 85 bf fe ff ff    	jne    d7e2 <vbor+0x24>
    d923:	bf 00 00 00 00       	mov    edi,0x0
    d928:	be 00 00 00 00       	mov    esi,0x0
    d92d:	ba 00 00 00 00       	mov    edx,0x0
    d932:	b9 00 00 00 00       	mov    ecx,0x0
    d937:	41 b8 00 00 00 00    	mov    r8d,0x0
    d93d:	41 b9 00 00 00 00    	mov    r9d,0x0
    d943:	0f 57 c0             	xorps  xmm0,xmm0
    d946:	68 00 00 00 00       	push   0x0
    d94b:	68 00 00 00 00       	push   0x0
    d950:	e8 00 00 00 00       	call   d955 <vbor+0x197>
    d955:	48 83 c4 10          	add    rsp,0x10
    d959:	ff c3                	inc    ebx
    d95b:	81 fb 40 42 0f 00    	cmp    ebx,0xf4240
    d961:	0f 85 74 fe ff ff    	jne    d7db <vbor+0x1d>
    d967:	49 83 c6 10          	add    r14,0x10
    d96b:	4c 89 f7             	mov    rdi,r14
    d96e:	31 f6                	xor    esi,esi
    d970:	e8 00 00 00 00       	call   d975 <vbor+0x1b7>
    d975:	bf 00 00 00 00       	mov    edi,0x0
    d97a:	48 83 c4 08          	add    rsp,0x8
    d97e:	5b                   	pop    rbx
    d97f:	41 5e                	pop    r14
    d981:	e9 00 00 00 00       	jmp    d986 <time_function>

000000000000d986 <time_function>:
    d986:	53                   	push   rbx
    d987:	48 83 ec 30          	sub    rsp,0x30
    d98b:	48 89 f8             	mov    rax,rdi
    d98e:	0f 57 c0             	xorps  xmm0,xmm0
    d991:	48 89 e3             	mov    rbx,rsp
    d994:	0f 29 43 10          	movaps XMMWORD PTR [rbx+0x10],xmm0
    d998:	0f 29 03             	movaps XMMWORD PTR [rbx],xmm0
    d99b:	48 89 73 20          	mov    QWORD PTR [rbx+0x20],rsi
    d99f:	48 89 df             	mov    rdi,rbx
    d9a2:	ff d0                	call   rax
    d9a4:	f2 48 0f 2a 0b       	cvtsi2sd xmm1,QWORD PTR [rbx]
    d9a9:	f2 48 0f 2a 5b 08    	cvtsi2sd xmm3,QWORD PTR [rbx+0x8]
    d9af:	f2 0f 10 25 00 00 00 	movsd  xmm4,QWORD PTR [rip+0x0]        # d9b7 <time_function+0x31>
    d9b6:	00 
    d9b7:	f2 0f 5e dc          	divsd  xmm3,xmm4
    d9bb:	f2 0f 58 d9          	addsd  xmm3,xmm1
    d9bf:	f2 48 0f 2a 6b 10    	cvtsi2sd xmm5,QWORD PTR [rbx+0x10]
    d9c5:	f2 48 0f 2a 53 18    	cvtsi2sd xmm2,QWORD PTR [rbx+0x18]
    d9cb:	0f 57 c9             	xorps  xmm1,xmm1
    d9ce:	f3 0f 5a c8          	cvtss2sd xmm1,xmm0
    d9d2:	f2 0f 5e d4          	divsd  xmm2,xmm4
    d9d6:	f2 0f 58 d5          	addsd  xmm2,xmm5
    d9da:	f2 0f 5c d3          	subsd  xmm2,xmm3
    d9de:	bf 00 00 00 00       	mov    edi,0x0
    d9e3:	66 0f 28 c2          	movapd xmm0,xmm2
    d9e7:	b0 02                	mov    al,0x2
    d9e9:	e8 00 00 00 00       	call   d9ee <time_function+0x68>
    d9ee:	48 83 c4 30          	add    rsp,0x30
    d9f2:	5b                   	pop    rbx
    d9f3:	c3                   	ret    

000000000000d9f4 <main>:
    d9f4:	55                   	push   rbp
    d9f5:	41 57                	push   r15
    d9f7:	41 56                	push   r14
    d9f9:	41 54                	push   r12
    d9fb:	53                   	push   rbx
    d9fc:	48 83 ec 60          	sub    rsp,0x60
    da00:	bd 01 00 00 00       	mov    ebp,0x1
    da05:	4c 8d 7c 24 0c       	lea    r15,[rsp+0xc]
    da0a:	41 89 2f             	mov    DWORD PTR [r15],ebp
    da0d:	48 8d 5c 24 28       	lea    rbx,[rsp+0x28]
    da12:	4c 8d 74 24 08       	lea    r14,[rsp+0x8]
    da17:	4c 8d 64 24 04       	lea    r12,[rsp+0x4]
    da1c:	48 89 df             	mov    rdi,rbx
    da1f:	4c 89 f6             	mov    rsi,r14
    da22:	4c 89 e2             	mov    rdx,r12
    da25:	e8 00 00 00 00       	call   da2a <main+0x36>
    da2a:	bf 00 00 00 00       	mov    edi,0x0
    da2f:	e8 00 00 00 00       	call   da34 <main+0x40>
    da34:	bf 00 00 00 00       	mov    edi,0x0
    da39:	31 f6                	xor    esi,esi
    da3b:	e8 00 00 00 00       	call   da40 <main+0x4c>
    da40:	bf 00 00 00 00       	mov    edi,0x0
    da45:	31 f6                	xor    esi,esi
    da47:	e8 00 00 00 00       	call   da4c <main+0x58>
    da4c:	bf 00 00 00 00       	mov    edi,0x0
    da51:	31 f6                	xor    esi,esi
    da53:	e8 00 00 00 00       	call   da58 <main+0x64>
    da58:	bf 00 00 00 00       	mov    edi,0x0
    da5d:	31 f6                	xor    esi,esi
    da5f:	e8 00 00 00 00       	call   da64 <main+0x70>
    da64:	bf 00 00 00 00       	mov    edi,0x0
    da69:	31 f6                	xor    esi,esi
    da6b:	e8 00 00 00 00       	call   da70 <main+0x7c>
    da70:	bf 00 00 00 00       	mov    edi,0x0
    da75:	31 f6                	xor    esi,esi
    da77:	e8 00 00 00 00       	call   da7c <main+0x88>
    da7c:	bf 00 00 00 00       	mov    edi,0x0
    da81:	31 f6                	xor    esi,esi
    da83:	e8 00 00 00 00       	call   da88 <main+0x94>
    da88:	bf 00 00 00 00       	mov    edi,0x0
    da8d:	31 f6                	xor    esi,esi
    da8f:	e8 00 00 00 00       	call   da94 <main+0xa0>
    da94:	bf 00 00 00 00       	mov    edi,0x0
    da99:	31 f6                	xor    esi,esi
    da9b:	e8 00 00 00 00       	call   daa0 <main+0xac>
    daa0:	bf 00 00 00 00       	mov    edi,0x0
    daa5:	31 f6                	xor    esi,esi
    daa7:	e8 00 00 00 00       	call   daac <main+0xb8>
    daac:	bf 00 00 00 00       	mov    edi,0x0
    dab1:	31 f6                	xor    esi,esi
    dab3:	e8 00 00 00 00       	call   dab8 <main+0xc4>
    dab8:	bf 00 00 00 00       	mov    edi,0x0
    dabd:	31 f6                	xor    esi,esi
    dabf:	e8 00 00 00 00       	call   dac4 <main+0xd0>
    dac4:	bf 00 00 00 00       	mov    edi,0x0
    dac9:	31 f6                	xor    esi,esi
    dacb:	e8 00 00 00 00       	call   dad0 <main+0xdc>
    dad0:	bf 00 00 00 00       	mov    edi,0x0
    dad5:	31 f6                	xor    esi,esi
    dad7:	e8 00 00 00 00       	call   dadc <main+0xe8>
    dadc:	bf 00 00 00 00       	mov    edi,0x0
    dae1:	31 f6                	xor    esi,esi
    dae3:	e8 00 00 00 00       	call   dae8 <main+0xf4>
    dae8:	48 b8 01 00 00 00 01 	movabs rax,0x100000001
    daef:	00 00 00 
    daf2:	48 8d 74 24 20       	lea    rsi,[rsp+0x20]
    daf7:	48 89 06             	mov    QWORD PTR [rsi],rax
    dafa:	bf 00 00 00 00       	mov    edi,0x0
    daff:	e8 00 00 00 00       	call   db04 <main+0x110>
    db04:	bf 00 00 00 00       	mov    edi,0x0
    db09:	31 f6                	xor    esi,esi
    db0b:	e8 00 00 00 00       	call   db10 <main+0x11c>
    db10:	bf 00 00 00 00       	mov    edi,0x0
    db15:	31 f6                	xor    esi,esi
    db17:	e8 00 00 00 00       	call   db1c <main+0x128>
    db1c:	bf 00 00 00 00       	mov    edi,0x0
    db21:	31 f6                	xor    esi,esi
    db23:	e8 00 00 00 00       	call   db28 <main+0x134>
    db28:	bf 00 00 00 00       	mov    edi,0x0
    db2d:	31 f6                	xor    esi,esi
    db2f:	e8 00 00 00 00       	call   db34 <main+0x140>
    db34:	bf 00 00 00 00       	mov    edi,0x0
    db39:	31 f6                	xor    esi,esi
    db3b:	e8 00 00 00 00       	call   db40 <main+0x14c>
    db40:	bf 00 00 00 00       	mov    edi,0x0
    db45:	31 f6                	xor    esi,esi
    db47:	e8 00 00 00 00       	call   db4c <main+0x158>
    db4c:	bf 00 00 00 00       	mov    edi,0x0
    db51:	31 f6                	xor    esi,esi
    db53:	e8 00 00 00 00       	call   db58 <main+0x164>
    db58:	bf 00 00 00 00       	mov    edi,0x0
    db5d:	31 f6                	xor    esi,esi
    db5f:	e8 00 00 00 00       	call   db64 <main+0x170>
    db64:	bf 00 00 00 00       	mov    edi,0x0
    db69:	31 f6                	xor    esi,esi
    db6b:	e8 00 00 00 00       	call   db70 <main+0x17c>
    db70:	bf 00 00 00 00       	mov    edi,0x0
    db75:	31 f6                	xor    esi,esi
    db77:	e8 00 00 00 00       	call   db7c <main+0x188>
    db7c:	bf 00 00 00 00       	mov    edi,0x0
    db81:	31 f6                	xor    esi,esi
    db83:	e8 00 00 00 00       	call   db88 <main+0x194>
    db88:	bf 00 00 00 00       	mov    edi,0x0
    db8d:	31 f6                	xor    esi,esi
    db8f:	e8 00 00 00 00       	call   db94 <main+0x1a0>
    db94:	bf 00 00 00 00       	mov    edi,0x0
    db99:	31 f6                	xor    esi,esi
    db9b:	e8 00 00 00 00       	call   dba0 <main+0x1ac>
    dba0:	bf 00 00 00 00       	mov    edi,0x0
    dba5:	4c 89 fe             	mov    rsi,r15
    dba8:	e8 00 00 00 00       	call   dbad <main+0x1b9>
    dbad:	bf 00 00 00 00       	mov    edi,0x0
    dbb2:	4c 89 fe             	mov    rsi,r15
    dbb5:	e8 00 00 00 00       	call   dbba <main+0x1c6>
    dbba:	41 8b 07             	mov    eax,DWORD PTR [r15]
    dbbd:	48 8d 74 24 18       	lea    rsi,[rsp+0x18]
    dbc2:	89 06                	mov    DWORD PTR [rsi],eax
    dbc4:	89 6e 04             	mov    DWORD PTR [rsi+0x4],ebp
    dbc7:	bf 00 00 00 00       	mov    edi,0x0
    dbcc:	e8 00 00 00 00       	call   dbd1 <main+0x1dd>
    dbd1:	bf 00 00 00 00       	mov    edi,0x0
    dbd6:	31 f6                	xor    esi,esi
    dbd8:	e8 00 00 00 00       	call   dbdd <main+0x1e9>
    dbdd:	48 89 e6             	mov    rsi,rsp
    dbe0:	c7 06 80 3e 00 00    	mov    DWORD PTR [rsi],0x3e80
    dbe6:	bf 00 00 00 00       	mov    edi,0x0
    dbeb:	e8 00 00 00 00       	call   dbf0 <main+0x1fc>
    dbf0:	bf 00 00 00 00       	mov    edi,0x0
    dbf5:	4c 89 fe             	mov    rsi,r15
    dbf8:	e8 00 00 00 00       	call   dbfd <main+0x209>
    dbfd:	bf 00 00 00 00       	mov    edi,0x0
    dc02:	31 f6                	xor    esi,esi
    dc04:	e8 00 00 00 00       	call   dc09 <main+0x215>
    dc09:	bf 00 00 00 00       	mov    edi,0x0
    dc0e:	31 f6                	xor    esi,esi
    dc10:	e8 00 00 00 00       	call   dc15 <main+0x221>
    dc15:	bf 00 00 00 00       	mov    edi,0x0
    dc1a:	31 f6                	xor    esi,esi
    dc1c:	e8 00 00 00 00       	call   dc21 <main+0x22d>
    dc21:	bf 00 00 00 00       	mov    edi,0x0
    dc26:	31 f6                	xor    esi,esi
    dc28:	e8 00 00 00 00       	call   dc2d <main+0x239>
    dc2d:	bf 00 00 00 00       	mov    edi,0x0
    dc32:	31 f6                	xor    esi,esi
    dc34:	e8 00 00 00 00       	call   dc39 <main+0x245>
    dc39:	bf 00 00 00 00       	mov    edi,0x0
    dc3e:	31 f6                	xor    esi,esi
    dc40:	e8 00 00 00 00       	call   dc45 <main+0x251>
    dc45:	bf 00 00 00 00       	mov    edi,0x0
    dc4a:	31 f6                	xor    esi,esi
    dc4c:	e8 00 00 00 00       	call   dc51 <main+0x25d>
    dc51:	bf 00 00 00 00       	mov    edi,0x0
    dc56:	31 f6                	xor    esi,esi
    dc58:	e8 00 00 00 00       	call   dc5d <main+0x269>
    dc5d:	bf 00 00 00 00       	mov    edi,0x0
    dc62:	31 f6                	xor    esi,esi
    dc64:	e8 00 00 00 00       	call   dc69 <main+0x275>
    dc69:	bf 00 00 00 00       	mov    edi,0x0
    dc6e:	31 f6                	xor    esi,esi
    dc70:	e8 00 00 00 00       	call   dc75 <main+0x281>
    dc75:	bf 00 00 00 00       	mov    edi,0x0
    dc7a:	31 f6                	xor    esi,esi
    dc7c:	e8 00 00 00 00       	call   dc81 <main+0x28d>
    dc81:	bf 00 00 00 00       	mov    edi,0x0
    dc86:	31 f6                	xor    esi,esi
    dc88:	e8 00 00 00 00       	call   dc8d <main+0x299>
    dc8d:	bf 00 00 00 00       	mov    edi,0x0
    dc92:	31 f6                	xor    esi,esi
    dc94:	e8 00 00 00 00       	call   dc99 <main+0x2a5>
    dc99:	bf 00 00 00 00       	mov    edi,0x0
    dc9e:	31 f6                	xor    esi,esi
    dca0:	e8 00 00 00 00       	call   dca5 <main+0x2b1>
    dca5:	f3 41 0f 10 06       	movss  xmm0,DWORD PTR [r14]
    dcaa:	48 8d 74 24 10       	lea    rsi,[rsp+0x10]
    dcaf:	f3 0f 11 06          	movss  DWORD PTR [rsi],xmm0
    dcb3:	f3 41 0f 10 04 24    	movss  xmm0,DWORD PTR [r12]
    dcb9:	f3 0f 11 46 04       	movss  DWORD PTR [rsi+0x4],xmm0
    dcbe:	bf 00 00 00 00       	mov    edi,0x0
    dcc3:	e8 00 00 00 00       	call   dcc8 <main+0x2d4>
    dcc8:	bf 00 00 00 00       	mov    edi,0x0
    dccd:	31 f6                	xor    esi,esi
    dccf:	e8 00 00 00 00       	call   dcd4 <main+0x2e0>
    dcd4:	bf 00 00 00 00       	mov    edi,0x0
    dcd9:	31 f6                	xor    esi,esi
    dcdb:	e8 00 00 00 00       	call   dce0 <main+0x2ec>
    dce0:	bf 00 00 00 00       	mov    edi,0x0
    dce5:	31 f6                	xor    esi,esi
    dce7:	e8 00 00 00 00       	call   dcec <main+0x2f8>
    dcec:	bf 00 00 00 00       	mov    edi,0x0
    dcf1:	31 f6                	xor    esi,esi
    dcf3:	e8 00 00 00 00       	call   dcf8 <main+0x304>
    dcf8:	bf 00 00 00 00       	mov    edi,0x0
    dcfd:	31 f6                	xor    esi,esi
    dcff:	e8 00 00 00 00       	call   dd04 <main+0x310>
    dd04:	bf 00 00 00 00       	mov    edi,0x0
    dd09:	31 f6                	xor    esi,esi
    dd0b:	e8 00 00 00 00       	call   dd10 <main+0x31c>
    dd10:	bf 00 00 00 00       	mov    edi,0x0
    dd15:	31 f6                	xor    esi,esi
    dd17:	e8 00 00 00 00       	call   dd1c <main+0x328>
    dd1c:	bf 00 00 00 00       	mov    edi,0x0
    dd21:	31 f6                	xor    esi,esi
    dd23:	e8 00 00 00 00       	call   dd28 <main+0x334>
    dd28:	bf 00 00 00 00       	mov    edi,0x0
    dd2d:	31 f6                	xor    esi,esi
    dd2f:	e8 00 00 00 00       	call   dd34 <main+0x340>
    dd34:	bf 00 00 00 00       	mov    edi,0x0
    dd39:	31 f6                	xor    esi,esi
    dd3b:	e8 00 00 00 00       	call   dd40 <main+0x34c>
    dd40:	bf 00 00 00 00       	mov    edi,0x0
    dd45:	31 f6                	xor    esi,esi
    dd47:	e8 00 00 00 00       	call   dd4c <main+0x358>
    dd4c:	bf 00 00 00 00       	mov    edi,0x0
    dd51:	31 f6                	xor    esi,esi
    dd53:	e8 00 00 00 00       	call   dd58 <main+0x364>
    dd58:	bf 00 00 00 00       	mov    edi,0x0
    dd5d:	31 f6                	xor    esi,esi
    dd5f:	e8 00 00 00 00       	call   dd64 <main+0x370>
    dd64:	bf 00 00 00 00       	mov    edi,0x0
    dd69:	31 f6                	xor    esi,esi
    dd6b:	e8 00 00 00 00       	call   dd70 <main+0x37c>
    dd70:	bf 00 00 00 00       	mov    edi,0x0
    dd75:	31 f6                	xor    esi,esi
    dd77:	e8 00 00 00 00       	call   dd7c <main+0x388>
    dd7c:	bf 00 00 00 00       	mov    edi,0x0
    dd81:	31 f6                	xor    esi,esi
    dd83:	e8 00 00 00 00       	call   dd88 <main+0x394>
    dd88:	bf 00 00 00 00       	mov    edi,0x0
    dd8d:	31 f6                	xor    esi,esi
    dd8f:	e8 00 00 00 00       	call   dd94 <main+0x3a0>
    dd94:	bf 00 00 00 00       	mov    edi,0x0
    dd99:	4c 89 f6             	mov    rsi,r14
    dd9c:	e8 00 00 00 00       	call   dda1 <main+0x3ad>
    dda1:	bf 00 00 00 00       	mov    edi,0x0
    dda6:	31 f6                	xor    esi,esi
    dda8:	e8 00 00 00 00       	call   ddad <main+0x3b9>
    ddad:	bf 00 00 00 00       	mov    edi,0x0
    ddb2:	31 f6                	xor    esi,esi
    ddb4:	e8 00 00 00 00       	call   ddb9 <main+0x3c5>
    ddb9:	bf 00 00 00 00       	mov    edi,0x0
    ddbe:	31 f6                	xor    esi,esi
    ddc0:	e8 00 00 00 00       	call   ddc5 <main+0x3d1>
    ddc5:	bf 00 00 00 00       	mov    edi,0x0
    ddca:	31 f6                	xor    esi,esi
    ddcc:	e8 00 00 00 00       	call   ddd1 <main+0x3dd>
    ddd1:	bf 00 00 00 00       	mov    edi,0x0
    ddd6:	31 f6                	xor    esi,esi
    ddd8:	e8 00 00 00 00       	call   dddd <main+0x3e9>
    dddd:	bf 00 00 00 00       	mov    edi,0x0
    dde2:	31 f6                	xor    esi,esi
    dde4:	e8 00 00 00 00       	call   dde9 <main+0x3f5>
    dde9:	bf 00 00 00 00       	mov    edi,0x0
    ddee:	31 f6                	xor    esi,esi
    ddf0:	e8 00 00 00 00       	call   ddf5 <main+0x401>
    ddf5:	bf 00 00 00 00       	mov    edi,0x0
    ddfa:	31 f6                	xor    esi,esi
    ddfc:	e8 00 00 00 00       	call   de01 <main+0x40d>
    de01:	bf 00 00 00 00       	mov    edi,0x0
    de06:	31 f6                	xor    esi,esi
    de08:	e8 00 00 00 00       	call   de0d <main+0x419>
    de0d:	bf 00 00 00 00       	mov    edi,0x0
    de12:	4c 89 f6             	mov    rsi,r14
    de15:	e8 00 00 00 00       	call   de1a <main+0x426>
    de1a:	bf 00 00 00 00       	mov    edi,0x0
    de1f:	31 f6                	xor    esi,esi
    de21:	e8 00 00 00 00       	call   de26 <main+0x432>
    de26:	bf 00 00 00 00       	mov    edi,0x0
    de2b:	31 f6                	xor    esi,esi
    de2d:	e8 00 00 00 00       	call   de32 <main+0x43e>
    de32:	bf 00 00 00 00       	mov    edi,0x0
    de37:	31 f6                	xor    esi,esi
    de39:	e8 00 00 00 00       	call   de3e <main+0x44a>
    de3e:	bf 00 00 00 00       	mov    edi,0x0
    de43:	31 f6                	xor    esi,esi
    de45:	e8 00 00 00 00       	call   de4a <main+0x456>
    de4a:	bf 00 00 00 00       	mov    edi,0x0
    de4f:	31 f6                	xor    esi,esi
    de51:	e8 00 00 00 00       	call   de56 <main+0x462>
    de56:	bf 00 00 00 00       	mov    edi,0x0
    de5b:	31 f6                	xor    esi,esi
    de5d:	e8 00 00 00 00       	call   de62 <main+0x46e>
    de62:	bf 00 00 00 00       	mov    edi,0x0
    de67:	31 f6                	xor    esi,esi
    de69:	e8 00 00 00 00       	call   de6e <main+0x47a>
    de6e:	bf 00 00 00 00       	mov    edi,0x0
    de73:	31 f6                	xor    esi,esi
    de75:	e8 00 00 00 00       	call   de7a <main+0x486>
    de7a:	bf 00 00 00 00       	mov    edi,0x0
    de7f:	31 f6                	xor    esi,esi
    de81:	e8 00 00 00 00       	call   de86 <main+0x492>
    de86:	bf 00 00 00 00       	mov    edi,0x0
    de8b:	31 f6                	xor    esi,esi
    de8d:	e8 00 00 00 00       	call   de92 <main+0x49e>
    de92:	bf 00 00 00 00       	mov    edi,0x0
    de97:	31 f6                	xor    esi,esi
    de99:	e8 00 00 00 00       	call   de9e <main+0x4aa>
    de9e:	bf 00 00 00 00       	mov    edi,0x0
    dea3:	31 f6                	xor    esi,esi
    dea5:	e8 00 00 00 00       	call   deaa <main+0x4b6>
    deaa:	bf 00 00 00 00       	mov    edi,0x0
    deaf:	31 f6                	xor    esi,esi
    deb1:	e8 00 00 00 00       	call   deb6 <main+0x4c2>
    deb6:	bf 00 00 00 00       	mov    edi,0x0
    debb:	31 f6                	xor    esi,esi
    debd:	e8 00 00 00 00       	call   dec2 <main+0x4ce>
    dec2:	bf 00 00 00 00       	mov    edi,0x0
    dec7:	31 f6                	xor    esi,esi
    dec9:	e8 00 00 00 00       	call   dece <main+0x4da>
    dece:	bf 00 00 00 00       	mov    edi,0x0
    ded3:	31 f6                	xor    esi,esi
    ded5:	e8 00 00 00 00       	call   deda <main+0x4e6>
    deda:	bf 00 00 00 00       	mov    edi,0x0
    dedf:	31 f6                	xor    esi,esi
    dee1:	e8 00 00 00 00       	call   dee6 <main+0x4f2>
    dee6:	bf 00 00 00 00       	mov    edi,0x0
    deeb:	31 f6                	xor    esi,esi
    deed:	e8 00 00 00 00       	call   def2 <main+0x4fe>
    def2:	bf 00 00 00 00       	mov    edi,0x0
    def7:	4c 89 fe             	mov    rsi,r15
    defa:	e8 00 00 00 00       	call   deff <main+0x50b>
    deff:	bf 00 00 00 00       	mov    edi,0x0
    df04:	31 f6                	xor    esi,esi
    df06:	e8 00 00 00 00       	call   df0b <main+0x517>
    df0b:	bf 00 00 00 00       	mov    edi,0x0
    df10:	31 f6                	xor    esi,esi
    df12:	e8 00 00 00 00       	call   df17 <main+0x523>
    df17:	bf 00 00 00 00       	mov    edi,0x0
    df1c:	31 f6                	xor    esi,esi
    df1e:	e8 00 00 00 00       	call   df23 <main+0x52f>
    df23:	bf 00 00 00 00       	mov    edi,0x0
    df28:	31 f6                	xor    esi,esi
    df2a:	e8 00 00 00 00       	call   df2f <main+0x53b>
    df2f:	bf 00 00 00 00       	mov    edi,0x0
    df34:	31 f6                	xor    esi,esi
    df36:	e8 00 00 00 00       	call   df3b <main+0x547>
    df3b:	bf 00 00 00 00       	mov    edi,0x0
    df40:	31 f6                	xor    esi,esi
    df42:	e8 00 00 00 00       	call   df47 <main+0x553>
    df47:	bf 00 00 00 00       	mov    edi,0x0
    df4c:	31 f6                	xor    esi,esi
    df4e:	e8 00 00 00 00       	call   df53 <main+0x55f>
    df53:	bf 00 00 00 00       	mov    edi,0x0
    df58:	31 f6                	xor    esi,esi
    df5a:	e8 00 00 00 00       	call   df5f <main+0x56b>
    df5f:	bf 00 00 00 00       	mov    edi,0x0
    df64:	31 f6                	xor    esi,esi
    df66:	e8 00 00 00 00       	call   df6b <main+0x577>
    df6b:	bf 00 00 00 00       	mov    edi,0x0
    df70:	31 f6                	xor    esi,esi
    df72:	e8 00 00 00 00       	call   df77 <main+0x583>
    df77:	bf 00 00 00 00       	mov    edi,0x0
    df7c:	4c 89 f6             	mov    rsi,r14
    df7f:	e8 00 00 00 00       	call   df84 <main+0x590>
    df84:	bf 00 00 00 00       	mov    edi,0x0
    df89:	31 f6                	xor    esi,esi
    df8b:	e8 00 00 00 00       	call   df90 <main+0x59c>
    df90:	bf 00 00 00 00       	mov    edi,0x0
    df95:	31 f6                	xor    esi,esi
    df97:	e8 00 00 00 00       	call   df9c <main+0x5a8>
    df9c:	bf 00 00 00 00       	mov    edi,0x0
    dfa1:	31 f6                	xor    esi,esi
    dfa3:	e8 00 00 00 00       	call   dfa8 <main+0x5b4>
    dfa8:	bf 00 00 00 00       	mov    edi,0x0
    dfad:	31 f6                	xor    esi,esi
    dfaf:	e8 00 00 00 00       	call   dfb4 <main+0x5c0>
    dfb4:	bf 00 00 00 00       	mov    edi,0x0
    dfb9:	31 f6                	xor    esi,esi
    dfbb:	e8 00 00 00 00       	call   dfc0 <main+0x5cc>
    dfc0:	bf 00 00 00 00       	mov    edi,0x0
    dfc5:	31 f6                	xor    esi,esi
    dfc7:	e8 00 00 00 00       	call   dfcc <main+0x5d8>
    dfcc:	48 8b 33             	mov    rsi,QWORD PTR [rbx]
    dfcf:	bf 00 00 00 00       	mov    edi,0x0
    dfd4:	e8 00 00 00 00       	call   dfd9 <main+0x5e5>
    dfd9:	bf 00 00 00 00       	mov    edi,0x0
    dfde:	31 f6                	xor    esi,esi
    dfe0:	e8 00 00 00 00       	call   dfe5 <main+0x5f1>
    dfe5:	bf 00 00 00 00       	mov    edi,0x0
    dfea:	31 f6                	xor    esi,esi
    dfec:	e8 00 00 00 00       	call   dff1 <main+0x5fd>
    dff1:	bf 00 00 00 00       	mov    edi,0x0
    dff6:	31 f6                	xor    esi,esi
    dff8:	e8 00 00 00 00       	call   dffd <main+0x609>
    dffd:	bf 00 00 00 00       	mov    edi,0x0
    e002:	31 f6                	xor    esi,esi
    e004:	e8 00 00 00 00       	call   e009 <main+0x615>
    e009:	bf 00 00 00 00       	mov    edi,0x0
    e00e:	31 f6                	xor    esi,esi
    e010:	e8 00 00 00 00       	call   e015 <main+0x621>
    e015:	bf 00 00 00 00       	mov    edi,0x0
    e01a:	31 f6                	xor    esi,esi
    e01c:	e8 00 00 00 00       	call   e021 <main+0x62d>
    e021:	bf 00 00 00 00       	mov    edi,0x0
    e026:	31 f6                	xor    esi,esi
    e028:	e8 00 00 00 00       	call   e02d <main+0x639>
    e02d:	bf 00 00 00 00       	mov    edi,0x0
    e032:	31 f6                	xor    esi,esi
    e034:	e8 00 00 00 00       	call   e039 <main+0x645>
    e039:	bf 00 00 00 00       	mov    edi,0x0
    e03e:	31 f6                	xor    esi,esi
    e040:	e8 00 00 00 00       	call   e045 <main+0x651>
    e045:	bf 00 00 00 00       	mov    edi,0x0
    e04a:	31 f6                	xor    esi,esi
    e04c:	e8 00 00 00 00       	call   e051 <main+0x65d>
    e051:	bf 00 00 00 00       	mov    edi,0x0
    e056:	31 f6                	xor    esi,esi
    e058:	e8 00 00 00 00       	call   e05d <main+0x669>
    e05d:	bf 00 00 00 00       	mov    edi,0x0
    e062:	31 f6                	xor    esi,esi
    e064:	e8 00 00 00 00       	call   e069 <main+0x675>
    e069:	bf 00 00 00 00       	mov    edi,0x0
    e06e:	31 f6                	xor    esi,esi
    e070:	e8 00 00 00 00       	call   e075 <main+0x681>
    e075:	bf 00 00 00 00       	mov    edi,0x0
    e07a:	31 f6                	xor    esi,esi
    e07c:	e8 00 00 00 00       	call   e081 <main+0x68d>
    e081:	bf 00 00 00 00       	mov    edi,0x0
    e086:	31 f6                	xor    esi,esi
    e088:	e8 00 00 00 00       	call   e08d <main+0x699>
    e08d:	48 8b 33             	mov    rsi,QWORD PTR [rbx]
    e090:	bf 00 00 00 00       	mov    edi,0x0
    e095:	e8 00 00 00 00       	call   e09a <main+0x6a6>
    e09a:	48 8b 03             	mov    rax,QWORD PTR [rbx]
    e09d:	48 8d 74 24 50       	lea    rsi,[rsp+0x50]
    e0a2:	48 89 06             	mov    QWORD PTR [rsi],rax
    e0a5:	f3 41 0f 10 06       	movss  xmm0,DWORD PTR [r14]
    e0aa:	f3 0f 11 46 08       	movss  DWORD PTR [rsi+0x8],xmm0
    e0af:	bf 00 00 00 00       	mov    edi,0x0
    e0b4:	e8 00 00 00 00       	call   e0b9 <main+0x6c5>
    e0b9:	48 8b 33             	mov    rsi,QWORD PTR [rbx]
    e0bc:	bf 00 00 00 00       	mov    edi,0x0
    e0c1:	e8 00 00 00 00       	call   e0c6 <main+0x6d2>
    e0c6:	48 8b 03             	mov    rax,QWORD PTR [rbx]
    e0c9:	48 8d 74 24 40       	lea    rsi,[rsp+0x40]
    e0ce:	48 89 06             	mov    QWORD PTR [rsi],rax
    e0d1:	41 8b 07             	mov    eax,DWORD PTR [r15]
    e0d4:	89 46 08             	mov    DWORD PTR [rsi+0x8],eax
    e0d7:	bf 00 00 00 00       	mov    edi,0x0
    e0dc:	e8 00 00 00 00       	call   e0e1 <main+0x6ed>
    e0e1:	48 8b 33             	mov    rsi,QWORD PTR [rbx]
    e0e4:	bf 00 00 00 00       	mov    edi,0x0
    e0e9:	e8 00 00 00 00       	call   e0ee <main+0x6fa>
    e0ee:	48 8b 03             	mov    rax,QWORD PTR [rbx]
    e0f1:	48 8d 74 24 30       	lea    rsi,[rsp+0x30]
    e0f6:	48 89 06             	mov    QWORD PTR [rsi],rax
    e0f9:	c7 46 08 80 00 00 00 	mov    DWORD PTR [rsi+0x8],0x80
    e100:	41 8b 07             	mov    eax,DWORD PTR [r15]
    e103:	89 46 0c             	mov    DWORD PTR [rsi+0xc],eax
    e106:	bf 00 00 00 00       	mov    edi,0x0
    e10b:	e8 00 00 00 00       	call   e110 <main+0x71c>
    e110:	bf 00 00 00 00       	mov    edi,0x0
    e115:	31 f6                	xor    esi,esi
    e117:	e8 00 00 00 00       	call   e11c <main+0x728>
    e11c:	bf 00 00 00 00       	mov    edi,0x0
    e121:	31 f6                	xor    esi,esi
    e123:	e8 00 00 00 00       	call   e128 <main+0x734>
    e128:	bf 00 00 00 00       	mov    edi,0x0
    e12d:	31 f6                	xor    esi,esi
    e12f:	e8 00 00 00 00       	call   e134 <main+0x740>
    e134:	48 8b 33             	mov    rsi,QWORD PTR [rbx]
    e137:	bf 00 00 00 00       	mov    edi,0x0
    e13c:	e8 00 00 00 00       	call   e141 <main+0x74d>
    e141:	48 8b 33             	mov    rsi,QWORD PTR [rbx]
    e144:	bf 00 00 00 00       	mov    edi,0x0
    e149:	e8 00 00 00 00       	call   e14e <main+0x75a>
    e14e:	bf 00 00 00 00       	mov    edi,0x0
    e153:	31 f6                	xor    esi,esi
    e155:	e8 00 00 00 00       	call   e15a <main+0x766>
    e15a:	bf 00 00 00 00       	mov    edi,0x0
    e15f:	31 f6                	xor    esi,esi
    e161:	e8 00 00 00 00       	call   e166 <main+0x772>
    e166:	bf 00 00 00 00       	mov    edi,0x0
    e16b:	31 f6                	xor    esi,esi
    e16d:	e8 00 00 00 00       	call   e172 <main+0x77e>
    e172:	bf 00 00 00 00       	mov    edi,0x0
    e177:	31 f6                	xor    esi,esi
    e179:	e8 00 00 00 00       	call   e17e <main+0x78a>
    e17e:	bf 00 00 00 00       	mov    edi,0x0
    e183:	4c 89 f6             	mov    rsi,r14
    e186:	e8 00 00 00 00       	call   e18b <main+0x797>
    e18b:	bf 00 00 00 00       	mov    edi,0x0
    e190:	31 f6                	xor    esi,esi
    e192:	e8 00 00 00 00       	call   e197 <main+0x7a3>
    e197:	bf 00 00 00 00       	mov    edi,0x0
    e19c:	31 f6                	xor    esi,esi
    e19e:	e8 00 00 00 00       	call   e1a3 <main+0x7af>
    e1a3:	bf 00 00 00 00       	mov    edi,0x0
    e1a8:	31 f6                	xor    esi,esi
    e1aa:	e8 00 00 00 00       	call   e1af <main+0x7bb>
    e1af:	bf 00 00 00 00       	mov    edi,0x0
    e1b4:	31 f6                	xor    esi,esi
    e1b6:	e8 00 00 00 00       	call   e1bb <main+0x7c7>
    e1bb:	bf 00 00 00 00       	mov    edi,0x0
    e1c0:	31 f6                	xor    esi,esi
    e1c2:	e8 00 00 00 00       	call   e1c7 <main+0x7d3>
    e1c7:	31 c0                	xor    eax,eax
    e1c9:	48 83 c4 60          	add    rsp,0x60
    e1cd:	5b                   	pop    rbx
    e1ce:	41 5c                	pop    r12
    e1d0:	41 5e                	pop    r14
    e1d2:	41 5f                	pop    r15
    e1d4:	5d                   	pop    rbp
    e1d5:	c3                   	ret    
