
tsvc.region.o:     file format elf64-x86-64


Disassembly of section .text:

0000000000000000 <s000>:
       0:	41 56                	push   r14
       2:	53                   	push   rbx
       3:	50                   	push   rax
       4:	49 89 fe             	mov    r14,rdi
       7:	bf 00 00 00 00       	mov    edi,0x0
       c:	e8 00 00 00 00       	call   11 <s000+0x11>
      11:	31 db                	xor    ebx,ebx
      13:	4c 89 f7             	mov    rdi,r14
      16:	31 f6                	xor    esi,esi
      18:	e8 00 00 00 00       	call   1d <s000+0x1d>
      1d:	f3 0f 10 0d 00 00 00 	movss  xmm1,DWORD PTR [rip+0x0]        # 25 <s000+0x25>
      24:	00 
      25:	31 c0                	xor    eax,eax
      27:	31 c9                	xor    ecx,ecx
      29:	48 89 c2             	mov    rdx,rax
      2c:	48 09 ca             	or     rdx,rcx
      2f:	f3 0f 10 04 95 00 00 	movss  xmm0,DWORD PTR [rdx*4+0x0]
      36:	00 00 
      38:	f3 0f 58 c1          	addss  xmm0,xmm1
      3c:	f3 0f 11 04 95 00 00 	movss  DWORD PTR [rdx*4+0x0],xmm0
      43:	00 00 
      45:	48 ff c1             	inc    rcx
      48:	48 83 f9 08          	cmp    rcx,0x8
      4c:	75 db                	jne    29 <s000+0x29>
      4e:	48 83 c0 08          	add    rax,0x8
      52:	48 3d 00 7d 00 00    	cmp    rax,0x7d00
      58:	75 cd                	jne    27 <s000+0x27>
      5a:	bf 00 00 00 00       	mov    edi,0x0
      5f:	be 00 00 00 00       	mov    esi,0x0
      64:	ba 00 00 00 00       	mov    edx,0x0
      69:	b9 00 00 00 00       	mov    ecx,0x0
      6e:	41 b8 00 00 00 00    	mov    r8d,0x0
      74:	41 b9 00 00 00 00    	mov    r9d,0x0
      7a:	0f 57 c0             	xorps  xmm0,xmm0
      7d:	68 00 00 00 00       	push   0x0
      82:	68 00 00 00 00       	push   0x0
      87:	e8 00 00 00 00       	call   8c <s000+0x8c>
      8c:	f3 0f 10 0d 00 00 00 	movss  xmm1,DWORD PTR [rip+0x0]        # 94 <s000+0x94>
      93:	00 
      94:	48 83 c4 10          	add    rsp,0x10
      98:	ff c3                	inc    ebx
      9a:	81 fb 40 0d 03 00    	cmp    ebx,0x30d40
      a0:	75 83                	jne    25 <s000+0x25>
      a2:	49 83 c6 10          	add    r14,0x10
      a6:	4c 89 f7             	mov    rdi,r14
      a9:	31 f6                	xor    esi,esi
      ab:	e8 00 00 00 00       	call   b0 <s000+0xb0>
      b0:	bf 00 00 00 00       	mov    edi,0x0
      b5:	48 83 c4 08          	add    rsp,0x8
      b9:	5b                   	pop    rbx
      ba:	41 5e                	pop    r14
      bc:	e9 00 00 00 00       	jmp    c1 <s111>

00000000000000c1 <s111>:
      c1:	41 56                	push   r14
      c3:	53                   	push   rbx
      c4:	50                   	push   rax
      c5:	49 89 fe             	mov    r14,rdi
      c8:	bf 00 00 00 00       	mov    edi,0x0
      cd:	e8 00 00 00 00       	call   d2 <s111+0x11>
      d2:	31 db                	xor    ebx,ebx
      d4:	4c 89 f7             	mov    rdi,r14
      d7:	31 f6                	xor    esi,esi
      d9:	e8 00 00 00 00       	call   de <s111+0x1d>
      de:	b9 01 00 00 00       	mov    ecx,0x1
      e3:	b8 04 00 00 00       	mov    eax,0x4
      e8:	48 c7 c2 f8 ff ff ff 	mov    rdx,0xfffffffffffffff8
      ef:	f3 0f 10 84 d0 00 00 	movss  xmm0,DWORD PTR [rax+rdx*8+0x0]
      f6:	00 00 
      f8:	f3 0f 58 84 d0 00 00 	addss  xmm0,DWORD PTR [rax+rdx*8+0x0]
      ff:	00 00 
     101:	f3 0f 11 84 d0 00 00 	movss  DWORD PTR [rax+rdx*8+0x0],xmm0
     108:	00 00 
     10a:	48 ff c2             	inc    rdx
     10d:	75 e0                	jne    ef <s111+0x2e>
     10f:	48 8d 51 10          	lea    rdx,[rcx+0x10]
     113:	48 83 c0 40          	add    rax,0x40
     117:	48 81 f9 f0 7c 00 00 	cmp    rcx,0x7cf0
     11e:	48 89 d1             	mov    rcx,rdx
     121:	72 c5                	jb     e8 <s111+0x27>
     123:	bf 00 00 00 00       	mov    edi,0x0
     128:	be 00 00 00 00       	mov    esi,0x0
     12d:	ba 00 00 00 00       	mov    edx,0x0
     132:	b9 00 00 00 00       	mov    ecx,0x0
     137:	41 b8 00 00 00 00    	mov    r8d,0x0
     13d:	41 b9 00 00 00 00    	mov    r9d,0x0
     143:	0f 57 c0             	xorps  xmm0,xmm0
     146:	68 00 00 00 00       	push   0x0
     14b:	68 00 00 00 00       	push   0x0
     150:	e8 00 00 00 00       	call   155 <s111+0x94>
     155:	48 83 c4 10          	add    rsp,0x10
     159:	ff c3                	inc    ebx
     15b:	81 fb 40 0d 03 00    	cmp    ebx,0x30d40
     161:	0f 85 77 ff ff ff    	jne    de <s111+0x1d>
     167:	49 83 c6 10          	add    r14,0x10
     16b:	4c 89 f7             	mov    rdi,r14
     16e:	31 f6                	xor    esi,esi
     170:	e8 00 00 00 00       	call   175 <s111+0xb4>
     175:	bf 00 00 00 00       	mov    edi,0x0
     17a:	48 83 c4 08          	add    rsp,0x8
     17e:	5b                   	pop    rbx
     17f:	41 5e                	pop    r14
     181:	e9 00 00 00 00       	jmp    186 <s1111>

0000000000000186 <s1111>:
     186:	41 56                	push   r14
     188:	53                   	push   rbx
     189:	50                   	push   rax
     18a:	49 89 fe             	mov    r14,rdi
     18d:	bf 00 00 00 00       	mov    edi,0x0
     192:	e8 00 00 00 00       	call   197 <s1111+0x11>
     197:	31 db                	xor    ebx,ebx
     199:	4c 89 f7             	mov    rdi,r14
     19c:	31 f6                	xor    esi,esi
     19e:	e8 00 00 00 00       	call   1a3 <s1111+0x1d>
     1a3:	31 c0                	xor    eax,eax
     1a5:	31 c9                	xor    ecx,ecx
     1a7:	48 89 c2             	mov    rdx,rax
     1aa:	48 09 ca             	or     rdx,rcx
     1ad:	f3 0f 10 04 95 00 00 	movss  xmm0,DWORD PTR [rdx*4+0x0]
     1b4:	00 00 
     1b6:	f3 0f 10 0c 95 00 00 	movss  xmm1,DWORD PTR [rdx*4+0x0]
     1bd:	00 00 
     1bf:	0f 28 d0             	movaps xmm2,xmm0
     1c2:	f3 0f 59 d1          	mulss  xmm2,xmm1
     1c6:	f3 0f 10 1c 95 00 00 	movss  xmm3,DWORD PTR [rdx*4+0x0]
     1cd:	00 00 
     1cf:	f3 0f 59 cb          	mulss  xmm1,xmm3
     1d3:	f3 0f 58 d1          	addss  xmm2,xmm1
     1d7:	0f 28 e0             	movaps xmm4,xmm0
     1da:	f3 0f 59 e0          	mulss  xmm4,xmm0
     1de:	f3 0f 58 e2          	addss  xmm4,xmm2
     1e2:	f3 0f 58 e1          	addss  xmm4,xmm1
     1e6:	f3 0f 59 c3          	mulss  xmm0,xmm3
     1ea:	f3 0f 58 c4          	addss  xmm0,xmm4
     1ee:	f3 0f 11 04 d5 00 00 	movss  DWORD PTR [rdx*8+0x0],xmm0
     1f5:	00 00 
     1f7:	48 ff c1             	inc    rcx
     1fa:	48 83 f9 08          	cmp    rcx,0x8
     1fe:	75 a7                	jne    1a7 <s1111+0x21>
     200:	48 83 c0 08          	add    rax,0x8
     204:	48 3d 80 3e 00 00    	cmp    rax,0x3e80
     20a:	75 99                	jne    1a5 <s1111+0x1f>
     20c:	bf 00 00 00 00       	mov    edi,0x0
     211:	be 00 00 00 00       	mov    esi,0x0
     216:	ba 00 00 00 00       	mov    edx,0x0
     21b:	b9 00 00 00 00       	mov    ecx,0x0
     220:	41 b8 00 00 00 00    	mov    r8d,0x0
     226:	41 b9 00 00 00 00    	mov    r9d,0x0
     22c:	0f 57 c0             	xorps  xmm0,xmm0
     22f:	68 00 00 00 00       	push   0x0
     234:	68 00 00 00 00       	push   0x0
     239:	e8 00 00 00 00       	call   23e <s1111+0xb8>
     23e:	48 83 c4 10          	add    rsp,0x10
     242:	ff c3                	inc    ebx
     244:	81 fb 40 0d 03 00    	cmp    ebx,0x30d40
     24a:	0f 85 53 ff ff ff    	jne    1a3 <s1111+0x1d>
     250:	49 83 c6 10          	add    r14,0x10
     254:	4c 89 f7             	mov    rdi,r14
     257:	31 f6                	xor    esi,esi
     259:	e8 00 00 00 00       	call   25e <s1111+0xd8>
     25e:	bf 00 00 00 00       	mov    edi,0x0
     263:	48 83 c4 08          	add    rsp,0x8
     267:	5b                   	pop    rbx
     268:	41 5e                	pop    r14
     26a:	e9 00 00 00 00       	jmp    26f <s112>

000000000000026f <s112>:
     26f:	41 57                	push   r15
     271:	41 56                	push   r14
     273:	53                   	push   rbx
     274:	48 83 ec 70          	sub    rsp,0x70
     278:	49 89 fe             	mov    r14,rdi
     27b:	bf 00 00 00 00       	mov    edi,0x0
     280:	e8 00 00 00 00       	call   285 <s112+0x16>
     285:	45 31 ff             	xor    r15d,r15d
     288:	4c 89 f7             	mov    rdi,r14
     28b:	31 f6                	xor    esi,esi
     28d:	e8 00 00 00 00       	call   292 <s112+0x23>
     292:	b8 fe 7c 00 00       	mov    eax,0x7cfe
     297:	b9 f8 f3 01 00       	mov    ecx,0x1f3f8
     29c:	ba 00 00 00 00       	mov    edx,0x0
     2a1:	31 f6                	xor    esi,esi
     2a3:	31 ff                	xor    edi,edi
     2a5:	48 8d 1c 30          	lea    rbx,[rax+rsi*1]
     2a9:	48 89 1c 3c          	mov    QWORD PTR [rsp+rdi*1],rbx
     2ad:	48 8d 1c 0a          	lea    rbx,[rdx+rcx*1]
     2b1:	48 89 5c 3c 38       	mov    QWORD PTR [rsp+rdi*1+0x38],rbx
     2b6:	f3 0f 10 84 b1 00 00 	movss  xmm0,DWORD PTR [rcx+rsi*4+0x0]
     2bd:	00 00 
     2bf:	f3 0f 58 84 b1 00 00 	addss  xmm0,DWORD PTR [rcx+rsi*4+0x0]
     2c6:	00 00 
     2c8:	f3 0f 11 84 b1 00 00 	movss  DWORD PTR [rcx+rsi*4+0x0],xmm0
     2cf:	00 00 
     2d1:	48 83 c7 08          	add    rdi,0x8
     2d5:	48 ff ce             	dec    rsi
     2d8:	48 83 c2 fc          	add    rdx,0xfffffffffffffffc
     2dc:	48 83 fe f9          	cmp    rsi,0xfffffffffffffff9
     2e0:	75 c3                	jne    2a5 <s112+0x36>
     2e2:	48 83 7c 24 30 00    	cmp    QWORD PTR [rsp+0x30],0x0
     2e8:	74 25                	je     30f <s112+0xa0>
     2ea:	f3 0f 10 04 85 00 00 	movss  xmm0,DWORD PTR [rax*4+0x0]
     2f1:	00 00 
     2f3:	f3 0f 58 04 85 00 00 	addss  xmm0,DWORD PTR [rax*4+0x0]
     2fa:	00 00 
     2fc:	48 8b 54 24 68       	mov    rdx,QWORD PTR [rsp+0x68]
     301:	f3 0f 11 02          	movss  DWORD PTR [rdx],xmm0
     305:	48 83 c0 f8          	add    rax,0xfffffffffffffff8
     309:	48 83 c1 e0          	add    rcx,0xffffffffffffffe0
     30d:	eb 8d                	jmp    29c <s112+0x2d>
     30f:	bf 00 00 00 00       	mov    edi,0x0
     314:	be 00 00 00 00       	mov    esi,0x0
     319:	ba 00 00 00 00       	mov    edx,0x0
     31e:	b9 00 00 00 00       	mov    ecx,0x0
     323:	41 b8 00 00 00 00    	mov    r8d,0x0
     329:	41 b9 00 00 00 00    	mov    r9d,0x0
     32f:	0f 57 c0             	xorps  xmm0,xmm0
     332:	68 00 00 00 00       	push   0x0
     337:	68 00 00 00 00       	push   0x0
     33c:	e8 00 00 00 00       	call   341 <s112+0xd2>
     341:	48 83 c4 10          	add    rsp,0x10
     345:	41 ff c7             	inc    r15d
     348:	41 81 ff e0 93 04 00 	cmp    r15d,0x493e0
     34f:	0f 85 3d ff ff ff    	jne    292 <s112+0x23>
     355:	49 83 c6 10          	add    r14,0x10
     359:	4c 89 f7             	mov    rdi,r14
     35c:	31 f6                	xor    esi,esi
     35e:	e8 00 00 00 00       	call   363 <s112+0xf4>
     363:	bf 00 00 00 00       	mov    edi,0x0
     368:	48 83 c4 70          	add    rsp,0x70
     36c:	5b                   	pop    rbx
     36d:	41 5e                	pop    r14
     36f:	41 5f                	pop    r15
     371:	e9 00 00 00 00       	jmp    376 <s1112>

0000000000000376 <s1112>:
     376:	41 57                	push   r15
     378:	41 56                	push   r14
     37a:	53                   	push   rbx
     37b:	48 83 ec 40          	sub    rsp,0x40
     37f:	49 89 fe             	mov    r14,rdi
     382:	bf 00 00 00 00       	mov    edi,0x0
     387:	e8 00 00 00 00       	call   38c <s1112+0x16>
     38c:	45 31 ff             	xor    r15d,r15d
     38f:	4c 89 f7             	mov    rdi,r14
     392:	31 f6                	xor    esi,esi
     394:	e8 00 00 00 00       	call   399 <s1112+0x23>
     399:	48 89 e3             	mov    rbx,rsp
     39c:	f3 0f 10 0d 00 00 00 	movss  xmm1,DWORD PTR [rip+0x0]        # 3a4 <s1112+0x2e>
     3a3:	00 
     3a4:	b8 ff 7c 00 00       	mov    eax,0x7cff
     3a9:	b9 fc f3 01 00       	mov    ecx,0x1f3fc
     3ae:	31 d2                	xor    edx,edx
     3b0:	48 89 de             	mov    rsi,rbx
     3b3:	48 8d 3c 10          	lea    rdi,[rax+rdx*1]
     3b7:	48 89 3e             	mov    QWORD PTR [rsi],rdi
     3ba:	f3 0f 10 84 91 00 00 	movss  xmm0,DWORD PTR [rcx+rdx*4+0x0]
     3c1:	00 00 
     3c3:	f3 0f 58 c1          	addss  xmm0,xmm1
     3c7:	f3 0f 11 84 91 00 00 	movss  DWORD PTR [rcx+rdx*4+0x0],xmm0
     3ce:	00 00 
     3d0:	48 83 c6 08          	add    rsi,0x8
     3d4:	48 ff ca             	dec    rdx
     3d7:	48 83 fa f8          	cmp    rdx,0xfffffffffffffff8
     3db:	75 d6                	jne    3b3 <s1112+0x3d>
     3dd:	48 83 c0 f8          	add    rax,0xfffffffffffffff8
     3e1:	48 83 c1 e0          	add    rcx,0xffffffffffffffe0
     3e5:	48 83 7c 24 38 00    	cmp    QWORD PTR [rsp+0x38],0x0
     3eb:	75 c1                	jne    3ae <s1112+0x38>
     3ed:	bf 00 00 00 00       	mov    edi,0x0
     3f2:	be 00 00 00 00       	mov    esi,0x0
     3f7:	ba 00 00 00 00       	mov    edx,0x0
     3fc:	b9 00 00 00 00       	mov    ecx,0x0
     401:	41 b8 00 00 00 00    	mov    r8d,0x0
     407:	41 b9 00 00 00 00    	mov    r9d,0x0
     40d:	0f 57 c0             	xorps  xmm0,xmm0
     410:	68 00 00 00 00       	push   0x0
     415:	68 00 00 00 00       	push   0x0
     41a:	e8 00 00 00 00       	call   41f <s1112+0xa9>
     41f:	f3 0f 10 0d 00 00 00 	movss  xmm1,DWORD PTR [rip+0x0]        # 427 <s1112+0xb1>
     426:	00 
     427:	48 83 c4 10          	add    rsp,0x10
     42b:	41 ff c7             	inc    r15d
     42e:	41 81 ff e0 93 04 00 	cmp    r15d,0x493e0
     435:	0f 85 69 ff ff ff    	jne    3a4 <s1112+0x2e>
     43b:	49 83 c6 10          	add    r14,0x10
     43f:	4c 89 f7             	mov    rdi,r14
     442:	31 f6                	xor    esi,esi
     444:	e8 00 00 00 00       	call   449 <s1112+0xd3>
     449:	bf 00 00 00 00       	mov    edi,0x0
     44e:	48 83 c4 40          	add    rsp,0x40
     452:	5b                   	pop    rbx
     453:	41 5e                	pop    r14
     455:	41 5f                	pop    r15
     457:	e9 00 00 00 00       	jmp    45c <s113>

000000000000045c <s113>:
     45c:	41 56                	push   r14
     45e:	53                   	push   rbx
     45f:	50                   	push   rax
     460:	49 89 fe             	mov    r14,rdi
     463:	bf 00 00 00 00       	mov    edi,0x0
     468:	e8 00 00 00 00       	call   46d <s113+0x11>
     46d:	31 db                	xor    ebx,ebx
     46f:	4c 89 f7             	mov    rdi,r14
     472:	31 f6                	xor    esi,esi
     474:	e8 00 00 00 00       	call   479 <s113+0x1d>
     479:	b8 01 00 00 00       	mov    eax,0x1
     47e:	b9 04 00 00 00       	mov    ecx,0x4
     483:	48 c7 c2 f9 ff ff ff 	mov    rdx,0xfffffffffffffff9
     48a:	f3 0f 10 05 00 00 00 	movss  xmm0,DWORD PTR [rip+0x0]        # 492 <s113+0x36>
     491:	00 
     492:	f3 0f 58 84 91 00 00 	addss  xmm0,DWORD PTR [rcx+rdx*4+0x0]
     499:	00 00 
     49b:	f3 0f 11 84 91 00 00 	movss  DWORD PTR [rcx+rdx*4+0x0],xmm0
     4a2:	00 00 
     4a4:	48 ff c2             	inc    rdx
     4a7:	75 e1                	jne    48a <s113+0x2e>
     4a9:	48 3d f9 7c 00 00    	cmp    rax,0x7cf9
     4af:	74 24                	je     4d5 <s113+0x79>
     4b1:	f3 0f 10 05 00 00 00 	movss  xmm0,DWORD PTR [rip+0x0]        # 4b9 <s113+0x5d>
     4b8:	00 
     4b9:	f3 0f 58 04 85 00 00 	addss  xmm0,DWORD PTR [rax*4+0x0]
     4c0:	00 00 
     4c2:	f3 0f 11 04 85 00 00 	movss  DWORD PTR [rax*4+0x0],xmm0
     4c9:	00 00 
     4cb:	48 83 c0 08          	add    rax,0x8
     4cf:	48 83 c1 20          	add    rcx,0x20
     4d3:	eb ae                	jmp    483 <s113+0x27>
     4d5:	bf 00 00 00 00       	mov    edi,0x0
     4da:	be 00 00 00 00       	mov    esi,0x0
     4df:	ba 00 00 00 00       	mov    edx,0x0
     4e4:	b9 00 00 00 00       	mov    ecx,0x0
     4e9:	41 b8 00 00 00 00    	mov    r8d,0x0
     4ef:	41 b9 00 00 00 00    	mov    r9d,0x0
     4f5:	0f 57 c0             	xorps  xmm0,xmm0
     4f8:	68 00 00 00 00       	push   0x0
     4fd:	68 00 00 00 00       	push   0x0
     502:	e8 00 00 00 00       	call   507 <s113+0xab>
     507:	48 83 c4 10          	add    rsp,0x10
     50b:	ff c3                	inc    ebx
     50d:	81 fb 80 1a 06 00    	cmp    ebx,0x61a80
     513:	0f 85 60 ff ff ff    	jne    479 <s113+0x1d>
     519:	49 83 c6 10          	add    r14,0x10
     51d:	4c 89 f7             	mov    rdi,r14
     520:	31 f6                	xor    esi,esi
     522:	e8 00 00 00 00       	call   527 <s113+0xcb>
     527:	bf 00 00 00 00       	mov    edi,0x0
     52c:	48 83 c4 08          	add    rsp,0x8
     530:	5b                   	pop    rbx
     531:	41 5e                	pop    r14
     533:	e9 00 00 00 00       	jmp    538 <s1113>

0000000000000538 <s1113>:
     538:	41 56                	push   r14
     53a:	53                   	push   rbx
     53b:	50                   	push   rax
     53c:	49 89 fe             	mov    r14,rdi
     53f:	bf 00 00 00 00       	mov    edi,0x0
     544:	e8 00 00 00 00       	call   549 <s1113+0x11>
     549:	31 db                	xor    ebx,ebx
     54b:	4c 89 f7             	mov    rdi,r14
     54e:	31 f6                	xor    esi,esi
     550:	e8 00 00 00 00       	call   555 <s1113+0x1d>
     555:	31 c0                	xor    eax,eax
     557:	31 c9                	xor    ecx,ecx
     559:	f3 0f 10 05 00 00 00 	movss  xmm0,DWORD PTR [rip+0x0]        # 561 <s1113+0x29>
     560:	00 
     561:	48 89 c2             	mov    rdx,rax
     564:	48 09 ca             	or     rdx,rcx
     567:	f3 0f 58 04 95 00 00 	addss  xmm0,DWORD PTR [rdx*4+0x0]
     56e:	00 00 
     570:	f3 0f 11 04 95 00 00 	movss  DWORD PTR [rdx*4+0x0],xmm0
     577:	00 00 
     579:	48 ff c1             	inc    rcx
     57c:	48 83 f9 08          	cmp    rcx,0x8
     580:	75 d7                	jne    559 <s1113+0x21>
     582:	48 83 c0 08          	add    rax,0x8
     586:	48 3d 00 7d 00 00    	cmp    rax,0x7d00
     58c:	75 c9                	jne    557 <s1113+0x1f>
     58e:	bf 00 00 00 00       	mov    edi,0x0
     593:	be 00 00 00 00       	mov    esi,0x0
     598:	ba 00 00 00 00       	mov    edx,0x0
     59d:	b9 00 00 00 00       	mov    ecx,0x0
     5a2:	41 b8 00 00 00 00    	mov    r8d,0x0
     5a8:	41 b9 00 00 00 00    	mov    r9d,0x0
     5ae:	0f 57 c0             	xorps  xmm0,xmm0
     5b1:	68 00 00 00 00       	push   0x0
     5b6:	68 00 00 00 00       	push   0x0
     5bb:	e8 00 00 00 00       	call   5c0 <s1113+0x88>
     5c0:	48 83 c4 10          	add    rsp,0x10
     5c4:	ff c3                	inc    ebx
     5c6:	81 fb 40 0d 03 00    	cmp    ebx,0x30d40
     5cc:	75 87                	jne    555 <s1113+0x1d>
     5ce:	49 83 c6 10          	add    r14,0x10
     5d2:	4c 89 f7             	mov    rdi,r14
     5d5:	31 f6                	xor    esi,esi
     5d7:	e8 00 00 00 00       	call   5dc <s1113+0xa4>
     5dc:	bf 00 00 00 00       	mov    edi,0x0
     5e1:	48 83 c4 08          	add    rsp,0x8
     5e5:	5b                   	pop    rbx
     5e6:	41 5e                	pop    r14
     5e8:	e9 00 00 00 00       	jmp    5ed <s114>

00000000000005ed <s114>:
     5ed:	41 56                	push   r14
     5ef:	53                   	push   rbx
     5f0:	50                   	push   rax
     5f1:	49 89 fe             	mov    r14,rdi
     5f4:	bf 00 00 00 00       	mov    edi,0x0
     5f9:	e8 00 00 00 00       	call   5fe <s114+0x11>
     5fe:	31 db                	xor    ebx,ebx
     600:	4c 89 f7             	mov    rdi,r14
     603:	31 f6                	xor    esi,esi
     605:	e8 00 00 00 00       	call   60a <s114+0x1d>
     60a:	b8 00 00 00 00       	mov    eax,0x0
     60f:	31 c9                	xor    ecx,ecx
     611:	31 d2                	xor    edx,edx
     613:	48 85 d2             	test   rdx,rdx
     616:	74 2a                	je     642 <s114+0x55>
     618:	48 89 c6             	mov    rsi,rax
     61b:	31 ff                	xor    edi,edi
     61d:	f3 0f 10 06          	movss  xmm0,DWORD PTR [rsi]
     621:	f3 0f 58 84 b9 00 00 	addss  xmm0,DWORD PTR [rcx+rdi*4+0x0]
     628:	00 00 
     62a:	f3 0f 11 84 b9 00 00 	movss  DWORD PTR [rcx+rdi*4+0x0],xmm0
     631:	00 00 
     633:	48 ff c7             	inc    rdi
     636:	48 81 c6 00 04 00 00 	add    rsi,0x400
     63d:	48 39 fa             	cmp    rdx,rdi
     640:	75 db                	jne    61d <s114+0x30>
     642:	48 ff c2             	inc    rdx
     645:	48 81 c1 00 04 00 00 	add    rcx,0x400
     64c:	48 83 c0 04          	add    rax,0x4
     650:	48 81 fa 00 01 00 00 	cmp    rdx,0x100
     657:	75 ba                	jne    613 <s114+0x26>
     659:	bf 00 00 00 00       	mov    edi,0x0
     65e:	be 00 00 00 00       	mov    esi,0x0
     663:	ba 00 00 00 00       	mov    edx,0x0
     668:	b9 00 00 00 00       	mov    ecx,0x0
     66d:	41 b8 00 00 00 00    	mov    r8d,0x0
     673:	41 b9 00 00 00 00    	mov    r9d,0x0
     679:	0f 57 c0             	xorps  xmm0,xmm0
     67c:	68 00 00 00 00       	push   0x0
     681:	68 00 00 00 00       	push   0x0
     686:	e8 00 00 00 00       	call   68b <s114+0x9e>
     68b:	48 83 c4 10          	add    rsp,0x10
     68f:	ff c3                	inc    ebx
     691:	81 fb b0 30 01 00    	cmp    ebx,0x130b0
     697:	0f 85 6d ff ff ff    	jne    60a <s114+0x1d>
     69d:	49 83 c6 10          	add    r14,0x10
     6a1:	4c 89 f7             	mov    rdi,r14
     6a4:	31 f6                	xor    esi,esi
     6a6:	e8 00 00 00 00       	call   6ab <s114+0xbe>
     6ab:	bf 00 00 00 00       	mov    edi,0x0
     6b0:	48 83 c4 08          	add    rsp,0x8
     6b4:	5b                   	pop    rbx
     6b5:	41 5e                	pop    r14
     6b7:	e9 00 00 00 00       	jmp    6bc <s115>

00000000000006bc <s115>:
     6bc:	41 57                	push   r15
     6be:	41 56                	push   r14
     6c0:	41 54                	push   r12
     6c2:	53                   	push   rbx
     6c3:	50                   	push   rax
     6c4:	49 89 fe             	mov    r14,rdi
     6c7:	bf 00 00 00 00       	mov    edi,0x0
     6cc:	e8 00 00 00 00       	call   6d1 <s115+0x15>
     6d1:	45 31 ff             	xor    r15d,r15d
     6d4:	4c 89 f7             	mov    rdi,r14
     6d7:	31 f6                	xor    esi,esi
     6d9:	e8 00 00 00 00       	call   6de <s115+0x22>
     6de:	41 ba 01 00 00 00    	mov    r10d,0x1
     6e4:	49 c7 c3 ff ff ff ff 	mov    r11,0xffffffffffffffff
     6eb:	ba 00 00 00 00       	mov    edx,0x0
     6f0:	41 bc 00 00 00 00    	mov    r12d,0x0
     6f6:	41 b9 00 00 00 00    	mov    r9d,0x0
     6fc:	45 31 c0             	xor    r8d,r8d
     6ff:	4c 89 c3             	mov    rbx,r8
     702:	49 ff c0             	inc    r8
     705:	48 81 fb fe 00 00 00 	cmp    rbx,0xfe
     70c:	0f 87 91 00 00 00    	ja     7a3 <s115+0xe7>
     712:	b9 07 00 00 00       	mov    ecx,0x7
     717:	29 d9                	sub    ecx,ebx
     719:	4c 89 d0             	mov    rax,r10
     71c:	f6 c1 07             	test   cl,0x7
     71f:	74 2f                	je     750 <s115+0x94>
     721:	44 89 d9             	mov    ecx,r11d
     724:	83 e1 07             	and    ecx,0x7
     727:	31 c0                	xor    eax,eax
     729:	f3 41 0f 10 04 84    	movss  xmm0,DWORD PTR [r12+rax*4]
     72f:	f3 0f 59 04 9d 00 00 	mulss  xmm0,DWORD PTR [rbx*4+0x0]
     736:	00 00 
     738:	f3 0f 10 0c 82       	movss  xmm1,DWORD PTR [rdx+rax*4]
     73d:	f3 0f 5c c8          	subss  xmm1,xmm0
     741:	f3 0f 11 0c 82       	movss  DWORD PTR [rdx+rax*4],xmm1
     746:	48 ff c0             	inc    rax
     749:	39 c1                	cmp    ecx,eax
     74b:	75 dc                	jne    729 <s115+0x6d>
     74d:	4c 29 d8             	sub    rax,r11
     750:	b9 fe 00 00 00       	mov    ecx,0xfe
     755:	29 d9                	sub    ecx,ebx
     757:	83 f9 07             	cmp    ecx,0x7
     75a:	72 47                	jb     7a3 <s115+0xe7>
     75c:	48 8d 3c 85 00 00 00 	lea    rdi,[rax*4+0x0]
     763:	00 
     764:	49 8d 0c 81          	lea    rcx,[r9+rax*4]
     768:	31 f6                	xor    esi,esi
     76a:	f3 0f 10 04 b1       	movss  xmm0,DWORD PTR [rcx+rsi*4]
     76f:	f3 0f 59 04 9d 00 00 	mulss  xmm0,DWORD PTR [rbx*4+0x0]
     776:	00 00 
     778:	f3 0f 10 0c b7       	movss  xmm1,DWORD PTR [rdi+rsi*4]
     77d:	f3 0f 5c c8          	subss  xmm1,xmm0
     781:	f3 0f 11 0c b7       	movss  DWORD PTR [rdi+rsi*4],xmm1
     786:	48 ff c6             	inc    rsi
     789:	48 83 fe 08          	cmp    rsi,0x8
     78d:	75 db                	jne    76a <s115+0xae>
     78f:	48 83 c0 08          	add    rax,0x8
     793:	48 83 c7 20          	add    rdi,0x20
     797:	48 83 c1 20          	add    rcx,0x20
     79b:	48 3d 00 01 00 00    	cmp    rax,0x100
     7a1:	75 c5                	jne    768 <s115+0xac>
     7a3:	49 ff c2             	inc    r10
     7a6:	49 ff cb             	dec    r11
     7a9:	48 83 c2 04          	add    rdx,0x4
     7ad:	49 81 c4 04 04 00 00 	add    r12,0x404
     7b4:	49 81 c1 00 04 00 00 	add    r9,0x400
     7bb:	49 81 f8 00 01 00 00 	cmp    r8,0x100
     7c2:	0f 85 37 ff ff ff    	jne    6ff <s115+0x43>
     7c8:	bf 00 00 00 00       	mov    edi,0x0
     7cd:	be 00 00 00 00       	mov    esi,0x0
     7d2:	ba 00 00 00 00       	mov    edx,0x0
     7d7:	b9 00 00 00 00       	mov    ecx,0x0
     7dc:	41 b8 00 00 00 00    	mov    r8d,0x0
     7e2:	41 b9 00 00 00 00    	mov    r9d,0x0
     7e8:	0f 57 c0             	xorps  xmm0,xmm0
     7eb:	68 00 00 00 00       	push   0x0
     7f0:	68 00 00 00 00       	push   0x0
     7f5:	e8 00 00 00 00       	call   7fa <s115+0x13e>
     7fa:	48 83 c4 10          	add    rsp,0x10
     7fe:	41 ff c7             	inc    r15d
     801:	41 81 ff 70 f3 05 00 	cmp    r15d,0x5f370
     808:	0f 85 d0 fe ff ff    	jne    6de <s115+0x22>
     80e:	49 83 c6 10          	add    r14,0x10
     812:	4c 89 f7             	mov    rdi,r14
     815:	31 f6                	xor    esi,esi
     817:	e8 00 00 00 00       	call   81c <s115+0x160>
     81c:	bf 00 00 00 00       	mov    edi,0x0
     821:	48 83 c4 08          	add    rsp,0x8
     825:	5b                   	pop    rbx
     826:	41 5c                	pop    r12
     828:	41 5e                	pop    r14
     82a:	41 5f                	pop    r15
     82c:	e9 00 00 00 00       	jmp    831 <s1115>

0000000000000831 <s1115>:
     831:	41 57                	push   r15
     833:	41 56                	push   r14
     835:	53                   	push   rbx
     836:	49 89 fe             	mov    r14,rdi
     839:	bf 00 00 00 00       	mov    edi,0x0
     83e:	e8 00 00 00 00       	call   843 <s1115+0x12>
     843:	45 31 ff             	xor    r15d,r15d
     846:	4c 89 f7             	mov    rdi,r14
     849:	31 f6                	xor    esi,esi
     84b:	e8 00 00 00 00       	call   850 <s1115+0x1f>
     850:	31 c0                	xor    eax,eax
     852:	31 db                	xor    ebx,ebx
     854:	31 d2                	xor    edx,edx
     856:	48 89 d9             	mov    rcx,rbx
     859:	48 09 d1             	or     rcx,rdx
     85c:	48 89 c7             	mov    rdi,rax
     85f:	48 c1 e7 0a          	shl    rdi,0xa
     863:	f3 0f 10 84 8f 00 00 	movss  xmm0,DWORD PTR [rdi+rcx*4+0x0]
     86a:	00 00 
     86c:	48 89 ce             	mov    rsi,rcx
     86f:	48 c1 e6 0a          	shl    rsi,0xa
     873:	f3 0f 59 84 86 00 00 	mulss  xmm0,DWORD PTR [rsi+rax*4+0x0]
     87a:	00 00 
     87c:	f3 0f 58 84 8f 00 00 	addss  xmm0,DWORD PTR [rdi+rcx*4+0x0]
     883:	00 00 
     885:	f3 0f 11 84 8f 00 00 	movss  DWORD PTR [rdi+rcx*4+0x0],xmm0
     88c:	00 00 
     88e:	48 ff c2             	inc    rdx
     891:	48 83 fa 08          	cmp    rdx,0x8
     895:	75 bf                	jne    856 <s1115+0x25>
     897:	48 83 c3 08          	add    rbx,0x8
     89b:	48 81 fb 00 01 00 00 	cmp    rbx,0x100
     8a2:	75 b0                	jne    854 <s1115+0x23>
     8a4:	48 ff c0             	inc    rax
     8a7:	48 3d 00 01 00 00    	cmp    rax,0x100
     8ad:	75 a3                	jne    852 <s1115+0x21>
     8af:	bf 00 00 00 00       	mov    edi,0x0
     8b4:	be 00 00 00 00       	mov    esi,0x0
     8b9:	ba 00 00 00 00       	mov    edx,0x0
     8be:	b9 00 00 00 00       	mov    ecx,0x0
     8c3:	41 b8 00 00 00 00    	mov    r8d,0x0
     8c9:	41 b9 00 00 00 00    	mov    r9d,0x0
     8cf:	0f 57 c0             	xorps  xmm0,xmm0
     8d2:	68 00 00 00 00       	push   0x0
     8d7:	68 00 00 00 00       	push   0x0
     8dc:	e8 00 00 00 00       	call   8e1 <s1115+0xb0>
     8e1:	48 83 c4 10          	add    rsp,0x10
     8e5:	41 ff c7             	inc    r15d
     8e8:	41 81 ff 58 98 00 00 	cmp    r15d,0x9858
     8ef:	0f 85 5b ff ff ff    	jne    850 <s1115+0x1f>
     8f5:	49 83 c6 10          	add    r14,0x10
     8f9:	4c 89 f7             	mov    rdi,r14
     8fc:	31 f6                	xor    esi,esi
     8fe:	e8 00 00 00 00       	call   903 <s1115+0xd2>
     903:	bf 00 00 00 00       	mov    edi,0x0
     908:	5b                   	pop    rbx
     909:	41 5e                	pop    r14
     90b:	41 5f                	pop    r15
     90d:	e9 00 00 00 00       	jmp    912 <s116>

0000000000000912 <s116>:
     912:	41 56                	push   r14
     914:	53                   	push   rbx
     915:	50                   	push   rax
     916:	49 89 fe             	mov    r14,rdi
     919:	bf 00 00 00 00       	mov    edi,0x0
     91e:	e8 00 00 00 00       	call   923 <s116+0x11>
     923:	31 db                	xor    ebx,ebx
     925:	4c 89 f7             	mov    rdi,r14
     928:	31 f6                	xor    esi,esi
     92a:	e8 00 00 00 00       	call   92f <s116+0x1d>
     92f:	48 c7 c0 fb ff ff ff 	mov    rax,0xfffffffffffffffb
     936:	f3 0f 10 05 00 00 00 	movss  xmm0,DWORD PTR [rip+0x0]        # 93e <s116+0x2c>
     93d:	00 
     93e:	f3 0f 10 0c 85 00 00 	movss  xmm1,DWORD PTR [rax*4+0x0]
     945:	00 00 
     947:	f3 0f 59 c1          	mulss  xmm0,xmm1
     94b:	f3 0f 11 04 85 00 00 	movss  DWORD PTR [rax*4+0x0],xmm0
     952:	00 00 
     954:	f3 0f 10 04 85 00 00 	movss  xmm0,DWORD PTR [rax*4+0x0]
     95b:	00 00 
     95d:	f3 0f 59 c8          	mulss  xmm1,xmm0
     961:	f3 0f 11 0c 85 00 00 	movss  DWORD PTR [rax*4+0x0],xmm1
     968:	00 00 
     96a:	f3 0f 10 0c 85 00 00 	movss  xmm1,DWORD PTR [rax*4+0x0]
     971:	00 00 
     973:	f3 0f 59 c1          	mulss  xmm0,xmm1
     977:	f3 0f 11 04 85 00 00 	movss  DWORD PTR [rax*4+0x0],xmm0
     97e:	00 00 
     980:	f3 0f 10 14 85 00 00 	movss  xmm2,DWORD PTR [rax*4+0x0]
     987:	00 00 
     989:	f3 0f 59 ca          	mulss  xmm1,xmm2
     98d:	f3 0f 11 0c 85 00 00 	movss  DWORD PTR [rax*4+0x0],xmm1
     994:	00 00 
     996:	f3 0f 10 04 85 00 00 	movss  xmm0,DWORD PTR [rax*4+0x0]
     99d:	00 00 
     99f:	f3 0f 59 d0          	mulss  xmm2,xmm0
     9a3:	f3 0f 11 14 85 00 00 	movss  DWORD PTR [rax*4+0x0],xmm2
     9aa:	00 00 
     9ac:	48 83 c0 05          	add    rax,0x5
     9b0:	48 3d f6 7c 00 00    	cmp    rax,0x7cf6
     9b6:	72 86                	jb     93e <s116+0x2c>
     9b8:	bf 00 00 00 00       	mov    edi,0x0
     9bd:	be 00 00 00 00       	mov    esi,0x0
     9c2:	ba 00 00 00 00       	mov    edx,0x0
     9c7:	b9 00 00 00 00       	mov    ecx,0x0
     9cc:	41 b8 00 00 00 00    	mov    r8d,0x0
     9d2:	41 b9 00 00 00 00    	mov    r9d,0x0
     9d8:	0f 57 c0             	xorps  xmm0,xmm0
     9db:	68 00 00 00 00       	push   0x0
     9e0:	68 00 00 00 00       	push   0x0
     9e5:	e8 00 00 00 00       	call   9ea <s116+0xd8>
     9ea:	48 83 c4 10          	add    rsp,0x10
     9ee:	ff c3                	inc    ebx
     9f0:	81 fb 40 42 0f 00    	cmp    ebx,0xf4240
     9f6:	0f 85 33 ff ff ff    	jne    92f <s116+0x1d>
     9fc:	49 83 c6 10          	add    r14,0x10
     a00:	4c 89 f7             	mov    rdi,r14
     a03:	31 f6                	xor    esi,esi
     a05:	e8 00 00 00 00       	call   a0a <s116+0xf8>
     a0a:	bf 00 00 00 00       	mov    edi,0x0
     a0f:	48 83 c4 08          	add    rsp,0x8
     a13:	5b                   	pop    rbx
     a14:	41 5e                	pop    r14
     a16:	e9 00 00 00 00       	jmp    a1b <s118>

0000000000000a1b <s118>:
     a1b:	41 56                	push   r14
     a1d:	53                   	push   rbx
     a1e:	50                   	push   rax
     a1f:	49 89 fe             	mov    r14,rdi
     a22:	bf 00 00 00 00       	mov    edi,0x0
     a27:	e8 00 00 00 00       	call   a2c <s118+0x11>
     a2c:	31 db                	xor    ebx,ebx
     a2e:	4c 89 f7             	mov    rdi,r14
     a31:	31 f6                	xor    esi,esi
     a33:	e8 00 00 00 00       	call   a38 <s118+0x1d>
     a38:	b8 01 00 00 00       	mov    eax,0x1
     a3d:	b9 00 00 00 00       	mov    ecx,0x0
     a42:	31 d2                	xor    edx,edx
     a44:	f3 0f 10 04 85 00 00 	movss  xmm0,DWORD PTR [rax*4+0x0]
     a4b:	00 00 
     a4d:	48 89 ce             	mov    rsi,rcx
     a50:	48 89 d7             	mov    rdi,rdx
     a53:	f3 0f 10 0e          	movss  xmm1,DWORD PTR [rsi]
     a57:	f3 0f 59 8f 00 00 00 	mulss  xmm1,DWORD PTR [rdi+0x0]
     a5e:	00 
     a5f:	f3 0f 58 c1          	addss  xmm0,xmm1
     a63:	f3 0f 11 04 85 00 00 	movss  DWORD PTR [rax*4+0x0],xmm0
     a6a:	00 00 
     a6c:	48 83 c7 fc          	add    rdi,0xfffffffffffffffc
     a70:	48 81 c6 00 04 00 00 	add    rsi,0x400
     a77:	48 83 ff fc          	cmp    rdi,0xfffffffffffffffc
     a7b:	75 d6                	jne    a53 <s118+0x38>
     a7d:	48 ff c0             	inc    rax
     a80:	48 83 c2 04          	add    rdx,0x4
     a84:	48 83 c1 04          	add    rcx,0x4
     a88:	48 3d 00 01 00 00    	cmp    rax,0x100
     a8e:	75 b4                	jne    a44 <s118+0x29>
     a90:	bf 00 00 00 00       	mov    edi,0x0
     a95:	be 00 00 00 00       	mov    esi,0x0
     a9a:	ba 00 00 00 00       	mov    edx,0x0
     a9f:	b9 00 00 00 00       	mov    ecx,0x0
     aa4:	41 b8 00 00 00 00    	mov    r8d,0x0
     aaa:	41 b9 00 00 00 00    	mov    r9d,0x0
     ab0:	0f 57 c0             	xorps  xmm0,xmm0
     ab3:	68 00 00 00 00       	push   0x0
     ab8:	68 00 00 00 00       	push   0x0
     abd:	e8 00 00 00 00       	call   ac2 <s118+0xa7>
     ac2:	48 83 c4 10          	add    rsp,0x10
     ac6:	ff c3                	inc    ebx
     ac8:	81 fb b0 30 01 00    	cmp    ebx,0x130b0
     ace:	0f 85 64 ff ff ff    	jne    a38 <s118+0x1d>
     ad4:	49 83 c6 10          	add    r14,0x10
     ad8:	4c 89 f7             	mov    rdi,r14
     adb:	31 f6                	xor    esi,esi
     add:	e8 00 00 00 00       	call   ae2 <s118+0xc7>
     ae2:	bf 00 00 00 00       	mov    edi,0x0
     ae7:	48 83 c4 08          	add    rsp,0x8
     aeb:	5b                   	pop    rbx
     aec:	41 5e                	pop    r14
     aee:	e9 00 00 00 00       	jmp    af3 <s119>

0000000000000af3 <s119>:
     af3:	41 57                	push   r15
     af5:	41 56                	push   r14
     af7:	53                   	push   rbx
     af8:	48 83 ec 40          	sub    rsp,0x40
     afc:	49 89 fe             	mov    r14,rdi
     aff:	bf 00 00 00 00       	mov    edi,0x0
     b04:	e8 00 00 00 00       	call   b09 <s119+0x16>
     b09:	45 31 ff             	xor    r15d,r15d
     b0c:	4c 89 f7             	mov    rdi,r14
     b0f:	31 f6                	xor    esi,esi
     b11:	e8 00 00 00 00       	call   b16 <s119+0x23>
     b16:	41 b9 01 00 00 00    	mov    r9d,0x1
     b1c:	41 b8 04 04 00 00    	mov    r8d,0x404
     b22:	49 8d 41 ff          	lea    rax,[r9-0x1]
     b26:	4c 89 c6             	mov    rsi,r8
     b29:	bf 01 00 00 00       	mov    edi,0x1
     b2e:	31 db                	xor    ebx,ebx
     b30:	48 8d 0c 1f          	lea    rcx,[rdi+rbx*1]
     b34:	f3 0f 10 84 9e 00 00 	movss  xmm0,DWORD PTR [rsi+rbx*4+0x0]
     b3b:	00 00 
     b3d:	f3 0f 58 84 9e 00 00 	addss  xmm0,DWORD PTR [rsi+rbx*4+0x0]
     b44:	00 00 
     b46:	48 89 4c dc 08       	mov    QWORD PTR [rsp+rbx*8+0x8],rcx
     b4b:	f3 0f 11 84 9e 00 00 	movss  DWORD PTR [rsi+rbx*4+0x0],xmm0
     b52:	00 00 
     b54:	48 ff c3             	inc    rbx
     b57:	48 83 fb 07          	cmp    rbx,0x7
     b5b:	75 d3                	jne    b30 <s119+0x3d>
     b5d:	48 8d 5f 07          	lea    rbx,[rdi+0x7]
     b61:	48 81 fb 00 01 00 00 	cmp    rbx,0x100
     b68:	74 38                	je     ba2 <s119+0xaf>
     b6a:	48 8b 4c 24 38       	mov    rcx,QWORD PTR [rsp+0x38]
     b6f:	48 89 c2             	mov    rdx,rax
     b72:	48 c1 e2 0a          	shl    rdx,0xa
     b76:	f3 0f 10 84 8a 00 00 	movss  xmm0,DWORD PTR [rdx+rcx*4+0x0]
     b7d:	00 00 
     b7f:	4c 89 c9             	mov    rcx,r9
     b82:	48 c1 e1 0a          	shl    rcx,0xa
     b86:	f3 0f 58 84 99 00 00 	addss  xmm0,DWORD PTR [rcx+rbx*4+0x0]
     b8d:	00 00 
     b8f:	f3 0f 11 84 99 00 00 	movss  DWORD PTR [rcx+rbx*4+0x0],xmm0
     b96:	00 00 
     b98:	48 83 c7 08          	add    rdi,0x8
     b9c:	48 83 c6 20          	add    rsi,0x20
     ba0:	eb 8c                	jmp    b2e <s119+0x3b>
     ba2:	49 ff c1             	inc    r9
     ba5:	49 81 c0 00 04 00 00 	add    r8,0x400
     bac:	49 81 f9 00 01 00 00 	cmp    r9,0x100
     bb3:	0f 85 69 ff ff ff    	jne    b22 <s119+0x2f>
     bb9:	bf 00 00 00 00       	mov    edi,0x0
     bbe:	be 00 00 00 00       	mov    esi,0x0
     bc3:	ba 00 00 00 00       	mov    edx,0x0
     bc8:	b9 00 00 00 00       	mov    ecx,0x0
     bcd:	41 b8 00 00 00 00    	mov    r8d,0x0
     bd3:	41 b9 00 00 00 00    	mov    r9d,0x0
     bd9:	0f 57 c0             	xorps  xmm0,xmm0
     bdc:	68 00 00 00 00       	push   0x0
     be1:	68 00 00 00 00       	push   0x0
     be6:	e8 00 00 00 00       	call   beb <s119+0xf8>
     beb:	48 83 c4 10          	add    rsp,0x10
     bef:	41 ff c7             	inc    r15d
     bf2:	41 81 ff b0 30 01 00 	cmp    r15d,0x130b0
     bf9:	0f 85 17 ff ff ff    	jne    b16 <s119+0x23>
     bff:	49 83 c6 10          	add    r14,0x10
     c03:	4c 89 f7             	mov    rdi,r14
     c06:	31 f6                	xor    esi,esi
     c08:	e8 00 00 00 00       	call   c0d <s119+0x11a>
     c0d:	bf 00 00 00 00       	mov    edi,0x0
     c12:	48 83 c4 40          	add    rsp,0x40
     c16:	5b                   	pop    rbx
     c17:	41 5e                	pop    r14
     c19:	41 5f                	pop    r15
     c1b:	e9 00 00 00 00       	jmp    c20 <s1119>

0000000000000c20 <s1119>:
     c20:	41 57                	push   r15
     c22:	41 56                	push   r14
     c24:	53                   	push   rbx
     c25:	49 89 fe             	mov    r14,rdi
     c28:	bf 00 00 00 00       	mov    edi,0x0
     c2d:	e8 00 00 00 00       	call   c32 <s1119+0x12>
     c32:	45 31 ff             	xor    r15d,r15d
     c35:	4c 89 f7             	mov    rdi,r14
     c38:	31 f6                	xor    esi,esi
     c3a:	e8 00 00 00 00       	call   c3f <s1119+0x1f>
     c3f:	b8 01 00 00 00       	mov    eax,0x1
     c44:	48 8d 58 ff          	lea    rbx,[rax-0x1]
     c48:	31 d2                	xor    edx,edx
     c4a:	31 f6                	xor    esi,esi
     c4c:	48 89 d7             	mov    rdi,rdx
     c4f:	48 09 f7             	or     rdi,rsi
     c52:	48 89 d9             	mov    rcx,rbx
     c55:	48 c1 e1 0a          	shl    rcx,0xa
     c59:	f3 0f 10 84 b9 00 00 	movss  xmm0,DWORD PTR [rcx+rdi*4+0x0]
     c60:	00 00 
     c62:	48 89 c1             	mov    rcx,rax
     c65:	48 c1 e1 0a          	shl    rcx,0xa
     c69:	f3 0f 58 84 b9 00 00 	addss  xmm0,DWORD PTR [rcx+rdi*4+0x0]
     c70:	00 00 
     c72:	f3 0f 11 84 b9 00 00 	movss  DWORD PTR [rcx+rdi*4+0x0],xmm0
     c79:	00 00 
     c7b:	48 ff c6             	inc    rsi
     c7e:	48 83 fe 08          	cmp    rsi,0x8
     c82:	75 c8                	jne    c4c <s1119+0x2c>
     c84:	48 83 c2 08          	add    rdx,0x8
     c88:	48 81 fa 00 01 00 00 	cmp    rdx,0x100
     c8f:	75 b9                	jne    c4a <s1119+0x2a>
     c91:	48 ff c0             	inc    rax
     c94:	48 3d 00 01 00 00    	cmp    rax,0x100
     c9a:	75 a8                	jne    c44 <s1119+0x24>
     c9c:	bf 00 00 00 00       	mov    edi,0x0
     ca1:	be 00 00 00 00       	mov    esi,0x0
     ca6:	ba 00 00 00 00       	mov    edx,0x0
     cab:	b9 00 00 00 00       	mov    ecx,0x0
     cb0:	41 b8 00 00 00 00    	mov    r8d,0x0
     cb6:	41 b9 00 00 00 00    	mov    r9d,0x0
     cbc:	0f 57 c0             	xorps  xmm0,xmm0
     cbf:	68 00 00 00 00       	push   0x0
     cc4:	68 00 00 00 00       	push   0x0
     cc9:	e8 00 00 00 00       	call   cce <s1119+0xae>
     cce:	48 83 c4 10          	add    rsp,0x10
     cd2:	41 ff c7             	inc    r15d
     cd5:	41 81 ff b0 30 01 00 	cmp    r15d,0x130b0
     cdc:	0f 85 5d ff ff ff    	jne    c3f <s1119+0x1f>
     ce2:	49 83 c6 10          	add    r14,0x10
     ce6:	4c 89 f7             	mov    rdi,r14
     ce9:	31 f6                	xor    esi,esi
     ceb:	e8 00 00 00 00       	call   cf0 <s1119+0xd0>
     cf0:	bf 00 00 00 00       	mov    edi,0x0
     cf5:	5b                   	pop    rbx
     cf6:	41 5e                	pop    r14
     cf8:	41 5f                	pop    r15
     cfa:	e9 00 00 00 00       	jmp    cff <s121>

0000000000000cff <s121>:
     cff:	41 56                	push   r14
     d01:	53                   	push   rbx
     d02:	48 83 ec 78          	sub    rsp,0x78
     d06:	49 89 fe             	mov    r14,rdi
     d09:	bf 00 00 00 00       	mov    edi,0x0
     d0e:	e8 00 00 00 00       	call   d13 <s121+0x14>
     d13:	31 db                	xor    ebx,ebx
     d15:	4c 89 f7             	mov    rdi,r14
     d18:	31 f6                	xor    esi,esi
     d1a:	e8 00 00 00 00       	call   d1f <s121+0x20>
     d1f:	31 c0                	xor    eax,eax
     d21:	31 c9                	xor    ecx,ecx
     d23:	48 8d 51 01          	lea    rdx,[rcx+0x1]
     d27:	48 89 d6             	mov    rsi,rdx
     d2a:	48 09 c6             	or     rsi,rax
     d2d:	48 89 74 cc 08       	mov    QWORD PTR [rsp+rcx*8+0x8],rsi
     d32:	48 8d 34 b5 00 00 00 	lea    rsi,[rsi*4+0x0]
     d39:	00 
     d3a:	48 89 74 cc 40       	mov    QWORD PTR [rsp+rcx*8+0x40],rsi
     d3f:	f3 0f 10 06          	movss  xmm0,DWORD PTR [rsi]
     d43:	48 09 c1             	or     rcx,rax
     d46:	f3 0f 58 04 8d 00 00 	addss  xmm0,DWORD PTR [rcx*4+0x0]
     d4d:	00 00 
     d4f:	f3 0f 11 04 8d 00 00 	movss  DWORD PTR [rcx*4+0x0],xmm0
     d56:	00 00 
     d58:	48 89 d1             	mov    rcx,rdx
     d5b:	48 83 fa 07          	cmp    rdx,0x7
     d5f:	75 c2                	jne    d23 <s121+0x24>
     d61:	48 8b 4c 24 38       	mov    rcx,QWORD PTR [rsp+0x38]
     d66:	48 81 f9 ff 7c 00 00 	cmp    rcx,0x7cff
     d6d:	74 21                	je     d90 <s121+0x91>
     d6f:	48 8b 54 24 70       	mov    rdx,QWORD PTR [rsp+0x70]
     d74:	f3 0f 10 04 85 00 00 	movss  xmm0,DWORD PTR [rax*4+0x0]
     d7b:	00 00 
     d7d:	48 83 c0 08          	add    rax,0x8
     d81:	f3 0f 58 04 8d 00 00 	addss  xmm0,DWORD PTR [rcx*4+0x0]
     d88:	00 00 
     d8a:	f3 0f 11 02          	movss  DWORD PTR [rdx],xmm0
     d8e:	eb 91                	jmp    d21 <s121+0x22>
     d90:	bf 00 00 00 00       	mov    edi,0x0
     d95:	be 00 00 00 00       	mov    esi,0x0
     d9a:	ba 00 00 00 00       	mov    edx,0x0
     d9f:	b9 00 00 00 00       	mov    ecx,0x0
     da4:	41 b8 00 00 00 00    	mov    r8d,0x0
     daa:	41 b9 00 00 00 00    	mov    r9d,0x0
     db0:	0f 57 c0             	xorps  xmm0,xmm0
     db3:	68 00 00 00 00       	push   0x0
     db8:	68 00 00 00 00       	push   0x0
     dbd:	e8 00 00 00 00       	call   dc2 <s121+0xc3>
     dc2:	48 83 c4 10          	add    rsp,0x10
     dc6:	ff c3                	inc    ebx
     dc8:	81 fb e0 93 04 00    	cmp    ebx,0x493e0
     dce:	0f 85 4b ff ff ff    	jne    d1f <s121+0x20>
     dd4:	49 83 c6 10          	add    r14,0x10
     dd8:	4c 89 f7             	mov    rdi,r14
     ddb:	31 f6                	xor    esi,esi
     ddd:	e8 00 00 00 00       	call   de2 <s121+0xe3>
     de2:	bf 00 00 00 00       	mov    edi,0x0
     de7:	48 83 c4 78          	add    rsp,0x78
     deb:	5b                   	pop    rbx
     dec:	41 5e                	pop    r14
     dee:	e9 00 00 00 00       	jmp    df3 <s122>

0000000000000df3 <s122>:
     df3:	55                   	push   rbp
     df4:	41 57                	push   r15
     df6:	41 56                	push   r14
     df8:	41 55                	push   r13
     dfa:	41 54                	push   r12
     dfc:	53                   	push   rbx
     dfd:	50                   	push   rax
     dfe:	48 89 fb             	mov    rbx,rdi
     e01:	48 8b 47 20          	mov    rax,QWORD PTR [rdi+0x20]
     e05:	44 8b 20             	mov    r12d,DWORD PTR [rax]
     e08:	48 63 68 04          	movsxd rbp,DWORD PTR [rax+0x4]
     e0c:	bf 00 00 00 00       	mov    edi,0x0
     e11:	e8 00 00 00 00       	call   e16 <s122+0x23>
     e16:	45 31 ed             	xor    r13d,r13d
     e19:	48 89 1c 24          	mov    QWORD PTR [rsp],rbx
     e1d:	48 89 df             	mov    rdi,rbx
     e20:	31 f6                	xor    esi,esi
     e22:	e8 00 00 00 00       	call   e27 <s122+0x34>
     e27:	41 8d 44 24 ff       	lea    eax,[r12-0x1]
     e2c:	48 63 d8             	movsxd rbx,eax
     e2f:	41 8d 04 2c          	lea    eax,[r12+rbp*1]
     e33:	ff c8                	dec    eax
     e35:	41 bf 00 7d 00 00    	mov    r15d,0x7d00
     e3b:	44 39 f8             	cmp    eax,r15d
     e3e:	44 0f 4f f8          	cmovg  r15d,eax
     e42:	45 29 e7             	sub    r15d,r12d
     e45:	4c 8d 34 ad 00 00 00 	lea    r14,[rbp*4+0x0]
     e4c:	00 
     e4d:	41 81 fc 00 7d 00 00 	cmp    r12d,0x7d00
     e54:	0f 8f 52 01 00 00    	jg     fac <s122+0x1b9>
     e5a:	44 89 f8             	mov    eax,r15d
     e5d:	31 d2                	xor    edx,edx
     e5f:	f7 f5                	div    ebp
     e61:	8d 50 01             	lea    edx,[rax+0x1]
     e64:	41 89 d0             	mov    r8d,edx
     e67:	41 83 e0 07          	and    r8d,0x7
     e6b:	83 f8 07             	cmp    eax,0x7
     e6e:	73 0a                	jae    e7a <s122+0x87>
     e70:	31 c0                	xor    eax,eax
     e72:	48 89 de             	mov    rsi,rbx
     e75:	e9 fe 00 00 00       	jmp    f78 <s122+0x185>
     e7a:	83 e2 f8             	and    edx,0xfffffff8
     e7d:	31 c0                	xor    eax,eax
     e7f:	49 89 d9             	mov    r9,rbx
     e82:	48 89 de             	mov    rsi,rbx
     e85:	f3 0f 10 04 85 00 00 	movss  xmm0,DWORD PTR [rax*4+0x0]
     e8c:	00 00 
     e8e:	f3 0f 58 04 b5 00 00 	addss  xmm0,DWORD PTR [rsi*4+0x0]
     e95:	00 00 
     e97:	f3 0f 11 04 b5 00 00 	movss  DWORD PTR [rsi*4+0x0],xmm0
     e9e:	00 00 
     ea0:	f3 0f 10 04 85 00 00 	movss  xmm0,DWORD PTR [rax*4+0x0]
     ea7:	00 00 
     ea9:	49 8d 3c b6          	lea    rdi,[r14+rsi*4]
     ead:	48 81 c7 00 00 00 00 	add    rdi,0x0
     eb4:	f3 41 0f 58 84 b6 00 	addss  xmm0,DWORD PTR [r14+rsi*4+0x0]
     ebb:	00 00 00 
     ebe:	f3 41 0f 11 84 b6 00 	movss  DWORD PTR [r14+rsi*4+0x0],xmm0
     ec5:	00 00 00 
     ec8:	48 01 ee             	add    rsi,rbp
     ecb:	48 01 ee             	add    rsi,rbp
     ece:	f3 0f 10 04 85 00 00 	movss  xmm0,DWORD PTR [rax*4+0x0]
     ed5:	00 00 
     ed7:	4a 8d 1c 37          	lea    rbx,[rdi+r14*1]
     edb:	f3 0f 58 04 af       	addss  xmm0,DWORD PTR [rdi+rbp*4]
     ee0:	f3 0f 11 04 af       	movss  DWORD PTR [rdi+rbp*4],xmm0
     ee5:	48 01 ee             	add    rsi,rbp
     ee8:	f3 0f 10 04 85 00 00 	movss  xmm0,DWORD PTR [rax*4+0x0]
     eef:	00 00 
     ef1:	f3 0f 58 04 ef       	addss  xmm0,DWORD PTR [rdi+rbp*8]
     ef6:	4a 8d 0c 33          	lea    rcx,[rbx+r14*1]
     efa:	f3 0f 11 04 ef       	movss  DWORD PTR [rdi+rbp*8],xmm0
     eff:	48 01 ee             	add    rsi,rbp
     f02:	f3 0f 10 04 85 00 00 	movss  xmm0,DWORD PTR [rax*4+0x0]
     f09:	00 00 
     f0b:	4c 01 f1             	add    rcx,r14
     f0e:	f3 0f 58 04 eb       	addss  xmm0,DWORD PTR [rbx+rbp*8]
     f13:	f3 0f 11 04 eb       	movss  DWORD PTR [rbx+rbp*8],xmm0
     f18:	48 01 ee             	add    rsi,rbp
     f1b:	f3 0f 10 04 85 00 00 	movss  xmm0,DWORD PTR [rax*4+0x0]
     f22:	00 00 
     f24:	f3 0f 58 04 a9       	addss  xmm0,DWORD PTR [rcx+rbp*4]
     f29:	4a 8d 3c 31          	lea    rdi,[rcx+r14*1]
     f2d:	f3 0f 11 04 a9       	movss  DWORD PTR [rcx+rbp*4],xmm0
     f32:	48 01 ee             	add    rsi,rbp
     f35:	f3 0f 10 04 85 00 00 	movss  xmm0,DWORD PTR [rax*4+0x0]
     f3c:	00 00 
     f3e:	4a 8d 0c 37          	lea    rcx,[rdi+r14*1]
     f42:	f3 0f 58 04 af       	addss  xmm0,DWORD PTR [rdi+rbp*4]
     f47:	f3 0f 11 04 af       	movss  DWORD PTR [rdi+rbp*4],xmm0
     f4c:	48 01 ee             	add    rsi,rbp
     f4f:	f3 0f 10 04 85 00 00 	movss  xmm0,DWORD PTR [rax*4+0x0]
     f56:	00 00 
     f58:	f3 0f 58 04 a9       	addss  xmm0,DWORD PTR [rcx+rbp*4]
     f5d:	f3 0f 11 04 a9       	movss  DWORD PTR [rcx+rbp*4],xmm0
     f62:	48 01 ee             	add    rsi,rbp
     f65:	48 83 c0 f8          	add    rax,0xfffffffffffffff8
     f69:	83 c2 f8             	add    edx,0xfffffff8
     f6c:	0f 85 13 ff ff ff    	jne    e85 <s122+0x92>
     f72:	48 f7 d8             	neg    rax
     f75:	4c 89 cb             	mov    rbx,r9
     f78:	45 85 c0             	test   r8d,r8d
     f7b:	74 2f                	je     fac <s122+0x1b9>
     f7d:	48 c1 e0 02          	shl    rax,0x2
     f81:	48 f7 d8             	neg    rax
     f84:	48 8d 04 05 00 00 00 	lea    rax,[rax*1+0x0]
     f8b:	00 
     f8c:	48 8d 14 b5 00 00 00 	lea    rdx,[rsi*4+0x0]
     f93:	00 
     f94:	f3 0f 10 00          	movss  xmm0,DWORD PTR [rax]
     f98:	f3 0f 58 02          	addss  xmm0,DWORD PTR [rdx]
     f9c:	f3 0f 11 02          	movss  DWORD PTR [rdx],xmm0
     fa0:	48 83 c0 fc          	add    rax,0xfffffffffffffffc
     fa4:	4c 01 f2             	add    rdx,r14
     fa7:	41 ff c8             	dec    r8d
     faa:	75 e8                	jne    f94 <s122+0x1a1>
     fac:	bf 00 00 00 00       	mov    edi,0x0
     fb1:	be 00 00 00 00       	mov    esi,0x0
     fb6:	ba 00 00 00 00       	mov    edx,0x0
     fbb:	b9 00 00 00 00       	mov    ecx,0x0
     fc0:	41 b8 00 00 00 00    	mov    r8d,0x0
     fc6:	41 b9 00 00 00 00    	mov    r9d,0x0
     fcc:	0f 57 c0             	xorps  xmm0,xmm0
     fcf:	68 00 00 00 00       	push   0x0
     fd4:	68 00 00 00 00       	push   0x0
     fd9:	e8 00 00 00 00       	call   fde <s122+0x1eb>
     fde:	48 83 c4 10          	add    rsp,0x10
     fe2:	41 ff c5             	inc    r13d
     fe5:	41 81 fd a0 86 01 00 	cmp    r13d,0x186a0
     fec:	0f 85 5b fe ff ff    	jne    e4d <s122+0x5a>
     ff2:	48 8b 3c 24          	mov    rdi,QWORD PTR [rsp]
     ff6:	48 83 c7 10          	add    rdi,0x10
     ffa:	31 f6                	xor    esi,esi
     ffc:	e8 00 00 00 00       	call   1001 <s122+0x20e>
    1001:	bf 00 00 00 00       	mov    edi,0x0
    1006:	48 83 c4 08          	add    rsp,0x8
    100a:	5b                   	pop    rbx
    100b:	41 5c                	pop    r12
    100d:	41 5d                	pop    r13
    100f:	41 5e                	pop    r14
    1011:	41 5f                	pop    r15
    1013:	5d                   	pop    rbp
    1014:	e9 00 00 00 00       	jmp    1019 <s123>

0000000000001019 <s123>:
    1019:	41 56                	push   r14
    101b:	53                   	push   rbx
    101c:	50                   	push   rax
    101d:	49 89 fe             	mov    r14,rdi
    1020:	bf 00 00 00 00       	mov    edi,0x0
    1025:	e8 00 00 00 00       	call   102a <s123+0x11>
    102a:	31 db                	xor    ebx,ebx
    102c:	4c 89 f7             	mov    rdi,r14
    102f:	31 f6                	xor    esi,esi
    1031:	e8 00 00 00 00       	call   1036 <s123+0x1d>
    1036:	0f 57 d2             	xorps  xmm2,xmm2
    1039:	b8 ff ff ff ff       	mov    eax,0xffffffff
    103e:	48 c7 c1 00 06 ff ff 	mov    rcx,0xffffffffffff0600
    1045:	f3 0f 10 81 00 00 00 	movss  xmm0,DWORD PTR [rcx+0x0]
    104c:	00 
    104d:	f3 0f 59 81 00 00 00 	mulss  xmm0,DWORD PTR [rcx+0x0]
    1054:	00 
    1055:	f3 0f 10 89 00 00 00 	movss  xmm1,DWORD PTR [rcx+0x0]
    105c:	00 
    105d:	f3 0f 58 c8          	addss  xmm1,xmm0
    1061:	48 63 d0             	movsxd rdx,eax
    1064:	f3 0f 11 0c 95 00 00 	movss  DWORD PTR [rdx*4+0x0],xmm1
    106b:	00 00 
    106d:	f3 0f 10 89 00 00 00 	movss  xmm1,DWORD PTR [rcx+0x0]
    1074:	00 
    1075:	0f 2e ca             	ucomiss xmm1,xmm2
    1078:	76 12                	jbe    108c <s123+0x73>
    107a:	83 c0 02             	add    eax,0x2
    107d:	f3 0f 58 c1          	addss  xmm0,xmm1
    1081:	f3 0f 11 04 95 00 00 	movss  DWORD PTR [rdx*4+0x0],xmm0
    1088:	00 00 
    108a:	eb 02                	jmp    108e <s123+0x75>
    108c:	ff c0                	inc    eax
    108e:	f3 0f 10 81 00 00 00 	movss  xmm0,DWORD PTR [rcx+0x0]
    1095:	00 
    1096:	f3 0f 59 81 00 00 00 	mulss  xmm0,DWORD PTR [rcx+0x0]
    109d:	00 
    109e:	f3 0f 10 89 00 00 00 	movss  xmm1,DWORD PTR [rcx+0x0]
    10a5:	00 
    10a6:	f3 0f 58 c8          	addss  xmm1,xmm0
    10aa:	48 63 d0             	movsxd rdx,eax
    10ad:	f3 0f 11 0c 95 00 00 	movss  DWORD PTR [rdx*4+0x0],xmm1
    10b4:	00 00 
    10b6:	f3 0f 10 89 00 00 00 	movss  xmm1,DWORD PTR [rcx+0x0]
    10bd:	00 
    10be:	0f 2e ca             	ucomiss xmm1,xmm2
    10c1:	76 12                	jbe    10d5 <s123+0xbc>
    10c3:	83 c0 02             	add    eax,0x2
    10c6:	f3 0f 58 c1          	addss  xmm0,xmm1
    10ca:	f3 0f 11 04 95 00 00 	movss  DWORD PTR [rdx*4+0x0],xmm0
    10d1:	00 00 
    10d3:	eb 02                	jmp    10d7 <s123+0xbe>
    10d5:	ff c0                	inc    eax
    10d7:	f3 0f 10 81 00 00 00 	movss  xmm0,DWORD PTR [rcx+0x0]
    10de:	00 
    10df:	f3 0f 59 81 00 00 00 	mulss  xmm0,DWORD PTR [rcx+0x0]
    10e6:	00 
    10e7:	f3 0f 10 89 00 00 00 	movss  xmm1,DWORD PTR [rcx+0x0]
    10ee:	00 
    10ef:	f3 0f 58 c8          	addss  xmm1,xmm0
    10f3:	48 63 d0             	movsxd rdx,eax
    10f6:	f3 0f 11 0c 95 00 00 	movss  DWORD PTR [rdx*4+0x0],xmm1
    10fd:	00 00 
    10ff:	f3 0f 10 89 00 00 00 	movss  xmm1,DWORD PTR [rcx+0x0]
    1106:	00 
    1107:	0f 2e ca             	ucomiss xmm1,xmm2
    110a:	76 12                	jbe    111e <s123+0x105>
    110c:	83 c0 02             	add    eax,0x2
    110f:	f3 0f 58 c1          	addss  xmm0,xmm1
    1113:	f3 0f 11 04 95 00 00 	movss  DWORD PTR [rdx*4+0x0],xmm0
    111a:	00 00 
    111c:	eb 02                	jmp    1120 <s123+0x107>
    111e:	ff c0                	inc    eax
    1120:	f3 0f 10 81 00 00 00 	movss  xmm0,DWORD PTR [rcx+0x0]
    1127:	00 
    1128:	f3 0f 59 81 00 00 00 	mulss  xmm0,DWORD PTR [rcx+0x0]
    112f:	00 
    1130:	f3 0f 10 89 00 00 00 	movss  xmm1,DWORD PTR [rcx+0x0]
    1137:	00 
    1138:	f3 0f 58 c8          	addss  xmm1,xmm0
    113c:	48 63 d0             	movsxd rdx,eax
    113f:	f3 0f 11 0c 95 00 00 	movss  DWORD PTR [rdx*4+0x0],xmm1
    1146:	00 00 
    1148:	f3 0f 10 89 00 00 00 	movss  xmm1,DWORD PTR [rcx+0x0]
    114f:	00 
    1150:	0f 2e ca             	ucomiss xmm1,xmm2
    1153:	76 12                	jbe    1167 <s123+0x14e>
    1155:	83 c0 02             	add    eax,0x2
    1158:	f3 0f 58 c1          	addss  xmm0,xmm1
    115c:	f3 0f 11 04 95 00 00 	movss  DWORD PTR [rdx*4+0x0],xmm0
    1163:	00 00 
    1165:	eb 02                	jmp    1169 <s123+0x150>
    1167:	ff c0                	inc    eax
    1169:	f3 0f 10 81 00 00 00 	movss  xmm0,DWORD PTR [rcx+0x0]
    1170:	00 
    1171:	f3 0f 59 81 00 00 00 	mulss  xmm0,DWORD PTR [rcx+0x0]
    1178:	00 
    1179:	f3 0f 10 89 00 00 00 	movss  xmm1,DWORD PTR [rcx+0x0]
    1180:	00 
    1181:	f3 0f 58 c8          	addss  xmm1,xmm0
    1185:	48 63 d0             	movsxd rdx,eax
    1188:	f3 0f 11 0c 95 00 00 	movss  DWORD PTR [rdx*4+0x0],xmm1
    118f:	00 00 
    1191:	f3 0f 10 89 00 00 00 	movss  xmm1,DWORD PTR [rcx+0x0]
    1198:	00 
    1199:	0f 2e ca             	ucomiss xmm1,xmm2
    119c:	76 12                	jbe    11b0 <s123+0x197>
    119e:	83 c0 02             	add    eax,0x2
    11a1:	f3 0f 58 c1          	addss  xmm0,xmm1
    11a5:	f3 0f 11 04 95 00 00 	movss  DWORD PTR [rdx*4+0x0],xmm0
    11ac:	00 00 
    11ae:	eb 02                	jmp    11b2 <s123+0x199>
    11b0:	ff c0                	inc    eax
    11b2:	f3 0f 10 81 00 00 00 	movss  xmm0,DWORD PTR [rcx+0x0]
    11b9:	00 
    11ba:	f3 0f 59 81 00 00 00 	mulss  xmm0,DWORD PTR [rcx+0x0]
    11c1:	00 
    11c2:	f3 0f 10 89 00 00 00 	movss  xmm1,DWORD PTR [rcx+0x0]
    11c9:	00 
    11ca:	f3 0f 58 c8          	addss  xmm1,xmm0
    11ce:	48 63 d0             	movsxd rdx,eax
    11d1:	f3 0f 11 0c 95 00 00 	movss  DWORD PTR [rdx*4+0x0],xmm1
    11d8:	00 00 
    11da:	f3 0f 10 89 00 00 00 	movss  xmm1,DWORD PTR [rcx+0x0]
    11e1:	00 
    11e2:	0f 2e ca             	ucomiss xmm1,xmm2
    11e5:	76 12                	jbe    11f9 <s123+0x1e0>
    11e7:	83 c0 02             	add    eax,0x2
    11ea:	f3 0f 58 c1          	addss  xmm0,xmm1
    11ee:	f3 0f 11 04 95 00 00 	movss  DWORD PTR [rdx*4+0x0],xmm0
    11f5:	00 00 
    11f7:	eb 02                	jmp    11fb <s123+0x1e2>
    11f9:	ff c0                	inc    eax
    11fb:	f3 0f 10 81 00 00 00 	movss  xmm0,DWORD PTR [rcx+0x0]
    1202:	00 
    1203:	f3 0f 59 81 00 00 00 	mulss  xmm0,DWORD PTR [rcx+0x0]
    120a:	00 
    120b:	f3 0f 10 89 00 00 00 	movss  xmm1,DWORD PTR [rcx+0x0]
    1212:	00 
    1213:	f3 0f 58 c8          	addss  xmm1,xmm0
    1217:	48 63 d0             	movsxd rdx,eax
    121a:	f3 0f 11 0c 95 00 00 	movss  DWORD PTR [rdx*4+0x0],xmm1
    1221:	00 00 
    1223:	f3 0f 10 89 00 00 00 	movss  xmm1,DWORD PTR [rcx+0x0]
    122a:	00 
    122b:	0f 2e ca             	ucomiss xmm1,xmm2
    122e:	76 12                	jbe    1242 <s123+0x229>
    1230:	83 c0 02             	add    eax,0x2
    1233:	f3 0f 58 c1          	addss  xmm0,xmm1
    1237:	f3 0f 11 04 95 00 00 	movss  DWORD PTR [rdx*4+0x0],xmm0
    123e:	00 00 
    1240:	eb 02                	jmp    1244 <s123+0x22b>
    1242:	ff c0                	inc    eax
    1244:	f3 0f 10 81 00 00 00 	movss  xmm0,DWORD PTR [rcx+0x0]
    124b:	00 
    124c:	f3 0f 59 81 00 00 00 	mulss  xmm0,DWORD PTR [rcx+0x0]
    1253:	00 
    1254:	f3 0f 10 89 00 00 00 	movss  xmm1,DWORD PTR [rcx+0x0]
    125b:	00 
    125c:	f3 0f 58 c8          	addss  xmm1,xmm0
    1260:	48 63 d0             	movsxd rdx,eax
    1263:	f3 0f 11 0c 95 00 00 	movss  DWORD PTR [rdx*4+0x0],xmm1
    126a:	00 00 
    126c:	f3 0f 10 89 00 00 00 	movss  xmm1,DWORD PTR [rcx+0x0]
    1273:	00 
    1274:	0f 2e ca             	ucomiss xmm1,xmm2
    1277:	76 12                	jbe    128b <s123+0x272>
    1279:	83 c0 02             	add    eax,0x2
    127c:	f3 0f 58 c1          	addss  xmm0,xmm1
    1280:	f3 0f 11 04 95 00 00 	movss  DWORD PTR [rdx*4+0x0],xmm0
    1287:	00 00 
    1289:	eb 02                	jmp    128d <s123+0x274>
    128b:	ff c0                	inc    eax
    128d:	48 83 c1 20          	add    rcx,0x20
    1291:	0f 85 ae fd ff ff    	jne    1045 <s123+0x2c>
    1297:	bf 00 00 00 00       	mov    edi,0x0
    129c:	be 00 00 00 00       	mov    esi,0x0
    12a1:	ba 00 00 00 00       	mov    edx,0x0
    12a6:	b9 00 00 00 00       	mov    ecx,0x0
    12ab:	41 b8 00 00 00 00    	mov    r8d,0x0
    12b1:	41 b9 00 00 00 00    	mov    r9d,0x0
    12b7:	0f 57 c0             	xorps  xmm0,xmm0
    12ba:	68 00 00 00 00       	push   0x0
    12bf:	68 00 00 00 00       	push   0x0
    12c4:	e8 00 00 00 00       	call   12c9 <s123+0x2b0>
    12c9:	0f 57 d2             	xorps  xmm2,xmm2
    12cc:	48 83 c4 10          	add    rsp,0x10
    12d0:	ff c3                	inc    ebx
    12d2:	81 fb a0 86 01 00    	cmp    ebx,0x186a0
    12d8:	0f 85 5b fd ff ff    	jne    1039 <s123+0x20>
    12de:	49 83 c6 10          	add    r14,0x10
    12e2:	4c 89 f7             	mov    rdi,r14
    12e5:	31 f6                	xor    esi,esi
    12e7:	e8 00 00 00 00       	call   12ec <s123+0x2d3>
    12ec:	bf 00 00 00 00       	mov    edi,0x0
    12f1:	48 83 c4 08          	add    rsp,0x8
    12f5:	5b                   	pop    rbx
    12f6:	41 5e                	pop    r14
    12f8:	e9 00 00 00 00       	jmp    12fd <s124>

00000000000012fd <s124>:
    12fd:	41 56                	push   r14
    12ff:	53                   	push   rbx
    1300:	50                   	push   rax
    1301:	49 89 fe             	mov    r14,rdi
    1304:	bf 00 00 00 00       	mov    edi,0x0
    1309:	e8 00 00 00 00       	call   130e <s124+0x11>
    130e:	31 db                	xor    ebx,ebx
    1310:	4c 89 f7             	mov    rdi,r14
    1313:	31 f6                	xor    esi,esi
    1315:	e8 00 00 00 00       	call   131a <s124+0x1d>
    131a:	0f 57 d2             	xorps  xmm2,xmm2
    131d:	31 c0                	xor    eax,eax
    131f:	f3 0f 10 80 00 00 00 	movss  xmm0,DWORD PTR [rax+0x0]
    1326:	00 
    1327:	0f 2e c2             	ucomiss xmm0,xmm2
    132a:	77 08                	ja     1334 <s124+0x37>
    132c:	f3 0f 10 80 00 00 00 	movss  xmm0,DWORD PTR [rax+0x0]
    1333:	00 
    1334:	f3 0f 10 88 00 00 00 	movss  xmm1,DWORD PTR [rax+0x0]
    133b:	00 
    133c:	f3 0f 59 88 00 00 00 	mulss  xmm1,DWORD PTR [rax+0x0]
    1343:	00 
    1344:	f3 0f 58 c8          	addss  xmm1,xmm0
    1348:	f3 0f 11 88 00 00 00 	movss  DWORD PTR [rax+0x0],xmm1
    134f:	00 
    1350:	f3 0f 10 80 00 00 00 	movss  xmm0,DWORD PTR [rax+0x0]
    1357:	00 
    1358:	0f 2e c2             	ucomiss xmm0,xmm2
    135b:	77 08                	ja     1365 <s124+0x68>
    135d:	f3 0f 10 80 00 00 00 	movss  xmm0,DWORD PTR [rax+0x0]
    1364:	00 
    1365:	f3 0f 10 88 00 00 00 	movss  xmm1,DWORD PTR [rax+0x0]
    136c:	00 
    136d:	f3 0f 59 88 00 00 00 	mulss  xmm1,DWORD PTR [rax+0x0]
    1374:	00 
    1375:	f3 0f 58 c8          	addss  xmm1,xmm0
    1379:	f3 0f 11 88 00 00 00 	movss  DWORD PTR [rax+0x0],xmm1
    1380:	00 
    1381:	f3 0f 10 80 00 00 00 	movss  xmm0,DWORD PTR [rax+0x0]
    1388:	00 
    1389:	0f 2e c2             	ucomiss xmm0,xmm2
    138c:	77 08                	ja     1396 <s124+0x99>
    138e:	f3 0f 10 80 00 00 00 	movss  xmm0,DWORD PTR [rax+0x0]
    1395:	00 
    1396:	f3 0f 10 88 00 00 00 	movss  xmm1,DWORD PTR [rax+0x0]
    139d:	00 
    139e:	f3 0f 59 88 00 00 00 	mulss  xmm1,DWORD PTR [rax+0x0]
    13a5:	00 
    13a6:	f3 0f 58 c8          	addss  xmm1,xmm0
    13aa:	f3 0f 11 88 00 00 00 	movss  DWORD PTR [rax+0x0],xmm1
    13b1:	00 
    13b2:	f3 0f 10 80 00 00 00 	movss  xmm0,DWORD PTR [rax+0x0]
    13b9:	00 
    13ba:	0f 2e c2             	ucomiss xmm0,xmm2
    13bd:	77 08                	ja     13c7 <s124+0xca>
    13bf:	f3 0f 10 80 00 00 00 	movss  xmm0,DWORD PTR [rax+0x0]
    13c6:	00 
    13c7:	f3 0f 10 88 00 00 00 	movss  xmm1,DWORD PTR [rax+0x0]
    13ce:	00 
    13cf:	f3 0f 59 88 00 00 00 	mulss  xmm1,DWORD PTR [rax+0x0]
    13d6:	00 
    13d7:	f3 0f 58 c8          	addss  xmm1,xmm0
    13db:	f3 0f 11 88 00 00 00 	movss  DWORD PTR [rax+0x0],xmm1
    13e2:	00 
    13e3:	f3 0f 10 80 00 00 00 	movss  xmm0,DWORD PTR [rax+0x0]
    13ea:	00 
    13eb:	0f 2e c2             	ucomiss xmm0,xmm2
    13ee:	77 08                	ja     13f8 <s124+0xfb>
    13f0:	f3 0f 10 80 00 00 00 	movss  xmm0,DWORD PTR [rax+0x0]
    13f7:	00 
    13f8:	f3 0f 10 88 00 00 00 	movss  xmm1,DWORD PTR [rax+0x0]
    13ff:	00 
    1400:	f3 0f 59 88 00 00 00 	mulss  xmm1,DWORD PTR [rax+0x0]
    1407:	00 
    1408:	f3 0f 58 c8          	addss  xmm1,xmm0
    140c:	f3 0f 11 88 00 00 00 	movss  DWORD PTR [rax+0x0],xmm1
    1413:	00 
    1414:	f3 0f 10 80 00 00 00 	movss  xmm0,DWORD PTR [rax+0x0]
    141b:	00 
    141c:	0f 2e c2             	ucomiss xmm0,xmm2
    141f:	77 08                	ja     1429 <s124+0x12c>
    1421:	f3 0f 10 80 00 00 00 	movss  xmm0,DWORD PTR [rax+0x0]
    1428:	00 
    1429:	f3 0f 10 88 00 00 00 	movss  xmm1,DWORD PTR [rax+0x0]
    1430:	00 
    1431:	f3 0f 59 88 00 00 00 	mulss  xmm1,DWORD PTR [rax+0x0]
    1438:	00 
    1439:	f3 0f 58 c8          	addss  xmm1,xmm0
    143d:	f3 0f 11 88 00 00 00 	movss  DWORD PTR [rax+0x0],xmm1
    1444:	00 
    1445:	f3 0f 10 80 00 00 00 	movss  xmm0,DWORD PTR [rax+0x0]
    144c:	00 
    144d:	0f 2e c2             	ucomiss xmm0,xmm2
    1450:	77 08                	ja     145a <s124+0x15d>
    1452:	f3 0f 10 80 00 00 00 	movss  xmm0,DWORD PTR [rax+0x0]
    1459:	00 
    145a:	f3 0f 10 88 00 00 00 	movss  xmm1,DWORD PTR [rax+0x0]
    1461:	00 
    1462:	f3 0f 59 88 00 00 00 	mulss  xmm1,DWORD PTR [rax+0x0]
    1469:	00 
    146a:	f3 0f 58 c8          	addss  xmm1,xmm0
    146e:	f3 0f 11 88 00 00 00 	movss  DWORD PTR [rax+0x0],xmm1
    1475:	00 
    1476:	f3 0f 10 80 00 00 00 	movss  xmm0,DWORD PTR [rax+0x0]
    147d:	00 
    147e:	0f 2e c2             	ucomiss xmm0,xmm2
    1481:	77 08                	ja     148b <s124+0x18e>
    1483:	f3 0f 10 80 00 00 00 	movss  xmm0,DWORD PTR [rax+0x0]
    148a:	00 
    148b:	f3 0f 10 88 00 00 00 	movss  xmm1,DWORD PTR [rax+0x0]
    1492:	00 
    1493:	f3 0f 59 88 00 00 00 	mulss  xmm1,DWORD PTR [rax+0x0]
    149a:	00 
    149b:	f3 0f 58 c8          	addss  xmm1,xmm0
    149f:	f3 0f 11 88 00 00 00 	movss  DWORD PTR [rax+0x0],xmm1
    14a6:	00 
    14a7:	48 83 c0 20          	add    rax,0x20
    14ab:	48 3d 00 f4 01 00    	cmp    rax,0x1f400
    14b1:	0f 85 68 fe ff ff    	jne    131f <s124+0x22>
    14b7:	bf 00 00 00 00       	mov    edi,0x0
    14bc:	be 00 00 00 00       	mov    esi,0x0
    14c1:	ba 00 00 00 00       	mov    edx,0x0
    14c6:	b9 00 00 00 00       	mov    ecx,0x0
    14cb:	41 b8 00 00 00 00    	mov    r8d,0x0
    14d1:	41 b9 00 00 00 00    	mov    r9d,0x0
    14d7:	0f 57 c0             	xorps  xmm0,xmm0
    14da:	68 00 00 00 00       	push   0x0
    14df:	68 00 00 00 00       	push   0x0
    14e4:	e8 00 00 00 00       	call   14e9 <s124+0x1ec>
    14e9:	0f 57 d2             	xorps  xmm2,xmm2
    14ec:	48 83 c4 10          	add    rsp,0x10
    14f0:	ff c3                	inc    ebx
    14f2:	81 fb a0 86 01 00    	cmp    ebx,0x186a0
    14f8:	0f 85 1f fe ff ff    	jne    131d <s124+0x20>
    14fe:	49 83 c6 10          	add    r14,0x10
    1502:	4c 89 f7             	mov    rdi,r14
    1505:	31 f6                	xor    esi,esi
    1507:	e8 00 00 00 00       	call   150c <s124+0x20f>
    150c:	bf 00 00 00 00       	mov    edi,0x0
    1511:	48 83 c4 08          	add    rsp,0x8
    1515:	5b                   	pop    rbx
    1516:	41 5e                	pop    r14
    1518:	e9 00 00 00 00       	jmp    151d <s125>

000000000000151d <s125>:
    151d:	41 57                	push   r15
    151f:	41 56                	push   r14
    1521:	53                   	push   rbx
    1522:	48 83 ec 40          	sub    rsp,0x40
    1526:	49 89 fe             	mov    r14,rdi
    1529:	bf 00 00 00 00       	mov    edi,0x0
    152e:	e8 00 00 00 00       	call   1533 <s125+0x16>
    1533:	45 31 ff             	xor    r15d,r15d
    1536:	4c 89 f7             	mov    rdi,r14
    1539:	31 f6                	xor    esi,esi
    153b:	e8 00 00 00 00       	call   1540 <s125+0x23>
    1540:	48 c7 c0 ff ff ff ff 	mov    rax,0xffffffffffffffff
    1547:	45 31 c0             	xor    r8d,r8d
    154a:	48 98                	cdqe   
    154c:	31 db                	xor    ebx,ebx
    154e:	48 8d 34 85 00 00 00 	lea    rsi,[rax*4+0x0]
    1555:	00 
    1556:	48 ff c0             	inc    rax
    1559:	31 ff                	xor    edi,edi
    155b:	48 89 da             	mov    rdx,rbx
    155e:	48 09 fa             	or     rdx,rdi
    1561:	4c 89 c1             	mov    rcx,r8
    1564:	48 c1 e1 0a          	shl    rcx,0xa
    1568:	f3 0f 10 84 91 00 00 	movss  xmm0,DWORD PTR [rcx+rdx*4+0x0]
    156f:	00 00 
    1571:	f3 0f 59 84 91 00 00 	mulss  xmm0,DWORD PTR [rcx+rdx*4+0x0]
    1578:	00 00 
    157a:	f3 0f 58 84 91 00 00 	addss  xmm0,DWORD PTR [rcx+rdx*4+0x0]
    1581:	00 00 
    1583:	48 8d 0c 38          	lea    rcx,[rax+rdi*1]
    1587:	48 89 0c fc          	mov    QWORD PTR [rsp+rdi*8],rcx
    158b:	f3 0f 11 04 be       	movss  DWORD PTR [rsi+rdi*4],xmm0
    1590:	48 ff c7             	inc    rdi
    1593:	48 83 ff 08          	cmp    rdi,0x8
    1597:	75 c2                	jne    155b <s125+0x3e>
    1599:	48 8b 44 24 38       	mov    rax,QWORD PTR [rsp+0x38]
    159e:	48 83 c3 08          	add    rbx,0x8
    15a2:	48 81 fb 00 01 00 00 	cmp    rbx,0x100
    15a9:	75 a3                	jne    154e <s125+0x31>
    15ab:	49 ff c0             	inc    r8
    15ae:	49 81 f8 00 01 00 00 	cmp    r8,0x100
    15b5:	75 93                	jne    154a <s125+0x2d>
    15b7:	bf 00 00 00 00       	mov    edi,0x0
    15bc:	be 00 00 00 00       	mov    esi,0x0
    15c1:	ba 00 00 00 00       	mov    edx,0x0
    15c6:	b9 00 00 00 00       	mov    ecx,0x0
    15cb:	41 b8 00 00 00 00    	mov    r8d,0x0
    15d1:	41 b9 00 00 00 00    	mov    r9d,0x0
    15d7:	0f 57 c0             	xorps  xmm0,xmm0
    15da:	68 00 00 00 00       	push   0x0
    15df:	68 00 00 00 00       	push   0x0
    15e4:	e8 00 00 00 00       	call   15e9 <s125+0xcc>
    15e9:	48 83 c4 10          	add    rsp,0x10
    15ed:	41 ff c7             	inc    r15d
    15f0:	41 81 ff 58 98 00 00 	cmp    r15d,0x9858
    15f7:	0f 85 43 ff ff ff    	jne    1540 <s125+0x23>
    15fd:	49 83 c6 10          	add    r14,0x10
    1601:	4c 89 f7             	mov    rdi,r14
    1604:	31 f6                	xor    esi,esi
    1606:	e8 00 00 00 00       	call   160b <s125+0xee>
    160b:	bf 00 00 00 00       	mov    edi,0x0
    1610:	48 83 c4 40          	add    rsp,0x40
    1614:	5b                   	pop    rbx
    1615:	41 5e                	pop    r14
    1617:	41 5f                	pop    r15
    1619:	e9 00 00 00 00       	jmp    161e <s126>

000000000000161e <s126>:
    161e:	41 57                	push   r15
    1620:	41 56                	push   r14
    1622:	53                   	push   rbx
    1623:	48 83 ec 20          	sub    rsp,0x20
    1627:	49 89 fe             	mov    r14,rdi
    162a:	bf 00 00 00 00       	mov    edi,0x0
    162f:	e8 00 00 00 00       	call   1634 <s126+0x16>
    1634:	45 31 ff             	xor    r15d,r15d
    1637:	4c 89 f7             	mov    rdi,r14
    163a:	31 f6                	xor    esi,esi
    163c:	e8 00 00 00 00       	call   1641 <s126+0x23>
    1641:	b8 01 00 00 00       	mov    eax,0x1
    1646:	45 31 c0             	xor    r8d,r8d
    1649:	45 31 d2             	xor    r10d,r10d
    164c:	48 98                	cdqe   
    164e:	f3 42 0f 10 04 95 00 	movss  xmm0,DWORD PTR [r10*4+0x0]
    1655:	00 00 00 
    1658:	44 8d 88 f8 00 00 00 	lea    r9d,[rax+0xf8]
    165f:	48 8d 3c 85 00 00 00 	lea    rdi,[rax*4+0x0]
    1666:	00 
    1667:	bb 01 00 00 00       	mov    ebx,0x1
    166c:	4c 89 c6             	mov    rsi,r8
    166f:	48 89 f1             	mov    rcx,rsi
    1672:	31 d2                	xor    edx,edx
    1674:	f3 0f 10 0c 17       	movss  xmm1,DWORD PTR [rdi+rdx*1]
    1679:	f3 0f 59 89 00 00 00 	mulss  xmm1,DWORD PTR [rcx+0x0]
    1680:	00 
    1681:	f3 0f 58 c1          	addss  xmm0,xmm1
    1685:	f3 0f 11 44 14 04    	movss  DWORD PTR [rsp+rdx*1+0x4],xmm0
    168b:	f3 0f 11 81 00 00 00 	movss  DWORD PTR [rcx+0x0],xmm0
    1692:	00 
    1693:	48 83 c2 04          	add    rdx,0x4
    1697:	48 81 c1 00 04 00 00 	add    rcx,0x400
    169e:	48 83 fa 1c          	cmp    rdx,0x1c
    16a2:	75 d0                	jne    1674 <s126+0x56>
    16a4:	41 39 c1             	cmp    r9d,eax
    16a7:	74 40                	je     16e9 <s126+0xcb>
    16a9:	48 8d 4b 07          	lea    rcx,[rbx+0x7]
    16ad:	f3 0f 10 04 85 00 00 	movss  xmm0,DWORD PTR [rax*4+0x0]
    16b4:	00 00 
    16b6:	48 c1 e1 0a          	shl    rcx,0xa
    16ba:	f3 42 0f 59 84 91 00 	mulss  xmm0,DWORD PTR [rcx+r10*4+0x0]
    16c1:	00 00 00 
    16c4:	f3 0f 58 44 24 1c    	addss  xmm0,DWORD PTR [rsp+0x1c]
    16ca:	f3 42 0f 11 84 91 00 	movss  DWORD PTR [rcx+r10*4+0x0],xmm0
    16d1:	00 00 00 
    16d4:	48 83 c0 08          	add    rax,0x8
    16d8:	48 83 c3 08          	add    rbx,0x8
    16dc:	48 81 c6 00 20 00 00 	add    rsi,0x2000
    16e3:	48 83 c7 20          	add    rdi,0x20
    16e7:	eb 86                	jmp    166f <s126+0x51>
    16e9:	48 83 c0 06          	add    rax,0x6
    16ed:	83 c0 02             	add    eax,0x2
    16f0:	49 ff c2             	inc    r10
    16f3:	49 83 c0 04          	add    r8,0x4
    16f7:	49 81 fa 00 01 00 00 	cmp    r10,0x100
    16fe:	0f 85 48 ff ff ff    	jne    164c <s126+0x2e>
    1704:	bf 00 00 00 00       	mov    edi,0x0
    1709:	be 00 00 00 00       	mov    esi,0x0
    170e:	ba 00 00 00 00       	mov    edx,0x0
    1713:	b9 00 00 00 00       	mov    ecx,0x0
    1718:	41 b8 00 00 00 00    	mov    r8d,0x0
    171e:	41 b9 00 00 00 00    	mov    r9d,0x0
    1724:	0f 57 c0             	xorps  xmm0,xmm0
    1727:	68 00 00 00 00       	push   0x0
    172c:	68 00 00 00 00       	push   0x0
    1731:	e8 00 00 00 00       	call   1736 <s126+0x118>
    1736:	48 83 c4 10          	add    rsp,0x10
    173a:	41 ff c7             	inc    r15d
    173d:	41 81 ff 3c 0f 00 00 	cmp    r15d,0xf3c
    1744:	0f 85 f7 fe ff ff    	jne    1641 <s126+0x23>
    174a:	49 83 c6 10          	add    r14,0x10
    174e:	4c 89 f7             	mov    rdi,r14
    1751:	31 f6                	xor    esi,esi
    1753:	e8 00 00 00 00       	call   1758 <s126+0x13a>
    1758:	bf 00 00 00 00       	mov    edi,0x0
    175d:	48 83 c4 20          	add    rsp,0x20
    1761:	5b                   	pop    rbx
    1762:	41 5e                	pop    r14
    1764:	41 5f                	pop    r15
    1766:	e9 00 00 00 00       	jmp    176b <s127>

000000000000176b <s127>:
    176b:	41 56                	push   r14
    176d:	53                   	push   rbx
    176e:	50                   	push   rax
    176f:	49 89 fe             	mov    r14,rdi
    1772:	bf 00 00 00 00       	mov    edi,0x0
    1777:	e8 00 00 00 00       	call   177c <s127+0x11>
    177c:	31 db                	xor    ebx,ebx
    177e:	4c 89 f7             	mov    rdi,r14
    1781:	31 f6                	xor    esi,esi
    1783:	e8 00 00 00 00       	call   1788 <s127+0x1d>
    1788:	31 c0                	xor    eax,eax
    178a:	f3 0f 10 04 85 00 00 	movss  xmm0,DWORD PTR [rax*4+0x0]
    1791:	00 00 
    1793:	f3 0f 10 0c 85 00 00 	movss  xmm1,DWORD PTR [rax*4+0x0]
    179a:	00 00 
    179c:	f3 0f 10 14 85 00 00 	movss  xmm2,DWORD PTR [rax*4+0x0]
    17a3:	00 00 
    17a5:	f3 0f 59 d1          	mulss  xmm2,xmm1
    17a9:	f3 0f 58 d0          	addss  xmm2,xmm0
    17ad:	f3 0f 11 14 c5 00 00 	movss  DWORD PTR [rax*8+0x0],xmm2
    17b4:	00 00 
    17b6:	f3 0f 59 0c 85 00 00 	mulss  xmm1,DWORD PTR [rax*4+0x0]
    17bd:	00 00 
    17bf:	f3 0f 58 c8          	addss  xmm1,xmm0
    17c3:	f3 0f 11 0c c5 00 00 	movss  DWORD PTR [rax*8+0x0],xmm1
    17ca:	00 00 
    17cc:	f3 0f 10 04 85 00 00 	movss  xmm0,DWORD PTR [rax*4+0x0]
    17d3:	00 00 
    17d5:	f3 0f 10 0c 85 00 00 	movss  xmm1,DWORD PTR [rax*4+0x0]
    17dc:	00 00 
    17de:	f3 0f 10 14 85 00 00 	movss  xmm2,DWORD PTR [rax*4+0x0]
    17e5:	00 00 
    17e7:	f3 0f 59 d1          	mulss  xmm2,xmm1
    17eb:	f3 0f 58 d0          	addss  xmm2,xmm0
    17ef:	f3 0f 11 14 c5 00 00 	movss  DWORD PTR [rax*8+0x0],xmm2
    17f6:	00 00 
    17f8:	f3 0f 59 0c 85 00 00 	mulss  xmm1,DWORD PTR [rax*4+0x0]
    17ff:	00 00 
    1801:	f3 0f 58 c8          	addss  xmm1,xmm0
    1805:	f3 0f 11 0c c5 00 00 	movss  DWORD PTR [rax*8+0x0],xmm1
    180c:	00 00 
    180e:	f3 0f 10 04 85 00 00 	movss  xmm0,DWORD PTR [rax*4+0x0]
    1815:	00 00 
    1817:	f3 0f 10 0c 85 00 00 	movss  xmm1,DWORD PTR [rax*4+0x0]
    181e:	00 00 
    1820:	f3 0f 10 14 85 00 00 	movss  xmm2,DWORD PTR [rax*4+0x0]
    1827:	00 00 
    1829:	f3 0f 59 d1          	mulss  xmm2,xmm1
    182d:	f3 0f 58 d0          	addss  xmm2,xmm0
    1831:	f3 0f 11 14 c5 00 00 	movss  DWORD PTR [rax*8+0x0],xmm2
    1838:	00 00 
    183a:	f3 0f 59 0c 85 00 00 	mulss  xmm1,DWORD PTR [rax*4+0x0]
    1841:	00 00 
    1843:	f3 0f 58 c8          	addss  xmm1,xmm0
    1847:	f3 0f 11 0c c5 00 00 	movss  DWORD PTR [rax*8+0x0],xmm1
    184e:	00 00 
    1850:	f3 0f 10 04 85 00 00 	movss  xmm0,DWORD PTR [rax*4+0x0]
    1857:	00 00 
    1859:	f3 0f 10 0c 85 00 00 	movss  xmm1,DWORD PTR [rax*4+0x0]
    1860:	00 00 
    1862:	f3 0f 10 14 85 00 00 	movss  xmm2,DWORD PTR [rax*4+0x0]
    1869:	00 00 
    186b:	f3 0f 59 d1          	mulss  xmm2,xmm1
    186f:	f3 0f 58 d0          	addss  xmm2,xmm0
    1873:	f3 0f 11 14 c5 00 00 	movss  DWORD PTR [rax*8+0x0],xmm2
    187a:	00 00 
    187c:	f3 0f 59 0c 85 00 00 	mulss  xmm1,DWORD PTR [rax*4+0x0]
    1883:	00 00 
    1885:	f3 0f 58 c8          	addss  xmm1,xmm0
    1889:	f3 0f 11 0c c5 00 00 	movss  DWORD PTR [rax*8+0x0],xmm1
    1890:	00 00 
    1892:	f3 0f 10 04 85 00 00 	movss  xmm0,DWORD PTR [rax*4+0x0]
    1899:	00 00 
    189b:	f3 0f 10 0c 85 00 00 	movss  xmm1,DWORD PTR [rax*4+0x0]
    18a2:	00 00 
    18a4:	f3 0f 10 14 85 00 00 	movss  xmm2,DWORD PTR [rax*4+0x0]
    18ab:	00 00 
    18ad:	f3 0f 59 d1          	mulss  xmm2,xmm1
    18b1:	f3 0f 58 d0          	addss  xmm2,xmm0
    18b5:	f3 0f 11 14 c5 00 00 	movss  DWORD PTR [rax*8+0x0],xmm2
    18bc:	00 00 
    18be:	f3 0f 59 0c 85 00 00 	mulss  xmm1,DWORD PTR [rax*4+0x0]
    18c5:	00 00 
    18c7:	f3 0f 58 c8          	addss  xmm1,xmm0
    18cb:	f3 0f 11 0c c5 00 00 	movss  DWORD PTR [rax*8+0x0],xmm1
    18d2:	00 00 
    18d4:	f3 0f 10 04 85 00 00 	movss  xmm0,DWORD PTR [rax*4+0x0]
    18db:	00 00 
    18dd:	f3 0f 10 0c 85 00 00 	movss  xmm1,DWORD PTR [rax*4+0x0]
    18e4:	00 00 
    18e6:	f3 0f 10 14 85 00 00 	movss  xmm2,DWORD PTR [rax*4+0x0]
    18ed:	00 00 
    18ef:	f3 0f 59 d1          	mulss  xmm2,xmm1
    18f3:	f3 0f 58 d0          	addss  xmm2,xmm0
    18f7:	f3 0f 11 14 c5 00 00 	movss  DWORD PTR [rax*8+0x0],xmm2
    18fe:	00 00 
    1900:	f3 0f 59 0c 85 00 00 	mulss  xmm1,DWORD PTR [rax*4+0x0]
    1907:	00 00 
    1909:	f3 0f 58 c8          	addss  xmm1,xmm0
    190d:	f3 0f 11 0c c5 00 00 	movss  DWORD PTR [rax*8+0x0],xmm1
    1914:	00 00 
    1916:	f3 0f 10 04 85 00 00 	movss  xmm0,DWORD PTR [rax*4+0x0]
    191d:	00 00 
    191f:	f3 0f 10 0c 85 00 00 	movss  xmm1,DWORD PTR [rax*4+0x0]
    1926:	00 00 
    1928:	f3 0f 10 14 85 00 00 	movss  xmm2,DWORD PTR [rax*4+0x0]
    192f:	00 00 
    1931:	f3 0f 59 d1          	mulss  xmm2,xmm1
    1935:	f3 0f 58 d0          	addss  xmm2,xmm0
    1939:	f3 0f 11 14 c5 00 00 	movss  DWORD PTR [rax*8+0x0],xmm2
    1940:	00 00 
    1942:	f3 0f 59 0c 85 00 00 	mulss  xmm1,DWORD PTR [rax*4+0x0]
    1949:	00 00 
    194b:	f3 0f 58 c8          	addss  xmm1,xmm0
    194f:	f3 0f 11 0c c5 00 00 	movss  DWORD PTR [rax*8+0x0],xmm1
    1956:	00 00 
    1958:	f3 0f 10 04 85 00 00 	movss  xmm0,DWORD PTR [rax*4+0x0]
    195f:	00 00 
    1961:	f3 0f 10 0c 85 00 00 	movss  xmm1,DWORD PTR [rax*4+0x0]
    1968:	00 00 
    196a:	f3 0f 10 14 85 00 00 	movss  xmm2,DWORD PTR [rax*4+0x0]
    1971:	00 00 
    1973:	f3 0f 59 d1          	mulss  xmm2,xmm1
    1977:	f3 0f 58 d0          	addss  xmm2,xmm0
    197b:	f3 0f 11 14 c5 00 00 	movss  DWORD PTR [rax*8+0x0],xmm2
    1982:	00 00 
    1984:	f3 0f 59 0c 85 00 00 	mulss  xmm1,DWORD PTR [rax*4+0x0]
    198b:	00 00 
    198d:	f3 0f 58 c8          	addss  xmm1,xmm0
    1991:	f3 0f 11 0c c5 00 00 	movss  DWORD PTR [rax*8+0x0],xmm1
    1998:	00 00 
    199a:	48 83 c0 08          	add    rax,0x8
    199e:	48 3d 80 3e 00 00    	cmp    rax,0x3e80
    19a4:	0f 85 e0 fd ff ff    	jne    178a <s127+0x1f>
    19aa:	bf 00 00 00 00       	mov    edi,0x0
    19af:	be 00 00 00 00       	mov    esi,0x0
    19b4:	ba 00 00 00 00       	mov    edx,0x0
    19b9:	b9 00 00 00 00       	mov    ecx,0x0
    19be:	41 b8 00 00 00 00    	mov    r8d,0x0
    19c4:	41 b9 00 00 00 00    	mov    r9d,0x0
    19ca:	0f 57 c0             	xorps  xmm0,xmm0
    19cd:	68 00 00 00 00       	push   0x0
    19d2:	68 00 00 00 00       	push   0x0
    19d7:	e8 00 00 00 00       	call   19dc <s127+0x271>
    19dc:	48 83 c4 10          	add    rsp,0x10
    19e0:	ff c3                	inc    ebx
    19e2:	81 fb 40 0d 03 00    	cmp    ebx,0x30d40
    19e8:	0f 85 9a fd ff ff    	jne    1788 <s127+0x1d>
    19ee:	49 83 c6 10          	add    r14,0x10
    19f2:	4c 89 f7             	mov    rdi,r14
    19f5:	31 f6                	xor    esi,esi
    19f7:	e8 00 00 00 00       	call   19fc <s127+0x291>
    19fc:	bf 00 00 00 00       	mov    edi,0x0
    1a01:	48 83 c4 08          	add    rsp,0x8
    1a05:	5b                   	pop    rbx
    1a06:	41 5e                	pop    r14
    1a08:	e9 00 00 00 00       	jmp    1a0d <s128>

0000000000001a0d <s128>:
    1a0d:	41 56                	push   r14
    1a0f:	53                   	push   rbx
    1a10:	50                   	push   rax
    1a11:	49 89 fe             	mov    r14,rdi
    1a14:	bf 00 00 00 00       	mov    edi,0x0
    1a19:	e8 00 00 00 00       	call   1a1e <s128+0x11>
    1a1e:	31 db                	xor    ebx,ebx
    1a20:	4c 89 f7             	mov    rdi,r14
    1a23:	31 f6                	xor    esi,esi
    1a25:	e8 00 00 00 00       	call   1a2a <s128+0x1d>
    1a2a:	31 c0                	xor    eax,eax
    1a2c:	31 c9                	xor    ecx,ecx
    1a2e:	31 d2                	xor    edx,edx
    1a30:	f3 0f 10 84 d0 00 00 	movss  xmm0,DWORD PTR [rax+rdx*8+0x0]
    1a37:	00 00 
    1a39:	48 89 ce             	mov    rsi,rcx
    1a3c:	48 09 d6             	or     rsi,rdx
    1a3f:	f3 0f 5c 04 b5 00 00 	subss  xmm0,DWORD PTR [rsi*4+0x0]
    1a46:	00 00 
    1a48:	f3 0f 11 04 b5 00 00 	movss  DWORD PTR [rsi*4+0x0],xmm0
    1a4f:	00 00 
    1a51:	f3 0f 58 84 d0 00 00 	addss  xmm0,DWORD PTR [rax+rdx*8+0x0]
    1a58:	00 00 
    1a5a:	f3 0f 11 84 d0 00 00 	movss  DWORD PTR [rax+rdx*8+0x0],xmm0
    1a61:	00 00 
    1a63:	48 ff c2             	inc    rdx
    1a66:	48 83 fa 08          	cmp    rdx,0x8
    1a6a:	75 c4                	jne    1a30 <s128+0x23>
    1a6c:	48 83 c1 08          	add    rcx,0x8
    1a70:	48 83 c0 40          	add    rax,0x40
    1a74:	48 81 f9 80 3e 00 00 	cmp    rcx,0x3e80
    1a7b:	75 b1                	jne    1a2e <s128+0x21>
    1a7d:	bf 00 00 00 00       	mov    edi,0x0
    1a82:	be 00 00 00 00       	mov    esi,0x0
    1a87:	ba 00 00 00 00       	mov    edx,0x0
    1a8c:	b9 00 00 00 00       	mov    ecx,0x0
    1a91:	41 b8 00 00 00 00    	mov    r8d,0x0
    1a97:	41 b9 00 00 00 00    	mov    r9d,0x0
    1a9d:	f3 0f 10 05 00 00 00 	movss  xmm0,DWORD PTR [rip+0x0]        # 1aa5 <s128+0x98>
    1aa4:	00 
    1aa5:	68 00 00 00 00       	push   0x0
    1aaa:	68 00 00 00 00       	push   0x0
    1aaf:	e8 00 00 00 00       	call   1ab4 <s128+0xa7>
    1ab4:	48 83 c4 10          	add    rsp,0x10
    1ab8:	ff c3                	inc    ebx
    1aba:	81 fb 40 0d 03 00    	cmp    ebx,0x30d40
    1ac0:	0f 85 64 ff ff ff    	jne    1a2a <s128+0x1d>
    1ac6:	49 83 c6 10          	add    r14,0x10
    1aca:	4c 89 f7             	mov    rdi,r14
    1acd:	31 f6                	xor    esi,esi
    1acf:	e8 00 00 00 00       	call   1ad4 <s128+0xc7>
    1ad4:	bf 00 00 00 00       	mov    edi,0x0
    1ad9:	48 83 c4 08          	add    rsp,0x8
    1add:	5b                   	pop    rbx
    1ade:	41 5e                	pop    r14
    1ae0:	e9 00 00 00 00       	jmp    1ae5 <s131>

0000000000001ae5 <s131>:
    1ae5:	41 56                	push   r14
    1ae7:	53                   	push   rbx
    1ae8:	48 83 ec 78          	sub    rsp,0x78
    1aec:	49 89 fe             	mov    r14,rdi
    1aef:	bf 00 00 00 00       	mov    edi,0x0
    1af4:	e8 00 00 00 00       	call   1af9 <s131+0x14>
    1af9:	31 db                	xor    ebx,ebx
    1afb:	4c 89 f7             	mov    rdi,r14
    1afe:	31 f6                	xor    esi,esi
    1b00:	e8 00 00 00 00       	call   1b05 <s131+0x20>
    1b05:	31 c0                	xor    eax,eax
    1b07:	31 c9                	xor    ecx,ecx
    1b09:	48 8d 51 01          	lea    rdx,[rcx+0x1]
    1b0d:	48 89 d6             	mov    rsi,rdx
    1b10:	48 09 c6             	or     rsi,rax
    1b13:	48 89 74 cc 08       	mov    QWORD PTR [rsp+rcx*8+0x8],rsi
    1b18:	48 8d 34 b5 00 00 00 	lea    rsi,[rsi*4+0x0]
    1b1f:	00 
    1b20:	48 89 74 cc 40       	mov    QWORD PTR [rsp+rcx*8+0x40],rsi
    1b25:	f3 0f 10 06          	movss  xmm0,DWORD PTR [rsi]
    1b29:	48 09 c1             	or     rcx,rax
    1b2c:	f3 0f 58 04 8d 00 00 	addss  xmm0,DWORD PTR [rcx*4+0x0]
    1b33:	00 00 
    1b35:	f3 0f 11 04 8d 00 00 	movss  DWORD PTR [rcx*4+0x0],xmm0
    1b3c:	00 00 
    1b3e:	48 89 d1             	mov    rcx,rdx
    1b41:	48 83 fa 07          	cmp    rdx,0x7
    1b45:	75 c2                	jne    1b09 <s131+0x24>
    1b47:	48 8b 4c 24 38       	mov    rcx,QWORD PTR [rsp+0x38]
    1b4c:	48 81 f9 ff 7c 00 00 	cmp    rcx,0x7cff
    1b53:	74 21                	je     1b76 <s131+0x91>
    1b55:	48 8b 54 24 70       	mov    rdx,QWORD PTR [rsp+0x70]
    1b5a:	f3 0f 10 04 85 00 00 	movss  xmm0,DWORD PTR [rax*4+0x0]
    1b61:	00 00 
    1b63:	48 83 c0 08          	add    rax,0x8
    1b67:	f3 0f 58 04 8d 00 00 	addss  xmm0,DWORD PTR [rcx*4+0x0]
    1b6e:	00 00 
    1b70:	f3 0f 11 02          	movss  DWORD PTR [rdx],xmm0
    1b74:	eb 91                	jmp    1b07 <s131+0x22>
    1b76:	bf 00 00 00 00       	mov    edi,0x0
    1b7b:	be 00 00 00 00       	mov    esi,0x0
    1b80:	ba 00 00 00 00       	mov    edx,0x0
    1b85:	b9 00 00 00 00       	mov    ecx,0x0
    1b8a:	41 b8 00 00 00 00    	mov    r8d,0x0
    1b90:	41 b9 00 00 00 00    	mov    r9d,0x0
    1b96:	0f 57 c0             	xorps  xmm0,xmm0
    1b99:	68 00 00 00 00       	push   0x0
    1b9e:	68 00 00 00 00       	push   0x0
    1ba3:	e8 00 00 00 00       	call   1ba8 <s131+0xc3>
    1ba8:	48 83 c4 10          	add    rsp,0x10
    1bac:	ff c3                	inc    ebx
    1bae:	81 fb 20 a1 07 00    	cmp    ebx,0x7a120
    1bb4:	0f 85 4b ff ff ff    	jne    1b05 <s131+0x20>
    1bba:	49 83 c6 10          	add    r14,0x10
    1bbe:	4c 89 f7             	mov    rdi,r14
    1bc1:	31 f6                	xor    esi,esi
    1bc3:	e8 00 00 00 00       	call   1bc8 <s131+0xe3>
    1bc8:	bf 00 00 00 00       	mov    edi,0x0
    1bcd:	48 83 c4 78          	add    rsp,0x78
    1bd1:	5b                   	pop    rbx
    1bd2:	41 5e                	pop    r14
    1bd4:	e9 00 00 00 00       	jmp    1bd9 <s132>

0000000000001bd9 <s132>:
    1bd9:	41 56                	push   r14
    1bdb:	53                   	push   rbx
    1bdc:	48 83 ec 38          	sub    rsp,0x38
    1be0:	49 89 fe             	mov    r14,rdi
    1be3:	bf 00 00 00 00       	mov    edi,0x0
    1be8:	e8 00 00 00 00       	call   1bed <s132+0x14>
    1bed:	31 db                	xor    ebx,ebx
    1bef:	4c 89 f7             	mov    rdi,r14
    1bf2:	31 f6                	xor    esi,esi
    1bf4:	e8 00 00 00 00       	call   1bf9 <s132+0x20>
    1bf9:	b8 01 00 00 00       	mov    eax,0x1
    1bfe:	b9 00 04 00 00       	mov    ecx,0x400
    1c03:	f3 0f 10 05 00 00 00 	movss  xmm0,DWORD PTR [rip+0x0]        # 1c0b <s132+0x32>
    1c0a:	00 
    1c0b:	31 d2                	xor    edx,edx
    1c0d:	48 8d 34 10          	lea    rsi,[rax+rdx*1]
    1c11:	f3 0f 10 8c 91 00 00 	movss  xmm1,DWORD PTR [rcx+rdx*4+0x0]
    1c18:	00 00 
    1c1a:	f3 0f 59 c8          	mulss  xmm1,xmm0
    1c1e:	f3 0f 58 8c 91 00 00 	addss  xmm1,DWORD PTR [rcx+rdx*4+0x0]
    1c25:	00 00 
    1c27:	48 89 34 d4          	mov    QWORD PTR [rsp+rdx*8],rsi
    1c2b:	f3 0f 11 8c 91 00 00 	movss  DWORD PTR [rcx+rdx*4+0x0],xmm1
    1c32:	00 00 
    1c34:	48 ff c2             	inc    rdx
    1c37:	48 83 fa 07          	cmp    rdx,0x7
    1c3b:	75 d0                	jne    1c0d <s132+0x34>
    1c3d:	48 3d f9 00 00 00    	cmp    rax,0xf9
    1c43:	74 2e                	je     1c73 <s132+0x9a>
    1c45:	48 8b 54 24 30       	mov    rdx,QWORD PTR [rsp+0x30]
    1c4a:	f3 0f 10 0c 85 00 00 	movss  xmm1,DWORD PTR [rax*4+0x0]
    1c51:	00 00 
    1c53:	f3 0f 59 c8          	mulss  xmm1,xmm0
    1c57:	f3 0f 58 0c 95 00 00 	addss  xmm1,DWORD PTR [rdx*4+0x0]
    1c5e:	00 00 
    1c60:	f3 0f 11 0c 85 00 00 	movss  DWORD PTR [rax*4+0x0],xmm1
    1c67:	00 00 
    1c69:	48 83 c0 08          	add    rax,0x8
    1c6d:	48 83 c1 20          	add    rcx,0x20
    1c71:	eb 98                	jmp    1c0b <s132+0x32>
    1c73:	bf 00 00 00 00       	mov    edi,0x0
    1c78:	be 00 00 00 00       	mov    esi,0x0
    1c7d:	ba 00 00 00 00       	mov    edx,0x0
    1c82:	b9 00 00 00 00       	mov    ecx,0x0
    1c87:	41 b8 00 00 00 00    	mov    r8d,0x0
    1c8d:	41 b9 00 00 00 00    	mov    r9d,0x0
    1c93:	0f 57 c0             	xorps  xmm0,xmm0
    1c96:	68 00 00 00 00       	push   0x0
    1c9b:	68 00 00 00 00       	push   0x0
    1ca0:	e8 00 00 00 00       	call   1ca5 <s132+0xcc>
    1ca5:	48 83 c4 10          	add    rsp,0x10
    1ca9:	ff c3                	inc    ebx
    1cab:	81 fb 00 5a 62 02    	cmp    ebx,0x2625a00
    1cb1:	0f 85 42 ff ff ff    	jne    1bf9 <s132+0x20>
    1cb7:	49 83 c6 10          	add    r14,0x10
    1cbb:	4c 89 f7             	mov    rdi,r14
    1cbe:	31 f6                	xor    esi,esi
    1cc0:	e8 00 00 00 00       	call   1cc5 <s132+0xec>
    1cc5:	bf 00 00 00 00       	mov    edi,0x0
    1cca:	48 83 c4 38          	add    rsp,0x38
    1cce:	5b                   	pop    rbx
    1ccf:	41 5e                	pop    r14
    1cd1:	e9 00 00 00 00       	jmp    1cd6 <s141>

0000000000001cd6 <s141>:
    1cd6:	41 57                	push   r15
    1cd8:	41 56                	push   r14
    1cda:	41 54                	push   r12
    1cdc:	53                   	push   rbx
    1cdd:	50                   	push   rax
    1cde:	49 89 fe             	mov    r14,rdi
    1ce1:	bf 00 00 00 00       	mov    edi,0x0
    1ce6:	e8 00 00 00 00       	call   1ceb <s141+0x15>
    1ceb:	45 31 ff             	xor    r15d,r15d
    1cee:	4c 89 f7             	mov    rdi,r14
    1cf1:	31 f6                	xor    esi,esi
    1cf3:	e8 00 00 00 00       	call   1cf8 <s141+0x22>
    1cf8:	b8 00 00 00 00       	mov    eax,0x0
    1cfd:	41 ba 00 00 00 00    	mov    r10d,0x0
    1d03:	45 31 db             	xor    r11d,r11d
    1d06:	45 31 c9             	xor    r9d,r9d
    1d09:	45 31 c0             	xor    r8d,r8d
    1d0c:	4d 89 cc             	mov    r12,r9
    1d0f:	41 ff c0             	inc    r8d
    1d12:	44 89 e1             	mov    ecx,r12d
    1d15:	f7 d9                	neg    ecx
    1d17:	44 89 c6             	mov    esi,r8d
    1d1a:	41 0f af f4          	imul   esi,r12d
    1d1e:	d1 ee                	shr    esi,1
    1d20:	44 01 e6             	add    esi,r12d
    1d23:	f6 c1 07             	test   cl,0x7
    1d26:	74 3b                	je     1d63 <s141+0x8d>
    1d28:	41 0f b6 cb          	movzx  ecx,r11b
    1d2c:	83 e1 07             	and    ecx,0x7
    1d2f:	48 c1 e1 0a          	shl    rcx,0xa
    1d33:	31 d2                	xor    edx,edx
    1d35:	4c 89 e7             	mov    rdi,r12
    1d38:	f3 0f 10 04 10       	movss  xmm0,DWORD PTR [rax+rdx*1]
    1d3d:	89 f3                	mov    ebx,esi
    1d3f:	f3 0f 58 04 9d 00 00 	addss  xmm0,DWORD PTR [rbx*4+0x0]
    1d46:	00 00 
    1d48:	f3 0f 11 04 9d 00 00 	movss  DWORD PTR [rbx*4+0x0],xmm0
    1d4f:	00 00 
    1d51:	48 ff c7             	inc    rdi
    1d54:	01 fe                	add    esi,edi
    1d56:	48 81 c2 00 04 00 00 	add    rdx,0x400
    1d5d:	39 d1                	cmp    ecx,edx
    1d5f:	75 d7                	jne    1d38 <s141+0x62>
    1d61:	eb 03                	jmp    1d66 <s141+0x90>
    1d63:	4c 89 e7             	mov    rdi,r12
    1d66:	4d 8d 4c 24 01       	lea    r9,[r12+0x1]
    1d6b:	49 81 fc f8 00 00 00 	cmp    r12,0xf8
    1d72:	0f 87 54 01 00 00    	ja     1ecc <s141+0x1f6>
    1d78:	48 8d 9f 00 ff ff ff 	lea    rbx,[rdi-0x100]
    1d7f:	48 c1 e7 0a          	shl    rdi,0xa
    1d83:	4c 01 d7             	add    rdi,r10
    1d86:	f3 0f 10 87 00 f0 ff 	movss  xmm0,DWORD PTR [rdi-0x1000]
    1d8d:	ff 
    1d8e:	89 f1                	mov    ecx,esi
    1d90:	f3 0f 58 04 8d 00 00 	addss  xmm0,DWORD PTR [rcx*4+0x0]
    1d97:	00 00 
    1d99:	f3 0f 11 04 8d 00 00 	movss  DWORD PTR [rcx*4+0x0],xmm0
    1da0:	00 00 
    1da2:	8d 0c 33             	lea    ecx,[rbx+rsi*1]
    1da5:	8d 94 33 01 01 00 00 	lea    edx,[rbx+rsi*1+0x101]
    1dac:	f3 0f 10 87 00 f4 ff 	movss  xmm0,DWORD PTR [rdi-0xc00]
    1db3:	ff 
    1db4:	f3 0f 58 04 95 00 00 	addss  xmm0,DWORD PTR [rdx*4+0x0]
    1dbb:	00 00 
    1dbd:	f3 0f 11 04 95 00 00 	movss  DWORD PTR [rdx*4+0x0],xmm0
    1dc4:	00 00 
    1dc6:	8d 94 0b 01 01 00 00 	lea    edx,[rbx+rcx*1+0x101]
    1dcd:	8d 8c 0b 03 02 00 00 	lea    ecx,[rbx+rcx*1+0x203]
    1dd4:	f3 0f 10 87 00 f8 ff 	movss  xmm0,DWORD PTR [rdi-0x800]
    1ddb:	ff 
    1ddc:	f3 0f 58 04 8d 00 00 	addss  xmm0,DWORD PTR [rcx*4+0x0]
    1de3:	00 00 
    1de5:	f3 0f 11 04 8d 00 00 	movss  DWORD PTR [rcx*4+0x0],xmm0
    1dec:	00 00 
    1dee:	8d 8c 13 02 01 00 00 	lea    ecx,[rbx+rdx*1+0x102]
    1df5:	8d 94 13 05 02 00 00 	lea    edx,[rbx+rdx*1+0x205]
    1dfc:	f3 0f 10 87 00 fc ff 	movss  xmm0,DWORD PTR [rdi-0x400]
    1e03:	ff 
    1e04:	f3 0f 58 04 95 00 00 	addss  xmm0,DWORD PTR [rdx*4+0x0]
    1e0b:	00 00 
    1e0d:	f3 0f 11 04 95 00 00 	movss  DWORD PTR [rdx*4+0x0],xmm0
    1e14:	00 00 
    1e16:	8d 94 0b 03 01 00 00 	lea    edx,[rbx+rcx*1+0x103]
    1e1d:	8d 8c 0b 07 02 00 00 	lea    ecx,[rbx+rcx*1+0x207]
    1e24:	f3 0f 10 07          	movss  xmm0,DWORD PTR [rdi]
    1e28:	f3 0f 58 04 8d 00 00 	addss  xmm0,DWORD PTR [rcx*4+0x0]
    1e2f:	00 00 
    1e31:	f3 0f 11 04 8d 00 00 	movss  DWORD PTR [rcx*4+0x0],xmm0
    1e38:	00 00 
    1e3a:	8d 8c 13 04 01 00 00 	lea    ecx,[rbx+rdx*1+0x104]
    1e41:	8d 94 13 09 02 00 00 	lea    edx,[rbx+rdx*1+0x209]
    1e48:	f3 0f 10 87 00 04 00 	movss  xmm0,DWORD PTR [rdi+0x400]
    1e4f:	00 
    1e50:	f3 0f 58 04 95 00 00 	addss  xmm0,DWORD PTR [rdx*4+0x0]
    1e57:	00 00 
    1e59:	f3 0f 11 04 95 00 00 	movss  DWORD PTR [rdx*4+0x0],xmm0
    1e60:	00 00 
    1e62:	8d 94 0b 05 01 00 00 	lea    edx,[rbx+rcx*1+0x105]
    1e69:	8d 8c 0b 0b 02 00 00 	lea    ecx,[rbx+rcx*1+0x20b]
    1e70:	f3 0f 10 87 00 08 00 	movss  xmm0,DWORD PTR [rdi+0x800]
    1e77:	00 
    1e78:	f3 0f 58 04 8d 00 00 	addss  xmm0,DWORD PTR [rcx*4+0x0]
    1e7f:	00 00 
    1e81:	f3 0f 11 04 8d 00 00 	movss  DWORD PTR [rcx*4+0x0],xmm0
    1e88:	00 00 
    1e8a:	8d 8c 13 06 01 00 00 	lea    ecx,[rbx+rdx*1+0x106]
    1e91:	8d 94 13 0d 02 00 00 	lea    edx,[rbx+rdx*1+0x20d]
    1e98:	f3 0f 10 87 00 0c 00 	movss  xmm0,DWORD PTR [rdi+0xc00]
    1e9f:	00 
    1ea0:	f3 0f 58 04 95 00 00 	addss  xmm0,DWORD PTR [rdx*4+0x0]
    1ea7:	00 00 
    1ea9:	f3 0f 11 04 95 00 00 	movss  DWORD PTR [rdx*4+0x0],xmm0
    1eb0:	00 00 
    1eb2:	8d 34 0b             	lea    esi,[rbx+rcx*1]
    1eb5:	81 c6 0f 02 00 00    	add    esi,0x20f
    1ebb:	48 81 c7 00 20 00 00 	add    rdi,0x2000
    1ec2:	48 83 c3 08          	add    rbx,0x8
    1ec6:	0f 85 ba fe ff ff    	jne    1d86 <s141+0xb0>
    1ecc:	48 05 04 04 00 00    	add    rax,0x404
    1ed2:	41 80 c3 07          	add    r11b,0x7
    1ed6:	49 83 c2 04          	add    r10,0x4
    1eda:	49 81 f9 00 01 00 00 	cmp    r9,0x100
    1ee1:	0f 85 25 fe ff ff    	jne    1d0c <s141+0x36>
    1ee7:	bf 00 00 00 00       	mov    edi,0x0
    1eec:	be 00 00 00 00       	mov    esi,0x0
    1ef1:	ba 00 00 00 00       	mov    edx,0x0
    1ef6:	b9 00 00 00 00       	mov    ecx,0x0
    1efb:	41 b8 00 00 00 00    	mov    r8d,0x0
    1f01:	41 b9 00 00 00 00    	mov    r9d,0x0
    1f07:	0f 57 c0             	xorps  xmm0,xmm0
    1f0a:	68 00 00 00 00       	push   0x0
    1f0f:	68 00 00 00 00       	push   0x0
    1f14:	e8 00 00 00 00       	call   1f19 <s141+0x243>
    1f19:	48 83 c4 10          	add    rsp,0x10
    1f1d:	41 ff c7             	inc    r15d
    1f20:	41 81 ff b0 30 01 00 	cmp    r15d,0x130b0
    1f27:	0f 85 cb fd ff ff    	jne    1cf8 <s141+0x22>
    1f2d:	49 83 c6 10          	add    r14,0x10
    1f31:	4c 89 f7             	mov    rdi,r14
    1f34:	31 f6                	xor    esi,esi
    1f36:	e8 00 00 00 00       	call   1f3b <s141+0x265>
    1f3b:	bf 00 00 00 00       	mov    edi,0x0
    1f40:	48 83 c4 08          	add    rsp,0x8
    1f44:	5b                   	pop    rbx
    1f45:	41 5c                	pop    r12
    1f47:	41 5e                	pop    r14
    1f49:	41 5f                	pop    r15
    1f4b:	e9 00 00 00 00       	jmp    1f50 <s151s>

0000000000001f50 <s151s>:
    1f50:	4c 63 ca             	movsxd r9,edx
    1f53:	45 31 d2             	xor    r10d,r10d
    1f56:	31 d2                	xor    edx,edx
    1f58:	4c 89 d1             	mov    rcx,r10
    1f5b:	48 09 d1             	or     rcx,rdx
    1f5e:	4a 8d 04 09          	lea    rax,[rcx+r9*1]
    1f62:	f3 0f 10 04 87       	movss  xmm0,DWORD PTR [rdi+rax*4]
    1f67:	f3 0f 58 04 8e       	addss  xmm0,DWORD PTR [rsi+rcx*4]
    1f6c:	f3 0f 11 04 8f       	movss  DWORD PTR [rdi+rcx*4],xmm0
    1f71:	48 ff c2             	inc    rdx
    1f74:	48 83 fa 07          	cmp    rdx,0x7
    1f78:	75 de                	jne    1f58 <s151s+0x8>
    1f7a:	4d 89 d0             	mov    r8,r10
    1f7d:	49 83 c8 07          	or     r8,0x7
    1f81:	49 81 f8 ff 7c 00 00 	cmp    r8,0x7cff
    1f88:	74 1b                	je     1fa5 <s151s+0x55>
    1f8a:	4b 8d 14 08          	lea    rdx,[r8+r9*1]
    1f8e:	f3 0f 10 04 97       	movss  xmm0,DWORD PTR [rdi+rdx*4]
    1f93:	f3 42 0f 58 04 86    	addss  xmm0,DWORD PTR [rsi+r8*4]
    1f99:	f3 42 0f 11 04 87    	movss  DWORD PTR [rdi+r8*4],xmm0
    1f9f:	49 83 c2 08          	add    r10,0x8
    1fa3:	eb b1                	jmp    1f56 <s151s+0x6>
    1fa5:	c3                   	ret    

0000000000001fa6 <s151>:
    1fa6:	41 56                	push   r14
    1fa8:	53                   	push   rbx
    1fa9:	50                   	push   rax
    1faa:	49 89 fe             	mov    r14,rdi
    1fad:	bf 00 00 00 00       	mov    edi,0x0
    1fb2:	e8 00 00 00 00       	call   1fb7 <s151+0x11>
    1fb7:	31 db                	xor    ebx,ebx
    1fb9:	4c 89 f7             	mov    rdi,r14
    1fbc:	31 f6                	xor    esi,esi
    1fbe:	e8 00 00 00 00       	call   1fc3 <s151+0x1d>
    1fc3:	31 c0                	xor    eax,eax
    1fc5:	31 c9                	xor    ecx,ecx
    1fc7:	48 89 ca             	mov    rdx,rcx
    1fca:	48 09 c2             	or     rdx,rax
    1fcd:	f3 0f 10 04 95 00 00 	movss  xmm0,DWORD PTR [rdx*4+0x0]
    1fd4:	00 00 
    1fd6:	f3 0f 58 04 95 00 00 	addss  xmm0,DWORD PTR [rdx*4+0x0]
    1fdd:	00 00 
    1fdf:	f3 0f 11 04 95 00 00 	movss  DWORD PTR [rdx*4+0x0],xmm0
    1fe6:	00 00 
    1fe8:	48 ff c1             	inc    rcx
    1feb:	48 83 f9 07          	cmp    rcx,0x7
    1fef:	75 d6                	jne    1fc7 <s151+0x21>
    1ff1:	48 89 c1             	mov    rcx,rax
    1ff4:	48 83 c9 07          	or     rcx,0x7
    1ff8:	48 81 f9 ff 7c 00 00 	cmp    rcx,0x7cff
    1fff:	74 21                	je     2022 <s151+0x7c>
    2001:	f3 0f 10 04 8d 00 00 	movss  xmm0,DWORD PTR [rcx*4+0x0]
    2008:	00 00 
    200a:	f3 0f 58 04 8d 00 00 	addss  xmm0,DWORD PTR [rcx*4+0x0]
    2011:	00 00 
    2013:	f3 0f 11 04 8d 00 00 	movss  DWORD PTR [rcx*4+0x0],xmm0
    201a:	00 00 
    201c:	48 83 c0 08          	add    rax,0x8
    2020:	eb a3                	jmp    1fc5 <s151+0x1f>
    2022:	bf 00 00 00 00       	mov    edi,0x0
    2027:	be 00 00 00 00       	mov    esi,0x0
    202c:	ba 00 00 00 00       	mov    edx,0x0
    2031:	b9 00 00 00 00       	mov    ecx,0x0
    2036:	41 b8 00 00 00 00    	mov    r8d,0x0
    203c:	41 b9 00 00 00 00    	mov    r9d,0x0
    2042:	0f 57 c0             	xorps  xmm0,xmm0
    2045:	68 00 00 00 00       	push   0x0
    204a:	68 00 00 00 00       	push   0x0
    204f:	e8 00 00 00 00       	call   2054 <s151+0xae>
    2054:	48 83 c4 10          	add    rsp,0x10
    2058:	ff c3                	inc    ebx
    205a:	81 fb 20 a1 07 00    	cmp    ebx,0x7a120
    2060:	0f 85 5d ff ff ff    	jne    1fc3 <s151+0x1d>
    2066:	49 83 c6 10          	add    r14,0x10
    206a:	4c 89 f7             	mov    rdi,r14
    206d:	31 f6                	xor    esi,esi
    206f:	e8 00 00 00 00       	call   2074 <s151+0xce>
    2074:	bf 00 00 00 00       	mov    edi,0x0
    2079:	48 83 c4 08          	add    rsp,0x8
    207d:	5b                   	pop    rbx
    207e:	41 5e                	pop    r14
    2080:	e9 00 00 00 00       	jmp    2085 <s152s>

0000000000002085 <s152s>:
    2085:	48 63 c1             	movsxd rax,ecx
    2088:	f3 0f 10 04 86       	movss  xmm0,DWORD PTR [rsi+rax*4]
    208d:	f3 0f 59 04 82       	mulss  xmm0,DWORD PTR [rdx+rax*4]
    2092:	f3 0f 58 04 87       	addss  xmm0,DWORD PTR [rdi+rax*4]
    2097:	f3 0f 11 04 87       	movss  DWORD PTR [rdi+rax*4],xmm0
    209c:	c3                   	ret    

000000000000209d <s152>:
    209d:	41 56                	push   r14
    209f:	53                   	push   rbx
    20a0:	50                   	push   rax
    20a1:	49 89 fe             	mov    r14,rdi
    20a4:	bf 00 00 00 00       	mov    edi,0x0
    20a9:	e8 00 00 00 00       	call   20ae <s152+0x11>
    20ae:	31 db                	xor    ebx,ebx
    20b0:	4c 89 f7             	mov    rdi,r14
    20b3:	31 f6                	xor    esi,esi
    20b5:	e8 00 00 00 00       	call   20ba <s152+0x1d>
    20ba:	31 c0                	xor    eax,eax
    20bc:	31 c9                	xor    ecx,ecx
    20be:	48 89 c2             	mov    rdx,rax
    20c1:	48 09 ca             	or     rdx,rcx
    20c4:	f3 0f 10 04 95 00 00 	movss  xmm0,DWORD PTR [rdx*4+0x0]
    20cb:	00 00 
    20cd:	f3 0f 59 04 95 00 00 	mulss  xmm0,DWORD PTR [rdx*4+0x0]
    20d4:	00 00 
    20d6:	f3 0f 11 04 95 00 00 	movss  DWORD PTR [rdx*4+0x0],xmm0
    20dd:	00 00 
    20df:	f3 0f 59 04 95 00 00 	mulss  xmm0,DWORD PTR [rdx*4+0x0]
    20e6:	00 00 
    20e8:	f3 0f 58 04 95 00 00 	addss  xmm0,DWORD PTR [rdx*4+0x0]
    20ef:	00 00 
    20f1:	f3 0f 11 04 95 00 00 	movss  DWORD PTR [rdx*4+0x0],xmm0
    20f8:	00 00 
    20fa:	48 ff c1             	inc    rcx
    20fd:	48 83 f9 08          	cmp    rcx,0x8
    2101:	75 bb                	jne    20be <s152+0x21>
    2103:	48 83 c0 08          	add    rax,0x8
    2107:	48 3d 00 7d 00 00    	cmp    rax,0x7d00
    210d:	75 ad                	jne    20bc <s152+0x1f>
    210f:	bf 00 00 00 00       	mov    edi,0x0
    2114:	be 00 00 00 00       	mov    esi,0x0
    2119:	ba 00 00 00 00       	mov    edx,0x0
    211e:	b9 00 00 00 00       	mov    ecx,0x0
    2123:	41 b8 00 00 00 00    	mov    r8d,0x0
    2129:	41 b9 00 00 00 00    	mov    r9d,0x0
    212f:	0f 57 c0             	xorps  xmm0,xmm0
    2132:	68 00 00 00 00       	push   0x0
    2137:	68 00 00 00 00       	push   0x0
    213c:	e8 00 00 00 00       	call   2141 <s152+0xa4>
    2141:	48 83 c4 10          	add    rsp,0x10
    2145:	ff c3                	inc    ebx
    2147:	81 fb a0 86 01 00    	cmp    ebx,0x186a0
    214d:	0f 85 67 ff ff ff    	jne    20ba <s152+0x1d>
    2153:	49 83 c6 10          	add    r14,0x10
    2157:	4c 89 f7             	mov    rdi,r14
    215a:	31 f6                	xor    esi,esi
    215c:	e8 00 00 00 00       	call   2161 <s152+0xc4>
    2161:	bf 00 00 00 00       	mov    edi,0x0
    2166:	48 83 c4 08          	add    rsp,0x8
    216a:	5b                   	pop    rbx
    216b:	41 5e                	pop    r14
    216d:	e9 00 00 00 00       	jmp    2172 <s161>

0000000000002172 <s161>:
    2172:	41 56                	push   r14
    2174:	53                   	push   rbx
    2175:	50                   	push   rax
    2176:	49 89 fe             	mov    r14,rdi
    2179:	bf 00 00 00 00       	mov    edi,0x0
    217e:	e8 00 00 00 00       	call   2183 <s161+0x11>
    2183:	31 db                	xor    ebx,ebx
    2185:	4c 89 f7             	mov    rdi,r14
    2188:	31 f6                	xor    esi,esi
    218a:	e8 00 00 00 00       	call   218f <s161+0x1d>
    218f:	0f 57 c9             	xorps  xmm1,xmm1
    2192:	31 c0                	xor    eax,eax
    2194:	0f 2e 0c 85 00 00 00 	ucomiss xmm1,DWORD PTR [rax*4+0x0]
    219b:	00 
    219c:	76 21                	jbe    21bf <s161+0x4d>
    219e:	f3 0f 10 04 85 00 00 	movss  xmm0,DWORD PTR [rax*4+0x0]
    21a5:	00 00 
    21a7:	f3 0f 59 c0          	mulss  xmm0,xmm0
    21ab:	f3 0f 58 04 85 00 00 	addss  xmm0,DWORD PTR [rax*4+0x0]
    21b2:	00 00 
    21b4:	f3 0f 11 04 85 00 00 	movss  DWORD PTR [rax*4+0x0],xmm0
    21bb:	00 00 
    21bd:	eb 24                	jmp    21e3 <s161+0x71>
    21bf:	f3 0f 10 04 85 00 00 	movss  xmm0,DWORD PTR [rax*4+0x0]
    21c6:	00 00 
    21c8:	f3 0f 59 04 85 00 00 	mulss  xmm0,DWORD PTR [rax*4+0x0]
    21cf:	00 00 
    21d1:	f3 0f 58 04 85 00 00 	addss  xmm0,DWORD PTR [rax*4+0x0]
    21d8:	00 00 
    21da:	f3 0f 11 04 85 00 00 	movss  DWORD PTR [rax*4+0x0],xmm0
    21e1:	00 00 
    21e3:	48 ff c0             	inc    rax
    21e6:	0f 2e 0c 85 00 00 00 	ucomiss xmm1,DWORD PTR [rax*4+0x0]
    21ed:	00 
    21ee:	76 21                	jbe    2211 <s161+0x9f>
    21f0:	f3 0f 10 04 85 00 00 	movss  xmm0,DWORD PTR [rax*4+0x0]
    21f7:	00 00 
    21f9:	f3 0f 59 c0          	mulss  xmm0,xmm0
    21fd:	f3 0f 58 04 85 00 00 	addss  xmm0,DWORD PTR [rax*4+0x0]
    2204:	00 00 
    2206:	f3 0f 11 04 85 00 00 	movss  DWORD PTR [rax*4+0x0],xmm0
    220d:	00 00 
    220f:	eb 24                	jmp    2235 <s161+0xc3>
    2211:	f3 0f 10 04 85 00 00 	movss  xmm0,DWORD PTR [rax*4+0x0]
    2218:	00 00 
    221a:	f3 0f 59 04 85 00 00 	mulss  xmm0,DWORD PTR [rax*4+0x0]
    2221:	00 00 
    2223:	f3 0f 58 04 85 00 00 	addss  xmm0,DWORD PTR [rax*4+0x0]
    222a:	00 00 
    222c:	f3 0f 11 04 85 00 00 	movss  DWORD PTR [rax*4+0x0],xmm0
    2233:	00 00 
    2235:	48 ff c0             	inc    rax
    2238:	0f 2e 0c 85 00 00 00 	ucomiss xmm1,DWORD PTR [rax*4+0x0]
    223f:	00 
    2240:	76 21                	jbe    2263 <s161+0xf1>
    2242:	f3 0f 10 04 85 00 00 	movss  xmm0,DWORD PTR [rax*4+0x0]
    2249:	00 00 
    224b:	f3 0f 59 c0          	mulss  xmm0,xmm0
    224f:	f3 0f 58 04 85 00 00 	addss  xmm0,DWORD PTR [rax*4+0x0]
    2256:	00 00 
    2258:	f3 0f 11 04 85 00 00 	movss  DWORD PTR [rax*4+0x0],xmm0
    225f:	00 00 
    2261:	eb 24                	jmp    2287 <s161+0x115>
    2263:	f3 0f 10 04 85 00 00 	movss  xmm0,DWORD PTR [rax*4+0x0]
    226a:	00 00 
    226c:	f3 0f 59 04 85 00 00 	mulss  xmm0,DWORD PTR [rax*4+0x0]
    2273:	00 00 
    2275:	f3 0f 58 04 85 00 00 	addss  xmm0,DWORD PTR [rax*4+0x0]
    227c:	00 00 
    227e:	f3 0f 11 04 85 00 00 	movss  DWORD PTR [rax*4+0x0],xmm0
    2285:	00 00 
    2287:	48 ff c0             	inc    rax
    228a:	0f 2e 0c 85 00 00 00 	ucomiss xmm1,DWORD PTR [rax*4+0x0]
    2291:	00 
    2292:	76 21                	jbe    22b5 <s161+0x143>
    2294:	f3 0f 10 04 85 00 00 	movss  xmm0,DWORD PTR [rax*4+0x0]
    229b:	00 00 
    229d:	f3 0f 59 c0          	mulss  xmm0,xmm0
    22a1:	f3 0f 58 04 85 00 00 	addss  xmm0,DWORD PTR [rax*4+0x0]
    22a8:	00 00 
    22aa:	f3 0f 11 04 85 00 00 	movss  DWORD PTR [rax*4+0x0],xmm0
    22b1:	00 00 
    22b3:	eb 24                	jmp    22d9 <s161+0x167>
    22b5:	f3 0f 10 04 85 00 00 	movss  xmm0,DWORD PTR [rax*4+0x0]
    22bc:	00 00 
    22be:	f3 0f 59 04 85 00 00 	mulss  xmm0,DWORD PTR [rax*4+0x0]
    22c5:	00 00 
    22c7:	f3 0f 58 04 85 00 00 	addss  xmm0,DWORD PTR [rax*4+0x0]
    22ce:	00 00 
    22d0:	f3 0f 11 04 85 00 00 	movss  DWORD PTR [rax*4+0x0],xmm0
    22d7:	00 00 
    22d9:	48 ff c0             	inc    rax
    22dc:	0f 2e 0c 85 00 00 00 	ucomiss xmm1,DWORD PTR [rax*4+0x0]
    22e3:	00 
    22e4:	76 21                	jbe    2307 <s161+0x195>
    22e6:	f3 0f 10 04 85 00 00 	movss  xmm0,DWORD PTR [rax*4+0x0]
    22ed:	00 00 
    22ef:	f3 0f 59 c0          	mulss  xmm0,xmm0
    22f3:	f3 0f 58 04 85 00 00 	addss  xmm0,DWORD PTR [rax*4+0x0]
    22fa:	00 00 
    22fc:	f3 0f 11 04 85 00 00 	movss  DWORD PTR [rax*4+0x0],xmm0
    2303:	00 00 
    2305:	eb 24                	jmp    232b <s161+0x1b9>
    2307:	f3 0f 10 04 85 00 00 	movss  xmm0,DWORD PTR [rax*4+0x0]
    230e:	00 00 
    2310:	f3 0f 59 04 85 00 00 	mulss  xmm0,DWORD PTR [rax*4+0x0]
    2317:	00 00 
    2319:	f3 0f 58 04 85 00 00 	addss  xmm0,DWORD PTR [rax*4+0x0]
    2320:	00 00 
    2322:	f3 0f 11 04 85 00 00 	movss  DWORD PTR [rax*4+0x0],xmm0
    2329:	00 00 
    232b:	48 ff c0             	inc    rax
    232e:	0f 2e 0c 85 00 00 00 	ucomiss xmm1,DWORD PTR [rax*4+0x0]
    2335:	00 
    2336:	76 21                	jbe    2359 <s161+0x1e7>
    2338:	f3 0f 10 04 85 00 00 	movss  xmm0,DWORD PTR [rax*4+0x0]
    233f:	00 00 
    2341:	f3 0f 59 c0          	mulss  xmm0,xmm0
    2345:	f3 0f 58 04 85 00 00 	addss  xmm0,DWORD PTR [rax*4+0x0]
    234c:	00 00 
    234e:	f3 0f 11 04 85 00 00 	movss  DWORD PTR [rax*4+0x0],xmm0
    2355:	00 00 
    2357:	eb 24                	jmp    237d <s161+0x20b>
    2359:	f3 0f 10 04 85 00 00 	movss  xmm0,DWORD PTR [rax*4+0x0]
    2360:	00 00 
    2362:	f3 0f 59 04 85 00 00 	mulss  xmm0,DWORD PTR [rax*4+0x0]
    2369:	00 00 
    236b:	f3 0f 58 04 85 00 00 	addss  xmm0,DWORD PTR [rax*4+0x0]
    2372:	00 00 
    2374:	f3 0f 11 04 85 00 00 	movss  DWORD PTR [rax*4+0x0],xmm0
    237b:	00 00 
    237d:	48 ff c0             	inc    rax
    2380:	0f 2e 0c 85 00 00 00 	ucomiss xmm1,DWORD PTR [rax*4+0x0]
    2387:	00 
    2388:	76 21                	jbe    23ab <s161+0x239>
    238a:	f3 0f 10 04 85 00 00 	movss  xmm0,DWORD PTR [rax*4+0x0]
    2391:	00 00 
    2393:	f3 0f 59 c0          	mulss  xmm0,xmm0
    2397:	f3 0f 58 04 85 00 00 	addss  xmm0,DWORD PTR [rax*4+0x0]
    239e:	00 00 
    23a0:	f3 0f 11 04 85 00 00 	movss  DWORD PTR [rax*4+0x0],xmm0
    23a7:	00 00 
    23a9:	eb 24                	jmp    23cf <s161+0x25d>
    23ab:	f3 0f 10 04 85 00 00 	movss  xmm0,DWORD PTR [rax*4+0x0]
    23b2:	00 00 
    23b4:	f3 0f 59 04 85 00 00 	mulss  xmm0,DWORD PTR [rax*4+0x0]
    23bb:	00 00 
    23bd:	f3 0f 58 04 85 00 00 	addss  xmm0,DWORD PTR [rax*4+0x0]
    23c4:	00 00 
    23c6:	f3 0f 11 04 85 00 00 	movss  DWORD PTR [rax*4+0x0],xmm0
    23cd:	00 00 
    23cf:	48 ff c0             	inc    rax
    23d2:	48 3d ff 7c 00 00    	cmp    rax,0x7cff
    23d8:	74 5d                	je     2437 <s161+0x2c5>
    23da:	0f 2e 0c 85 00 00 00 	ucomiss xmm1,DWORD PTR [rax*4+0x0]
    23e1:	00 
    23e2:	76 27                	jbe    240b <s161+0x299>
    23e4:	f3 0f 10 04 85 00 00 	movss  xmm0,DWORD PTR [rax*4+0x0]
    23eb:	00 00 
    23ed:	f3 0f 59 c0          	mulss  xmm0,xmm0
    23f1:	f3 0f 58 04 85 00 00 	addss  xmm0,DWORD PTR [rax*4+0x0]
    23f8:	00 00 
    23fa:	f3 0f 11 04 85 00 00 	movss  DWORD PTR [rax*4+0x0],xmm0
    2401:	00 00 
    2403:	48 ff c0             	inc    rax
    2406:	e9 89 fd ff ff       	jmp    2194 <s161+0x22>
    240b:	f3 0f 10 04 85 00 00 	movss  xmm0,DWORD PTR [rax*4+0x0]
    2412:	00 00 
    2414:	f3 0f 59 04 85 00 00 	mulss  xmm0,DWORD PTR [rax*4+0x0]
    241b:	00 00 
    241d:	f3 0f 58 04 85 00 00 	addss  xmm0,DWORD PTR [rax*4+0x0]
    2424:	00 00 
    2426:	f3 0f 11 04 85 00 00 	movss  DWORD PTR [rax*4+0x0],xmm0
    242d:	00 00 
    242f:	48 ff c0             	inc    rax
    2432:	e9 5d fd ff ff       	jmp    2194 <s161+0x22>
    2437:	bf 00 00 00 00       	mov    edi,0x0
    243c:	be 00 00 00 00       	mov    esi,0x0
    2441:	ba 00 00 00 00       	mov    edx,0x0
    2446:	b9 00 00 00 00       	mov    ecx,0x0
    244b:	41 b8 00 00 00 00    	mov    r8d,0x0
    2451:	41 b9 00 00 00 00    	mov    r9d,0x0
    2457:	0f 57 c0             	xorps  xmm0,xmm0
    245a:	68 00 00 00 00       	push   0x0
    245f:	68 00 00 00 00       	push   0x0
    2464:	e8 00 00 00 00       	call   2469 <s161+0x2f7>
    2469:	0f 57 c9             	xorps  xmm1,xmm1
    246c:	48 83 c4 10          	add    rsp,0x10
    2470:	ff c3                	inc    ebx
    2472:	81 fb 50 c3 00 00    	cmp    ebx,0xc350
    2478:	0f 85 14 fd ff ff    	jne    2192 <s161+0x20>
    247e:	49 83 c6 10          	add    r14,0x10
    2482:	4c 89 f7             	mov    rdi,r14
    2485:	31 f6                	xor    esi,esi
    2487:	e8 00 00 00 00       	call   248c <s161+0x31a>
    248c:	bf 00 00 00 00       	mov    edi,0x0
    2491:	48 83 c4 08          	add    rsp,0x8
    2495:	5b                   	pop    rbx
    2496:	41 5e                	pop    r14
    2498:	e9 00 00 00 00       	jmp    249d <s1161>

000000000000249d <s1161>:
    249d:	41 56                	push   r14
    249f:	53                   	push   rbx
    24a0:	50                   	push   rax
    24a1:	49 89 fe             	mov    r14,rdi
    24a4:	bf 00 00 00 00       	mov    edi,0x0
    24a9:	e8 00 00 00 00       	call   24ae <s1161+0x11>
    24ae:	31 db                	xor    ebx,ebx
    24b0:	4c 89 f7             	mov    rdi,r14
    24b3:	31 f6                	xor    esi,esi
    24b5:	e8 00 00 00 00       	call   24ba <s1161+0x1d>
    24ba:	0f 57 d2             	xorps  xmm2,xmm2
    24bd:	31 c0                	xor    eax,eax
    24bf:	31 c9                	xor    ecx,ecx
    24c1:	48 89 c2             	mov    rdx,rax
    24c4:	48 09 ca             	or     rdx,rcx
    24c7:	f3 0f 10 04 95 00 00 	movss  xmm0,DWORD PTR [rdx*4+0x0]
    24ce:	00 00 
    24d0:	0f 2e d0             	ucomiss xmm2,xmm0
    24d3:	76 1d                	jbe    24f2 <s1161+0x55>
    24d5:	f3 0f 10 04 95 00 00 	movss  xmm0,DWORD PTR [rdx*4+0x0]
    24dc:	00 00 
    24de:	f3 0f 10 0c 95 00 00 	movss  xmm1,DWORD PTR [rdx*4+0x0]
    24e5:	00 00 
    24e7:	f3 0f 59 c9          	mulss  xmm1,xmm1
    24eb:	be 00 00 00 00       	mov    esi,0x0
    24f0:	eb 17                	jmp    2509 <s1161+0x6c>
    24f2:	f3 0f 10 0c 95 00 00 	movss  xmm1,DWORD PTR [rdx*4+0x0]
    24f9:	00 00 
    24fb:	f3 0f 59 0c 95 00 00 	mulss  xmm1,DWORD PTR [rdx*4+0x0]
    2502:	00 00 
    2504:	be 00 00 00 00       	mov    esi,0x0
    2509:	f3 0f 58 c1          	addss  xmm0,xmm1
    250d:	f3 0f 11 04 96       	movss  DWORD PTR [rsi+rdx*4],xmm0
    2512:	48 ff c1             	inc    rcx
    2515:	48 83 f9 05          	cmp    rcx,0x5
    2519:	75 a6                	jne    24c1 <s1161+0x24>
    251b:	48 89 c1             	mov    rcx,rax
    251e:	48 83 c9 07          	or     rcx,0x7
    2522:	48 81 f9 ff 7c 00 00 	cmp    rcx,0x7cff
    2529:	74 54                	je     257f <s1161+0xe2>
    252b:	f3 0f 10 04 8d 00 00 	movss  xmm0,DWORD PTR [rcx*4+0x0]
    2532:	00 00 
    2534:	0f 2e d0             	ucomiss xmm2,xmm0
    2537:	76 1d                	jbe    2556 <s1161+0xb9>
    2539:	f3 0f 10 04 8d 00 00 	movss  xmm0,DWORD PTR [rcx*4+0x0]
    2540:	00 00 
    2542:	f3 0f 10 0c 8d 00 00 	movss  xmm1,DWORD PTR [rcx*4+0x0]
    2549:	00 00 
    254b:	f3 0f 59 c9          	mulss  xmm1,xmm1
    254f:	ba 00 00 00 00       	mov    edx,0x0
    2554:	eb 17                	jmp    256d <s1161+0xd0>
    2556:	f3 0f 10 0c 8d 00 00 	movss  xmm1,DWORD PTR [rcx*4+0x0]
    255d:	00 00 
    255f:	f3 0f 59 0c 8d 00 00 	mulss  xmm1,DWORD PTR [rcx*4+0x0]
    2566:	00 00 
    2568:	ba 00 00 00 00       	mov    edx,0x0
    256d:	f3 0f 58 c8          	addss  xmm1,xmm0
    2571:	f3 0f 11 0c 8a       	movss  DWORD PTR [rdx+rcx*4],xmm1
    2576:	48 83 c0 08          	add    rax,0x8
    257a:	e9 40 ff ff ff       	jmp    24bf <s1161+0x22>
    257f:	bf 00 00 00 00       	mov    edi,0x0
    2584:	be 00 00 00 00       	mov    esi,0x0
    2589:	ba 00 00 00 00       	mov    edx,0x0
    258e:	b9 00 00 00 00       	mov    ecx,0x0
    2593:	41 b8 00 00 00 00    	mov    r8d,0x0
    2599:	41 b9 00 00 00 00    	mov    r9d,0x0
    259f:	0f 57 c0             	xorps  xmm0,xmm0
    25a2:	68 00 00 00 00       	push   0x0
    25a7:	68 00 00 00 00       	push   0x0
    25ac:	e8 00 00 00 00       	call   25b1 <s1161+0x114>
    25b1:	0f 57 d2             	xorps  xmm2,xmm2
    25b4:	48 83 c4 10          	add    rsp,0x10
    25b8:	ff c3                	inc    ebx
    25ba:	81 fb a0 86 01 00    	cmp    ebx,0x186a0
    25c0:	0f 85 f7 fe ff ff    	jne    24bd <s1161+0x20>
    25c6:	49 83 c6 10          	add    r14,0x10
    25ca:	4c 89 f7             	mov    rdi,r14
    25cd:	31 f6                	xor    esi,esi
    25cf:	e8 00 00 00 00       	call   25d4 <s1161+0x137>
    25d4:	bf 00 00 00 00       	mov    edi,0x0
    25d9:	48 83 c4 08          	add    rsp,0x8
    25dd:	5b                   	pop    rbx
    25de:	41 5e                	pop    r14
    25e0:	e9 00 00 00 00       	jmp    25e5 <s162>

00000000000025e5 <s162>:
    25e5:	41 57                	push   r15
    25e7:	41 56                	push   r14
    25e9:	53                   	push   rbx
    25ea:	49 89 fe             	mov    r14,rdi
    25ed:	48 8b 47 20          	mov    rax,QWORD PTR [rdi+0x20]
    25f1:	48 63 18             	movsxd rbx,DWORD PTR [rax]
    25f4:	bf 00 00 00 00       	mov    edi,0x0
    25f9:	e8 00 00 00 00       	call   25fe <s162+0x19>
    25fe:	45 31 ff             	xor    r15d,r15d
    2601:	4c 89 f7             	mov    rdi,r14
    2604:	31 f6                	xor    esi,esi
    2606:	e8 00 00 00 00       	call   260b <s162+0x26>
    260b:	85 db                	test   ebx,ebx
    260d:	7e 79                	jle    2688 <s162+0xa3>
    260f:	31 c0                	xor    eax,eax
    2611:	31 c9                	xor    ecx,ecx
    2613:	48 89 c2             	mov    rdx,rax
    2616:	48 09 ca             	or     rdx,rcx
    2619:	48 8d 34 1a          	lea    rsi,[rdx+rbx*1]
    261d:	f3 0f 10 04 95 00 00 	movss  xmm0,DWORD PTR [rdx*4+0x0]
    2624:	00 00 
    2626:	f3 0f 59 04 95 00 00 	mulss  xmm0,DWORD PTR [rdx*4+0x0]
    262d:	00 00 
    262f:	f3 0f 58 04 b5 00 00 	addss  xmm0,DWORD PTR [rsi*4+0x0]
    2636:	00 00 
    2638:	f3 0f 11 04 95 00 00 	movss  DWORD PTR [rdx*4+0x0],xmm0
    263f:	00 00 
    2641:	48 ff c1             	inc    rcx
    2644:	48 83 f9 07          	cmp    rcx,0x7
    2648:	75 c9                	jne    2613 <s162+0x2e>
    264a:	48 89 c1             	mov    rcx,rax
    264d:	48 83 c9 07          	or     rcx,0x7
    2651:	48 81 f9 ff 7c 00 00 	cmp    rcx,0x7cff
    2658:	74 2e                	je     2688 <s162+0xa3>
    265a:	48 8d 14 19          	lea    rdx,[rcx+rbx*1]
    265e:	f3 0f 10 04 8d 00 00 	movss  xmm0,DWORD PTR [rcx*4+0x0]
    2665:	00 00 
    2667:	f3 0f 59 04 8d 00 00 	mulss  xmm0,DWORD PTR [rcx*4+0x0]
    266e:	00 00 
    2670:	f3 0f 58 04 95 00 00 	addss  xmm0,DWORD PTR [rdx*4+0x0]
    2677:	00 00 
    2679:	f3 0f 11 04 8d 00 00 	movss  DWORD PTR [rcx*4+0x0],xmm0
    2680:	00 00 
    2682:	48 83 c0 08          	add    rax,0x8
    2686:	eb 89                	jmp    2611 <s162+0x2c>
    2688:	bf 00 00 00 00       	mov    edi,0x0
    268d:	be 00 00 00 00       	mov    esi,0x0
    2692:	ba 00 00 00 00       	mov    edx,0x0
    2697:	b9 00 00 00 00       	mov    ecx,0x0
    269c:	41 b8 00 00 00 00    	mov    r8d,0x0
    26a2:	41 b9 00 00 00 00    	mov    r9d,0x0
    26a8:	0f 57 c0             	xorps  xmm0,xmm0
    26ab:	68 00 00 00 00       	push   0x0
    26b0:	68 00 00 00 00       	push   0x0
    26b5:	e8 00 00 00 00       	call   26ba <s162+0xd5>
    26ba:	48 83 c4 10          	add    rsp,0x10
    26be:	41 ff c7             	inc    r15d
    26c1:	41 81 ff a0 86 01 00 	cmp    r15d,0x186a0
    26c8:	0f 85 3d ff ff ff    	jne    260b <s162+0x26>
    26ce:	49 83 c6 10          	add    r14,0x10
    26d2:	4c 89 f7             	mov    rdi,r14
    26d5:	31 f6                	xor    esi,esi
    26d7:	e8 00 00 00 00       	call   26dc <s162+0xf7>
    26dc:	bf 00 00 00 00       	mov    edi,0x0
    26e1:	5b                   	pop    rbx
    26e2:	41 5e                	pop    r14
    26e4:	41 5f                	pop    r15
    26e6:	e9 00 00 00 00       	jmp    26eb <s171>

00000000000026eb <s171>:
    26eb:	41 57                	push   r15
    26ed:	41 56                	push   r14
    26ef:	53                   	push   rbx
    26f0:	49 89 fe             	mov    r14,rdi
    26f3:	48 8b 47 20          	mov    rax,QWORD PTR [rdi+0x20]
    26f7:	48 63 18             	movsxd rbx,DWORD PTR [rax]
    26fa:	bf 00 00 00 00       	mov    edi,0x0
    26ff:	e8 00 00 00 00       	call   2704 <s171+0x19>
    2704:	45 31 ff             	xor    r15d,r15d
    2707:	4c 89 f7             	mov    rdi,r14
    270a:	31 f6                	xor    esi,esi
    270c:	e8 00 00 00 00       	call   2711 <s171+0x26>
    2711:	31 c0                	xor    eax,eax
    2713:	31 c9                	xor    ecx,ecx
    2715:	48 89 c2             	mov    rdx,rax
    2718:	48 09 ca             	or     rdx,rcx
    271b:	f3 0f 10 04 95 00 00 	movss  xmm0,DWORD PTR [rdx*4+0x0]
    2722:	00 00 
    2724:	48 0f af d3          	imul   rdx,rbx
    2728:	f3 0f 58 04 95 00 00 	addss  xmm0,DWORD PTR [rdx*4+0x0]
    272f:	00 00 
    2731:	f3 0f 11 04 95 00 00 	movss  DWORD PTR [rdx*4+0x0],xmm0
    2738:	00 00 
    273a:	48 ff c1             	inc    rcx
    273d:	48 83 f9 08          	cmp    rcx,0x8
    2741:	75 d2                	jne    2715 <s171+0x2a>
    2743:	48 83 c0 08          	add    rax,0x8
    2747:	48 3d 00 7d 00 00    	cmp    rax,0x7d00
    274d:	75 c4                	jne    2713 <s171+0x28>
    274f:	bf 00 00 00 00       	mov    edi,0x0
    2754:	be 00 00 00 00       	mov    esi,0x0
    2759:	ba 00 00 00 00       	mov    edx,0x0
    275e:	b9 00 00 00 00       	mov    ecx,0x0
    2763:	41 b8 00 00 00 00    	mov    r8d,0x0
    2769:	41 b9 00 00 00 00    	mov    r9d,0x0
    276f:	0f 57 c0             	xorps  xmm0,xmm0
    2772:	68 00 00 00 00       	push   0x0
    2777:	68 00 00 00 00       	push   0x0
    277c:	e8 00 00 00 00       	call   2781 <s171+0x96>
    2781:	48 83 c4 10          	add    rsp,0x10
    2785:	41 ff c7             	inc    r15d
    2788:	41 81 ff a0 86 01 00 	cmp    r15d,0x186a0
    278f:	75 80                	jne    2711 <s171+0x26>
    2791:	49 83 c6 10          	add    r14,0x10
    2795:	4c 89 f7             	mov    rdi,r14
    2798:	31 f6                	xor    esi,esi
    279a:	e8 00 00 00 00       	call   279f <s171+0xb4>
    279f:	bf 00 00 00 00       	mov    edi,0x0
    27a4:	5b                   	pop    rbx
    27a5:	41 5e                	pop    r14
    27a7:	41 5f                	pop    r15
    27a9:	e9 00 00 00 00       	jmp    27ae <s172>

00000000000027ae <s172>:
    27ae:	55                   	push   rbp
    27af:	41 57                	push   r15
    27b1:	41 56                	push   r14
    27b3:	41 55                	push   r13
    27b5:	41 54                	push   r12
    27b7:	53                   	push   rbx
    27b8:	48 83 ec 18          	sub    rsp,0x18
    27bc:	48 89 fb             	mov    rbx,rdi
    27bf:	48 8b 47 20          	mov    rax,QWORD PTR [rdi+0x20]
    27c3:	44 8b 20             	mov    r12d,DWORD PTR [rax]
    27c6:	48 63 68 04          	movsxd rbp,DWORD PTR [rax+0x4]
    27ca:	bf 00 00 00 00       	mov    edi,0x0
    27cf:	e8 00 00 00 00       	call   27d4 <s172+0x26>
    27d4:	45 31 ed             	xor    r13d,r13d
    27d7:	48 89 5c 24 10       	mov    QWORD PTR [rsp+0x10],rbx
    27dc:	48 89 df             	mov    rdi,rbx
    27df:	31 f6                	xor    esi,esi
    27e1:	e8 00 00 00 00       	call   27e6 <s172+0x38>
    27e6:	41 8d 44 24 ff       	lea    eax,[r12-0x1]
    27eb:	41 8d 0c 2c          	lea    ecx,[r12+rbp*1]
    27ef:	ff c9                	dec    ecx
    27f1:	ba 00 7d 00 00       	mov    edx,0x7d00
    27f6:	39 d1                	cmp    ecx,edx
    27f8:	0f 4f d1             	cmovg  edx,ecx
    27fb:	48 98                	cdqe   
    27fd:	48 89 44 24 08       	mov    QWORD PTR [rsp+0x8],rax
    2802:	44 29 e2             	sub    edx,r12d
    2805:	89 54 24 04          	mov    DWORD PTR [rsp+0x4],edx
    2809:	49 89 ee             	mov    r14,rbp
    280c:	49 c1 e6 05          	shl    r14,0x5
    2810:	4c 8d 3c ad 00 00 00 	lea    r15,[rbp*4+0x0]
    2817:	00 
    2818:	41 81 fc 00 7d 00 00 	cmp    r12d,0x7d00
    281f:	0f 8f 46 01 00 00    	jg     296b <s172+0x1bd>
    2825:	8b 44 24 04          	mov    eax,DWORD PTR [rsp+0x4]
    2829:	31 d2                	xor    edx,edx
    282b:	f7 f5                	div    ebp
    282d:	8d 50 01             	lea    edx,[rax+0x1]
    2830:	48 8b 4c 24 08       	mov    rcx,QWORD PTR [rsp+0x8]
    2835:	83 e2 07             	and    edx,0x7
    2838:	74 27                	je     2861 <s172+0xb3>
    283a:	48 8b 4c 24 08       	mov    rcx,QWORD PTR [rsp+0x8]
    283f:	f3 0f 10 04 8d 00 00 	movss  xmm0,DWORD PTR [rcx*4+0x0]
    2846:	00 00 
    2848:	f3 0f 58 04 8d 00 00 	addss  xmm0,DWORD PTR [rcx*4+0x0]
    284f:	00 00 
    2851:	f3 0f 11 04 8d 00 00 	movss  DWORD PTR [rcx*4+0x0],xmm0
    2858:	00 00 
    285a:	48 01 e9             	add    rcx,rbp
    285d:	ff ca                	dec    edx
    285f:	75 de                	jne    283f <s172+0x91>
    2861:	83 f8 07             	cmp    eax,0x7
    2864:	0f 82 01 01 00 00    	jb     296b <s172+0x1bd>
    286a:	48 8d 04 8d 00 00 00 	lea    rax,[rcx*4+0x0]
    2871:	00 
    2872:	f3 0f 10 80 00 00 00 	movss  xmm0,DWORD PTR [rax+0x0]
    2879:	00 
    287a:	f3 0f 58 80 00 00 00 	addss  xmm0,DWORD PTR [rax+0x0]
    2881:	00 
    2882:	f3 0f 11 80 00 00 00 	movss  DWORD PTR [rax+0x0],xmm0
    2889:	00 
    288a:	48 01 e9             	add    rcx,rbp
    288d:	4a 8d 34 38          	lea    rsi,[rax+r15*1]
    2891:	48 81 c6 00 00 00 00 	add    rsi,0x0
    2898:	f3 0f 10 84 a8 00 00 	movss  xmm0,DWORD PTR [rax+rbp*4+0x0]
    289f:	00 00 
    28a1:	4a 8d 3c 38          	lea    rdi,[rax+r15*1]
    28a5:	48 81 c7 00 00 00 00 	add    rdi,0x0
    28ac:	f3 0f 58 84 a8 00 00 	addss  xmm0,DWORD PTR [rax+rbp*4+0x0]
    28b3:	00 00 
    28b5:	f3 0f 11 84 a8 00 00 	movss  DWORD PTR [rax+rbp*4+0x0],xmm0
    28bc:	00 00 
    28be:	48 01 e9             	add    rcx,rbp
    28c1:	4c 01 fe             	add    rsi,r15
    28c4:	f3 0f 10 84 e8 00 00 	movss  xmm0,DWORD PTR [rax+rbp*8+0x0]
    28cb:	00 00 
    28cd:	4c 01 ff             	add    rdi,r15
    28d0:	f3 0f 58 84 e8 00 00 	addss  xmm0,DWORD PTR [rax+rbp*8+0x0]
    28d7:	00 00 
    28d9:	f3 0f 11 84 e8 00 00 	movss  DWORD PTR [rax+rbp*8+0x0],xmm0
    28e0:	00 00 
    28e2:	48 01 e9             	add    rcx,rbp
    28e5:	4a 8d 14 3e          	lea    rdx,[rsi+r15*1]
    28e9:	f3 0f 10 04 ae       	movss  xmm0,DWORD PTR [rsi+rbp*4]
    28ee:	4a 8d 1c 3f          	lea    rbx,[rdi+r15*1]
    28f2:	f3 0f 58 04 af       	addss  xmm0,DWORD PTR [rdi+rbp*4]
    28f7:	f3 0f 11 04 af       	movss  DWORD PTR [rdi+rbp*4],xmm0
    28fc:	48 01 e9             	add    rcx,rbp
    28ff:	4c 01 fa             	add    rdx,r15
    2902:	f3 0f 10 04 ee       	movss  xmm0,DWORD PTR [rsi+rbp*8]
    2907:	f3 0f 58 04 ef       	addss  xmm0,DWORD PTR [rdi+rbp*8]
    290c:	4c 01 fb             	add    rbx,r15
    290f:	f3 0f 11 04 ef       	movss  DWORD PTR [rdi+rbp*8],xmm0
    2914:	48 01 e9             	add    rcx,rbp
    2917:	f3 0f 10 04 aa       	movss  xmm0,DWORD PTR [rdx+rbp*4]
    291c:	4c 01 fa             	add    rdx,r15
    291f:	4a 8d 34 3b          	lea    rsi,[rbx+r15*1]
    2923:	f3 0f 58 04 ab       	addss  xmm0,DWORD PTR [rbx+rbp*4]
    2928:	f3 0f 11 04 ab       	movss  DWORD PTR [rbx+rbp*4],xmm0
    292d:	48 01 e9             	add    rcx,rbp
    2930:	f3 0f 10 04 aa       	movss  xmm0,DWORD PTR [rdx+rbp*4]
    2935:	4c 01 fa             	add    rdx,r15
    2938:	4a 8d 3c 3e          	lea    rdi,[rsi+r15*1]
    293c:	f3 0f 58 04 ae       	addss  xmm0,DWORD PTR [rsi+rbp*4]
    2941:	f3 0f 11 04 ae       	movss  DWORD PTR [rsi+rbp*4],xmm0
    2946:	48 01 e9             	add    rcx,rbp
    2949:	f3 0f 10 04 aa       	movss  xmm0,DWORD PTR [rdx+rbp*4]
    294e:	f3 0f 58 04 af       	addss  xmm0,DWORD PTR [rdi+rbp*4]
    2953:	f3 0f 11 04 af       	movss  DWORD PTR [rdi+rbp*4],xmm0
    2958:	48 01 e9             	add    rcx,rbp
    295b:	4c 01 f0             	add    rax,r14
    295e:	48 81 f9 00 7d 00 00 	cmp    rcx,0x7d00
    2965:	0f 8c 07 ff ff ff    	jl     2872 <s172+0xc4>
    296b:	bf 00 00 00 00       	mov    edi,0x0
    2970:	be 00 00 00 00       	mov    esi,0x0
    2975:	ba 00 00 00 00       	mov    edx,0x0
    297a:	b9 00 00 00 00       	mov    ecx,0x0
    297f:	41 b8 00 00 00 00    	mov    r8d,0x0
    2985:	41 b9 00 00 00 00    	mov    r9d,0x0
    298b:	0f 57 c0             	xorps  xmm0,xmm0
    298e:	68 00 00 00 00       	push   0x0
    2993:	68 00 00 00 00       	push   0x0
    2998:	e8 00 00 00 00       	call   299d <s172+0x1ef>
    299d:	48 83 c4 10          	add    rsp,0x10
    29a1:	41 ff c5             	inc    r13d
    29a4:	41 81 fd a0 86 01 00 	cmp    r13d,0x186a0
    29ab:	0f 85 67 fe ff ff    	jne    2818 <s172+0x6a>
    29b1:	48 8b 7c 24 10       	mov    rdi,QWORD PTR [rsp+0x10]
    29b6:	48 83 c7 10          	add    rdi,0x10
    29ba:	31 f6                	xor    esi,esi
    29bc:	e8 00 00 00 00       	call   29c1 <s172+0x213>
    29c1:	bf 00 00 00 00       	mov    edi,0x0
    29c6:	48 83 c4 18          	add    rsp,0x18
    29ca:	5b                   	pop    rbx
    29cb:	41 5c                	pop    r12
    29cd:	41 5d                	pop    r13
    29cf:	41 5e                	pop    r14
    29d1:	41 5f                	pop    r15
    29d3:	5d                   	pop    rbp
    29d4:	e9 00 00 00 00       	jmp    29d9 <s173>

00000000000029d9 <s173>:
    29d9:	41 56                	push   r14
    29db:	53                   	push   rbx
    29dc:	50                   	push   rax
    29dd:	49 89 fe             	mov    r14,rdi
    29e0:	bf 00 00 00 00       	mov    edi,0x0
    29e5:	e8 00 00 00 00       	call   29ea <s173+0x11>
    29ea:	31 db                	xor    ebx,ebx
    29ec:	4c 89 f7             	mov    rdi,r14
    29ef:	31 f6                	xor    esi,esi
    29f1:	e8 00 00 00 00       	call   29f6 <s173+0x1d>
    29f6:	b8 00 00 00 00       	mov    eax,0x0
    29fb:	31 c9                	xor    ecx,ecx
    29fd:	31 d2                	xor    edx,edx
    29ff:	48 89 ce             	mov    rsi,rcx
    2a02:	48 09 d6             	or     rsi,rdx
    2a05:	f3 0f 10 04 b5 00 00 	movss  xmm0,DWORD PTR [rsi*4+0x0]
    2a0c:	00 00 
    2a0e:	f3 0f 58 04 b5 00 00 	addss  xmm0,DWORD PTR [rsi*4+0x0]
    2a15:	00 00 
    2a17:	f3 0f 11 04 90       	movss  DWORD PTR [rax+rdx*4],xmm0
    2a1c:	48 ff c2             	inc    rdx
    2a1f:	48 83 fa 08          	cmp    rdx,0x8
    2a23:	75 da                	jne    29ff <s173+0x26>
    2a25:	48 83 c1 08          	add    rcx,0x8
    2a29:	48 83 c0 20          	add    rax,0x20
    2a2d:	48 81 f9 80 3e 00 00 	cmp    rcx,0x3e80
    2a34:	75 c7                	jne    29fd <s173+0x24>
    2a36:	bf 00 00 00 00       	mov    edi,0x0
    2a3b:	be 00 00 00 00       	mov    esi,0x0
    2a40:	ba 00 00 00 00       	mov    edx,0x0
    2a45:	b9 00 00 00 00       	mov    ecx,0x0
    2a4a:	41 b8 00 00 00 00    	mov    r8d,0x0
    2a50:	41 b9 00 00 00 00    	mov    r9d,0x0
    2a56:	0f 57 c0             	xorps  xmm0,xmm0
    2a59:	68 00 00 00 00       	push   0x0
    2a5e:	68 00 00 00 00       	push   0x0
    2a63:	e8 00 00 00 00       	call   2a68 <s173+0x8f>
    2a68:	48 83 c4 10          	add    rsp,0x10
    2a6c:	ff c3                	inc    ebx
    2a6e:	81 fb 40 42 0f 00    	cmp    ebx,0xf4240
    2a74:	75 80                	jne    29f6 <s173+0x1d>
    2a76:	49 83 c6 10          	add    r14,0x10
    2a7a:	4c 89 f7             	mov    rdi,r14
    2a7d:	31 f6                	xor    esi,esi
    2a7f:	e8 00 00 00 00       	call   2a84 <s173+0xab>
    2a84:	bf 00 00 00 00       	mov    edi,0x0
    2a89:	48 83 c4 08          	add    rsp,0x8
    2a8d:	5b                   	pop    rbx
    2a8e:	41 5e                	pop    r14
    2a90:	e9 00 00 00 00       	jmp    2a95 <s174>

0000000000002a95 <s174>:
    2a95:	41 57                	push   r15
    2a97:	41 56                	push   r14
    2a99:	41 55                	push   r13
    2a9b:	41 54                	push   r12
    2a9d:	53                   	push   rbx
    2a9e:	49 89 fe             	mov    r14,rdi
    2aa1:	48 8b 47 20          	mov    rax,QWORD PTR [rdi+0x20]
    2aa5:	44 8b 38             	mov    r15d,DWORD PTR [rax]
    2aa8:	bf 00 00 00 00       	mov    edi,0x0
    2aad:	e8 00 00 00 00       	call   2ab2 <s174+0x1d>
    2ab2:	45 31 e4             	xor    r12d,r12d
    2ab5:	4c 89 f7             	mov    rdi,r14
    2ab8:	31 f6                	xor    esi,esi
    2aba:	e8 00 00 00 00       	call   2abf <s174+0x2a>
    2abf:	4d 63 ef             	movsxd r13,r15d
    2ac2:	4c 89 fb             	mov    rbx,r15
    2ac5:	48 c1 e3 02          	shl    rbx,0x2
    2ac9:	45 85 ff             	test   r15d,r15d
    2acc:	7e 25                	jle    2af3 <s174+0x5e>
    2ace:	31 c0                	xor    eax,eax
    2ad0:	f3 0f 10 80 00 00 00 	movss  xmm0,DWORD PTR [rax+0x0]
    2ad7:	00 
    2ad8:	f3 0f 58 80 00 00 00 	addss  xmm0,DWORD PTR [rax+0x0]
    2adf:	00 
    2ae0:	f3 42 0f 11 84 a8 00 	movss  DWORD PTR [rax+r13*4+0x0],xmm0
    2ae7:	00 00 00 
    2aea:	48 83 c0 04          	add    rax,0x4
    2aee:	48 39 c3             	cmp    rbx,rax
    2af1:	75 dd                	jne    2ad0 <s174+0x3b>
    2af3:	bf 00 00 00 00       	mov    edi,0x0
    2af8:	be 00 00 00 00       	mov    esi,0x0
    2afd:	ba 00 00 00 00       	mov    edx,0x0
    2b02:	b9 00 00 00 00       	mov    ecx,0x0
    2b07:	41 b8 00 00 00 00    	mov    r8d,0x0
    2b0d:	41 b9 00 00 00 00    	mov    r9d,0x0
    2b13:	0f 57 c0             	xorps  xmm0,xmm0
    2b16:	68 00 00 00 00       	push   0x0
    2b1b:	68 00 00 00 00       	push   0x0
    2b20:	e8 00 00 00 00       	call   2b25 <s174+0x90>
    2b25:	48 83 c4 10          	add    rsp,0x10
    2b29:	41 ff c4             	inc    r12d
    2b2c:	41 81 fc 40 42 0f 00 	cmp    r12d,0xf4240
    2b33:	75 94                	jne    2ac9 <s174+0x34>
    2b35:	49 83 c6 10          	add    r14,0x10
    2b39:	4c 89 f7             	mov    rdi,r14
    2b3c:	31 f6                	xor    esi,esi
    2b3e:	e8 00 00 00 00       	call   2b43 <s174+0xae>
    2b43:	bf 00 00 00 00       	mov    edi,0x0
    2b48:	5b                   	pop    rbx
    2b49:	41 5c                	pop    r12
    2b4b:	41 5d                	pop    r13
    2b4d:	41 5e                	pop    r14
    2b4f:	41 5f                	pop    r15
    2b51:	e9 00 00 00 00       	jmp    2b56 <s175>

0000000000002b56 <s175>:
    2b56:	55                   	push   rbp
    2b57:	41 57                	push   r15
    2b59:	41 56                	push   r14
    2b5b:	41 55                	push   r13
    2b5d:	41 54                	push   r12
    2b5f:	53                   	push   rbx
    2b60:	48 83 ec 38          	sub    rsp,0x38
    2b64:	48 89 fd             	mov    rbp,rdi
    2b67:	48 8b 47 20          	mov    rax,QWORD PTR [rdi+0x20]
    2b6b:	48 63 18             	movsxd rbx,DWORD PTR [rax]
    2b6e:	bf 00 00 00 00       	mov    edi,0x0
    2b73:	e8 00 00 00 00       	call   2b78 <s175+0x22>
    2b78:	31 c0                	xor    eax,eax
    2b7a:	48 89 44 24 08       	mov    QWORD PTR [rsp+0x8],rax
    2b7f:	48 89 6c 24 10       	mov    QWORD PTR [rsp+0x10],rbp
    2b84:	48 89 ef             	mov    rdi,rbp
    2b87:	31 f6                	xor    esi,esi
    2b89:	e8 00 00 00 00       	call   2b8e <s175+0x38>
    2b8e:	b8 fe 7c 00 00       	mov    eax,0x7cfe
    2b93:	31 d2                	xor    edx,edx
    2b95:	f7 f3                	div    ebx
    2b97:	ff c0                	inc    eax
    2b99:	89 c1                	mov    ecx,eax
    2b9b:	83 e1 07             	and    ecx,0x7
    2b9e:	89 0c 24             	mov    DWORD PTR [rsp],ecx
    2ba1:	25 f8 ff 00 00       	and    eax,0xfff8
    2ba6:	89 44 24 04          	mov    DWORD PTR [rsp+0x4],eax
    2baa:	49 89 d8             	mov    r8,rbx
    2bad:	49 c1 e0 05          	shl    r8,0x5
    2bb1:	4c 8d 0c dd 00 00 00 	lea    r9,[rbx*8+0x0]
    2bb8:	00 
    2bb9:	4c 89 cd             	mov    rbp,r9
    2bbc:	48 29 dd             	sub    rbp,rbx
    2bbf:	4c 8d 14 1b          	lea    r10,[rbx+rbx*1]
    2bc3:	4f 8d 2c 52          	lea    r13,[r10+r10*2]
    2bc7:	4c 8d 24 9b          	lea    r12,[rbx+rbx*4]
    2bcb:	4c 8d 3c 9d 00 00 00 	lea    r15,[rbx*4+0x0]
    2bd2:	00 
    2bd3:	4c 8d 34 5b          	lea    r14,[rbx+rbx*2]
    2bd7:	48 8d 04 9d 00 00 00 	lea    rax,[rbx*4+0x0]
    2bde:	00 
    2bdf:	48 89 44 24 18       	mov    QWORD PTR [rsp+0x18],rax
    2be4:	4c 89 44 24 30       	mov    QWORD PTR [rsp+0x30],r8
    2be9:	4c 89 4c 24 28       	mov    QWORD PTR [rsp+0x28],r9
    2bee:	4c 89 54 24 20       	mov    QWORD PTR [rsp+0x20],r10
    2bf3:	81 fb db 11 00 00    	cmp    ebx,0x11db
    2bf9:	76 07                	jbe    2c02 <s175+0xac>
    2bfb:	31 c0                	xor    eax,eax
    2bfd:	e9 14 01 00 00       	jmp    2d16 <s175+0x1c0>
    2c02:	31 c9                	xor    ecx,ecx
    2c04:	31 c0                	xor    eax,eax
    2c06:	8b 54 24 04          	mov    edx,DWORD PTR [rsp+0x4]
    2c0a:	48 01 d8             	add    rax,rbx
    2c0d:	f3 0f 10 84 99 00 00 	movss  xmm0,DWORD PTR [rcx+rbx*4+0x0]
    2c14:	00 00 
    2c16:	f3 0f 58 81 00 00 00 	addss  xmm0,DWORD PTR [rcx+0x0]
    2c1d:	00 
    2c1e:	f3 0f 11 81 00 00 00 	movss  DWORD PTR [rcx+0x0],xmm0
    2c25:	00 
    2c26:	48 01 d8             	add    rax,rbx
    2c29:	f3 42 0f 10 84 91 00 	movss  xmm0,DWORD PTR [rcx+r10*4+0x0]
    2c30:	00 00 00 
    2c33:	4a 8d 34 39          	lea    rsi,[rcx+r15*1]
    2c37:	48 81 c6 00 00 00 00 	add    rsi,0x0
    2c3e:	f3 0f 58 84 99 00 00 	addss  xmm0,DWORD PTR [rcx+rbx*4+0x0]
    2c45:	00 00 
    2c47:	f3 0f 11 84 99 00 00 	movss  DWORD PTR [rcx+rbx*4+0x0],xmm0
    2c4e:	00 00 
    2c50:	48 01 d8             	add    rax,rbx
    2c53:	f3 42 0f 10 84 b1 00 	movss  xmm0,DWORD PTR [rcx+r14*4+0x0]
    2c5a:	00 00 00 
    2c5d:	4c 01 fe             	add    rsi,r15
    2c60:	f3 0f 58 84 d9 00 00 	addss  xmm0,DWORD PTR [rcx+rbx*8+0x0]
    2c67:	00 00 
    2c69:	f3 42 0f 11 84 91 00 	movss  DWORD PTR [rcx+r10*4+0x0],xmm0
    2c70:	00 00 00 
    2c73:	48 01 d8             	add    rax,rbx
    2c76:	f3 42 0f 10 84 b9 00 	movss  xmm0,DWORD PTR [rcx+r15*4+0x0]
    2c7d:	00 00 00 
    2c80:	4a 8d 3c 3e          	lea    rdi,[rsi+r15*1]
    2c84:	f3 0f 58 04 9e       	addss  xmm0,DWORD PTR [rsi+rbx*4]
    2c89:	f3 42 0f 11 84 b1 00 	movss  DWORD PTR [rcx+r14*4+0x0],xmm0
    2c90:	00 00 00 
    2c93:	48 01 d8             	add    rax,rbx
    2c96:	f3 42 0f 10 84 a1 00 	movss  xmm0,DWORD PTR [rcx+r12*4+0x0]
    2c9d:	00 00 00 
    2ca0:	4c 01 ff             	add    rdi,r15
    2ca3:	f3 0f 58 04 de       	addss  xmm0,DWORD PTR [rsi+rbx*8]
    2ca8:	f3 42 0f 11 84 b9 00 	movss  DWORD PTR [rcx+r15*4+0x0],xmm0
    2caf:	00 00 00 
    2cb2:	f3 42 0f 10 84 a9 00 	movss  xmm0,DWORD PTR [rcx+r13*4+0x0]
    2cb9:	00 00 00 
    2cbc:	f3 0f 58 04 9f       	addss  xmm0,DWORD PTR [rdi+rbx*4]
    2cc1:	48 01 d8             	add    rax,rbx
    2cc4:	4c 01 ff             	add    rdi,r15
    2cc7:	f3 42 0f 11 84 a1 00 	movss  DWORD PTR [rcx+r12*4+0x0],xmm0
    2cce:	00 00 00 
    2cd1:	48 01 d8             	add    rax,rbx
    2cd4:	f3 0f 10 84 a9 00 00 	movss  xmm0,DWORD PTR [rcx+rbp*4+0x0]
    2cdb:	00 00 
    2cdd:	f3 0f 58 04 9f       	addss  xmm0,DWORD PTR [rdi+rbx*4]
    2ce2:	4c 01 ff             	add    rdi,r15
    2ce5:	f3 42 0f 11 84 a9 00 	movss  DWORD PTR [rcx+r13*4+0x0],xmm0
    2cec:	00 00 00 
    2cef:	f3 42 0f 10 84 89 00 	movss  xmm0,DWORD PTR [rcx+r9*4+0x0]
    2cf6:	00 00 00 
    2cf9:	f3 0f 58 04 9f       	addss  xmm0,DWORD PTR [rdi+rbx*4]
    2cfe:	48 01 d8             	add    rax,rbx
    2d01:	f3 0f 11 84 a9 00 00 	movss  DWORD PTR [rcx+rbp*4+0x0],xmm0
    2d08:	00 00 
    2d0a:	4c 01 c1             	add    rcx,r8
    2d0d:	83 c2 f8             	add    edx,0xfffffff8
    2d10:	0f 85 f4 fe ff ff    	jne    2c0a <s175+0xb4>
    2d16:	83 3c 24 00          	cmp    DWORD PTR [rsp],0x0
    2d1a:	74 30                	je     2d4c <s175+0x1f6>
    2d1c:	48 8b 4c 24 18       	mov    rcx,QWORD PTR [rsp+0x18]
    2d21:	48 8d 0c 81          	lea    rcx,[rcx+rax*4]
    2d25:	48 c1 e0 02          	shl    rax,0x2
    2d29:	31 d2                	xor    edx,edx
    2d2b:	8b 34 24             	mov    esi,DWORD PTR [rsp]
    2d2e:	f3 0f 10 04 11       	movss  xmm0,DWORD PTR [rcx+rdx*1]
    2d33:	f3 0f 58 84 10 00 00 	addss  xmm0,DWORD PTR [rax+rdx*1+0x0]
    2d3a:	00 00 
    2d3c:	f3 0f 11 84 10 00 00 	movss  DWORD PTR [rax+rdx*1+0x0],xmm0
    2d43:	00 00 
    2d45:	4c 01 fa             	add    rdx,r15
    2d48:	ff ce                	dec    esi
    2d4a:	75 e2                	jne    2d2e <s175+0x1d8>
    2d4c:	bf 00 00 00 00       	mov    edi,0x0
    2d51:	be 00 00 00 00       	mov    esi,0x0
    2d56:	ba 00 00 00 00       	mov    edx,0x0
    2d5b:	b9 00 00 00 00       	mov    ecx,0x0
    2d60:	41 b8 00 00 00 00    	mov    r8d,0x0
    2d66:	41 b9 00 00 00 00    	mov    r9d,0x0
    2d6c:	0f 57 c0             	xorps  xmm0,xmm0
    2d6f:	68 00 00 00 00       	push   0x0
    2d74:	68 00 00 00 00       	push   0x0
    2d79:	e8 00 00 00 00       	call   2d7e <s175+0x228>
    2d7e:	48 83 c4 10          	add    rsp,0x10
    2d82:	48 8b 44 24 08       	mov    rax,QWORD PTR [rsp+0x8]
    2d87:	ff c0                	inc    eax
    2d89:	48 89 44 24 08       	mov    QWORD PTR [rsp+0x8],rax
    2d8e:	3d a0 86 01 00       	cmp    eax,0x186a0
    2d93:	4c 8b 44 24 30       	mov    r8,QWORD PTR [rsp+0x30]
    2d98:	4c 8b 4c 24 28       	mov    r9,QWORD PTR [rsp+0x28]
    2d9d:	4c 8b 54 24 20       	mov    r10,QWORD PTR [rsp+0x20]
    2da2:	0f 85 4b fe ff ff    	jne    2bf3 <s175+0x9d>
    2da8:	48 8b 7c 24 10       	mov    rdi,QWORD PTR [rsp+0x10]
    2dad:	48 83 c7 10          	add    rdi,0x10
    2db1:	31 f6                	xor    esi,esi
    2db3:	e8 00 00 00 00       	call   2db8 <s175+0x262>
    2db8:	bf 00 00 00 00       	mov    edi,0x0
    2dbd:	48 83 c4 38          	add    rsp,0x38
    2dc1:	5b                   	pop    rbx
    2dc2:	41 5c                	pop    r12
    2dc4:	41 5d                	pop    r13
    2dc6:	41 5e                	pop    r14
    2dc8:	41 5f                	pop    r15
    2dca:	5d                   	pop    rbp
    2dcb:	e9 00 00 00 00       	jmp    2dd0 <s176>

0000000000002dd0 <s176>:
    2dd0:	41 57                	push   r15
    2dd2:	41 56                	push   r14
    2dd4:	53                   	push   rbx
    2dd5:	49 89 fe             	mov    r14,rdi
    2dd8:	bf 00 00 00 00       	mov    edi,0x0
    2ddd:	e8 00 00 00 00       	call   2de2 <s176+0x12>
    2de2:	45 31 ff             	xor    r15d,r15d
    2de5:	4c 89 f7             	mov    rdi,r14
    2de8:	31 f6                	xor    esi,esi
    2dea:	e8 00 00 00 00       	call   2def <s176+0x1f>
    2def:	31 c0                	xor    eax,eax
    2df1:	b9 7f 3e 00 00       	mov    ecx,0x3e7f
    2df6:	48 29 c1             	sub    rcx,rax
    2df9:	f3 0f 10 04 85 00 00 	movss  xmm0,DWORD PTR [rax*4+0x0]
    2e00:	00 00 
    2e02:	31 d2                	xor    edx,edx
    2e04:	31 f6                	xor    esi,esi
    2e06:	48 89 d7             	mov    rdi,rdx
    2e09:	48 09 f7             	or     rdi,rsi
    2e0c:	48 8d 1c 39          	lea    rbx,[rcx+rdi*1]
    2e10:	f3 0f 10 0c 9d 00 00 	movss  xmm1,DWORD PTR [rbx*4+0x0]
    2e17:	00 00 
    2e19:	f3 0f 59 c8          	mulss  xmm1,xmm0
    2e1d:	f3 0f 58 0c bd 00 00 	addss  xmm1,DWORD PTR [rdi*4+0x0]
    2e24:	00 00 
    2e26:	f3 0f 11 0c bd 00 00 	movss  DWORD PTR [rdi*4+0x0],xmm1
    2e2d:	00 00 
    2e2f:	48 ff c6             	inc    rsi
    2e32:	48 83 fe 08          	cmp    rsi,0x8
    2e36:	75 ce                	jne    2e06 <s176+0x36>
    2e38:	48 83 c2 08          	add    rdx,0x8
    2e3c:	48 81 fa 80 3e 00 00 	cmp    rdx,0x3e80
    2e43:	75 bf                	jne    2e04 <s176+0x34>
    2e45:	48 ff c0             	inc    rax
    2e48:	48 3d 80 3e 00 00    	cmp    rax,0x3e80
    2e4e:	75 a1                	jne    2df1 <s176+0x21>
    2e50:	bf 00 00 00 00       	mov    edi,0x0
    2e55:	be 00 00 00 00       	mov    esi,0x0
    2e5a:	ba 00 00 00 00       	mov    edx,0x0
    2e5f:	b9 00 00 00 00       	mov    ecx,0x0
    2e64:	41 b8 00 00 00 00    	mov    r8d,0x0
    2e6a:	41 b9 00 00 00 00    	mov    r9d,0x0
    2e70:	0f 57 c0             	xorps  xmm0,xmm0
    2e73:	68 00 00 00 00       	push   0x0
    2e78:	68 00 00 00 00       	push   0x0
    2e7d:	e8 00 00 00 00       	call   2e82 <s176+0xb2>
    2e82:	48 83 c4 10          	add    rsp,0x10
    2e86:	41 ff c7             	inc    r15d
    2e89:	41 83 ff 0c          	cmp    r15d,0xc
    2e8d:	0f 85 5c ff ff ff    	jne    2def <s176+0x1f>
    2e93:	49 83 c6 10          	add    r14,0x10
    2e97:	4c 89 f7             	mov    rdi,r14
    2e9a:	31 f6                	xor    esi,esi
    2e9c:	e8 00 00 00 00       	call   2ea1 <s176+0xd1>
    2ea1:	bf 00 00 00 00       	mov    edi,0x0
    2ea6:	5b                   	pop    rbx
    2ea7:	41 5e                	pop    r14
    2ea9:	41 5f                	pop    r15
    2eab:	e9 00 00 00 00       	jmp    2eb0 <s211>

0000000000002eb0 <s211>:
    2eb0:	41 56                	push   r14
    2eb2:	53                   	push   rbx
    2eb3:	50                   	push   rax
    2eb4:	49 89 fe             	mov    r14,rdi
    2eb7:	bf 00 00 00 00       	mov    edi,0x0
    2ebc:	e8 00 00 00 00       	call   2ec1 <s211+0x11>
    2ec1:	31 db                	xor    ebx,ebx
    2ec3:	4c 89 f7             	mov    rdi,r14
    2ec6:	31 f6                	xor    esi,esi
    2ec8:	e8 00 00 00 00       	call   2ecd <s211+0x1d>
    2ecd:	f3 0f 10 05 00 00 00 	movss  xmm0,DWORD PTR [rip+0x0]        # 2ed5 <s211+0x25>
    2ed4:	00 
    2ed5:	31 c0                	xor    eax,eax
    2ed7:	f3 0f 10 88 00 00 00 	movss  xmm1,DWORD PTR [rax+0x0]
    2ede:	00 
    2edf:	f3 0f 10 90 00 00 00 	movss  xmm2,DWORD PTR [rax+0x0]
    2ee6:	00 
    2ee7:	f3 0f 59 d1          	mulss  xmm2,xmm1
    2eeb:	f3 0f 58 d0          	addss  xmm2,xmm0
    2eef:	f3 0f 11 90 00 00 00 	movss  DWORD PTR [rax+0x0],xmm2
    2ef6:	00 
    2ef7:	f3 0f 10 80 00 00 00 	movss  xmm0,DWORD PTR [rax+0x0]
    2efe:	00 
    2eff:	f3 0f 59 88 00 00 00 	mulss  xmm1,DWORD PTR [rax+0x0]
    2f06:	00 
    2f07:	f3 0f 5c c1          	subss  xmm0,xmm1
    2f0b:	f3 0f 11 80 00 00 00 	movss  DWORD PTR [rax+0x0],xmm0
    2f12:	00 
    2f13:	f3 0f 10 88 00 00 00 	movss  xmm1,DWORD PTR [rax+0x0]
    2f1a:	00 
    2f1b:	f3 0f 10 90 00 00 00 	movss  xmm2,DWORD PTR [rax+0x0]
    2f22:	00 
    2f23:	f3 0f 59 d1          	mulss  xmm2,xmm1
    2f27:	f3 0f 58 d0          	addss  xmm2,xmm0
    2f2b:	f3 0f 11 90 00 00 00 	movss  DWORD PTR [rax+0x0],xmm2
    2f32:	00 
    2f33:	f3 0f 59 88 00 00 00 	mulss  xmm1,DWORD PTR [rax+0x0]
    2f3a:	00 
    2f3b:	f3 0f 10 80 00 00 00 	movss  xmm0,DWORD PTR [rax+0x0]
    2f42:	00 
    2f43:	f3 0f 5c c1          	subss  xmm0,xmm1
    2f47:	f3 0f 11 80 00 00 00 	movss  DWORD PTR [rax+0x0],xmm0
    2f4e:	00 
    2f4f:	f3 0f 10 88 00 00 00 	movss  xmm1,DWORD PTR [rax+0x0]
    2f56:	00 
    2f57:	f3 0f 10 90 00 00 00 	movss  xmm2,DWORD PTR [rax+0x0]
    2f5e:	00 
    2f5f:	f3 0f 59 d1          	mulss  xmm2,xmm1
    2f63:	f3 0f 58 d0          	addss  xmm2,xmm0
    2f67:	f3 0f 11 90 00 00 00 	movss  DWORD PTR [rax+0x0],xmm2
    2f6e:	00 
    2f6f:	f3 0f 10 80 00 00 00 	movss  xmm0,DWORD PTR [rax+0x0]
    2f76:	00 
    2f77:	f3 0f 59 88 00 00 00 	mulss  xmm1,DWORD PTR [rax+0x0]
    2f7e:	00 
    2f7f:	f3 0f 5c c1          	subss  xmm0,xmm1
    2f83:	f3 0f 11 80 00 00 00 	movss  DWORD PTR [rax+0x0],xmm0
    2f8a:	00 
    2f8b:	f3 0f 10 88 00 00 00 	movss  xmm1,DWORD PTR [rax+0x0]
    2f92:	00 
    2f93:	f3 0f 10 90 00 00 00 	movss  xmm2,DWORD PTR [rax+0x0]
    2f9a:	00 
    2f9b:	f3 0f 59 d1          	mulss  xmm2,xmm1
    2f9f:	f3 0f 58 d0          	addss  xmm2,xmm0
    2fa3:	f3 0f 11 90 00 00 00 	movss  DWORD PTR [rax+0x0],xmm2
    2faa:	00 
    2fab:	f3 0f 59 88 00 00 00 	mulss  xmm1,DWORD PTR [rax+0x0]
    2fb2:	00 
    2fb3:	f3 0f 10 80 00 00 00 	movss  xmm0,DWORD PTR [rax+0x0]
    2fba:	00 
    2fbb:	f3 0f 5c c1          	subss  xmm0,xmm1
    2fbf:	f3 0f 11 80 00 00 00 	movss  DWORD PTR [rax+0x0],xmm0
    2fc6:	00 
    2fc7:	f3 0f 10 88 00 00 00 	movss  xmm1,DWORD PTR [rax+0x0]
    2fce:	00 
    2fcf:	f3 0f 10 90 00 00 00 	movss  xmm2,DWORD PTR [rax+0x0]
    2fd6:	00 
    2fd7:	f3 0f 59 d1          	mulss  xmm2,xmm1
    2fdb:	f3 0f 58 d0          	addss  xmm2,xmm0
    2fdf:	f3 0f 11 90 00 00 00 	movss  DWORD PTR [rax+0x0],xmm2
    2fe6:	00 
    2fe7:	f3 0f 10 80 00 00 00 	movss  xmm0,DWORD PTR [rax+0x0]
    2fee:	00 
    2fef:	f3 0f 59 88 00 00 00 	mulss  xmm1,DWORD PTR [rax+0x0]
    2ff6:	00 
    2ff7:	f3 0f 5c c1          	subss  xmm0,xmm1
    2ffb:	f3 0f 11 80 00 00 00 	movss  DWORD PTR [rax+0x0],xmm0
    3002:	00 
    3003:	f3 0f 10 88 00 00 00 	movss  xmm1,DWORD PTR [rax+0x0]
    300a:	00 
    300b:	f3 0f 10 90 00 00 00 	movss  xmm2,DWORD PTR [rax+0x0]
    3012:	00 
    3013:	f3 0f 59 d1          	mulss  xmm2,xmm1
    3017:	f3 0f 58 d0          	addss  xmm2,xmm0
    301b:	f3 0f 11 90 00 00 00 	movss  DWORD PTR [rax+0x0],xmm2
    3022:	00 
    3023:	f3 0f 59 88 00 00 00 	mulss  xmm1,DWORD PTR [rax+0x0]
    302a:	00 
    302b:	f3 0f 10 80 00 00 00 	movss  xmm0,DWORD PTR [rax+0x0]
    3032:	00 
    3033:	f3 0f 5c c1          	subss  xmm0,xmm1
    3037:	f3 0f 11 80 00 00 00 	movss  DWORD PTR [rax+0x0],xmm0
    303e:	00 
    303f:	48 3d e0 f3 01 00    	cmp    rax,0x1f3e0
    3045:	0f 84 81 00 00 00    	je     30cc <s211+0x21c>
    304b:	f3 0f 10 88 00 00 00 	movss  xmm1,DWORD PTR [rax+0x0]
    3052:	00 
    3053:	f3 0f 10 90 00 00 00 	movss  xmm2,DWORD PTR [rax+0x0]
    305a:	00 
    305b:	f3 0f 59 d1          	mulss  xmm2,xmm1
    305f:	f3 0f 58 c2          	addss  xmm0,xmm2
    3063:	f3 0f 11 80 00 00 00 	movss  DWORD PTR [rax+0x0],xmm0
    306a:	00 
    306b:	f3 0f 10 80 00 00 00 	movss  xmm0,DWORD PTR [rax+0x0]
    3072:	00 
    3073:	f3 0f 59 88 00 00 00 	mulss  xmm1,DWORD PTR [rax+0x0]
    307a:	00 
    307b:	f3 0f 5c c1          	subss  xmm0,xmm1
    307f:	f3 0f 11 80 00 00 00 	movss  DWORD PTR [rax+0x0],xmm0
    3086:	00 
    3087:	f3 0f 10 88 00 00 00 	movss  xmm1,DWORD PTR [rax+0x0]
    308e:	00 
    308f:	f3 0f 10 90 00 00 00 	movss  xmm2,DWORD PTR [rax+0x0]
    3096:	00 
    3097:	f3 0f 59 d1          	mulss  xmm2,xmm1
    309b:	f3 0f 58 d0          	addss  xmm2,xmm0
    309f:	f3 0f 11 90 00 00 00 	movss  DWORD PTR [rax+0x0],xmm2
    30a6:	00 
    30a7:	f3 0f 59 88 00 00 00 	mulss  xmm1,DWORD PTR [rax+0x0]
    30ae:	00 
    30af:	f3 0f 10 80 00 00 00 	movss  xmm0,DWORD PTR [rax+0x0]
    30b6:	00 
    30b7:	f3 0f 5c c1          	subss  xmm0,xmm1
    30bb:	f3 0f 11 80 00 00 00 	movss  DWORD PTR [rax+0x0],xmm0
    30c2:	00 
    30c3:	48 83 c0 20          	add    rax,0x20
    30c7:	e9 0b fe ff ff       	jmp    2ed7 <s211+0x27>
    30cc:	bf 00 00 00 00       	mov    edi,0x0
    30d1:	be 00 00 00 00       	mov    esi,0x0
    30d6:	ba 00 00 00 00       	mov    edx,0x0
    30db:	b9 00 00 00 00       	mov    ecx,0x0
    30e0:	41 b8 00 00 00 00    	mov    r8d,0x0
    30e6:	41 b9 00 00 00 00    	mov    r9d,0x0
    30ec:	0f 57 c0             	xorps  xmm0,xmm0
    30ef:	68 00 00 00 00       	push   0x0
    30f4:	68 00 00 00 00       	push   0x0
    30f9:	e8 00 00 00 00       	call   30fe <s211+0x24e>
    30fe:	48 83 c4 10          	add    rsp,0x10
    3102:	ff c3                	inc    ebx
    3104:	81 fb a0 86 01 00    	cmp    ebx,0x186a0
    310a:	0f 85 bd fd ff ff    	jne    2ecd <s211+0x1d>
    3110:	49 83 c6 10          	add    r14,0x10
    3114:	4c 89 f7             	mov    rdi,r14
    3117:	31 f6                	xor    esi,esi
    3119:	e8 00 00 00 00       	call   311e <s211+0x26e>
    311e:	bf 00 00 00 00       	mov    edi,0x0
    3123:	48 83 c4 08          	add    rsp,0x8
    3127:	5b                   	pop    rbx
    3128:	41 5e                	pop    r14
    312a:	e9 00 00 00 00       	jmp    312f <s212>

000000000000312f <s212>:
    312f:	41 56                	push   r14
    3131:	53                   	push   rbx
    3132:	50                   	push   rax
    3133:	49 89 fe             	mov    r14,rdi
    3136:	bf 00 00 00 00       	mov    edi,0x0
    313b:	e8 00 00 00 00       	call   3140 <s212+0x11>
    3140:	31 db                	xor    ebx,ebx
    3142:	4c 89 f7             	mov    rdi,r14
    3145:	31 f6                	xor    esi,esi
    3147:	e8 00 00 00 00       	call   314c <s212+0x1d>
    314c:	48 c7 c0 20 0c fe ff 	mov    rax,0xfffffffffffe0c20
    3153:	f3 0f 10 05 00 00 00 	movss  xmm0,DWORD PTR [rip+0x0]        # 315b <s212+0x2c>
    315a:	00 
    315b:	f3 0f 59 80 00 00 00 	mulss  xmm0,DWORD PTR [rax+0x0]
    3162:	00 
    3163:	f3 0f 11 80 00 00 00 	movss  DWORD PTR [rax+0x0],xmm0
    316a:	00 
    316b:	f3 0f 10 80 00 00 00 	movss  xmm0,DWORD PTR [rax+0x0]
    3172:	00 
    3173:	f3 0f 10 88 00 00 00 	movss  xmm1,DWORD PTR [rax+0x0]
    317a:	00 
    317b:	f3 0f 59 c8          	mulss  xmm1,xmm0
    317f:	f3 0f 58 88 00 00 00 	addss  xmm1,DWORD PTR [rax+0x0]
    3186:	00 
    3187:	f3 0f 59 80 00 00 00 	mulss  xmm0,DWORD PTR [rax+0x0]
    318e:	00 
    318f:	f3 0f 11 88 00 00 00 	movss  DWORD PTR [rax+0x0],xmm1
    3196:	00 
    3197:	f3 0f 11 80 00 00 00 	movss  DWORD PTR [rax+0x0],xmm0
    319e:	00 
    319f:	f3 0f 10 80 00 00 00 	movss  xmm0,DWORD PTR [rax+0x0]
    31a6:	00 
    31a7:	f3 0f 10 88 00 00 00 	movss  xmm1,DWORD PTR [rax+0x0]
    31ae:	00 
    31af:	f3 0f 59 c8          	mulss  xmm1,xmm0
    31b3:	f3 0f 58 88 00 00 00 	addss  xmm1,DWORD PTR [rax+0x0]
    31ba:	00 
    31bb:	f3 0f 11 88 00 00 00 	movss  DWORD PTR [rax+0x0],xmm1
    31c2:	00 
    31c3:	f3 0f 59 80 00 00 00 	mulss  xmm0,DWORD PTR [rax+0x0]
    31ca:	00 
    31cb:	f3 0f 11 80 00 00 00 	movss  DWORD PTR [rax+0x0],xmm0
    31d2:	00 
    31d3:	f3 0f 10 80 00 00 00 	movss  xmm0,DWORD PTR [rax+0x0]
    31da:	00 
    31db:	f3 0f 10 88 00 00 00 	movss  xmm1,DWORD PTR [rax+0x0]
    31e2:	00 
    31e3:	f3 0f 59 c8          	mulss  xmm1,xmm0
    31e7:	f3 0f 58 88 00 00 00 	addss  xmm1,DWORD PTR [rax+0x0]
    31ee:	00 
    31ef:	f3 0f 11 88 00 00 00 	movss  DWORD PTR [rax+0x0],xmm1
    31f6:	00 
    31f7:	f3 0f 59 80 00 00 00 	mulss  xmm0,DWORD PTR [rax+0x0]
    31fe:	00 
    31ff:	f3 0f 11 80 00 00 00 	movss  DWORD PTR [rax+0x0],xmm0
    3206:	00 
    3207:	f3 0f 10 80 00 00 00 	movss  xmm0,DWORD PTR [rax+0x0]
    320e:	00 
    320f:	f3 0f 10 88 00 00 00 	movss  xmm1,DWORD PTR [rax+0x0]
    3216:	00 
    3217:	f3 0f 59 c8          	mulss  xmm1,xmm0
    321b:	f3 0f 58 88 00 00 00 	addss  xmm1,DWORD PTR [rax+0x0]
    3222:	00 
    3223:	f3 0f 59 80 00 00 00 	mulss  xmm0,DWORD PTR [rax+0x0]
    322a:	00 
    322b:	f3 0f 11 88 00 00 00 	movss  DWORD PTR [rax+0x0],xmm1
    3232:	00 
    3233:	f3 0f 11 80 00 00 00 	movss  DWORD PTR [rax+0x0],xmm0
    323a:	00 
    323b:	f3 0f 10 80 00 00 00 	movss  xmm0,DWORD PTR [rax+0x0]
    3242:	00 
    3243:	f3 0f 10 88 00 00 00 	movss  xmm1,DWORD PTR [rax+0x0]
    324a:	00 
    324b:	f3 0f 59 c8          	mulss  xmm1,xmm0
    324f:	f3 0f 58 88 00 00 00 	addss  xmm1,DWORD PTR [rax+0x0]
    3256:	00 
    3257:	f3 0f 11 88 00 00 00 	movss  DWORD PTR [rax+0x0],xmm1
    325e:	00 
    325f:	f3 0f 59 80 00 00 00 	mulss  xmm0,DWORD PTR [rax+0x0]
    3266:	00 
    3267:	f3 0f 11 80 00 00 00 	movss  DWORD PTR [rax+0x0],xmm0
    326e:	00 
    326f:	f3 0f 10 80 00 00 00 	movss  xmm0,DWORD PTR [rax+0x0]
    3276:	00 
    3277:	f3 0f 10 88 00 00 00 	movss  xmm1,DWORD PTR [rax+0x0]
    327e:	00 
    327f:	f3 0f 59 c8          	mulss  xmm1,xmm0
    3283:	f3 0f 58 88 00 00 00 	addss  xmm1,DWORD PTR [rax+0x0]
    328a:	00 
    328b:	f3 0f 11 88 00 00 00 	movss  DWORD PTR [rax+0x0],xmm1
    3292:	00 
    3293:	f3 0f 59 80 00 00 00 	mulss  xmm0,DWORD PTR [rax+0x0]
    329a:	00 
    329b:	f3 0f 11 80 00 00 00 	movss  DWORD PTR [rax+0x0],xmm0
    32a2:	00 
    32a3:	f3 0f 10 80 00 00 00 	movss  xmm0,DWORD PTR [rax+0x0]
    32aa:	00 
    32ab:	f3 0f 10 88 00 00 00 	movss  xmm1,DWORD PTR [rax+0x0]
    32b2:	00 
    32b3:	f3 0f 59 c8          	mulss  xmm1,xmm0
    32b7:	f3 0f 58 88 00 00 00 	addss  xmm1,DWORD PTR [rax+0x0]
    32be:	00 
    32bf:	f3 0f 11 88 00 00 00 	movss  DWORD PTR [rax+0x0],xmm1
    32c6:	00 
    32c7:	48 85 c0             	test   rax,rax
    32ca:	74 3d                	je     3309 <s212+0x1da>
    32cc:	f3 0f 59 80 00 00 00 	mulss  xmm0,DWORD PTR [rax+0x0]
    32d3:	00 
    32d4:	f3 0f 11 80 00 00 00 	movss  DWORD PTR [rax+0x0],xmm0
    32db:	00 
    32dc:	f3 0f 10 80 00 00 00 	movss  xmm0,DWORD PTR [rax+0x0]
    32e3:	00 
    32e4:	f3 0f 10 88 00 00 00 	movss  xmm1,DWORD PTR [rax+0x0]
    32eb:	00 
    32ec:	f3 0f 59 c8          	mulss  xmm1,xmm0
    32f0:	f3 0f 58 88 00 00 00 	addss  xmm1,DWORD PTR [rax+0x0]
    32f7:	00 
    32f8:	f3 0f 11 88 00 00 00 	movss  DWORD PTR [rax+0x0],xmm1
    32ff:	00 
    3300:	48 83 c0 20          	add    rax,0x20
    3304:	e9 52 fe ff ff       	jmp    315b <s212+0x2c>
    3309:	bf 00 00 00 00       	mov    edi,0x0
    330e:	be 00 00 00 00       	mov    esi,0x0
    3313:	ba 00 00 00 00       	mov    edx,0x0
    3318:	b9 00 00 00 00       	mov    ecx,0x0
    331d:	41 b8 00 00 00 00    	mov    r8d,0x0
    3323:	41 b9 00 00 00 00    	mov    r9d,0x0
    3329:	0f 57 c0             	xorps  xmm0,xmm0
    332c:	68 00 00 00 00       	push   0x0
    3331:	68 00 00 00 00       	push   0x0
    3336:	e8 00 00 00 00       	call   333b <s212+0x20c>
    333b:	48 83 c4 10          	add    rsp,0x10
    333f:	ff c3                	inc    ebx
    3341:	81 fb a0 86 01 00    	cmp    ebx,0x186a0
    3347:	0f 85 ff fd ff ff    	jne    314c <s212+0x1d>
    334d:	49 83 c6 10          	add    r14,0x10
    3351:	4c 89 f7             	mov    rdi,r14
    3354:	31 f6                	xor    esi,esi
    3356:	e8 00 00 00 00       	call   335b <s212+0x22c>
    335b:	bf 00 00 00 00       	mov    edi,0x0
    3360:	48 83 c4 08          	add    rsp,0x8
    3364:	5b                   	pop    rbx
    3365:	41 5e                	pop    r14
    3367:	e9 00 00 00 00       	jmp    336c <s1213>

000000000000336c <s1213>:
    336c:	41 56                	push   r14
    336e:	53                   	push   rbx
    336f:	50                   	push   rax
    3370:	49 89 fe             	mov    r14,rdi
    3373:	bf 00 00 00 00       	mov    edi,0x0
    3378:	e8 00 00 00 00       	call   337d <s1213+0x11>
    337d:	31 db                	xor    ebx,ebx
    337f:	4c 89 f7             	mov    rdi,r14
    3382:	31 f6                	xor    esi,esi
    3384:	e8 00 00 00 00       	call   3389 <s1213+0x1d>
    3389:	f3 0f 10 05 00 00 00 	movss  xmm0,DWORD PTR [rip+0x0]        # 3391 <s1213+0x25>
    3390:	00 
    3391:	31 c0                	xor    eax,eax
    3393:	f3 0f 58 80 00 00 00 	addss  xmm0,DWORD PTR [rax+0x0]
    339a:	00 
    339b:	f3 0f 11 80 00 00 00 	movss  DWORD PTR [rax+0x0],xmm0
    33a2:	00 
    33a3:	f3 0f 10 80 00 00 00 	movss  xmm0,DWORD PTR [rax+0x0]
    33aa:	00 
    33ab:	f3 0f 59 80 00 00 00 	mulss  xmm0,DWORD PTR [rax+0x0]
    33b2:	00 
    33b3:	f3 0f 11 80 00 00 00 	movss  DWORD PTR [rax+0x0],xmm0
    33ba:	00 
    33bb:	f3 0f 58 80 00 00 00 	addss  xmm0,DWORD PTR [rax+0x0]
    33c2:	00 
    33c3:	f3 0f 11 80 00 00 00 	movss  DWORD PTR [rax+0x0],xmm0
    33ca:	00 
    33cb:	f3 0f 10 80 00 00 00 	movss  xmm0,DWORD PTR [rax+0x0]
    33d2:	00 
    33d3:	f3 0f 59 80 00 00 00 	mulss  xmm0,DWORD PTR [rax+0x0]
    33da:	00 
    33db:	f3 0f 11 80 00 00 00 	movss  DWORD PTR [rax+0x0],xmm0
    33e2:	00 
    33e3:	f3 0f 58 80 00 00 00 	addss  xmm0,DWORD PTR [rax+0x0]
    33ea:	00 
    33eb:	f3 0f 11 80 00 00 00 	movss  DWORD PTR [rax+0x0],xmm0
    33f2:	00 
    33f3:	f3 0f 10 80 00 00 00 	movss  xmm0,DWORD PTR [rax+0x0]
    33fa:	00 
    33fb:	f3 0f 59 80 00 00 00 	mulss  xmm0,DWORD PTR [rax+0x0]
    3402:	00 
    3403:	f3 0f 11 80 00 00 00 	movss  DWORD PTR [rax+0x0],xmm0
    340a:	00 
    340b:	f3 0f 58 80 00 00 00 	addss  xmm0,DWORD PTR [rax+0x0]
    3412:	00 
    3413:	f3 0f 11 80 00 00 00 	movss  DWORD PTR [rax+0x0],xmm0
    341a:	00 
    341b:	f3 0f 10 80 00 00 00 	movss  xmm0,DWORD PTR [rax+0x0]
    3422:	00 
    3423:	f3 0f 59 80 00 00 00 	mulss  xmm0,DWORD PTR [rax+0x0]
    342a:	00 
    342b:	f3 0f 11 80 00 00 00 	movss  DWORD PTR [rax+0x0],xmm0
    3432:	00 
    3433:	f3 0f 58 80 00 00 00 	addss  xmm0,DWORD PTR [rax+0x0]
    343a:	00 
    343b:	f3 0f 11 80 00 00 00 	movss  DWORD PTR [rax+0x0],xmm0
    3442:	00 
    3443:	f3 0f 10 80 00 00 00 	movss  xmm0,DWORD PTR [rax+0x0]
    344a:	00 
    344b:	f3 0f 59 80 00 00 00 	mulss  xmm0,DWORD PTR [rax+0x0]
    3452:	00 
    3453:	f3 0f 11 80 00 00 00 	movss  DWORD PTR [rax+0x0],xmm0
    345a:	00 
    345b:	f3 0f 58 80 00 00 00 	addss  xmm0,DWORD PTR [rax+0x0]
    3462:	00 
    3463:	f3 0f 11 80 00 00 00 	movss  DWORD PTR [rax+0x0],xmm0
    346a:	00 
    346b:	f3 0f 10 80 00 00 00 	movss  xmm0,DWORD PTR [rax+0x0]
    3472:	00 
    3473:	f3 0f 59 80 00 00 00 	mulss  xmm0,DWORD PTR [rax+0x0]
    347a:	00 
    347b:	f3 0f 11 80 00 00 00 	movss  DWORD PTR [rax+0x0],xmm0
    3482:	00 
    3483:	48 3d e0 f3 01 00    	cmp    rax,0x1f3e0
    3489:	74 59                	je     34e4 <s1213+0x178>
    348b:	f3 0f 58 80 00 00 00 	addss  xmm0,DWORD PTR [rax+0x0]
    3492:	00 
    3493:	f3 0f 11 80 00 00 00 	movss  DWORD PTR [rax+0x0],xmm0
    349a:	00 
    349b:	f3 0f 10 80 00 00 00 	movss  xmm0,DWORD PTR [rax+0x0]
    34a2:	00 
    34a3:	f3 0f 59 80 00 00 00 	mulss  xmm0,DWORD PTR [rax+0x0]
    34aa:	00 
    34ab:	f3 0f 11 80 00 00 00 	movss  DWORD PTR [rax+0x0],xmm0
    34b2:	00 
    34b3:	f3 0f 58 80 00 00 00 	addss  xmm0,DWORD PTR [rax+0x0]
    34ba:	00 
    34bb:	f3 0f 11 80 00 00 00 	movss  DWORD PTR [rax+0x0],xmm0
    34c2:	00 
    34c3:	f3 0f 10 80 00 00 00 	movss  xmm0,DWORD PTR [rax+0x0]
    34ca:	00 
    34cb:	f3 0f 59 80 00 00 00 	mulss  xmm0,DWORD PTR [rax+0x0]
    34d2:	00 
    34d3:	f3 0f 11 80 00 00 00 	movss  DWORD PTR [rax+0x0],xmm0
    34da:	00 
    34db:	48 83 c0 20          	add    rax,0x20
    34df:	e9 af fe ff ff       	jmp    3393 <s1213+0x27>
    34e4:	bf 00 00 00 00       	mov    edi,0x0
    34e9:	be 00 00 00 00       	mov    esi,0x0
    34ee:	ba 00 00 00 00       	mov    edx,0x0
    34f3:	b9 00 00 00 00       	mov    ecx,0x0
    34f8:	41 b8 00 00 00 00    	mov    r8d,0x0
    34fe:	41 b9 00 00 00 00    	mov    r9d,0x0
    3504:	0f 57 c0             	xorps  xmm0,xmm0
    3507:	68 00 00 00 00       	push   0x0
    350c:	68 00 00 00 00       	push   0x0
    3511:	e8 00 00 00 00       	call   3516 <s1213+0x1aa>
    3516:	48 83 c4 10          	add    rsp,0x10
    351a:	ff c3                	inc    ebx
    351c:	81 fb a0 86 01 00    	cmp    ebx,0x186a0
    3522:	0f 85 61 fe ff ff    	jne    3389 <s1213+0x1d>
    3528:	49 83 c6 10          	add    r14,0x10
    352c:	4c 89 f7             	mov    rdi,r14
    352f:	31 f6                	xor    esi,esi
    3531:	e8 00 00 00 00       	call   3536 <s1213+0x1ca>
    3536:	bf 00 00 00 00       	mov    edi,0x0
    353b:	48 83 c4 08          	add    rsp,0x8
    353f:	5b                   	pop    rbx
    3540:	41 5e                	pop    r14
    3542:	e9 00 00 00 00       	jmp    3547 <s221>

0000000000003547 <s221>:
    3547:	41 56                	push   r14
    3549:	53                   	push   rbx
    354a:	48 83 ec 28          	sub    rsp,0x28
    354e:	49 89 fe             	mov    r14,rdi
    3551:	bf 00 00 00 00       	mov    edi,0x0
    3556:	e8 00 00 00 00       	call   355b <s221+0x14>
    355b:	31 db                	xor    ebx,ebx
    355d:	4c 89 f7             	mov    rdi,r14
    3560:	31 f6                	xor    esi,esi
    3562:	e8 00 00 00 00       	call   3567 <s221+0x20>
    3567:	b8 01 00 00 00       	mov    eax,0x1
    356c:	f3 0f 10 05 00 00 00 	movss  xmm0,DWORD PTR [rip+0x0]        # 3574 <s221+0x2d>
    3573:	00 
    3574:	31 c9                	xor    ecx,ecx
    3576:	31 d2                	xor    edx,edx
    3578:	f3 0f 10 8c 11 00 00 	movss  xmm1,DWORD PTR [rcx+rdx*1+0x0]
    357f:	00 00 
    3581:	f3 0f 10 94 11 00 00 	movss  xmm2,DWORD PTR [rcx+rdx*1+0x0]
    3588:	00 00 
    358a:	f3 0f 59 d1          	mulss  xmm2,xmm1
    358e:	f3 0f 58 94 11 00 00 	addss  xmm2,DWORD PTR [rcx+rdx*1+0x0]
    3595:	00 00 
    3597:	f3 0f 11 94 11 00 00 	movss  DWORD PTR [rcx+rdx*1+0x0],xmm2
    359e:	00 00 
    35a0:	f3 0f 58 d0          	addss  xmm2,xmm0
    35a4:	f3 0f 58 d1          	addss  xmm2,xmm1
    35a8:	f3 0f 11 54 14 0c    	movss  DWORD PTR [rsp+rdx*1+0xc],xmm2
    35ae:	f3 0f 11 94 11 00 00 	movss  DWORD PTR [rcx+rdx*1+0x0],xmm2
    35b5:	00 00 
    35b7:	48 83 c2 04          	add    rdx,0x4
    35bb:	0f 28 c2             	movaps xmm0,xmm2
    35be:	48 83 fa 1c          	cmp    rdx,0x1c
    35c2:	75 b4                	jne    3578 <s221+0x31>
    35c4:	48 3d f9 7c 00 00    	cmp    rax,0x7cf9
    35ca:	74 4c                	je     3618 <s221+0xd1>
    35cc:	f3 0f 10 0c 85 00 00 	movss  xmm1,DWORD PTR [rax*4+0x0]
    35d3:	00 00 
    35d5:	f3 0f 10 14 85 00 00 	movss  xmm2,DWORD PTR [rax*4+0x0]
    35dc:	00 00 
    35de:	f3 0f 59 d1          	mulss  xmm2,xmm1
    35e2:	f3 0f 58 14 85 00 00 	addss  xmm2,DWORD PTR [rax*4+0x0]
    35e9:	00 00 
    35eb:	f3 0f 10 44 24 24    	movss  xmm0,DWORD PTR [rsp+0x24]
    35f1:	f3 0f 58 c2          	addss  xmm0,xmm2
    35f5:	f3 0f 11 14 85 00 00 	movss  DWORD PTR [rax*4+0x0],xmm2
    35fc:	00 00 
    35fe:	f3 0f 58 c1          	addss  xmm0,xmm1
    3602:	f3 0f 11 04 85 00 00 	movss  DWORD PTR [rax*4+0x0],xmm0
    3609:	00 00 
    360b:	48 83 c0 08          	add    rax,0x8
    360f:	48 83 c1 20          	add    rcx,0x20
    3613:	e9 5e ff ff ff       	jmp    3576 <s221+0x2f>
    3618:	bf 00 00 00 00       	mov    edi,0x0
    361d:	be 00 00 00 00       	mov    esi,0x0
    3622:	ba 00 00 00 00       	mov    edx,0x0
    3627:	b9 00 00 00 00       	mov    ecx,0x0
    362c:	41 b8 00 00 00 00    	mov    r8d,0x0
    3632:	41 b9 00 00 00 00    	mov    r9d,0x0
    3638:	0f 57 c0             	xorps  xmm0,xmm0
    363b:	68 00 00 00 00       	push   0x0
    3640:	68 00 00 00 00       	push   0x0
    3645:	e8 00 00 00 00       	call   364a <s221+0x103>
    364a:	48 83 c4 10          	add    rsp,0x10
    364e:	ff c3                	inc    ebx
    3650:	81 fb 50 c3 00 00    	cmp    ebx,0xc350
    3656:	0f 85 0b ff ff ff    	jne    3567 <s221+0x20>
    365c:	49 83 c6 10          	add    r14,0x10
    3660:	4c 89 f7             	mov    rdi,r14
    3663:	31 f6                	xor    esi,esi
    3665:	e8 00 00 00 00       	call   366a <s221+0x123>
    366a:	bf 00 00 00 00       	mov    edi,0x0
    366f:	48 83 c4 28          	add    rsp,0x28
    3673:	5b                   	pop    rbx
    3674:	41 5e                	pop    r14
    3676:	e9 00 00 00 00       	jmp    367b <s1221>

000000000000367b <s1221>:
    367b:	41 56                	push   r14
    367d:	53                   	push   rbx
    367e:	48 83 ec 18          	sub    rsp,0x18
    3682:	49 89 fe             	mov    r14,rdi
    3685:	bf 00 00 00 00       	mov    edi,0x0
    368a:	e8 00 00 00 00       	call   368f <s1221+0x14>
    368f:	31 db                	xor    ebx,ebx
    3691:	4c 89 f7             	mov    rdi,r14
    3694:	31 f6                	xor    esi,esi
    3696:	e8 00 00 00 00       	call   369b <s1221+0x20>
    369b:	b8 04 00 00 00       	mov    eax,0x4
    36a0:	b9 00 00 00 00       	mov    ecx,0x0
    36a5:	31 d2                	xor    edx,edx
    36a7:	f3 0f 10 04 91       	movss  xmm0,DWORD PTR [rcx+rdx*4]
    36ac:	48 89 c6             	mov    rsi,rax
    36af:	48 09 d6             	or     rsi,rdx
    36b2:	f3 0f 58 04 b5 00 00 	addss  xmm0,DWORD PTR [rsi*4+0x0]
    36b9:	00 00 
    36bb:	f3 0f 11 44 94 08    	movss  DWORD PTR [rsp+rdx*4+0x8],xmm0
    36c1:	f3 0f 11 04 b5 00 00 	movss  DWORD PTR [rsi*4+0x0],xmm0
    36c8:	00 00 
    36ca:	48 ff c2             	inc    rdx
    36cd:	48 83 fa 04          	cmp    rdx,0x4
    36d1:	75 d4                	jne    36a7 <s1221+0x2c>
    36d3:	48 3d fc 7c 00 00    	cmp    rax,0x7cfc
    36d9:	0f 84 8d 00 00 00    	je     376c <s1221+0xf1>
    36df:	f3 0f 10 44 24 08    	movss  xmm0,DWORD PTR [rsp+0x8]
    36e5:	f3 0f 58 04 85 00 00 	addss  xmm0,DWORD PTR [rax*4+0x0]
    36ec:	00 00 
    36ee:	f3 0f 11 04 85 00 00 	movss  DWORD PTR [rax*4+0x0],xmm0
    36f5:	00 00 
    36f7:	48 8d 14 85 00 00 00 	lea    rdx,[rax*4+0x0]
    36fe:	00 
    36ff:	48 89 d6             	mov    rsi,rdx
    3702:	48 83 ce 04          	or     rsi,0x4
    3706:	f3 0f 10 86 00 00 00 	movss  xmm0,DWORD PTR [rsi+0x0]
    370d:	00 
    370e:	f3 0f 58 04 85 00 00 	addss  xmm0,DWORD PTR [rax*4+0x0]
    3715:	00 00 
    3717:	f3 0f 11 04 85 00 00 	movss  DWORD PTR [rax*4+0x0],xmm0
    371e:	00 00 
    3720:	48 89 d6             	mov    rsi,rdx
    3723:	48 83 ce 08          	or     rsi,0x8
    3727:	f3 0f 10 86 00 00 00 	movss  xmm0,DWORD PTR [rsi+0x0]
    372e:	00 
    372f:	f3 0f 58 04 85 00 00 	addss  xmm0,DWORD PTR [rax*4+0x0]
    3736:	00 00 
    3738:	f3 0f 11 04 85 00 00 	movss  DWORD PTR [rax*4+0x0],xmm0
    373f:	00 00 
    3741:	48 83 ca 0c          	or     rdx,0xc
    3745:	f3 0f 10 82 00 00 00 	movss  xmm0,DWORD PTR [rdx+0x0]
    374c:	00 
    374d:	f3 0f 58 04 85 00 00 	addss  xmm0,DWORD PTR [rax*4+0x0]
    3754:	00 00 
    3756:	f3 0f 11 04 85 00 00 	movss  DWORD PTR [rax*4+0x0],xmm0
    375d:	00 00 
    375f:	48 83 c0 08          	add    rax,0x8
    3763:	48 83 c1 20          	add    rcx,0x20
    3767:	e9 39 ff ff ff       	jmp    36a5 <s1221+0x2a>
    376c:	bf 00 00 00 00       	mov    edi,0x0
    3771:	be 00 00 00 00       	mov    esi,0x0
    3776:	ba 00 00 00 00       	mov    edx,0x0
    377b:	b9 00 00 00 00       	mov    ecx,0x0
    3780:	41 b8 00 00 00 00    	mov    r8d,0x0
    3786:	41 b9 00 00 00 00    	mov    r9d,0x0
    378c:	0f 57 c0             	xorps  xmm0,xmm0
    378f:	68 00 00 00 00       	push   0x0
    3794:	68 00 00 00 00       	push   0x0
    3799:	e8 00 00 00 00       	call   379e <s1221+0x123>
    379e:	48 83 c4 10          	add    rsp,0x10
    37a2:	ff c3                	inc    ebx
    37a4:	81 fb a0 86 01 00    	cmp    ebx,0x186a0
    37aa:	0f 85 eb fe ff ff    	jne    369b <s1221+0x20>
    37b0:	49 83 c6 10          	add    r14,0x10
    37b4:	4c 89 f7             	mov    rdi,r14
    37b7:	31 f6                	xor    esi,esi
    37b9:	e8 00 00 00 00       	call   37be <s1221+0x143>
    37be:	bf 00 00 00 00       	mov    edi,0x0
    37c3:	48 83 c4 18          	add    rsp,0x18
    37c7:	5b                   	pop    rbx
    37c8:	41 5e                	pop    r14
    37ca:	e9 00 00 00 00       	jmp    37cf <s222>

00000000000037cf <s222>:
    37cf:	41 56                	push   r14
    37d1:	53                   	push   rbx
    37d2:	48 83 ec 28          	sub    rsp,0x28
    37d6:	49 89 fe             	mov    r14,rdi
    37d9:	bf 00 00 00 00       	mov    edi,0x0
    37de:	e8 00 00 00 00       	call   37e3 <s222+0x14>
    37e3:	31 db                	xor    ebx,ebx
    37e5:	4c 89 f7             	mov    rdi,r14
    37e8:	31 f6                	xor    esi,esi
    37ea:	e8 00 00 00 00       	call   37ef <s222+0x20>
    37ef:	b8 01 00 00 00       	mov    eax,0x1
    37f4:	f3 0f 10 05 00 00 00 	movss  xmm0,DWORD PTR [rip+0x0]        # 37fc <s222+0x2d>
    37fb:	00 
    37fc:	31 c9                	xor    ecx,ecx
    37fe:	31 d2                	xor    edx,edx
    3800:	f3 0f 10 8c 11 00 00 	movss  xmm1,DWORD PTR [rcx+rdx*1+0x0]
    3807:	00 00 
    3809:	f3 0f 59 8c 11 00 00 	mulss  xmm1,DWORD PTR [rcx+rdx*1+0x0]
    3810:	00 00 
    3812:	f3 0f 10 94 11 00 00 	movss  xmm2,DWORD PTR [rcx+rdx*1+0x0]
    3819:	00 00 
    381b:	f3 0f 58 d1          	addss  xmm2,xmm1
    381f:	f3 0f 59 c0          	mulss  xmm0,xmm0
    3823:	f3 0f 11 44 14 0c    	movss  DWORD PTR [rsp+rdx*1+0xc],xmm0
    3829:	f3 0f 11 84 11 00 00 	movss  DWORD PTR [rcx+rdx*1+0x0],xmm0
    3830:	00 00 
    3832:	f3 0f 5c d1          	subss  xmm2,xmm1
    3836:	f3 0f 11 94 11 00 00 	movss  DWORD PTR [rcx+rdx*1+0x0],xmm2
    383d:	00 00 
    383f:	48 83 c2 04          	add    rdx,0x4
    3843:	48 83 fa 1c          	cmp    rdx,0x1c
    3847:	75 b7                	jne    3800 <s222+0x31>
    3849:	48 3d f9 7c 00 00    	cmp    rax,0x7cf9
    384f:	74 4c                	je     389d <s222+0xce>
    3851:	f3 0f 10 44 24 24    	movss  xmm0,DWORD PTR [rsp+0x24]
    3857:	f3 0f 10 0c 85 00 00 	movss  xmm1,DWORD PTR [rax*4+0x0]
    385e:	00 00 
    3860:	f3 0f 59 0c 85 00 00 	mulss  xmm1,DWORD PTR [rax*4+0x0]
    3867:	00 00 
    3869:	f3 0f 10 14 85 00 00 	movss  xmm2,DWORD PTR [rax*4+0x0]
    3870:	00 00 
    3872:	f3 0f 58 d1          	addss  xmm2,xmm1
    3876:	f3 0f 59 c0          	mulss  xmm0,xmm0
    387a:	f3 0f 11 04 85 00 00 	movss  DWORD PTR [rax*4+0x0],xmm0
    3881:	00 00 
    3883:	f3 0f 5c d1          	subss  xmm2,xmm1
    3887:	f3 0f 11 14 85 00 00 	movss  DWORD PTR [rax*4+0x0],xmm2
    388e:	00 00 
    3890:	48 83 c0 08          	add    rax,0x8
    3894:	48 83 c1 20          	add    rcx,0x20
    3898:	e9 61 ff ff ff       	jmp    37fe <s222+0x2f>
    389d:	bf 00 00 00 00       	mov    edi,0x0
    38a2:	be 00 00 00 00       	mov    esi,0x0
    38a7:	ba 00 00 00 00       	mov    edx,0x0
    38ac:	b9 00 00 00 00       	mov    ecx,0x0
    38b1:	41 b8 00 00 00 00    	mov    r8d,0x0
    38b7:	41 b9 00 00 00 00    	mov    r9d,0x0
    38bd:	0f 57 c0             	xorps  xmm0,xmm0
    38c0:	68 00 00 00 00       	push   0x0
    38c5:	68 00 00 00 00       	push   0x0
    38ca:	e8 00 00 00 00       	call   38cf <s222+0x100>
    38cf:	48 83 c4 10          	add    rsp,0x10
    38d3:	ff c3                	inc    ebx
    38d5:	81 fb 50 c3 00 00    	cmp    ebx,0xc350
    38db:	0f 85 0e ff ff ff    	jne    37ef <s222+0x20>
    38e1:	49 83 c6 10          	add    r14,0x10
    38e5:	4c 89 f7             	mov    rdi,r14
    38e8:	31 f6                	xor    esi,esi
    38ea:	e8 00 00 00 00       	call   38ef <s222+0x120>
    38ef:	bf 00 00 00 00       	mov    edi,0x0
    38f4:	48 83 c4 28          	add    rsp,0x28
    38f8:	5b                   	pop    rbx
    38f9:	41 5e                	pop    r14
    38fb:	e9 00 00 00 00       	jmp    3900 <s231>

0000000000003900 <s231>:
    3900:	41 57                	push   r15
    3902:	41 56                	push   r14
    3904:	53                   	push   rbx
    3905:	48 83 ec 20          	sub    rsp,0x20
    3909:	49 89 fe             	mov    r14,rdi
    390c:	bf 00 00 00 00       	mov    edi,0x0
    3911:	e8 00 00 00 00       	call   3916 <s231+0x16>
    3916:	45 31 ff             	xor    r15d,r15d
    3919:	4c 89 f7             	mov    rdi,r14
    391c:	31 f6                	xor    esi,esi
    391e:	e8 00 00 00 00       	call   3923 <s231+0x23>
    3923:	31 c0                	xor    eax,eax
    3925:	31 c9                	xor    ecx,ecx
    3927:	f3 0f 10 04 8d 00 00 	movss  xmm0,DWORD PTR [rcx*4+0x0]
    392e:	00 00 
    3930:	ba 01 00 00 00       	mov    edx,0x1
    3935:	48 89 c6             	mov    rsi,rax
    3938:	48 89 f7             	mov    rdi,rsi
    393b:	31 db                	xor    ebx,ebx
    393d:	f3 0f 58 87 00 00 00 	addss  xmm0,DWORD PTR [rdi+0x0]
    3944:	00 
    3945:	f3 0f 11 44 9c 04    	movss  DWORD PTR [rsp+rbx*4+0x4],xmm0
    394b:	f3 0f 11 87 00 00 00 	movss  DWORD PTR [rdi+0x0],xmm0
    3952:	00 
    3953:	48 ff c3             	inc    rbx
    3956:	48 81 c7 00 04 00 00 	add    rdi,0x400
    395d:	48 83 fb 07          	cmp    rbx,0x7
    3961:	75 da                	jne    393d <s231+0x3d>
    3963:	48 8d 7a 07          	lea    rdi,[rdx+0x7]
    3967:	48 81 ff 00 01 00 00 	cmp    rdi,0x100
    396e:	74 29                	je     3999 <s231+0x99>
    3970:	f3 0f 10 44 24 1c    	movss  xmm0,DWORD PTR [rsp+0x1c]
    3976:	48 c1 e7 0a          	shl    rdi,0xa
    397a:	f3 0f 58 84 8f 00 00 	addss  xmm0,DWORD PTR [rdi+rcx*4+0x0]
    3981:	00 00 
    3983:	f3 0f 11 84 8f 00 00 	movss  DWORD PTR [rdi+rcx*4+0x0],xmm0
    398a:	00 00 
    398c:	48 83 c2 08          	add    rdx,0x8
    3990:	48 81 c6 00 20 00 00 	add    rsi,0x2000
    3997:	eb 9f                	jmp    3938 <s231+0x38>
    3999:	48 ff c1             	inc    rcx
    399c:	48 83 c0 04          	add    rax,0x4
    39a0:	48 81 f9 00 01 00 00 	cmp    rcx,0x100
    39a7:	0f 85 7a ff ff ff    	jne    3927 <s231+0x27>
    39ad:	bf 00 00 00 00       	mov    edi,0x0
    39b2:	be 00 00 00 00       	mov    esi,0x0
    39b7:	ba 00 00 00 00       	mov    edx,0x0
    39bc:	b9 00 00 00 00       	mov    ecx,0x0
    39c1:	41 b8 00 00 00 00    	mov    r8d,0x0
    39c7:	41 b9 00 00 00 00    	mov    r9d,0x0
    39cd:	0f 57 c0             	xorps  xmm0,xmm0
    39d0:	68 00 00 00 00       	push   0x0
    39d5:	68 00 00 00 00       	push   0x0
    39da:	e8 00 00 00 00       	call   39df <s231+0xdf>
    39df:	48 83 c4 10          	add    rsp,0x10
    39e3:	41 ff c7             	inc    r15d
    39e6:	41 81 ff 58 98 00 00 	cmp    r15d,0x9858
    39ed:	0f 85 30 ff ff ff    	jne    3923 <s231+0x23>
    39f3:	49 83 c6 10          	add    r14,0x10
    39f7:	4c 89 f7             	mov    rdi,r14
    39fa:	31 f6                	xor    esi,esi
    39fc:	e8 00 00 00 00       	call   3a01 <s231+0x101>
    3a01:	bf 00 00 00 00       	mov    edi,0x0
    3a06:	48 83 c4 20          	add    rsp,0x20
    3a0a:	5b                   	pop    rbx
    3a0b:	41 5e                	pop    r14
    3a0d:	41 5f                	pop    r15
    3a0f:	e9 00 00 00 00       	jmp    3a14 <s232>

0000000000003a14 <s232>:
    3a14:	41 56                	push   r14
    3a16:	53                   	push   rbx
    3a17:	50                   	push   rax
    3a18:	49 89 fe             	mov    r14,rdi
    3a1b:	bf 00 00 00 00       	mov    edi,0x0
    3a20:	e8 00 00 00 00       	call   3a25 <s232+0x11>
    3a25:	31 db                	xor    ebx,ebx
    3a27:	4c 89 f7             	mov    rdi,r14
    3a2a:	31 f6                	xor    esi,esi
    3a2c:	e8 00 00 00 00       	call   3a31 <s232+0x1d>
    3a31:	b8 01 00 00 00       	mov    eax,0x1
    3a36:	31 c9                	xor    ecx,ecx
    3a38:	48 89 c2             	mov    rdx,rax
    3a3b:	48 c1 e2 0a          	shl    rdx,0xa
    3a3f:	f3 0f 10 82 00 00 00 	movss  xmm0,DWORD PTR [rdx+0x0]
    3a46:	00 
    3a47:	31 d2                	xor    edx,edx
    3a49:	f3 0f 59 c0          	mulss  xmm0,xmm0
    3a4d:	f3 0f 58 84 91 00 00 	addss  xmm0,DWORD PTR [rcx+rdx*4+0x0]
    3a54:	00 00 
    3a56:	f3 0f 11 84 91 00 00 	movss  DWORD PTR [rcx+rdx*4+0x0],xmm0
    3a5d:	00 00 
    3a5f:	48 ff c2             	inc    rdx
    3a62:	48 39 d0             	cmp    rax,rdx
    3a65:	75 e2                	jne    3a49 <s232+0x35>
    3a67:	48 ff c0             	inc    rax
    3a6a:	48 81 c1 00 04 00 00 	add    rcx,0x400
    3a71:	48 3d 00 01 00 00    	cmp    rax,0x100
    3a77:	75 bf                	jne    3a38 <s232+0x24>
    3a79:	bf 00 00 00 00       	mov    edi,0x0
    3a7e:	be 00 00 00 00       	mov    esi,0x0
    3a83:	ba 00 00 00 00       	mov    edx,0x0
    3a88:	b9 00 00 00 00       	mov    ecx,0x0
    3a8d:	41 b8 00 00 00 00    	mov    r8d,0x0
    3a93:	41 b9 00 00 00 00    	mov    r9d,0x0
    3a99:	f3 0f 10 05 00 00 00 	movss  xmm0,DWORD PTR [rip+0x0]        # 3aa1 <s232+0x8d>
    3aa0:	00 
    3aa1:	68 00 00 00 00       	push   0x0
    3aa6:	68 00 00 00 00       	push   0x0
    3aab:	e8 00 00 00 00       	call   3ab0 <s232+0x9c>
    3ab0:	48 83 c4 10          	add    rsp,0x10
    3ab4:	ff c3                	inc    ebx
    3ab6:	81 fb 58 98 00 00    	cmp    ebx,0x9858
    3abc:	0f 85 6f ff ff ff    	jne    3a31 <s232+0x1d>
    3ac2:	49 83 c6 10          	add    r14,0x10
    3ac6:	4c 89 f7             	mov    rdi,r14
    3ac9:	31 f6                	xor    esi,esi
    3acb:	e8 00 00 00 00       	call   3ad0 <s232+0xbc>
    3ad0:	bf 00 00 00 00       	mov    edi,0x0
    3ad5:	48 83 c4 08          	add    rsp,0x8
    3ad9:	5b                   	pop    rbx
    3ada:	41 5e                	pop    r14
    3adc:	e9 00 00 00 00       	jmp    3ae1 <s1232>

0000000000003ae1 <s1232>:
    3ae1:	41 57                	push   r15
    3ae3:	41 56                	push   r14
    3ae5:	53                   	push   rbx
    3ae6:	49 89 fe             	mov    r14,rdi
    3ae9:	bf 00 00 00 00       	mov    edi,0x0
    3aee:	e8 00 00 00 00       	call   3af3 <s1232+0x12>
    3af3:	45 31 ff             	xor    r15d,r15d
    3af6:	4c 89 f7             	mov    rdi,r14
    3af9:	31 f6                	xor    esi,esi
    3afb:	e8 00 00 00 00       	call   3b00 <s1232+0x1f>
    3b00:	45 31 c0             	xor    r8d,r8d
    3b03:	31 c9                	xor    ecx,ecx
    3b05:	31 c0                	xor    eax,eax
    3b07:	31 db                	xor    ebx,ebx
    3b09:	89 da                	mov    edx,ebx
    3b0b:	f7 da                	neg    edx
    3b0d:	48 89 de             	mov    rsi,rbx
    3b10:	f6 c2 07             	test   dl,0x7
    3b13:	74 39                	je     3b4e <s1232+0x6d>
    3b15:	0f b6 f1             	movzx  esi,cl
    3b18:	83 e6 07             	and    esi,0x7
    3b1b:	f7 de                	neg    esi
    3b1d:	48 89 c2             	mov    rdx,rax
    3b20:	31 ff                	xor    edi,edi
    3b22:	f3 0f 10 82 00 00 00 	movss  xmm0,DWORD PTR [rdx+0x0]
    3b29:	00 
    3b2a:	f3 0f 58 82 00 00 00 	addss  xmm0,DWORD PTR [rdx+0x0]
    3b31:	00 
    3b32:	f3 0f 11 82 00 00 00 	movss  DWORD PTR [rdx+0x0],xmm0
    3b39:	00 
    3b3a:	48 ff cf             	dec    rdi
    3b3d:	48 81 c2 00 04 00 00 	add    rdx,0x400
    3b44:	39 fe                	cmp    esi,edi
    3b46:	75 da                	jne    3b22 <s1232+0x41>
    3b48:	48 89 de             	mov    rsi,rbx
    3b4b:	48 29 fe             	sub    rsi,rdi
    3b4e:	48 81 fb f8 00 00 00 	cmp    rbx,0xf8
    3b55:	77 49                	ja     3ba0 <s1232+0xbf>
    3b57:	48 89 f7             	mov    rdi,rsi
    3b5a:	48 c1 e7 0a          	shl    rdi,0xa
    3b5e:	4c 01 c7             	add    rdi,r8
    3b61:	48 c7 c2 00 e0 ff ff 	mov    rdx,0xffffffffffffe000
    3b68:	f3 0f 10 84 17 00 00 	movss  xmm0,DWORD PTR [rdi+rdx*1+0x0]
    3b6f:	00 00 
    3b71:	f3 0f 58 84 17 00 00 	addss  xmm0,DWORD PTR [rdi+rdx*1+0x0]
    3b78:	00 00 
    3b7a:	f3 0f 11 84 17 00 00 	movss  DWORD PTR [rdi+rdx*1+0x0],xmm0
    3b81:	00 00 
    3b83:	48 81 c2 00 04 00 00 	add    rdx,0x400
    3b8a:	75 dc                	jne    3b68 <s1232+0x87>
    3b8c:	48 83 c6 08          	add    rsi,0x8
    3b90:	48 81 c7 00 20 00 00 	add    rdi,0x2000
    3b97:	48 81 fe 00 01 00 00 	cmp    rsi,0x100
    3b9e:	75 c1                	jne    3b61 <s1232+0x80>
    3ba0:	48 ff c3             	inc    rbx
    3ba3:	48 05 04 04 00 00    	add    rax,0x404
    3ba9:	80 c1 07             	add    cl,0x7
    3bac:	49 83 c0 04          	add    r8,0x4
    3bb0:	48 81 fb 00 01 00 00 	cmp    rbx,0x100
    3bb7:	0f 85 4c ff ff ff    	jne    3b09 <s1232+0x28>
    3bbd:	bf 00 00 00 00       	mov    edi,0x0
    3bc2:	be 00 00 00 00       	mov    esi,0x0
    3bc7:	ba 00 00 00 00       	mov    edx,0x0
    3bcc:	b9 00 00 00 00       	mov    ecx,0x0
    3bd1:	41 b8 00 00 00 00    	mov    r8d,0x0
    3bd7:	41 b9 00 00 00 00    	mov    r9d,0x0
    3bdd:	f3 0f 10 05 00 00 00 	movss  xmm0,DWORD PTR [rip+0x0]        # 3be5 <s1232+0x104>
    3be4:	00 
    3be5:	68 00 00 00 00       	push   0x0
    3bea:	68 00 00 00 00       	push   0x0
    3bef:	e8 00 00 00 00       	call   3bf4 <s1232+0x113>
    3bf4:	48 83 c4 10          	add    rsp,0x10
    3bf8:	41 ff c7             	inc    r15d
    3bfb:	41 81 ff 58 98 00 00 	cmp    r15d,0x9858
    3c02:	0f 85 f8 fe ff ff    	jne    3b00 <s1232+0x1f>
    3c08:	49 83 c6 10          	add    r14,0x10
    3c0c:	4c 89 f7             	mov    rdi,r14
    3c0f:	31 f6                	xor    esi,esi
    3c11:	e8 00 00 00 00       	call   3c16 <s1232+0x135>
    3c16:	bf 00 00 00 00       	mov    edi,0x0
    3c1b:	5b                   	pop    rbx
    3c1c:	41 5e                	pop    r14
    3c1e:	41 5f                	pop    r15
    3c20:	e9 00 00 00 00       	jmp    3c25 <s233>

0000000000003c25 <s233>:
    3c25:	41 57                	push   r15
    3c27:	41 56                	push   r14
    3c29:	53                   	push   rbx
    3c2a:	48 83 ec 20          	sub    rsp,0x20
    3c2e:	49 89 fe             	mov    r14,rdi
    3c31:	bf 00 00 00 00       	mov    edi,0x0
    3c36:	e8 00 00 00 00       	call   3c3b <s233+0x16>
    3c3b:	45 31 ff             	xor    r15d,r15d
    3c3e:	4c 89 f7             	mov    rdi,r14
    3c41:	31 f6                	xor    esi,esi
    3c43:	e8 00 00 00 00       	call   3c48 <s233+0x23>
    3c48:	b8 01 00 00 00       	mov    eax,0x1
    3c4d:	31 c9                	xor    ecx,ecx
    3c4f:	f3 0f 10 04 85 00 00 	movss  xmm0,DWORD PTR [rax*4+0x0]
    3c56:	00 00 
    3c58:	48 89 ca             	mov    rdx,rcx
    3c5b:	be 01 00 00 00       	mov    esi,0x1
    3c60:	48 89 d7             	mov    rdi,rdx
    3c63:	31 db                	xor    ebx,ebx
    3c65:	f3 0f 58 87 00 00 00 	addss  xmm0,DWORD PTR [rdi+0x0]
    3c6c:	00 
    3c6d:	f3 0f 11 44 9c 04    	movss  DWORD PTR [rsp+rbx*4+0x4],xmm0
    3c73:	f3 0f 11 87 00 00 00 	movss  DWORD PTR [rdi+0x0],xmm0
    3c7a:	00 
    3c7b:	48 ff c3             	inc    rbx
    3c7e:	48 81 c7 00 04 00 00 	add    rdi,0x400
    3c85:	48 83 fb 07          	cmp    rbx,0x7
    3c89:	75 da                	jne    3c65 <s233+0x40>
    3c8b:	48 8d 7e 07          	lea    rdi,[rsi+0x7]
    3c8f:	48 81 ff 00 01 00 00 	cmp    rdi,0x100
    3c96:	74 29                	je     3cc1 <s233+0x9c>
    3c98:	f3 0f 10 44 24 1c    	movss  xmm0,DWORD PTR [rsp+0x1c]
    3c9e:	48 c1 e7 0a          	shl    rdi,0xa
    3ca2:	f3 0f 58 84 87 00 00 	addss  xmm0,DWORD PTR [rdi+rax*4+0x0]
    3ca9:	00 00 
    3cab:	f3 0f 11 84 87 00 00 	movss  DWORD PTR [rdi+rax*4+0x0],xmm0
    3cb2:	00 00 
    3cb4:	48 83 c6 08          	add    rsi,0x8
    3cb8:	48 81 c2 00 20 00 00 	add    rdx,0x2000
    3cbf:	eb 9f                	jmp    3c60 <s233+0x3b>
    3cc1:	48 c7 c2 00 20 fc ff 	mov    rdx,0xfffffffffffc2000
    3cc8:	f3 0f 10 84 11 00 00 	movss  xmm0,DWORD PTR [rcx+rdx*1+0x0]
    3ccf:	00 00 
    3cd1:	f3 0f 58 84 11 00 00 	addss  xmm0,DWORD PTR [rcx+rdx*1+0x0]
    3cd8:	00 00 
    3cda:	f3 0f 11 84 11 00 00 	movss  DWORD PTR [rcx+rdx*1+0x0],xmm0
    3ce1:	00 00 
    3ce3:	f3 0f 10 84 11 00 00 	movss  xmm0,DWORD PTR [rcx+rdx*1+0x0]
    3cea:	00 00 
    3cec:	f3 0f 58 84 11 00 00 	addss  xmm0,DWORD PTR [rcx+rdx*1+0x0]
    3cf3:	00 00 
    3cf5:	f3 0f 11 84 11 00 00 	movss  DWORD PTR [rcx+rdx*1+0x0],xmm0
    3cfc:	00 00 
    3cfe:	f3 0f 10 84 11 00 00 	movss  xmm0,DWORD PTR [rcx+rdx*1+0x0]
    3d05:	00 00 
    3d07:	f3 0f 58 84 11 00 00 	addss  xmm0,DWORD PTR [rcx+rdx*1+0x0]
    3d0e:	00 00 
    3d10:	f3 0f 11 84 11 00 00 	movss  DWORD PTR [rcx+rdx*1+0x0],xmm0
    3d17:	00 00 
    3d19:	f3 0f 10 84 11 00 00 	movss  xmm0,DWORD PTR [rcx+rdx*1+0x0]
    3d20:	00 00 
    3d22:	f3 0f 58 84 11 00 00 	addss  xmm0,DWORD PTR [rcx+rdx*1+0x0]
    3d29:	00 00 
    3d2b:	f3 0f 11 84 11 00 00 	movss  DWORD PTR [rcx+rdx*1+0x0],xmm0
    3d32:	00 00 
    3d34:	f3 0f 10 84 11 00 00 	movss  xmm0,DWORD PTR [rcx+rdx*1+0x0]
    3d3b:	00 00 
    3d3d:	f3 0f 58 84 11 00 00 	addss  xmm0,DWORD PTR [rcx+rdx*1+0x0]
    3d44:	00 00 
    3d46:	f3 0f 11 84 11 00 00 	movss  DWORD PTR [rcx+rdx*1+0x0],xmm0
    3d4d:	00 00 
    3d4f:	f3 0f 10 84 11 00 00 	movss  xmm0,DWORD PTR [rcx+rdx*1+0x0]
    3d56:	00 00 
    3d58:	f3 0f 58 84 11 00 00 	addss  xmm0,DWORD PTR [rcx+rdx*1+0x0]
    3d5f:	00 00 
    3d61:	f3 0f 11 84 11 00 00 	movss  DWORD PTR [rcx+rdx*1+0x0],xmm0
    3d68:	00 00 
    3d6a:	f3 0f 10 84 11 00 00 	movss  xmm0,DWORD PTR [rcx+rdx*1+0x0]
    3d71:	00 00 
    3d73:	f3 0f 58 84 11 00 00 	addss  xmm0,DWORD PTR [rcx+rdx*1+0x0]
    3d7a:	00 00 
    3d7c:	f3 0f 11 84 11 00 00 	movss  DWORD PTR [rcx+rdx*1+0x0],xmm0
    3d83:	00 00 
    3d85:	48 85 d2             	test   rdx,rdx
    3d88:	74 27                	je     3db1 <s233+0x18c>
    3d8a:	f3 0f 10 84 11 00 00 	movss  xmm0,DWORD PTR [rcx+rdx*1+0x0]
    3d91:	00 00 
    3d93:	f3 0f 58 84 11 00 00 	addss  xmm0,DWORD PTR [rcx+rdx*1+0x0]
    3d9a:	00 00 
    3d9c:	f3 0f 11 84 11 00 00 	movss  DWORD PTR [rcx+rdx*1+0x0],xmm0
    3da3:	00 00 
    3da5:	48 81 c2 00 20 00 00 	add    rdx,0x2000
    3dac:	e9 17 ff ff ff       	jmp    3cc8 <s233+0xa3>
    3db1:	48 ff c0             	inc    rax
    3db4:	48 83 c1 04          	add    rcx,0x4
    3db8:	48 3d 00 01 00 00    	cmp    rax,0x100
    3dbe:	0f 85 8b fe ff ff    	jne    3c4f <s233+0x2a>
    3dc4:	bf 00 00 00 00       	mov    edi,0x0
    3dc9:	be 00 00 00 00       	mov    esi,0x0
    3dce:	ba 00 00 00 00       	mov    edx,0x0
    3dd3:	b9 00 00 00 00       	mov    ecx,0x0
    3dd8:	41 b8 00 00 00 00    	mov    r8d,0x0
    3dde:	41 b9 00 00 00 00    	mov    r9d,0x0
    3de4:	0f 57 c0             	xorps  xmm0,xmm0
    3de7:	68 00 00 00 00       	push   0x0
    3dec:	68 00 00 00 00       	push   0x0
    3df1:	e8 00 00 00 00       	call   3df6 <s233+0x1d1>
    3df6:	48 83 c4 10          	add    rsp,0x10
    3dfa:	41 ff c7             	inc    r15d
    3dfd:	41 81 ff 58 98 00 00 	cmp    r15d,0x9858
    3e04:	0f 85 3e fe ff ff    	jne    3c48 <s233+0x23>
    3e0a:	49 83 c6 10          	add    r14,0x10
    3e0e:	4c 89 f7             	mov    rdi,r14
    3e11:	31 f6                	xor    esi,esi
    3e13:	e8 00 00 00 00       	call   3e18 <s233+0x1f3>
    3e18:	bf 00 00 00 00       	mov    edi,0x0
    3e1d:	48 83 c4 20          	add    rsp,0x20
    3e21:	5b                   	pop    rbx
    3e22:	41 5e                	pop    r14
    3e24:	41 5f                	pop    r15
    3e26:	e9 00 00 00 00       	jmp    3e2b <s2233>

0000000000003e2b <s2233>:
    3e2b:	41 57                	push   r15
    3e2d:	41 56                	push   r14
    3e2f:	53                   	push   rbx
    3e30:	48 83 ec 20          	sub    rsp,0x20
    3e34:	49 89 fe             	mov    r14,rdi
    3e37:	bf 00 00 00 00       	mov    edi,0x0
    3e3c:	e8 00 00 00 00       	call   3e41 <s2233+0x16>
    3e41:	45 31 ff             	xor    r15d,r15d
    3e44:	4c 89 f7             	mov    rdi,r14
    3e47:	31 f6                	xor    esi,esi
    3e49:	e8 00 00 00 00       	call   3e4e <s2233+0x23>
    3e4e:	b8 01 00 00 00       	mov    eax,0x1
    3e53:	b9 04 04 00 00       	mov    ecx,0x404
    3e58:	45 31 c0             	xor    r8d,r8d
    3e5b:	f3 0f 10 04 85 00 00 	movss  xmm0,DWORD PTR [rax*4+0x0]
    3e62:	00 00 
    3e64:	4c 89 c2             	mov    rdx,r8
    3e67:	bf 01 00 00 00       	mov    edi,0x1
    3e6c:	48 89 d6             	mov    rsi,rdx
    3e6f:	31 db                	xor    ebx,ebx
    3e71:	f3 0f 58 86 00 00 00 	addss  xmm0,DWORD PTR [rsi+0x0]
    3e78:	00 
    3e79:	f3 0f 11 44 9c 04    	movss  DWORD PTR [rsp+rbx*4+0x4],xmm0
    3e7f:	f3 0f 11 86 00 00 00 	movss  DWORD PTR [rsi+0x0],xmm0
    3e86:	00 
    3e87:	48 ff c3             	inc    rbx
    3e8a:	48 81 c6 00 04 00 00 	add    rsi,0x400
    3e91:	48 83 fb 07          	cmp    rbx,0x7
    3e95:	75 da                	jne    3e71 <s2233+0x46>
    3e97:	48 8d 77 07          	lea    rsi,[rdi+0x7]
    3e9b:	48 81 fe 00 01 00 00 	cmp    rsi,0x100
    3ea2:	74 29                	je     3ecd <s2233+0xa2>
    3ea4:	f3 0f 10 44 24 1c    	movss  xmm0,DWORD PTR [rsp+0x1c]
    3eaa:	48 c1 e6 0a          	shl    rsi,0xa
    3eae:	f3 0f 58 84 86 00 00 	addss  xmm0,DWORD PTR [rsi+rax*4+0x0]
    3eb5:	00 00 
    3eb7:	f3 0f 11 84 86 00 00 	movss  DWORD PTR [rsi+rax*4+0x0],xmm0
    3ebe:	00 00 
    3ec0:	48 83 c7 08          	add    rdi,0x8
    3ec4:	48 81 c2 00 20 00 00 	add    rdx,0x2000
    3ecb:	eb 9f                	jmp    3e6c <s2233+0x41>
    3ecd:	48 c7 c6 08 ff ff ff 	mov    rsi,0xffffffffffffff08
    3ed4:	f3 0f 10 84 b1 00 00 	movss  xmm0,DWORD PTR [rcx+rsi*4+0x0]
    3edb:	00 00 
    3edd:	f3 0f 58 84 b1 00 00 	addss  xmm0,DWORD PTR [rcx+rsi*4+0x0]
    3ee4:	00 00 
    3ee6:	f3 0f 11 84 b1 00 00 	movss  DWORD PTR [rcx+rsi*4+0x0],xmm0
    3eed:	00 00 
    3eef:	f3 0f 10 84 b1 00 00 	movss  xmm0,DWORD PTR [rcx+rsi*4+0x0]
    3ef6:	00 00 
    3ef8:	f3 0f 58 84 b1 00 00 	addss  xmm0,DWORD PTR [rcx+rsi*4+0x0]
    3eff:	00 00 
    3f01:	f3 0f 11 84 b1 00 00 	movss  DWORD PTR [rcx+rsi*4+0x0],xmm0
    3f08:	00 00 
    3f0a:	f3 0f 10 84 b1 00 00 	movss  xmm0,DWORD PTR [rcx+rsi*4+0x0]
    3f11:	00 00 
    3f13:	f3 0f 58 84 b1 00 00 	addss  xmm0,DWORD PTR [rcx+rsi*4+0x0]
    3f1a:	00 00 
    3f1c:	f3 0f 11 84 b1 00 00 	movss  DWORD PTR [rcx+rsi*4+0x0],xmm0
    3f23:	00 00 
    3f25:	f3 0f 10 84 b1 00 00 	movss  xmm0,DWORD PTR [rcx+rsi*4+0x0]
    3f2c:	00 00 
    3f2e:	f3 0f 58 84 b1 00 00 	addss  xmm0,DWORD PTR [rcx+rsi*4+0x0]
    3f35:	00 00 
    3f37:	f3 0f 11 84 b1 00 00 	movss  DWORD PTR [rcx+rsi*4+0x0],xmm0
    3f3e:	00 00 
    3f40:	f3 0f 10 84 b1 00 00 	movss  xmm0,DWORD PTR [rcx+rsi*4+0x0]
    3f47:	00 00 
    3f49:	f3 0f 58 84 b1 00 00 	addss  xmm0,DWORD PTR [rcx+rsi*4+0x0]
    3f50:	00 00 
    3f52:	f3 0f 11 84 b1 00 00 	movss  DWORD PTR [rcx+rsi*4+0x0],xmm0
    3f59:	00 00 
    3f5b:	f3 0f 10 84 b1 00 00 	movss  xmm0,DWORD PTR [rcx+rsi*4+0x0]
    3f62:	00 00 
    3f64:	f3 0f 58 84 b1 00 00 	addss  xmm0,DWORD PTR [rcx+rsi*4+0x0]
    3f6b:	00 00 
    3f6d:	f3 0f 11 84 b1 00 00 	movss  DWORD PTR [rcx+rsi*4+0x0],xmm0
    3f74:	00 00 
    3f76:	f3 0f 10 84 b1 00 00 	movss  xmm0,DWORD PTR [rcx+rsi*4+0x0]
    3f7d:	00 00 
    3f7f:	f3 0f 58 84 b1 00 00 	addss  xmm0,DWORD PTR [rcx+rsi*4+0x0]
    3f86:	00 00 
    3f88:	f3 0f 11 84 b1 00 00 	movss  DWORD PTR [rcx+rsi*4+0x0],xmm0
    3f8f:	00 00 
    3f91:	48 85 f6             	test   rsi,rsi
    3f94:	74 24                	je     3fba <s2233+0x18f>
    3f96:	f3 0f 10 84 b1 00 00 	movss  xmm0,DWORD PTR [rcx+rsi*4+0x0]
    3f9d:	00 00 
    3f9f:	f3 0f 58 84 b1 00 00 	addss  xmm0,DWORD PTR [rcx+rsi*4+0x0]
    3fa6:	00 00 
    3fa8:	f3 0f 11 84 b1 00 00 	movss  DWORD PTR [rcx+rsi*4+0x0],xmm0
    3faf:	00 00 
    3fb1:	48 83 c6 08          	add    rsi,0x8
    3fb5:	e9 1a ff ff ff       	jmp    3ed4 <s2233+0xa9>
    3fba:	48 ff c0             	inc    rax
    3fbd:	49 83 c0 04          	add    r8,0x4
    3fc1:	48 81 c1 00 04 00 00 	add    rcx,0x400
    3fc8:	48 3d 00 01 00 00    	cmp    rax,0x100
    3fce:	0f 85 87 fe ff ff    	jne    3e5b <s2233+0x30>
    3fd4:	bf 00 00 00 00       	mov    edi,0x0
    3fd9:	be 00 00 00 00       	mov    esi,0x0
    3fde:	ba 00 00 00 00       	mov    edx,0x0
    3fe3:	b9 00 00 00 00       	mov    ecx,0x0
    3fe8:	41 b8 00 00 00 00    	mov    r8d,0x0
    3fee:	41 b9 00 00 00 00    	mov    r9d,0x0
    3ff4:	0f 57 c0             	xorps  xmm0,xmm0
    3ff7:	68 00 00 00 00       	push   0x0
    3ffc:	68 00 00 00 00       	push   0x0
    4001:	e8 00 00 00 00       	call   4006 <s2233+0x1db>
    4006:	48 83 c4 10          	add    rsp,0x10
    400a:	41 ff c7             	inc    r15d
    400d:	41 81 ff 58 98 00 00 	cmp    r15d,0x9858
    4014:	0f 85 34 fe ff ff    	jne    3e4e <s2233+0x23>
    401a:	49 83 c6 10          	add    r14,0x10
    401e:	4c 89 f7             	mov    rdi,r14
    4021:	31 f6                	xor    esi,esi
    4023:	e8 00 00 00 00       	call   4028 <s2233+0x1fd>
    4028:	bf 00 00 00 00       	mov    edi,0x0
    402d:	48 83 c4 20          	add    rsp,0x20
    4031:	5b                   	pop    rbx
    4032:	41 5e                	pop    r14
    4034:	41 5f                	pop    r15
    4036:	e9 00 00 00 00       	jmp    403b <s235>

000000000000403b <s235>:
    403b:	41 57                	push   r15
    403d:	41 56                	push   r14
    403f:	53                   	push   rbx
    4040:	48 83 ec 20          	sub    rsp,0x20
    4044:	49 89 fe             	mov    r14,rdi
    4047:	bf 00 00 00 00       	mov    edi,0x0
    404c:	e8 00 00 00 00       	call   4051 <s235+0x16>
    4051:	45 31 ff             	xor    r15d,r15d
    4054:	4c 89 f7             	mov    rdi,r14
    4057:	31 f6                	xor    esi,esi
    4059:	e8 00 00 00 00       	call   405e <s235+0x23>
    405e:	31 c0                	xor    eax,eax
    4060:	31 c9                	xor    ecx,ecx
    4062:	f3 0f 10 04 8d 00 00 	movss  xmm0,DWORD PTR [rcx*4+0x0]
    4069:	00 00 
    406b:	f3 0f 59 04 8d 00 00 	mulss  xmm0,DWORD PTR [rcx*4+0x0]
    4072:	00 00 
    4074:	f3 0f 58 04 8d 00 00 	addss  xmm0,DWORD PTR [rcx*4+0x0]
    407b:	00 00 
    407d:	f3 0f 11 04 8d 00 00 	movss  DWORD PTR [rcx*4+0x0],xmm0
    4084:	00 00 
    4086:	f3 0f 10 0c 8d 00 00 	movss  xmm1,DWORD PTR [rcx*4+0x0]
    408d:	00 00 
    408f:	ba 01 00 00 00       	mov    edx,0x1
    4094:	48 89 c6             	mov    rsi,rax
    4097:	48 89 f7             	mov    rdi,rsi
    409a:	31 db                	xor    ebx,ebx
    409c:	f3 0f 10 97 00 00 00 	movss  xmm2,DWORD PTR [rdi+0x0]
    40a3:	00 
    40a4:	f3 0f 59 d0          	mulss  xmm2,xmm0
    40a8:	f3 0f 58 ca          	addss  xmm1,xmm2
    40ac:	f3 0f 11 4c 9c 04    	movss  DWORD PTR [rsp+rbx*4+0x4],xmm1
    40b2:	f3 0f 11 8f 00 00 00 	movss  DWORD PTR [rdi+0x0],xmm1
    40b9:	00 
    40ba:	48 ff c3             	inc    rbx
    40bd:	48 81 c7 00 04 00 00 	add    rdi,0x400
    40c4:	48 83 fb 07          	cmp    rbx,0x7
    40c8:	75 d2                	jne    409c <s235+0x61>
    40ca:	48 8d 7a 07          	lea    rdi,[rdx+0x7]
    40ce:	48 81 ff 00 01 00 00 	cmp    rdi,0x100
    40d5:	74 2d                	je     4104 <s235+0xc9>
    40d7:	48 c1 e7 0a          	shl    rdi,0xa
    40db:	f3 0f 10 8c 8f 00 00 	movss  xmm1,DWORD PTR [rdi+rcx*4+0x0]
    40e2:	00 00 
    40e4:	f3 0f 59 c8          	mulss  xmm1,xmm0
    40e8:	f3 0f 58 4c 24 1c    	addss  xmm1,DWORD PTR [rsp+0x1c]
    40ee:	f3 0f 11 8c 8f 00 00 	movss  DWORD PTR [rdi+rcx*4+0x0],xmm1
    40f5:	00 00 
    40f7:	48 83 c2 08          	add    rdx,0x8
    40fb:	48 81 c6 00 20 00 00 	add    rsi,0x2000
    4102:	eb 93                	jmp    4097 <s235+0x5c>
    4104:	48 ff c1             	inc    rcx
    4107:	48 83 c0 04          	add    rax,0x4
    410b:	48 81 f9 00 01 00 00 	cmp    rcx,0x100
    4112:	0f 85 4a ff ff ff    	jne    4062 <s235+0x27>
    4118:	bf 00 00 00 00       	mov    edi,0x0
    411d:	be 00 00 00 00       	mov    esi,0x0
    4122:	ba 00 00 00 00       	mov    edx,0x0
    4127:	b9 00 00 00 00       	mov    ecx,0x0
    412c:	41 b8 00 00 00 00    	mov    r8d,0x0
    4132:	41 b9 00 00 00 00    	mov    r9d,0x0
    4138:	0f 57 c0             	xorps  xmm0,xmm0
    413b:	68 00 00 00 00       	push   0x0
    4140:	68 00 00 00 00       	push   0x0
    4145:	e8 00 00 00 00       	call   414a <s235+0x10f>
    414a:	48 83 c4 10          	add    rsp,0x10
    414e:	41 ff c7             	inc    r15d
    4151:	41 81 ff b0 30 01 00 	cmp    r15d,0x130b0
    4158:	0f 85 00 ff ff ff    	jne    405e <s235+0x23>
    415e:	49 83 c6 10          	add    r14,0x10
    4162:	4c 89 f7             	mov    rdi,r14
    4165:	31 f6                	xor    esi,esi
    4167:	e8 00 00 00 00       	call   416c <s235+0x131>
    416c:	bf 00 00 00 00       	mov    edi,0x0
    4171:	48 83 c4 20          	add    rsp,0x20
    4175:	5b                   	pop    rbx
    4176:	41 5e                	pop    r14
    4178:	41 5f                	pop    r15
    417a:	e9 00 00 00 00       	jmp    417f <s241>

000000000000417f <s241>:
    417f:	41 56                	push   r14
    4181:	53                   	push   rbx
    4182:	48 83 ec 78          	sub    rsp,0x78
    4186:	49 89 fe             	mov    r14,rdi
    4189:	bf 00 00 00 00       	mov    edi,0x0
    418e:	e8 00 00 00 00       	call   4193 <s241+0x14>
    4193:	31 db                	xor    ebx,ebx
    4195:	4c 89 f7             	mov    rdi,r14
    4198:	31 f6                	xor    esi,esi
    419a:	e8 00 00 00 00       	call   419f <s241+0x20>
    419f:	31 c0                	xor    eax,eax
    41a1:	31 c9                	xor    ecx,ecx
    41a3:	48 89 c2             	mov    rdx,rax
    41a6:	48 09 ca             	or     rdx,rcx
    41a9:	f3 0f 10 04 95 00 00 	movss  xmm0,DWORD PTR [rdx*4+0x0]
    41b0:	00 00 
    41b2:	f3 0f 59 04 95 00 00 	mulss  xmm0,DWORD PTR [rdx*4+0x0]
    41b9:	00 00 
    41bb:	f3 0f 10 0c 95 00 00 	movss  xmm1,DWORD PTR [rdx*4+0x0]
    41c2:	00 00 
    41c4:	f3 0f 59 c1          	mulss  xmm0,xmm1
    41c8:	f3 0f 11 04 95 00 00 	movss  DWORD PTR [rdx*4+0x0],xmm0
    41cf:	00 00 
    41d1:	48 8d 71 01          	lea    rsi,[rcx+0x1]
    41d5:	48 89 f7             	mov    rdi,rsi
    41d8:	48 09 c7             	or     rdi,rax
    41db:	48 89 7c cc 08       	mov    QWORD PTR [rsp+rcx*8+0x8],rdi
    41e0:	48 8d 3c bd 00 00 00 	lea    rdi,[rdi*4+0x0]
    41e7:	00 
    41e8:	f3 0f 59 07          	mulss  xmm0,DWORD PTR [rdi]
    41ec:	48 89 7c cc 40       	mov    QWORD PTR [rsp+rcx*8+0x40],rdi
    41f1:	f3 0f 59 c1          	mulss  xmm0,xmm1
    41f5:	f3 0f 11 04 95 00 00 	movss  DWORD PTR [rdx*4+0x0],xmm0
    41fc:	00 00 
    41fe:	48 89 f1             	mov    rcx,rsi
    4201:	48 83 fe 07          	cmp    rsi,0x7
    4205:	75 9c                	jne    41a3 <s241+0x24>
    4207:	48 8b 4c 24 38       	mov    rcx,QWORD PTR [rsp+0x38]
    420c:	48 81 f9 ff 7c 00 00 	cmp    rcx,0x7cff
    4213:	74 47                	je     425c <s241+0xdd>
    4215:	48 8b 54 24 70       	mov    rdx,QWORD PTR [rsp+0x70]
    421a:	f3 0f 10 04 8d 00 00 	movss  xmm0,DWORD PTR [rcx*4+0x0]
    4221:	00 00 
    4223:	f3 0f 59 04 8d 00 00 	mulss  xmm0,DWORD PTR [rcx*4+0x0]
    422a:	00 00 
    422c:	f3 0f 10 0c 8d 00 00 	movss  xmm1,DWORD PTR [rcx*4+0x0]
    4233:	00 00 
    4235:	f3 0f 59 c1          	mulss  xmm0,xmm1
    4239:	f3 0f 11 02          	movss  DWORD PTR [rdx],xmm0
    423d:	f3 0f 59 04 85 00 00 	mulss  xmm0,DWORD PTR [rax*4+0x0]
    4244:	00 00 
    4246:	48 83 c0 08          	add    rax,0x8
    424a:	f3 0f 59 c1          	mulss  xmm0,xmm1
    424e:	f3 0f 11 04 8d 00 00 	movss  DWORD PTR [rcx*4+0x0],xmm0
    4255:	00 00 
    4257:	e9 45 ff ff ff       	jmp    41a1 <s241+0x22>
    425c:	bf 00 00 00 00       	mov    edi,0x0
    4261:	be 00 00 00 00       	mov    esi,0x0
    4266:	ba 00 00 00 00       	mov    edx,0x0
    426b:	b9 00 00 00 00       	mov    ecx,0x0
    4270:	41 b8 00 00 00 00    	mov    r8d,0x0
    4276:	41 b9 00 00 00 00    	mov    r9d,0x0
    427c:	0f 57 c0             	xorps  xmm0,xmm0
    427f:	68 00 00 00 00       	push   0x0
    4284:	68 00 00 00 00       	push   0x0
    4289:	e8 00 00 00 00       	call   428e <s241+0x10f>
    428e:	48 83 c4 10          	add    rsp,0x10
    4292:	ff c3                	inc    ebx
    4294:	81 fb 40 0d 03 00    	cmp    ebx,0x30d40
    429a:	0f 85 ff fe ff ff    	jne    419f <s241+0x20>
    42a0:	49 83 c6 10          	add    r14,0x10
    42a4:	4c 89 f7             	mov    rdi,r14
    42a7:	31 f6                	xor    esi,esi
    42a9:	e8 00 00 00 00       	call   42ae <s241+0x12f>
    42ae:	bf 00 00 00 00       	mov    edi,0x0
    42b3:	48 83 c4 78          	add    rsp,0x78
    42b7:	5b                   	pop    rbx
    42b8:	41 5e                	pop    r14
    42ba:	e9 00 00 00 00       	jmp    42bf <s242>

00000000000042bf <s242>:
    42bf:	41 56                	push   r14
    42c1:	53                   	push   rbx
    42c2:	48 83 ec 28          	sub    rsp,0x28
    42c6:	49 89 fe             	mov    r14,rdi
    42c9:	48 8b 47 20          	mov    rax,QWORD PTR [rdi+0x20]
    42cd:	f3 0f 10 00          	movss  xmm0,DWORD PTR [rax]
    42d1:	f3 0f 11 44 24 08    	movss  DWORD PTR [rsp+0x8],xmm0
    42d7:	f3 0f 10 40 04       	movss  xmm0,DWORD PTR [rax+0x4]
    42dc:	f3 0f 11 44 24 04    	movss  DWORD PTR [rsp+0x4],xmm0
    42e2:	bf 00 00 00 00       	mov    edi,0x0
    42e7:	e8 00 00 00 00       	call   42ec <s242+0x2d>
    42ec:	31 db                	xor    ebx,ebx
    42ee:	4c 89 f7             	mov    rdi,r14
    42f1:	31 f6                	xor    esi,esi
    42f3:	e8 00 00 00 00       	call   42f8 <s242+0x39>
    42f8:	b8 01 00 00 00       	mov    eax,0x1
    42fd:	f3 0f 10 05 00 00 00 	movss  xmm0,DWORD PTR [rip+0x0]        # 4305 <s242+0x46>
    4304:	00 
    4305:	31 c9                	xor    ecx,ecx
    4307:	f3 0f 10 4c 24 08    	movss  xmm1,DWORD PTR [rsp+0x8]
    430d:	f3 0f 10 54 24 04    	movss  xmm2,DWORD PTR [rsp+0x4]
    4313:	31 d2                	xor    edx,edx
    4315:	f3 0f 58 c1          	addss  xmm0,xmm1
    4319:	f3 0f 58 c2          	addss  xmm0,xmm2
    431d:	f3 0f 58 84 11 00 00 	addss  xmm0,DWORD PTR [rcx+rdx*1+0x0]
    4324:	00 00 
    4326:	f3 0f 58 84 11 00 00 	addss  xmm0,DWORD PTR [rcx+rdx*1+0x0]
    432d:	00 00 
    432f:	f3 0f 58 84 11 00 00 	addss  xmm0,DWORD PTR [rcx+rdx*1+0x0]
    4336:	00 00 
    4338:	f3 0f 11 44 14 0c    	movss  DWORD PTR [rsp+rdx*1+0xc],xmm0
    433e:	f3 0f 11 84 11 00 00 	movss  DWORD PTR [rcx+rdx*1+0x0],xmm0
    4345:	00 00 
    4347:	48 83 c2 04          	add    rdx,0x4
    434b:	48 83 fa 1c          	cmp    rdx,0x1c
    434f:	75 c4                	jne    4315 <s242+0x56>
    4351:	48 3d f9 7c 00 00    	cmp    rax,0x7cf9
    4357:	74 3f                	je     4398 <s242+0xd9>
    4359:	f3 0f 10 44 24 24    	movss  xmm0,DWORD PTR [rsp+0x24]
    435f:	f3 0f 58 c1          	addss  xmm0,xmm1
    4363:	f3 0f 58 c2          	addss  xmm0,xmm2
    4367:	f3 0f 58 04 85 00 00 	addss  xmm0,DWORD PTR [rax*4+0x0]
    436e:	00 00 
    4370:	f3 0f 58 04 85 00 00 	addss  xmm0,DWORD PTR [rax*4+0x0]
    4377:	00 00 
    4379:	f3 0f 58 04 85 00 00 	addss  xmm0,DWORD PTR [rax*4+0x0]
    4380:	00 00 
    4382:	f3 0f 11 04 85 00 00 	movss  DWORD PTR [rax*4+0x0],xmm0
    4389:	00 00 
    438b:	48 83 c0 08          	add    rax,0x8
    438f:	48 83 c1 20          	add    rcx,0x20
    4393:	e9 7b ff ff ff       	jmp    4313 <s242+0x54>
    4398:	bf 00 00 00 00       	mov    edi,0x0
    439d:	be 00 00 00 00       	mov    esi,0x0
    43a2:	ba 00 00 00 00       	mov    edx,0x0
    43a7:	b9 00 00 00 00       	mov    ecx,0x0
    43ac:	41 b8 00 00 00 00    	mov    r8d,0x0
    43b2:	41 b9 00 00 00 00    	mov    r9d,0x0
    43b8:	0f 57 c0             	xorps  xmm0,xmm0
    43bb:	68 00 00 00 00       	push   0x0
    43c0:	68 00 00 00 00       	push   0x0
    43c5:	e8 00 00 00 00       	call   43ca <s242+0x10b>
    43ca:	48 83 c4 10          	add    rsp,0x10
    43ce:	ff c3                	inc    ebx
    43d0:	81 fb 20 4e 00 00    	cmp    ebx,0x4e20
    43d6:	0f 85 1c ff ff ff    	jne    42f8 <s242+0x39>
    43dc:	49 83 c6 10          	add    r14,0x10
    43e0:	4c 89 f7             	mov    rdi,r14
    43e3:	31 f6                	xor    esi,esi
    43e5:	e8 00 00 00 00       	call   43ea <s242+0x12b>
    43ea:	bf 00 00 00 00       	mov    edi,0x0
    43ef:	48 83 c4 28          	add    rsp,0x28
    43f3:	5b                   	pop    rbx
    43f4:	41 5e                	pop    r14
    43f6:	e9 00 00 00 00       	jmp    43fb <s243>

00000000000043fb <s243>:
    43fb:	41 56                	push   r14
    43fd:	53                   	push   rbx
    43fe:	48 83 ec 78          	sub    rsp,0x78
    4402:	49 89 fe             	mov    r14,rdi
    4405:	bf 00 00 00 00       	mov    edi,0x0
    440a:	e8 00 00 00 00       	call   440f <s243+0x14>
    440f:	31 db                	xor    ebx,ebx
    4411:	4c 89 f7             	mov    rdi,r14
    4414:	31 f6                	xor    esi,esi
    4416:	e8 00 00 00 00       	call   441b <s243+0x20>
    441b:	31 c0                	xor    eax,eax
    441d:	31 c9                	xor    ecx,ecx
    441f:	48 89 c2             	mov    rdx,rax
    4422:	48 09 ca             	or     rdx,rcx
    4425:	f3 0f 10 04 95 00 00 	movss  xmm0,DWORD PTR [rdx*4+0x0]
    442c:	00 00 
    442e:	f3 0f 10 0c 95 00 00 	movss  xmm1,DWORD PTR [rdx*4+0x0]
    4435:	00 00 
    4437:	f3 0f 59 c8          	mulss  xmm1,xmm0
    443b:	f3 0f 58 0c 95 00 00 	addss  xmm1,DWORD PTR [rdx*4+0x0]
    4442:	00 00 
    4444:	f3 0f 10 14 95 00 00 	movss  xmm2,DWORD PTR [rdx*4+0x0]
    444b:	00 00 
    444d:	f3 0f 59 d0          	mulss  xmm2,xmm0
    4451:	f3 0f 58 d1          	addss  xmm2,xmm1
    4455:	f3 0f 11 14 95 00 00 	movss  DWORD PTR [rdx*4+0x0],xmm2
    445c:	00 00 
    445e:	48 8d 71 01          	lea    rsi,[rcx+0x1]
    4462:	48 89 f7             	mov    rdi,rsi
    4465:	48 09 c7             	or     rdi,rax
    4468:	48 89 7c cc 08       	mov    QWORD PTR [rsp+rcx*8+0x8],rdi
    446d:	48 8d 3c bd 00 00 00 	lea    rdi,[rdi*4+0x0]
    4474:	00 
    4475:	f3 0f 59 07          	mulss  xmm0,DWORD PTR [rdi]
    4479:	48 89 7c cc 40       	mov    QWORD PTR [rsp+rcx*8+0x40],rdi
    447e:	f3 0f 58 c2          	addss  xmm0,xmm2
    4482:	f3 0f 11 04 95 00 00 	movss  DWORD PTR [rdx*4+0x0],xmm0
    4489:	00 00 
    448b:	48 89 f1             	mov    rcx,rsi
    448e:	48 83 fe 07          	cmp    rsi,0x7
    4492:	75 8b                	jne    441f <s243+0x24>
    4494:	48 8b 4c 24 38       	mov    rcx,QWORD PTR [rsp+0x38]
    4499:	48 81 f9 ff 7c 00 00 	cmp    rcx,0x7cff
    44a0:	74 58                	je     44fa <s243+0xff>
    44a2:	48 8b 54 24 70       	mov    rdx,QWORD PTR [rsp+0x70]
    44a7:	f3 0f 10 04 8d 00 00 	movss  xmm0,DWORD PTR [rcx*4+0x0]
    44ae:	00 00 
    44b0:	f3 0f 10 0c 8d 00 00 	movss  xmm1,DWORD PTR [rcx*4+0x0]
    44b7:	00 00 
    44b9:	f3 0f 59 c8          	mulss  xmm1,xmm0
    44bd:	f3 0f 58 0c 8d 00 00 	addss  xmm1,DWORD PTR [rcx*4+0x0]
    44c4:	00 00 
    44c6:	f3 0f 10 14 8d 00 00 	movss  xmm2,DWORD PTR [rcx*4+0x0]
    44cd:	00 00 
    44cf:	f3 0f 59 d0          	mulss  xmm2,xmm0
    44d3:	f3 0f 58 d1          	addss  xmm2,xmm1
    44d7:	f3 0f 59 04 85 00 00 	mulss  xmm0,DWORD PTR [rax*4+0x0]
    44de:	00 00 
    44e0:	f3 0f 11 14 8d 00 00 	movss  DWORD PTR [rcx*4+0x0],xmm2
    44e7:	00 00 
    44e9:	48 83 c0 08          	add    rax,0x8
    44ed:	f3 0f 58 c2          	addss  xmm0,xmm2
    44f1:	f3 0f 11 02          	movss  DWORD PTR [rdx],xmm0
    44f5:	e9 23 ff ff ff       	jmp    441d <s243+0x22>
    44fa:	bf 00 00 00 00       	mov    edi,0x0
    44ff:	be 00 00 00 00       	mov    esi,0x0
    4504:	ba 00 00 00 00       	mov    edx,0x0
    4509:	b9 00 00 00 00       	mov    ecx,0x0
    450e:	41 b8 00 00 00 00    	mov    r8d,0x0
    4514:	41 b9 00 00 00 00    	mov    r9d,0x0
    451a:	0f 57 c0             	xorps  xmm0,xmm0
    451d:	68 00 00 00 00       	push   0x0
    4522:	68 00 00 00 00       	push   0x0
    4527:	e8 00 00 00 00       	call   452c <s243+0x131>
    452c:	48 83 c4 10          	add    rsp,0x10
    4530:	ff c3                	inc    ebx
    4532:	81 fb a0 86 01 00    	cmp    ebx,0x186a0
    4538:	0f 85 dd fe ff ff    	jne    441b <s243+0x20>
    453e:	49 83 c6 10          	add    r14,0x10
    4542:	4c 89 f7             	mov    rdi,r14
    4545:	31 f6                	xor    esi,esi
    4547:	e8 00 00 00 00       	call   454c <s243+0x151>
    454c:	bf 00 00 00 00       	mov    edi,0x0
    4551:	48 83 c4 78          	add    rsp,0x78
    4555:	5b                   	pop    rbx
    4556:	41 5e                	pop    r14
    4558:	e9 00 00 00 00       	jmp    455d <s244>

000000000000455d <s244>:
    455d:	41 56                	push   r14
    455f:	53                   	push   rbx
    4560:	50                   	push   rax
    4561:	49 89 fe             	mov    r14,rdi
    4564:	bf 00 00 00 00       	mov    edi,0x0
    4569:	e8 00 00 00 00       	call   456e <s244+0x11>
    456e:	31 db                	xor    ebx,ebx
    4570:	4c 89 f7             	mov    rdi,r14
    4573:	31 f6                	xor    esi,esi
    4575:	e8 00 00 00 00       	call   457a <s244+0x1d>
    457a:	48 c7 c0 20 0c fe ff 	mov    rax,0xfffffffffffe0c20
    4581:	f3 0f 10 80 00 00 00 	movss  xmm0,DWORD PTR [rax+0x0]
    4588:	00 
    4589:	f3 0f 10 88 00 00 00 	movss  xmm1,DWORD PTR [rax+0x0]
    4590:	00 
    4591:	f3 0f 10 90 00 00 00 	movss  xmm2,DWORD PTR [rax+0x0]
    4598:	00 
    4599:	f3 0f 59 d1          	mulss  xmm2,xmm1
    459d:	f3 0f 58 d0          	addss  xmm2,xmm0
    45a1:	f3 0f 11 90 00 00 00 	movss  DWORD PTR [rax+0x0],xmm2
    45a8:	00 
    45a9:	f3 0f 58 c1          	addss  xmm0,xmm1
    45ad:	f3 0f 11 80 00 00 00 	movss  DWORD PTR [rax+0x0],xmm0
    45b4:	00 
    45b5:	f3 0f 10 80 00 00 00 	movss  xmm0,DWORD PTR [rax+0x0]
    45bc:	00 
    45bd:	f3 0f 10 88 00 00 00 	movss  xmm1,DWORD PTR [rax+0x0]
    45c4:	00 
    45c5:	f3 0f 10 90 00 00 00 	movss  xmm2,DWORD PTR [rax+0x0]
    45cc:	00 
    45cd:	f3 0f 59 d1          	mulss  xmm2,xmm1
    45d1:	f3 0f 58 d0          	addss  xmm2,xmm0
    45d5:	f3 0f 11 90 00 00 00 	movss  DWORD PTR [rax+0x0],xmm2
    45dc:	00 
    45dd:	f3 0f 58 c1          	addss  xmm0,xmm1
    45e1:	f3 0f 11 80 00 00 00 	movss  DWORD PTR [rax+0x0],xmm0
    45e8:	00 
    45e9:	f3 0f 10 80 00 00 00 	movss  xmm0,DWORD PTR [rax+0x0]
    45f0:	00 
    45f1:	f3 0f 10 88 00 00 00 	movss  xmm1,DWORD PTR [rax+0x0]
    45f8:	00 
    45f9:	f3 0f 10 90 00 00 00 	movss  xmm2,DWORD PTR [rax+0x0]
    4600:	00 
    4601:	f3 0f 59 d1          	mulss  xmm2,xmm1
    4605:	f3 0f 58 d0          	addss  xmm2,xmm0
    4609:	f3 0f 11 90 00 00 00 	movss  DWORD PTR [rax+0x0],xmm2
    4610:	00 
    4611:	f3 0f 58 c1          	addss  xmm0,xmm1
    4615:	f3 0f 11 80 00 00 00 	movss  DWORD PTR [rax+0x0],xmm0
    461c:	00 
    461d:	f3 0f 10 80 00 00 00 	movss  xmm0,DWORD PTR [rax+0x0]
    4624:	00 
    4625:	f3 0f 10 88 00 00 00 	movss  xmm1,DWORD PTR [rax+0x0]
    462c:	00 
    462d:	f3 0f 10 90 00 00 00 	movss  xmm2,DWORD PTR [rax+0x0]
    4634:	00 
    4635:	f3 0f 59 d1          	mulss  xmm2,xmm1
    4639:	f3 0f 58 d0          	addss  xmm2,xmm0
    463d:	f3 0f 11 90 00 00 00 	movss  DWORD PTR [rax+0x0],xmm2
    4644:	00 
    4645:	f3 0f 58 c1          	addss  xmm0,xmm1
    4649:	f3 0f 11 80 00 00 00 	movss  DWORD PTR [rax+0x0],xmm0
    4650:	00 
    4651:	f3 0f 10 80 00 00 00 	movss  xmm0,DWORD PTR [rax+0x0]
    4658:	00 
    4659:	f3 0f 10 88 00 00 00 	movss  xmm1,DWORD PTR [rax+0x0]
    4660:	00 
    4661:	f3 0f 10 90 00 00 00 	movss  xmm2,DWORD PTR [rax+0x0]
    4668:	00 
    4669:	f3 0f 59 d1          	mulss  xmm2,xmm1
    466d:	f3 0f 58 d0          	addss  xmm2,xmm0
    4671:	f3 0f 11 90 00 00 00 	movss  DWORD PTR [rax+0x0],xmm2
    4678:	00 
    4679:	f3 0f 58 c1          	addss  xmm0,xmm1
    467d:	f3 0f 11 80 00 00 00 	movss  DWORD PTR [rax+0x0],xmm0
    4684:	00 
    4685:	f3 0f 10 80 00 00 00 	movss  xmm0,DWORD PTR [rax+0x0]
    468c:	00 
    468d:	f3 0f 10 88 00 00 00 	movss  xmm1,DWORD PTR [rax+0x0]
    4694:	00 
    4695:	f3 0f 10 90 00 00 00 	movss  xmm2,DWORD PTR [rax+0x0]
    469c:	00 
    469d:	f3 0f 59 d1          	mulss  xmm2,xmm1
    46a1:	f3 0f 58 d0          	addss  xmm2,xmm0
    46a5:	f3 0f 11 90 00 00 00 	movss  DWORD PTR [rax+0x0],xmm2
    46ac:	00 
    46ad:	f3 0f 58 c1          	addss  xmm0,xmm1
    46b1:	f3 0f 11 80 00 00 00 	movss  DWORD PTR [rax+0x0],xmm0
    46b8:	00 
    46b9:	f3 0f 10 80 00 00 00 	movss  xmm0,DWORD PTR [rax+0x0]
    46c0:	00 
    46c1:	f3 0f 10 88 00 00 00 	movss  xmm1,DWORD PTR [rax+0x0]
    46c8:	00 
    46c9:	f3 0f 10 90 00 00 00 	movss  xmm2,DWORD PTR [rax+0x0]
    46d0:	00 
    46d1:	0f 28 d9             	movaps xmm3,xmm1
    46d4:	f3 0f 59 da          	mulss  xmm3,xmm2
    46d8:	f3 0f 58 d8          	addss  xmm3,xmm0
    46dc:	f3 0f 11 98 00 00 00 	movss  DWORD PTR [rax+0x0],xmm3
    46e3:	00 
    46e4:	f3 0f 58 c1          	addss  xmm0,xmm1
    46e8:	f3 0f 59 90 00 00 00 	mulss  xmm2,DWORD PTR [rax+0x0]
    46ef:	00 
    46f0:	f3 0f 11 80 00 00 00 	movss  DWORD PTR [rax+0x0],xmm0
    46f7:	00 
    46f8:	f3 0f 58 d0          	addss  xmm2,xmm0
    46fc:	f3 0f 11 90 00 00 00 	movss  DWORD PTR [rax+0x0],xmm2
    4703:	00 
    4704:	48 85 c0             	test   rax,rax
    4707:	74 54                	je     475d <s244+0x200>
    4709:	f3 0f 10 80 00 00 00 	movss  xmm0,DWORD PTR [rax+0x0]
    4710:	00 
    4711:	f3 0f 10 88 00 00 00 	movss  xmm1,DWORD PTR [rax+0x0]
    4718:	00 
    4719:	f3 0f 10 90 00 00 00 	movss  xmm2,DWORD PTR [rax+0x0]
    4720:	00 
    4721:	0f 28 d9             	movaps xmm3,xmm1
    4724:	f3 0f 59 da          	mulss  xmm3,xmm2
    4728:	f3 0f 58 d8          	addss  xmm3,xmm0
    472c:	f3 0f 11 98 00 00 00 	movss  DWORD PTR [rax+0x0],xmm3
    4733:	00 
    4734:	f3 0f 58 c1          	addss  xmm0,xmm1
    4738:	f3 0f 59 90 00 00 00 	mulss  xmm2,DWORD PTR [rax+0x0]
    473f:	00 
    4740:	f3 0f 11 80 00 00 00 	movss  DWORD PTR [rax+0x0],xmm0
    4747:	00 
    4748:	f3 0f 58 d0          	addss  xmm2,xmm0
    474c:	f3 0f 11 90 00 00 00 	movss  DWORD PTR [rax+0x0],xmm2
    4753:	00 
    4754:	48 83 c0 20          	add    rax,0x20
    4758:	e9 24 fe ff ff       	jmp    4581 <s244+0x24>
    475d:	bf 00 00 00 00       	mov    edi,0x0
    4762:	be 00 00 00 00       	mov    esi,0x0
    4767:	ba 00 00 00 00       	mov    edx,0x0
    476c:	b9 00 00 00 00       	mov    ecx,0x0
    4771:	41 b8 00 00 00 00    	mov    r8d,0x0
    4777:	41 b9 00 00 00 00    	mov    r9d,0x0
    477d:	0f 57 c0             	xorps  xmm0,xmm0
    4780:	68 00 00 00 00       	push   0x0
    4785:	68 00 00 00 00       	push   0x0
    478a:	e8 00 00 00 00       	call   478f <s244+0x232>
    478f:	48 83 c4 10          	add    rsp,0x10
    4793:	ff c3                	inc    ebx
    4795:	81 fb a0 86 01 00    	cmp    ebx,0x186a0
    479b:	0f 85 d9 fd ff ff    	jne    457a <s244+0x1d>
    47a1:	49 83 c6 10          	add    r14,0x10
    47a5:	4c 89 f7             	mov    rdi,r14
    47a8:	31 f6                	xor    esi,esi
    47aa:	e8 00 00 00 00       	call   47af <s244+0x252>
    47af:	bf 00 00 00 00       	mov    edi,0x0
    47b4:	48 83 c4 08          	add    rsp,0x8
    47b8:	5b                   	pop    rbx
    47b9:	41 5e                	pop    r14
    47bb:	e9 00 00 00 00       	jmp    47c0 <s1244>

00000000000047c0 <s1244>:
    47c0:	41 56                	push   r14
    47c2:	53                   	push   rbx
    47c3:	48 83 ec 78          	sub    rsp,0x78
    47c7:	49 89 fe             	mov    r14,rdi
    47ca:	bf 00 00 00 00       	mov    edi,0x0
    47cf:	e8 00 00 00 00       	call   47d4 <s1244+0x14>
    47d4:	31 db                	xor    ebx,ebx
    47d6:	4c 89 f7             	mov    rdi,r14
    47d9:	31 f6                	xor    esi,esi
    47db:	e8 00 00 00 00       	call   47e0 <s1244+0x20>
    47e0:	31 c0                	xor    eax,eax
    47e2:	31 c9                	xor    ecx,ecx
    47e4:	48 89 c2             	mov    rdx,rax
    47e7:	48 09 ca             	or     rdx,rcx
    47ea:	f3 0f 10 04 95 00 00 	movss  xmm0,DWORD PTR [rdx*4+0x0]
    47f1:	00 00 
    47f3:	f3 0f 10 0c 95 00 00 	movss  xmm1,DWORD PTR [rdx*4+0x0]
    47fa:	00 00 
    47fc:	0f 28 d1             	movaps xmm2,xmm1
    47ff:	f3 0f 59 d1          	mulss  xmm2,xmm1
    4803:	f3 0f 58 d0          	addss  xmm2,xmm0
    4807:	f3 0f 59 c0          	mulss  xmm0,xmm0
    480b:	f3 0f 58 c2          	addss  xmm0,xmm2
    480f:	f3 0f 58 c1          	addss  xmm0,xmm1
    4813:	f3 0f 11 04 95 00 00 	movss  DWORD PTR [rdx*4+0x0],xmm0
    481a:	00 00 
    481c:	48 8d 71 01          	lea    rsi,[rcx+0x1]
    4820:	48 89 f7             	mov    rdi,rsi
    4823:	48 09 c7             	or     rdi,rax
    4826:	48 89 7c cc 08       	mov    QWORD PTR [rsp+rcx*8+0x8],rdi
    482b:	48 8d 3c bd 00 00 00 	lea    rdi,[rdi*4+0x0]
    4832:	00 
    4833:	48 89 7c cc 40       	mov    QWORD PTR [rsp+rcx*8+0x40],rdi
    4838:	f3 0f 58 07          	addss  xmm0,DWORD PTR [rdi]
    483c:	f3 0f 11 04 95 00 00 	movss  DWORD PTR [rdx*4+0x0],xmm0
    4843:	00 00 
    4845:	48 89 f1             	mov    rcx,rsi
    4848:	48 83 fe 07          	cmp    rsi,0x7
    484c:	75 96                	jne    47e4 <s1244+0x24>
    484e:	48 8b 4c 24 38       	mov    rcx,QWORD PTR [rsp+0x38]
    4853:	48 81 f9 ff 7c 00 00 	cmp    rcx,0x7cff
    485a:	74 4d                	je     48a9 <s1244+0xe9>
    485c:	48 8b 54 24 70       	mov    rdx,QWORD PTR [rsp+0x70]
    4861:	f3 0f 10 04 8d 00 00 	movss  xmm0,DWORD PTR [rcx*4+0x0]
    4868:	00 00 
    486a:	f3 0f 10 0c 8d 00 00 	movss  xmm1,DWORD PTR [rcx*4+0x0]
    4871:	00 00 
    4873:	0f 28 d1             	movaps xmm2,xmm1
    4876:	f3 0f 59 d1          	mulss  xmm2,xmm1
    487a:	f3 0f 58 d0          	addss  xmm2,xmm0
    487e:	f3 0f 59 c0          	mulss  xmm0,xmm0
    4882:	f3 0f 58 c2          	addss  xmm0,xmm2
    4886:	f3 0f 58 c1          	addss  xmm0,xmm1
    488a:	f3 0f 11 02          	movss  DWORD PTR [rdx],xmm0
    488e:	f3 0f 58 04 85 00 00 	addss  xmm0,DWORD PTR [rax*4+0x0]
    4895:	00 00 
    4897:	48 83 c0 08          	add    rax,0x8
    489b:	f3 0f 11 04 8d 00 00 	movss  DWORD PTR [rcx*4+0x0],xmm0
    48a2:	00 00 
    48a4:	e9 39 ff ff ff       	jmp    47e2 <s1244+0x22>
    48a9:	bf 00 00 00 00       	mov    edi,0x0
    48ae:	be 00 00 00 00       	mov    esi,0x0
    48b3:	ba 00 00 00 00       	mov    edx,0x0
    48b8:	b9 00 00 00 00       	mov    ecx,0x0
    48bd:	41 b8 00 00 00 00    	mov    r8d,0x0
    48c3:	41 b9 00 00 00 00    	mov    r9d,0x0
    48c9:	0f 57 c0             	xorps  xmm0,xmm0
    48cc:	68 00 00 00 00       	push   0x0
    48d1:	68 00 00 00 00       	push   0x0
    48d6:	e8 00 00 00 00       	call   48db <s1244+0x11b>
    48db:	48 83 c4 10          	add    rsp,0x10
    48df:	ff c3                	inc    ebx
    48e1:	81 fb a0 86 01 00    	cmp    ebx,0x186a0
    48e7:	0f 85 f3 fe ff ff    	jne    47e0 <s1244+0x20>
    48ed:	49 83 c6 10          	add    r14,0x10
    48f1:	4c 89 f7             	mov    rdi,r14
    48f4:	31 f6                	xor    esi,esi
    48f6:	e8 00 00 00 00       	call   48fb <s1244+0x13b>
    48fb:	bf 00 00 00 00       	mov    edi,0x0
    4900:	48 83 c4 78          	add    rsp,0x78
    4904:	5b                   	pop    rbx
    4905:	41 5e                	pop    r14
    4907:	e9 00 00 00 00       	jmp    490c <s2244>

000000000000490c <s2244>:
    490c:	41 56                	push   r14
    490e:	53                   	push   rbx
    490f:	50                   	push   rax
    4910:	49 89 fe             	mov    r14,rdi
    4913:	bf 00 00 00 00       	mov    edi,0x0
    4918:	e8 00 00 00 00       	call   491d <s2244+0x11>
    491d:	31 db                	xor    ebx,ebx
    491f:	4c 89 f7             	mov    rdi,r14
    4922:	31 f6                	xor    esi,esi
    4924:	e8 00 00 00 00       	call   4929 <s2244+0x1d>
    4929:	48 c7 c0 20 0c fe ff 	mov    rax,0xfffffffffffe0c20
    4930:	f3 0f 10 80 00 00 00 	movss  xmm0,DWORD PTR [rax+0x0]
    4937:	00 
    4938:	f3 0f 58 80 00 00 00 	addss  xmm0,DWORD PTR [rax+0x0]
    493f:	00 
    4940:	f3 0f 11 80 00 00 00 	movss  DWORD PTR [rax+0x0],xmm0
    4947:	00 
    4948:	f3 0f 10 80 00 00 00 	movss  xmm0,DWORD PTR [rax+0x0]
    494f:	00 
    4950:	f3 0f 58 80 00 00 00 	addss  xmm0,DWORD PTR [rax+0x0]
    4957:	00 
    4958:	f3 0f 11 80 00 00 00 	movss  DWORD PTR [rax+0x0],xmm0
    495f:	00 
    4960:	f3 0f 10 80 00 00 00 	movss  xmm0,DWORD PTR [rax+0x0]
    4967:	00 
    4968:	f3 0f 58 80 00 00 00 	addss  xmm0,DWORD PTR [rax+0x0]
    496f:	00 
    4970:	f3 0f 11 80 00 00 00 	movss  DWORD PTR [rax+0x0],xmm0
    4977:	00 
    4978:	f3 0f 10 80 00 00 00 	movss  xmm0,DWORD PTR [rax+0x0]
    497f:	00 
    4980:	f3 0f 58 80 00 00 00 	addss  xmm0,DWORD PTR [rax+0x0]
    4987:	00 
    4988:	f3 0f 11 80 00 00 00 	movss  DWORD PTR [rax+0x0],xmm0
    498f:	00 
    4990:	f3 0f 10 80 00 00 00 	movss  xmm0,DWORD PTR [rax+0x0]
    4997:	00 
    4998:	f3 0f 58 80 00 00 00 	addss  xmm0,DWORD PTR [rax+0x0]
    499f:	00 
    49a0:	f3 0f 11 80 00 00 00 	movss  DWORD PTR [rax+0x0],xmm0
    49a7:	00 
    49a8:	f3 0f 10 80 00 00 00 	movss  xmm0,DWORD PTR [rax+0x0]
    49af:	00 
    49b0:	f3 0f 58 80 00 00 00 	addss  xmm0,DWORD PTR [rax+0x0]
    49b7:	00 
    49b8:	f3 0f 11 80 00 00 00 	movss  DWORD PTR [rax+0x0],xmm0
    49bf:	00 
    49c0:	f3 0f 10 80 00 00 00 	movss  xmm0,DWORD PTR [rax+0x0]
    49c7:	00 
    49c8:	f3 0f 10 88 00 00 00 	movss  xmm1,DWORD PTR [rax+0x0]
    49cf:	00 
    49d0:	f3 0f 58 c8          	addss  xmm1,xmm0
    49d4:	f3 0f 11 88 00 00 00 	movss  DWORD PTR [rax+0x0],xmm1
    49db:	00 
    49dc:	f3 0f 58 80 00 00 00 	addss  xmm0,DWORD PTR [rax+0x0]
    49e3:	00 
    49e4:	f3 0f 11 80 00 00 00 	movss  DWORD PTR [rax+0x0],xmm0
    49eb:	00 
    49ec:	48 85 c0             	test   rax,rax
    49ef:	74 35                	je     4a26 <s2244+0x11a>
    49f1:	f3 0f 10 80 00 00 00 	movss  xmm0,DWORD PTR [rax+0x0]
    49f8:	00 
    49f9:	f3 0f 10 88 00 00 00 	movss  xmm1,DWORD PTR [rax+0x0]
    4a00:	00 
    4a01:	f3 0f 58 c8          	addss  xmm1,xmm0
    4a05:	f3 0f 11 88 00 00 00 	movss  DWORD PTR [rax+0x0],xmm1
    4a0c:	00 
    4a0d:	f3 0f 58 80 00 00 00 	addss  xmm0,DWORD PTR [rax+0x0]
    4a14:	00 
    4a15:	f3 0f 11 80 00 00 00 	movss  DWORD PTR [rax+0x0],xmm0
    4a1c:	00 
    4a1d:	48 83 c0 20          	add    rax,0x20
    4a21:	e9 0a ff ff ff       	jmp    4930 <s2244+0x24>
    4a26:	bf 00 00 00 00       	mov    edi,0x0
    4a2b:	be 00 00 00 00       	mov    esi,0x0
    4a30:	ba 00 00 00 00       	mov    edx,0x0
    4a35:	b9 00 00 00 00       	mov    ecx,0x0
    4a3a:	41 b8 00 00 00 00    	mov    r8d,0x0
    4a40:	41 b9 00 00 00 00    	mov    r9d,0x0
    4a46:	0f 57 c0             	xorps  xmm0,xmm0
    4a49:	68 00 00 00 00       	push   0x0
    4a4e:	68 00 00 00 00       	push   0x0
    4a53:	e8 00 00 00 00       	call   4a58 <s2244+0x14c>
    4a58:	48 83 c4 10          	add    rsp,0x10
    4a5c:	ff c3                	inc    ebx
    4a5e:	81 fb a0 86 01 00    	cmp    ebx,0x186a0
    4a64:	0f 85 bf fe ff ff    	jne    4929 <s2244+0x1d>
    4a6a:	49 83 c6 10          	add    r14,0x10
    4a6e:	4c 89 f7             	mov    rdi,r14
    4a71:	31 f6                	xor    esi,esi
    4a73:	e8 00 00 00 00       	call   4a78 <s2244+0x16c>
    4a78:	bf 00 00 00 00       	mov    edi,0x0
    4a7d:	48 83 c4 08          	add    rsp,0x8
    4a81:	5b                   	pop    rbx
    4a82:	41 5e                	pop    r14
    4a84:	e9 00 00 00 00       	jmp    4a89 <s251>

0000000000004a89 <s251>:
    4a89:	41 56                	push   r14
    4a8b:	53                   	push   rbx
    4a8c:	50                   	push   rax
    4a8d:	49 89 fe             	mov    r14,rdi
    4a90:	bf 00 00 00 00       	mov    edi,0x0
    4a95:	e8 00 00 00 00       	call   4a9a <s251+0x11>
    4a9a:	31 db                	xor    ebx,ebx
    4a9c:	4c 89 f7             	mov    rdi,r14
    4a9f:	31 f6                	xor    esi,esi
    4aa1:	e8 00 00 00 00       	call   4aa6 <s251+0x1d>
    4aa6:	31 c0                	xor    eax,eax
    4aa8:	31 c9                	xor    ecx,ecx
    4aaa:	48 89 c2             	mov    rdx,rax
    4aad:	48 09 ca             	or     rdx,rcx
    4ab0:	f3 0f 10 04 95 00 00 	movss  xmm0,DWORD PTR [rdx*4+0x0]
    4ab7:	00 00 
    4ab9:	f3 0f 59 04 95 00 00 	mulss  xmm0,DWORD PTR [rdx*4+0x0]
    4ac0:	00 00 
    4ac2:	f3 0f 58 04 95 00 00 	addss  xmm0,DWORD PTR [rdx*4+0x0]
    4ac9:	00 00 
    4acb:	f3 0f 59 c0          	mulss  xmm0,xmm0
    4acf:	f3 0f 11 04 95 00 00 	movss  DWORD PTR [rdx*4+0x0],xmm0
    4ad6:	00 00 
    4ad8:	48 ff c1             	inc    rcx
    4adb:	48 83 f9 08          	cmp    rcx,0x8
    4adf:	75 c9                	jne    4aaa <s251+0x21>
    4ae1:	48 83 c0 08          	add    rax,0x8
    4ae5:	48 3d 00 7d 00 00    	cmp    rax,0x7d00
    4aeb:	75 bb                	jne    4aa8 <s251+0x1f>
    4aed:	bf 00 00 00 00       	mov    edi,0x0
    4af2:	be 00 00 00 00       	mov    esi,0x0
    4af7:	ba 00 00 00 00       	mov    edx,0x0
    4afc:	b9 00 00 00 00       	mov    ecx,0x0
    4b01:	41 b8 00 00 00 00    	mov    r8d,0x0
    4b07:	41 b9 00 00 00 00    	mov    r9d,0x0
    4b0d:	0f 57 c0             	xorps  xmm0,xmm0
    4b10:	68 00 00 00 00       	push   0x0
    4b15:	68 00 00 00 00       	push   0x0
    4b1a:	e8 00 00 00 00       	call   4b1f <s251+0x96>
    4b1f:	48 83 c4 10          	add    rsp,0x10
    4b23:	ff c3                	inc    ebx
    4b25:	81 fb 80 1a 06 00    	cmp    ebx,0x61a80
    4b2b:	0f 85 75 ff ff ff    	jne    4aa6 <s251+0x1d>
    4b31:	49 83 c6 10          	add    r14,0x10
    4b35:	4c 89 f7             	mov    rdi,r14
    4b38:	31 f6                	xor    esi,esi
    4b3a:	e8 00 00 00 00       	call   4b3f <s251+0xb6>
    4b3f:	bf 00 00 00 00       	mov    edi,0x0
    4b44:	48 83 c4 08          	add    rsp,0x8
    4b48:	5b                   	pop    rbx
    4b49:	41 5e                	pop    r14
    4b4b:	e9 00 00 00 00       	jmp    4b50 <s1251>

0000000000004b50 <s1251>:
    4b50:	41 56                	push   r14
    4b52:	53                   	push   rbx
    4b53:	50                   	push   rax
    4b54:	49 89 fe             	mov    r14,rdi
    4b57:	bf 00 00 00 00       	mov    edi,0x0
    4b5c:	e8 00 00 00 00       	call   4b61 <s1251+0x11>
    4b61:	31 db                	xor    ebx,ebx
    4b63:	4c 89 f7             	mov    rdi,r14
    4b66:	31 f6                	xor    esi,esi
    4b68:	e8 00 00 00 00       	call   4b6d <s1251+0x1d>
    4b6d:	31 c0                	xor    eax,eax
    4b6f:	31 c9                	xor    ecx,ecx
    4b71:	48 89 c2             	mov    rdx,rax
    4b74:	48 09 ca             	or     rdx,rcx
    4b77:	f3 0f 10 04 95 00 00 	movss  xmm0,DWORD PTR [rdx*4+0x0]
    4b7e:	00 00 
    4b80:	f3 0f 58 04 95 00 00 	addss  xmm0,DWORD PTR [rdx*4+0x0]
    4b87:	00 00 
    4b89:	f3 0f 10 0c 95 00 00 	movss  xmm1,DWORD PTR [rdx*4+0x0]
    4b90:	00 00 
    4b92:	f3 0f 58 0c 95 00 00 	addss  xmm1,DWORD PTR [rdx*4+0x0]
    4b99:	00 00 
    4b9b:	f3 0f 59 04 95 00 00 	mulss  xmm0,DWORD PTR [rdx*4+0x0]
    4ba2:	00 00 
    4ba4:	f3 0f 11 0c 95 00 00 	movss  DWORD PTR [rdx*4+0x0],xmm1
    4bab:	00 00 
    4bad:	f3 0f 11 04 95 00 00 	movss  DWORD PTR [rdx*4+0x0],xmm0
    4bb4:	00 00 
    4bb6:	48 ff c1             	inc    rcx
    4bb9:	48 83 f9 08          	cmp    rcx,0x8
    4bbd:	75 b2                	jne    4b71 <s1251+0x21>
    4bbf:	48 83 c0 08          	add    rax,0x8
    4bc3:	48 3d 00 7d 00 00    	cmp    rax,0x7d00
    4bc9:	75 a4                	jne    4b6f <s1251+0x1f>
    4bcb:	bf 00 00 00 00       	mov    edi,0x0
    4bd0:	be 00 00 00 00       	mov    esi,0x0
    4bd5:	ba 00 00 00 00       	mov    edx,0x0
    4bda:	b9 00 00 00 00       	mov    ecx,0x0
    4bdf:	41 b8 00 00 00 00    	mov    r8d,0x0
    4be5:	41 b9 00 00 00 00    	mov    r9d,0x0
    4beb:	0f 57 c0             	xorps  xmm0,xmm0
    4bee:	68 00 00 00 00       	push   0x0
    4bf3:	68 00 00 00 00       	push   0x0
    4bf8:	e8 00 00 00 00       	call   4bfd <s1251+0xad>
    4bfd:	48 83 c4 10          	add    rsp,0x10
    4c01:	ff c3                	inc    ebx
    4c03:	81 fb 80 1a 06 00    	cmp    ebx,0x61a80
    4c09:	0f 85 5e ff ff ff    	jne    4b6d <s1251+0x1d>
    4c0f:	49 83 c6 10          	add    r14,0x10
    4c13:	4c 89 f7             	mov    rdi,r14
    4c16:	31 f6                	xor    esi,esi
    4c18:	e8 00 00 00 00       	call   4c1d <s1251+0xcd>
    4c1d:	bf 00 00 00 00       	mov    edi,0x0
    4c22:	48 83 c4 08          	add    rsp,0x8
    4c26:	5b                   	pop    rbx
    4c27:	41 5e                	pop    r14
    4c29:	e9 00 00 00 00       	jmp    4c2e <s2251>

0000000000004c2e <s2251>:
    4c2e:	41 56                	push   r14
    4c30:	53                   	push   rbx
    4c31:	50                   	push   rax
    4c32:	49 89 fe             	mov    r14,rdi
    4c35:	bf 00 00 00 00       	mov    edi,0x0
    4c3a:	e8 00 00 00 00       	call   4c3f <s2251+0x11>
    4c3f:	31 db                	xor    ebx,ebx
    4c41:	4c 89 f7             	mov    rdi,r14
    4c44:	31 f6                	xor    esi,esi
    4c46:	e8 00 00 00 00       	call   4c4b <s2251+0x1d>
    4c4b:	48 c7 c0 00 0c fe ff 	mov    rax,0xfffffffffffe0c00
    4c52:	0f 57 c0             	xorps  xmm0,xmm0
    4c55:	f3 0f 59 80 00 00 00 	mulss  xmm0,DWORD PTR [rax+0x0]
    4c5c:	00 
    4c5d:	f3 0f 11 80 00 00 00 	movss  DWORD PTR [rax+0x0],xmm0
    4c64:	00 
    4c65:	f3 0f 10 88 00 00 00 	movss  xmm1,DWORD PTR [rax+0x0]
    4c6c:	00 
    4c6d:	f3 0f 58 88 00 00 00 	addss  xmm1,DWORD PTR [rax+0x0]
    4c74:	00 
    4c75:	f3 0f 58 80 00 00 00 	addss  xmm0,DWORD PTR [rax+0x0]
    4c7c:	00 
    4c7d:	f3 0f 11 80 00 00 00 	movss  DWORD PTR [rax+0x0],xmm0
    4c84:	00 
    4c85:	f3 0f 59 88 00 00 00 	mulss  xmm1,DWORD PTR [rax+0x0]
    4c8c:	00 
    4c8d:	f3 0f 11 88 00 00 00 	movss  DWORD PTR [rax+0x0],xmm1
    4c94:	00 
    4c95:	f3 0f 10 80 00 00 00 	movss  xmm0,DWORD PTR [rax+0x0]
    4c9c:	00 
    4c9d:	f3 0f 58 80 00 00 00 	addss  xmm0,DWORD PTR [rax+0x0]
    4ca4:	00 
    4ca5:	f3 0f 58 88 00 00 00 	addss  xmm1,DWORD PTR [rax+0x0]
    4cac:	00 
    4cad:	f3 0f 59 80 00 00 00 	mulss  xmm0,DWORD PTR [rax+0x0]
    4cb4:	00 
    4cb5:	f3 0f 11 88 00 00 00 	movss  DWORD PTR [rax+0x0],xmm1
    4cbc:	00 
    4cbd:	f3 0f 10 88 00 00 00 	movss  xmm1,DWORD PTR [rax+0x0]
    4cc4:	00 
    4cc5:	f3 0f 58 88 00 00 00 	addss  xmm1,DWORD PTR [rax+0x0]
    4ccc:	00 
    4ccd:	f3 0f 11 80 00 00 00 	movss  DWORD PTR [rax+0x0],xmm0
    4cd4:	00 
    4cd5:	f3 0f 58 80 00 00 00 	addss  xmm0,DWORD PTR [rax+0x0]
    4cdc:	00 
    4cdd:	f3 0f 11 80 00 00 00 	movss  DWORD PTR [rax+0x0],xmm0
    4ce4:	00 
    4ce5:	f3 0f 59 88 00 00 00 	mulss  xmm1,DWORD PTR [rax+0x0]
    4cec:	00 
    4ced:	f3 0f 11 88 00 00 00 	movss  DWORD PTR [rax+0x0],xmm1
    4cf4:	00 
    4cf5:	f3 0f 10 80 00 00 00 	movss  xmm0,DWORD PTR [rax+0x0]
    4cfc:	00 
    4cfd:	f3 0f 58 80 00 00 00 	addss  xmm0,DWORD PTR [rax+0x0]
    4d04:	00 
    4d05:	f3 0f 58 88 00 00 00 	addss  xmm1,DWORD PTR [rax+0x0]
    4d0c:	00 
    4d0d:	f3 0f 11 88 00 00 00 	movss  DWORD PTR [rax+0x0],xmm1
    4d14:	00 
    4d15:	f3 0f 59 80 00 00 00 	mulss  xmm0,DWORD PTR [rax+0x0]
    4d1c:	00 
    4d1d:	f3 0f 11 80 00 00 00 	movss  DWORD PTR [rax+0x0],xmm0
    4d24:	00 
    4d25:	f3 0f 10 88 00 00 00 	movss  xmm1,DWORD PTR [rax+0x0]
    4d2c:	00 
    4d2d:	f3 0f 58 88 00 00 00 	addss  xmm1,DWORD PTR [rax+0x0]
    4d34:	00 
    4d35:	f3 0f 58 80 00 00 00 	addss  xmm0,DWORD PTR [rax+0x0]
    4d3c:	00 
    4d3d:	f3 0f 59 88 00 00 00 	mulss  xmm1,DWORD PTR [rax+0x0]
    4d44:	00 
    4d45:	f3 0f 11 80 00 00 00 	movss  DWORD PTR [rax+0x0],xmm0
    4d4c:	00 
    4d4d:	f3 0f 10 80 00 00 00 	movss  xmm0,DWORD PTR [rax+0x0]
    4d54:	00 
    4d55:	f3 0f 58 80 00 00 00 	addss  xmm0,DWORD PTR [rax+0x0]
    4d5c:	00 
    4d5d:	f3 0f 11 88 00 00 00 	movss  DWORD PTR [rax+0x0],xmm1
    4d64:	00 
    4d65:	f3 0f 58 88 00 00 00 	addss  xmm1,DWORD PTR [rax+0x0]
    4d6c:	00 
    4d6d:	f3 0f 11 88 00 00 00 	movss  DWORD PTR [rax+0x0],xmm1
    4d74:	00 
    4d75:	f3 0f 59 80 00 00 00 	mulss  xmm0,DWORD PTR [rax+0x0]
    4d7c:	00 
    4d7d:	f3 0f 11 80 00 00 00 	movss  DWORD PTR [rax+0x0],xmm0
    4d84:	00 
    4d85:	f3 0f 10 88 00 00 00 	movss  xmm1,DWORD PTR [rax+0x0]
    4d8c:	00 
    4d8d:	f3 0f 58 88 00 00 00 	addss  xmm1,DWORD PTR [rax+0x0]
    4d94:	00 
    4d95:	f3 0f 58 80 00 00 00 	addss  xmm0,DWORD PTR [rax+0x0]
    4d9c:	00 
    4d9d:	f3 0f 11 80 00 00 00 	movss  DWORD PTR [rax+0x0],xmm0
    4da4:	00 
    4da5:	f3 0f 59 88 00 00 00 	mulss  xmm1,DWORD PTR [rax+0x0]
    4dac:	00 
    4dad:	f3 0f 11 88 00 00 00 	movss  DWORD PTR [rax+0x0],xmm1
    4db4:	00 
    4db5:	f3 0f 10 80 00 00 00 	movss  xmm0,DWORD PTR [rax+0x0]
    4dbc:	00 
    4dbd:	f3 0f 58 80 00 00 00 	addss  xmm0,DWORD PTR [rax+0x0]
    4dc4:	00 
    4dc5:	f3 0f 58 88 00 00 00 	addss  xmm1,DWORD PTR [rax+0x0]
    4dcc:	00 
    4dcd:	f3 0f 11 88 00 00 00 	movss  DWORD PTR [rax+0x0],xmm1
    4dd4:	00 
    4dd5:	48 83 c0 20          	add    rax,0x20
    4dd9:	0f 85 76 fe ff ff    	jne    4c55 <s2251+0x27>
    4ddf:	bf 00 00 00 00       	mov    edi,0x0
    4de4:	be 00 00 00 00       	mov    esi,0x0
    4de9:	ba 00 00 00 00       	mov    edx,0x0
    4dee:	b9 00 00 00 00       	mov    ecx,0x0
    4df3:	41 b8 00 00 00 00    	mov    r8d,0x0
    4df9:	41 b9 00 00 00 00    	mov    r9d,0x0
    4dff:	0f 57 c0             	xorps  xmm0,xmm0
    4e02:	68 00 00 00 00       	push   0x0
    4e07:	68 00 00 00 00       	push   0x0
    4e0c:	e8 00 00 00 00       	call   4e11 <s2251+0x1e3>
    4e11:	48 83 c4 10          	add    rsp,0x10
    4e15:	ff c3                	inc    ebx
    4e17:	81 fb a0 86 01 00    	cmp    ebx,0x186a0
    4e1d:	0f 85 28 fe ff ff    	jne    4c4b <s2251+0x1d>
    4e23:	49 83 c6 10          	add    r14,0x10
    4e27:	4c 89 f7             	mov    rdi,r14
    4e2a:	31 f6                	xor    esi,esi
    4e2c:	e8 00 00 00 00       	call   4e31 <s2251+0x203>
    4e31:	bf 00 00 00 00       	mov    edi,0x0
    4e36:	48 83 c4 08          	add    rsp,0x8
    4e3a:	5b                   	pop    rbx
    4e3b:	41 5e                	pop    r14
    4e3d:	e9 00 00 00 00       	jmp    4e42 <s3251>

0000000000004e42 <s3251>:
    4e42:	41 56                	push   r14
    4e44:	53                   	push   rbx
    4e45:	48 83 ec 58          	sub    rsp,0x58
    4e49:	49 89 fe             	mov    r14,rdi
    4e4c:	bf 00 00 00 00       	mov    edi,0x0
    4e51:	e8 00 00 00 00       	call   4e56 <s3251+0x14>
    4e56:	31 db                	xor    ebx,ebx
    4e58:	4c 89 f7             	mov    rdi,r14
    4e5b:	31 f6                	xor    esi,esi
    4e5d:	e8 00 00 00 00       	call   4e62 <s3251+0x20>
    4e62:	f3 0f 10 05 00 00 00 	movss  xmm0,DWORD PTR [rip+0x0]        # 4e6a <s3251+0x28>
    4e69:	00 
    4e6a:	31 c0                	xor    eax,eax
    4e6c:	31 c9                	xor    ecx,ecx
    4e6e:	48 89 c2             	mov    rdx,rax
    4e71:	48 09 ca             	or     rdx,rcx
    4e74:	f3 0f 10 0c 95 00 00 	movss  xmm1,DWORD PTR [rdx*4+0x0]
    4e7b:	00 00 
    4e7d:	f3 0f 10 14 95 00 00 	movss  xmm2,DWORD PTR [rdx*4+0x0]
    4e84:	00 00 
    4e86:	f3 0f 58 d1          	addss  xmm2,xmm1
    4e8a:	f3 0f 11 54 8c 04    	movss  DWORD PTR [rsp+rcx*4+0x4],xmm2
    4e90:	48 8d 71 01          	lea    rsi,[rcx+0x1]
    4e94:	48 89 f7             	mov    rdi,rsi
    4e97:	48 09 c7             	or     rdi,rax
    4e9a:	48 89 7c cc 20       	mov    QWORD PTR [rsp+rcx*8+0x20],rdi
    4e9f:	f3 0f 11 14 bd 00 00 	movss  DWORD PTR [rdi*4+0x0],xmm2
    4ea6:	00 00 
    4ea8:	f3 0f 10 1c 95 00 00 	movss  xmm3,DWORD PTR [rdx*4+0x0]
    4eaf:	00 00 
    4eb1:	f3 0f 59 cb          	mulss  xmm1,xmm3
    4eb5:	f3 0f 11 0c 95 00 00 	movss  DWORD PTR [rdx*4+0x0],xmm1
    4ebc:	00 00 
    4ebe:	f3 0f 59 c3          	mulss  xmm0,xmm3
    4ec2:	f3 0f 11 04 95 00 00 	movss  DWORD PTR [rdx*4+0x0],xmm0
    4ec9:	00 00 
    4ecb:	48 89 f1             	mov    rcx,rsi
    4ece:	0f 28 c2             	movaps xmm0,xmm2
    4ed1:	48 83 fe 07          	cmp    rsi,0x7
    4ed5:	75 97                	jne    4e6e <s3251+0x2c>
    4ed7:	48 8b 4c 24 50       	mov    rcx,QWORD PTR [rsp+0x50]
    4edc:	48 81 f9 ff 7c 00 00 	cmp    rcx,0x7cff
    4ee3:	74 4d                	je     4f32 <s3251+0xf0>
    4ee5:	f3 0f 10 0c 8d 00 00 	movss  xmm1,DWORD PTR [rcx*4+0x0]
    4eec:	00 00 
    4eee:	f3 0f 10 04 8d 00 00 	movss  xmm0,DWORD PTR [rcx*4+0x0]
    4ef5:	00 00 
    4ef7:	f3 0f 58 c1          	addss  xmm0,xmm1
    4efb:	f3 0f 11 04 85 00 00 	movss  DWORD PTR [rax*4+0x0],xmm0
    4f02:	00 00 
    4f04:	48 83 c0 08          	add    rax,0x8
    4f08:	f3 0f 10 14 8d 00 00 	movss  xmm2,DWORD PTR [rcx*4+0x0]
    4f0f:	00 00 
    4f11:	f3 0f 59 ca          	mulss  xmm1,xmm2
    4f15:	f3 0f 11 0c 8d 00 00 	movss  DWORD PTR [rcx*4+0x0],xmm1
    4f1c:	00 00 
    4f1e:	f3 0f 59 54 24 1c    	mulss  xmm2,DWORD PTR [rsp+0x1c]
    4f24:	f3 0f 11 14 8d 00 00 	movss  DWORD PTR [rcx*4+0x0],xmm2
    4f2b:	00 00 
    4f2d:	e9 3a ff ff ff       	jmp    4e6c <s3251+0x2a>
    4f32:	bf 00 00 00 00       	mov    edi,0x0
    4f37:	be 00 00 00 00       	mov    esi,0x0
    4f3c:	ba 00 00 00 00       	mov    edx,0x0
    4f41:	b9 00 00 00 00       	mov    ecx,0x0
    4f46:	41 b8 00 00 00 00    	mov    r8d,0x0
    4f4c:	41 b9 00 00 00 00    	mov    r9d,0x0
    4f52:	0f 57 c0             	xorps  xmm0,xmm0
    4f55:	68 00 00 00 00       	push   0x0
    4f5a:	68 00 00 00 00       	push   0x0
    4f5f:	e8 00 00 00 00       	call   4f64 <s3251+0x122>
    4f64:	48 83 c4 10          	add    rsp,0x10
    4f68:	ff c3                	inc    ebx
    4f6a:	81 fb a0 86 01 00    	cmp    ebx,0x186a0
    4f70:	0f 85 ec fe ff ff    	jne    4e62 <s3251+0x20>
    4f76:	49 83 c6 10          	add    r14,0x10
    4f7a:	4c 89 f7             	mov    rdi,r14
    4f7d:	31 f6                	xor    esi,esi
    4f7f:	e8 00 00 00 00       	call   4f84 <s3251+0x142>
    4f84:	bf 00 00 00 00       	mov    edi,0x0
    4f89:	48 83 c4 58          	add    rsp,0x58
    4f8d:	5b                   	pop    rbx
    4f8e:	41 5e                	pop    r14
    4f90:	e9 00 00 00 00       	jmp    4f95 <s252>

0000000000004f95 <s252>:
    4f95:	41 56                	push   r14
    4f97:	53                   	push   rbx
    4f98:	50                   	push   rax
    4f99:	49 89 fe             	mov    r14,rdi
    4f9c:	bf 00 00 00 00       	mov    edi,0x0
    4fa1:	e8 00 00 00 00       	call   4fa6 <s252+0x11>
    4fa6:	31 db                	xor    ebx,ebx
    4fa8:	4c 89 f7             	mov    rdi,r14
    4fab:	31 f6                	xor    esi,esi
    4fad:	e8 00 00 00 00       	call   4fb2 <s252+0x1d>
    4fb2:	48 c7 c0 00 0c fe ff 	mov    rax,0xfffffffffffe0c00
    4fb9:	0f 57 c0             	xorps  xmm0,xmm0
    4fbc:	f3 0f 10 88 00 00 00 	movss  xmm1,DWORD PTR [rax+0x0]
    4fc3:	00 
    4fc4:	f3 0f 59 88 00 00 00 	mulss  xmm1,DWORD PTR [rax+0x0]
    4fcb:	00 
    4fcc:	f3 0f 58 c1          	addss  xmm0,xmm1
    4fd0:	f3 0f 11 80 00 00 00 	movss  DWORD PTR [rax+0x0],xmm0
    4fd7:	00 
    4fd8:	f3 0f 10 80 00 00 00 	movss  xmm0,DWORD PTR [rax+0x0]
    4fdf:	00 
    4fe0:	f3 0f 59 80 00 00 00 	mulss  xmm0,DWORD PTR [rax+0x0]
    4fe7:	00 
    4fe8:	f3 0f 58 c8          	addss  xmm1,xmm0
    4fec:	f3 0f 11 88 00 00 00 	movss  DWORD PTR [rax+0x0],xmm1
    4ff3:	00 
    4ff4:	f3 0f 10 88 00 00 00 	movss  xmm1,DWORD PTR [rax+0x0]
    4ffb:	00 
    4ffc:	f3 0f 59 88 00 00 00 	mulss  xmm1,DWORD PTR [rax+0x0]
    5003:	00 
    5004:	f3 0f 58 c1          	addss  xmm0,xmm1
    5008:	f3 0f 10 90 00 00 00 	movss  xmm2,DWORD PTR [rax+0x0]
    500f:	00 
    5010:	f3 0f 59 90 00 00 00 	mulss  xmm2,DWORD PTR [rax+0x0]
    5017:	00 
    5018:	f3 0f 11 80 00 00 00 	movss  DWORD PTR [rax+0x0],xmm0
    501f:	00 
    5020:	f3 0f 58 ca          	addss  xmm1,xmm2
    5024:	f3 0f 11 88 00 00 00 	movss  DWORD PTR [rax+0x0],xmm1
    502b:	00 
    502c:	f3 0f 10 80 00 00 00 	movss  xmm0,DWORD PTR [rax+0x0]
    5033:	00 
    5034:	f3 0f 59 80 00 00 00 	mulss  xmm0,DWORD PTR [rax+0x0]
    503b:	00 
    503c:	f3 0f 58 d0          	addss  xmm2,xmm0
    5040:	f3 0f 11 90 00 00 00 	movss  DWORD PTR [rax+0x0],xmm2
    5047:	00 
    5048:	f3 0f 10 88 00 00 00 	movss  xmm1,DWORD PTR [rax+0x0]
    504f:	00 
    5050:	f3 0f 59 88 00 00 00 	mulss  xmm1,DWORD PTR [rax+0x0]
    5057:	00 
    5058:	f3 0f 58 c1          	addss  xmm0,xmm1
    505c:	f3 0f 11 80 00 00 00 	movss  DWORD PTR [rax+0x0],xmm0
    5063:	00 
    5064:	f3 0f 10 90 00 00 00 	movss  xmm2,DWORD PTR [rax+0x0]
    506b:	00 
    506c:	f3 0f 59 90 00 00 00 	mulss  xmm2,DWORD PTR [rax+0x0]
    5073:	00 
    5074:	f3 0f 58 ca          	addss  xmm1,xmm2
    5078:	f3 0f 10 80 00 00 00 	movss  xmm0,DWORD PTR [rax+0x0]
    507f:	00 
    5080:	f3 0f 59 80 00 00 00 	mulss  xmm0,DWORD PTR [rax+0x0]
    5087:	00 
    5088:	f3 0f 11 88 00 00 00 	movss  DWORD PTR [rax+0x0],xmm1
    508f:	00 
    5090:	f3 0f 58 d0          	addss  xmm2,xmm0
    5094:	f3 0f 11 90 00 00 00 	movss  DWORD PTR [rax+0x0],xmm2
    509b:	00 
    509c:	48 83 c0 20          	add    rax,0x20
    50a0:	0f 85 16 ff ff ff    	jne    4fbc <s252+0x27>
    50a6:	bf 00 00 00 00       	mov    edi,0x0
    50ab:	be 00 00 00 00       	mov    esi,0x0
    50b0:	ba 00 00 00 00       	mov    edx,0x0
    50b5:	b9 00 00 00 00       	mov    ecx,0x0
    50ba:	41 b8 00 00 00 00    	mov    r8d,0x0
    50c0:	41 b9 00 00 00 00    	mov    r9d,0x0
    50c6:	0f 57 c0             	xorps  xmm0,xmm0
    50c9:	68 00 00 00 00       	push   0x0
    50ce:	68 00 00 00 00       	push   0x0
    50d3:	e8 00 00 00 00       	call   50d8 <s252+0x143>
    50d8:	48 83 c4 10          	add    rsp,0x10
    50dc:	ff c3                	inc    ebx
    50de:	81 fb a0 86 01 00    	cmp    ebx,0x186a0
    50e4:	0f 85 c8 fe ff ff    	jne    4fb2 <s252+0x1d>
    50ea:	49 83 c6 10          	add    r14,0x10
    50ee:	4c 89 f7             	mov    rdi,r14
    50f1:	31 f6                	xor    esi,esi
    50f3:	e8 00 00 00 00       	call   50f8 <s252+0x163>
    50f8:	bf 00 00 00 00       	mov    edi,0x0
    50fd:	48 83 c4 08          	add    rsp,0x8
    5101:	5b                   	pop    rbx
    5102:	41 5e                	pop    r14
    5104:	e9 00 00 00 00       	jmp    5109 <s253>

0000000000005109 <s253>:
    5109:	41 56                	push   r14
    510b:	53                   	push   rbx
    510c:	50                   	push   rax
    510d:	49 89 fe             	mov    r14,rdi
    5110:	bf 00 00 00 00       	mov    edi,0x0
    5115:	e8 00 00 00 00       	call   511a <s253+0x11>
    511a:	31 db                	xor    ebx,ebx
    511c:	4c 89 f7             	mov    rdi,r14
    511f:	31 f6                	xor    esi,esi
    5121:	e8 00 00 00 00       	call   5126 <s253+0x1d>
    5126:	31 c0                	xor    eax,eax
    5128:	31 c9                	xor    ecx,ecx
    512a:	48 89 c2             	mov    rdx,rax
    512d:	48 09 ca             	or     rdx,rcx
    5130:	f3 0f 10 04 95 00 00 	movss  xmm0,DWORD PTR [rdx*4+0x0]
    5137:	00 00 
    5139:	f3 0f 10 0c 95 00 00 	movss  xmm1,DWORD PTR [rdx*4+0x0]
    5140:	00 00 
    5142:	0f 2e c1             	ucomiss xmm0,xmm1
    5145:	76 2c                	jbe    5173 <s253+0x6a>
    5147:	f3 0f 59 0c 95 00 00 	mulss  xmm1,DWORD PTR [rdx*4+0x0]
    514e:	00 00 
    5150:	f3 0f 5c c1          	subss  xmm0,xmm1
    5154:	f3 0f 10 0c 95 00 00 	movss  xmm1,DWORD PTR [rdx*4+0x0]
    515b:	00 00 
    515d:	f3 0f 58 c8          	addss  xmm1,xmm0
    5161:	f3 0f 11 0c 95 00 00 	movss  DWORD PTR [rdx*4+0x0],xmm1
    5168:	00 00 
    516a:	f3 0f 11 04 95 00 00 	movss  DWORD PTR [rdx*4+0x0],xmm0
    5171:	00 00 
    5173:	48 ff c1             	inc    rcx
    5176:	48 83 f9 04          	cmp    rcx,0x4
    517a:	75 ae                	jne    512a <s253+0x21>
    517c:	48 83 c0 08          	add    rax,0x8
    5180:	48 3d 00 7d 00 00    	cmp    rax,0x7d00
    5186:	75 a0                	jne    5128 <s253+0x1f>
    5188:	bf 00 00 00 00       	mov    edi,0x0
    518d:	be 00 00 00 00       	mov    esi,0x0
    5192:	ba 00 00 00 00       	mov    edx,0x0
    5197:	b9 00 00 00 00       	mov    ecx,0x0
    519c:	41 b8 00 00 00 00    	mov    r8d,0x0
    51a2:	41 b9 00 00 00 00    	mov    r9d,0x0
    51a8:	0f 57 c0             	xorps  xmm0,xmm0
    51ab:	68 00 00 00 00       	push   0x0
    51b0:	68 00 00 00 00       	push   0x0
    51b5:	e8 00 00 00 00       	call   51ba <s253+0xb1>
    51ba:	48 83 c4 10          	add    rsp,0x10
    51be:	ff c3                	inc    ebx
    51c0:	81 fb a0 86 01 00    	cmp    ebx,0x186a0
    51c6:	0f 85 5a ff ff ff    	jne    5126 <s253+0x1d>
    51cc:	49 83 c6 10          	add    r14,0x10
    51d0:	4c 89 f7             	mov    rdi,r14
    51d3:	31 f6                	xor    esi,esi
    51d5:	e8 00 00 00 00       	call   51da <s253+0xd1>
    51da:	bf 00 00 00 00       	mov    edi,0x0
    51df:	48 83 c4 08          	add    rsp,0x8
    51e3:	5b                   	pop    rbx
    51e4:	41 5e                	pop    r14
    51e6:	e9 00 00 00 00       	jmp    51eb <s254>

00000000000051eb <s254>:
    51eb:	41 56                	push   r14
    51ed:	53                   	push   rbx
    51ee:	50                   	push   rax
    51ef:	49 89 fe             	mov    r14,rdi
    51f2:	bf 00 00 00 00       	mov    edi,0x0
    51f7:	e8 00 00 00 00       	call   51fc <s254+0x11>
    51fc:	31 db                	xor    ebx,ebx
    51fe:	4c 89 f7             	mov    rdi,r14
    5201:	31 f6                	xor    esi,esi
    5203:	e8 00 00 00 00       	call   5208 <s254+0x1d>
    5208:	f3 0f 10 15 00 00 00 	movss  xmm2,DWORD PTR [rip+0x0]        # 5210 <s254+0x25>
    520f:	00 
    5210:	48 c7 c0 00 0c fe ff 	mov    rax,0xfffffffffffe0c00
    5217:	f3 0f 10 05 00 00 00 	movss  xmm0,DWORD PTR [rip+0x0]        # 521f <s254+0x34>
    521e:	00 
    521f:	f3 0f 10 88 00 00 00 	movss  xmm1,DWORD PTR [rax+0x0]
    5226:	00 
    5227:	f3 0f 58 c1          	addss  xmm0,xmm1
    522b:	f3 0f 59 c2          	mulss  xmm0,xmm2
    522f:	f3 0f 11 80 00 00 00 	movss  DWORD PTR [rax+0x0],xmm0
    5236:	00 
    5237:	f3 0f 10 80 00 00 00 	movss  xmm0,DWORD PTR [rax+0x0]
    523e:	00 
    523f:	f3 0f 58 c8          	addss  xmm1,xmm0
    5243:	f3 0f 59 ca          	mulss  xmm1,xmm2
    5247:	f3 0f 11 88 00 00 00 	movss  DWORD PTR [rax+0x0],xmm1
    524e:	00 
    524f:	f3 0f 10 88 00 00 00 	movss  xmm1,DWORD PTR [rax+0x0]
    5256:	00 
    5257:	f3 0f 58 c1          	addss  xmm0,xmm1
    525b:	f3 0f 59 c2          	mulss  xmm0,xmm2
    525f:	f3 0f 11 80 00 00 00 	movss  DWORD PTR [rax+0x0],xmm0
    5266:	00 
    5267:	f3 0f 10 80 00 00 00 	movss  xmm0,DWORD PTR [rax+0x0]
    526e:	00 
    526f:	f3 0f 58 c8          	addss  xmm1,xmm0
    5273:	f3 0f 59 ca          	mulss  xmm1,xmm2
    5277:	f3 0f 11 88 00 00 00 	movss  DWORD PTR [rax+0x0],xmm1
    527e:	00 
    527f:	f3 0f 10 88 00 00 00 	movss  xmm1,DWORD PTR [rax+0x0]
    5286:	00 
    5287:	f3 0f 58 c1          	addss  xmm0,xmm1
    528b:	f3 0f 59 c2          	mulss  xmm0,xmm2
    528f:	f3 0f 11 80 00 00 00 	movss  DWORD PTR [rax+0x0],xmm0
    5296:	00 
    5297:	f3 0f 10 80 00 00 00 	movss  xmm0,DWORD PTR [rax+0x0]
    529e:	00 
    529f:	f3 0f 58 c8          	addss  xmm1,xmm0
    52a3:	f3 0f 59 ca          	mulss  xmm1,xmm2
    52a7:	f3 0f 11 88 00 00 00 	movss  DWORD PTR [rax+0x0],xmm1
    52ae:	00 
    52af:	f3 0f 10 88 00 00 00 	movss  xmm1,DWORD PTR [rax+0x0]
    52b6:	00 
    52b7:	f3 0f 58 c1          	addss  xmm0,xmm1
    52bb:	f3 0f 59 c2          	mulss  xmm0,xmm2
    52bf:	f3 0f 11 80 00 00 00 	movss  DWORD PTR [rax+0x0],xmm0
    52c6:	00 
    52c7:	f3 0f 10 80 00 00 00 	movss  xmm0,DWORD PTR [rax+0x0]
    52ce:	00 
    52cf:	f3 0f 58 c8          	addss  xmm1,xmm0
    52d3:	f3 0f 59 ca          	mulss  xmm1,xmm2
    52d7:	f3 0f 11 88 00 00 00 	movss  DWORD PTR [rax+0x0],xmm1
    52de:	00 
    52df:	48 83 c0 20          	add    rax,0x20
    52e3:	0f 85 36 ff ff ff    	jne    521f <s254+0x34>
    52e9:	bf 00 00 00 00       	mov    edi,0x0
    52ee:	be 00 00 00 00       	mov    esi,0x0
    52f3:	ba 00 00 00 00       	mov    edx,0x0
    52f8:	b9 00 00 00 00       	mov    ecx,0x0
    52fd:	41 b8 00 00 00 00    	mov    r8d,0x0
    5303:	41 b9 00 00 00 00    	mov    r9d,0x0
    5309:	0f 57 c0             	xorps  xmm0,xmm0
    530c:	68 00 00 00 00       	push   0x0
    5311:	68 00 00 00 00       	push   0x0
    5316:	e8 00 00 00 00       	call   531b <s254+0x130>
    531b:	f3 0f 10 15 00 00 00 	movss  xmm2,DWORD PTR [rip+0x0]        # 5323 <s254+0x138>
