
tsvc.reroll.o:     file format elf64-x86-64


Disassembly of section .text:

0000000000000000 <s000>:
       0:	41 56                	push   r14
       2:	53                   	push   rbx
       3:	50                   	push   rax
       4:	49 89 fe             	mov    r14,rdi
       7:	bf 00 00 00 00       	mov    edi,0x0
       c:	e8 00 00 00 00       	call   11 <s000+0x11>
      11:	31 db                	xor    ebx,ebx
      13:	4c 89 f7             	mov    rdi,r14
      16:	31 f6                	xor    esi,esi
      18:	e8 00 00 00 00       	call   1d <s000+0x1d>
      1d:	f3 0f 10 0d 00 00 00 	movss  xmm1,DWORD PTR [rip+0x0]        # 25 <s000+0x25>
      24:	00 
      25:	48 c7 c0 00 0c fe ff 	mov    rax,0xfffffffffffe0c00
      2c:	f3 0f 10 80 00 00 00 	movss  xmm0,DWORD PTR [rax+0x0]
      33:	00 
      34:	f3 0f 58 c1          	addss  xmm0,xmm1
      38:	f3 0f 11 80 00 00 00 	movss  DWORD PTR [rax+0x0],xmm0
      3f:	00 
      40:	48 83 c0 04          	add    rax,0x4
      44:	75 e6                	jne    2c <s000+0x2c>
      46:	bf 00 00 00 00       	mov    edi,0x0
      4b:	be 00 00 00 00       	mov    esi,0x0
      50:	ba 00 00 00 00       	mov    edx,0x0
      55:	b9 00 00 00 00       	mov    ecx,0x0
      5a:	41 b8 00 00 00 00    	mov    r8d,0x0
      60:	41 b9 00 00 00 00    	mov    r9d,0x0
      66:	0f 57 c0             	xorps  xmm0,xmm0
      69:	68 00 00 00 00       	push   0x0
      6e:	68 00 00 00 00       	push   0x0
      73:	e8 00 00 00 00       	call   78 <s000+0x78>
      78:	f3 0f 10 0d 00 00 00 	movss  xmm1,DWORD PTR [rip+0x0]        # 80 <s000+0x80>
      7f:	00 
      80:	48 83 c4 10          	add    rsp,0x10
      84:	ff c3                	inc    ebx
      86:	81 fb 40 0d 03 00    	cmp    ebx,0x30d40
      8c:	75 97                	jne    25 <s000+0x25>
      8e:	49 83 c6 10          	add    r14,0x10
      92:	4c 89 f7             	mov    rdi,r14
      95:	31 f6                	xor    esi,esi
      97:	e8 00 00 00 00       	call   9c <s000+0x9c>
      9c:	bf 00 00 00 00       	mov    edi,0x0
      a1:	48 83 c4 08          	add    rsp,0x8
      a5:	5b                   	pop    rbx
      a6:	41 5e                	pop    r14
      a8:	e9 00 00 00 00       	jmp    ad <s111>

00000000000000ad <s111>:
      ad:	41 56                	push   r14
      af:	53                   	push   rbx
      b0:	50                   	push   rax
      b1:	49 89 fe             	mov    r14,rdi
      b4:	bf 00 00 00 00       	mov    edi,0x0
      b9:	e8 00 00 00 00       	call   be <s111+0x11>
      be:	31 db                	xor    ebx,ebx
      c0:	4c 89 f7             	mov    rdi,r14
      c3:	31 f6                	xor    esi,esi
      c5:	e8 00 00 00 00       	call   ca <s111+0x1d>
      ca:	48 c7 c0 f1 ff ff ff 	mov    rax,0xfffffffffffffff1
      d1:	f3 0f 10 04 85 00 00 	movss  xmm0,DWORD PTR [rax*4+0x0]
      d8:	00 00 
      da:	f3 0f 58 04 85 00 00 	addss  xmm0,DWORD PTR [rax*4+0x0]
      e1:	00 00 
      e3:	f3 0f 11 04 85 00 00 	movss  DWORD PTR [rax*4+0x0],xmm0
      ea:	00 00 
      ec:	f3 0f 10 04 85 00 00 	movss  xmm0,DWORD PTR [rax*4+0x0]
      f3:	00 00 
      f5:	f3 0f 58 04 85 00 00 	addss  xmm0,DWORD PTR [rax*4+0x0]
      fc:	00 00 
      fe:	f3 0f 11 04 85 00 00 	movss  DWORD PTR [rax*4+0x0],xmm0
     105:	00 00 
     107:	f3 0f 10 04 85 00 00 	movss  xmm0,DWORD PTR [rax*4+0x0]
     10e:	00 00 
     110:	f3 0f 58 04 85 00 00 	addss  xmm0,DWORD PTR [rax*4+0x0]
     117:	00 00 
     119:	f3 0f 11 04 85 00 00 	movss  DWORD PTR [rax*4+0x0],xmm0
     120:	00 00 
     122:	f3 0f 10 04 85 00 00 	movss  xmm0,DWORD PTR [rax*4+0x0]
     129:	00 00 
     12b:	f3 0f 58 04 85 00 00 	addss  xmm0,DWORD PTR [rax*4+0x0]
     132:	00 00 
     134:	f3 0f 11 04 85 00 00 	movss  DWORD PTR [rax*4+0x0],xmm0
     13b:	00 00 
     13d:	f3 0f 10 04 85 00 00 	movss  xmm0,DWORD PTR [rax*4+0x0]
     144:	00 00 
     146:	f3 0f 58 04 85 00 00 	addss  xmm0,DWORD PTR [rax*4+0x0]
     14d:	00 00 
     14f:	f3 0f 11 04 85 00 00 	movss  DWORD PTR [rax*4+0x0],xmm0
     156:	00 00 
     158:	f3 0f 10 04 85 00 00 	movss  xmm0,DWORD PTR [rax*4+0x0]
     15f:	00 00 
     161:	f3 0f 58 04 85 00 00 	addss  xmm0,DWORD PTR [rax*4+0x0]
     168:	00 00 
     16a:	f3 0f 11 04 85 00 00 	movss  DWORD PTR [rax*4+0x0],xmm0
     171:	00 00 
     173:	f3 0f 10 04 85 00 00 	movss  xmm0,DWORD PTR [rax*4+0x0]
     17a:	00 00 
     17c:	f3 0f 58 04 85 00 00 	addss  xmm0,DWORD PTR [rax*4+0x0]
     183:	00 00 
     185:	f3 0f 11 04 85 00 00 	movss  DWORD PTR [rax*4+0x0],xmm0
     18c:	00 00 
     18e:	f3 0f 10 04 85 00 00 	movss  xmm0,DWORD PTR [rax*4+0x0]
     195:	00 00 
     197:	f3 0f 58 04 85 00 00 	addss  xmm0,DWORD PTR [rax*4+0x0]
     19e:	00 00 
     1a0:	f3 0f 11 04 85 00 00 	movss  DWORD PTR [rax*4+0x0],xmm0
     1a7:	00 00 
     1a9:	48 83 c0 10          	add    rax,0x10
     1ad:	48 3d f0 7c 00 00    	cmp    rax,0x7cf0
     1b3:	0f 82 18 ff ff ff    	jb     d1 <s111+0x24>
     1b9:	bf 00 00 00 00       	mov    edi,0x0
     1be:	be 00 00 00 00       	mov    esi,0x0
     1c3:	ba 00 00 00 00       	mov    edx,0x0
     1c8:	b9 00 00 00 00       	mov    ecx,0x0
     1cd:	41 b8 00 00 00 00    	mov    r8d,0x0
     1d3:	41 b9 00 00 00 00    	mov    r9d,0x0
     1d9:	0f 57 c0             	xorps  xmm0,xmm0
     1dc:	68 00 00 00 00       	push   0x0
     1e1:	68 00 00 00 00       	push   0x0
     1e6:	e8 00 00 00 00       	call   1eb <s111+0x13e>
     1eb:	48 83 c4 10          	add    rsp,0x10
     1ef:	ff c3                	inc    ebx
     1f1:	81 fb 40 0d 03 00    	cmp    ebx,0x30d40
     1f7:	0f 85 cd fe ff ff    	jne    ca <s111+0x1d>
     1fd:	49 83 c6 10          	add    r14,0x10
     201:	4c 89 f7             	mov    rdi,r14
     204:	31 f6                	xor    esi,esi
     206:	e8 00 00 00 00       	call   20b <s111+0x15e>
     20b:	bf 00 00 00 00       	mov    edi,0x0
     210:	48 83 c4 08          	add    rsp,0x8
     214:	5b                   	pop    rbx
     215:	41 5e                	pop    r14
     217:	e9 00 00 00 00       	jmp    21c <s1111>

000000000000021c <s1111>:
     21c:	41 56                	push   r14
     21e:	53                   	push   rbx
     21f:	50                   	push   rax
     220:	49 89 fe             	mov    r14,rdi
     223:	bf 00 00 00 00       	mov    edi,0x0
     228:	e8 00 00 00 00       	call   22d <s1111+0x11>
     22d:	31 db                	xor    ebx,ebx
     22f:	4c 89 f7             	mov    rdi,r14
     232:	31 f6                	xor    esi,esi
     234:	e8 00 00 00 00       	call   239 <s1111+0x1d>
     239:	48 c7 c0 00 06 ff ff 	mov    rax,0xffffffffffff0600
     240:	f3 0f 10 80 00 00 00 	movss  xmm0,DWORD PTR [rax+0x0]
     247:	00 
     248:	f3 0f 10 88 00 00 00 	movss  xmm1,DWORD PTR [rax+0x0]
     24f:	00 
     250:	0f 28 d0             	movaps xmm2,xmm0
     253:	f3 0f 59 d1          	mulss  xmm2,xmm1
     257:	f3 0f 10 98 00 00 00 	movss  xmm3,DWORD PTR [rax+0x0]
     25e:	00 
     25f:	f3 0f 59 cb          	mulss  xmm1,xmm3
     263:	f3 0f 58 d1          	addss  xmm2,xmm1
     267:	0f 28 e0             	movaps xmm4,xmm0
     26a:	f3 0f 59 e0          	mulss  xmm4,xmm0
     26e:	f3 0f 58 e2          	addss  xmm4,xmm2
     272:	f3 0f 58 e1          	addss  xmm4,xmm1
     276:	f3 0f 59 c3          	mulss  xmm0,xmm3
     27a:	f3 0f 58 c4          	addss  xmm0,xmm4
     27e:	f3 0f 11 84 00 00 00 	movss  DWORD PTR [rax+rax*1+0x0],xmm0
     285:	00 00 
     287:	48 83 c0 04          	add    rax,0x4
     28b:	75 b3                	jne    240 <s1111+0x24>
     28d:	bf 00 00 00 00       	mov    edi,0x0
     292:	be 00 00 00 00       	mov    esi,0x0
     297:	ba 00 00 00 00       	mov    edx,0x0
     29c:	b9 00 00 00 00       	mov    ecx,0x0
     2a1:	41 b8 00 00 00 00    	mov    r8d,0x0
     2a7:	41 b9 00 00 00 00    	mov    r9d,0x0
     2ad:	0f 57 c0             	xorps  xmm0,xmm0
     2b0:	68 00 00 00 00       	push   0x0
     2b5:	68 00 00 00 00       	push   0x0
     2ba:	e8 00 00 00 00       	call   2bf <s1111+0xa3>
     2bf:	48 83 c4 10          	add    rsp,0x10
     2c3:	ff c3                	inc    ebx
     2c5:	81 fb 40 0d 03 00    	cmp    ebx,0x30d40
     2cb:	0f 85 68 ff ff ff    	jne    239 <s1111+0x1d>
     2d1:	49 83 c6 10          	add    r14,0x10
     2d5:	4c 89 f7             	mov    rdi,r14
     2d8:	31 f6                	xor    esi,esi
     2da:	e8 00 00 00 00       	call   2df <s1111+0xc3>
     2df:	bf 00 00 00 00       	mov    edi,0x0
     2e4:	48 83 c4 08          	add    rsp,0x8
     2e8:	5b                   	pop    rbx
     2e9:	41 5e                	pop    r14
     2eb:	e9 00 00 00 00       	jmp    2f0 <s112>

00000000000002f0 <s112>:
     2f0:	41 56                	push   r14
     2f2:	53                   	push   rbx
     2f3:	50                   	push   rax
     2f4:	49 89 fe             	mov    r14,rdi
     2f7:	bf 00 00 00 00       	mov    edi,0x0
     2fc:	e8 00 00 00 00       	call   301 <s112+0x11>
     301:	31 db                	xor    ebx,ebx
     303:	4c 89 f7             	mov    rdi,r14
     306:	31 f6                	xor    esi,esi
     308:	e8 00 00 00 00       	call   30d <s112+0x1d>
     30d:	b8 dc f3 01 00       	mov    eax,0x1f3dc
     312:	f3 0f 10 80 00 00 00 	movss  xmm0,DWORD PTR [rax+0x0]
     319:	00 
     31a:	f3 0f 58 80 00 00 00 	addss  xmm0,DWORD PTR [rax+0x0]
     321:	00 
     322:	f3 0f 11 80 00 00 00 	movss  DWORD PTR [rax+0x0],xmm0
     329:	00 
     32a:	f3 0f 10 80 00 00 00 	movss  xmm0,DWORD PTR [rax+0x0]
     331:	00 
     332:	f3 0f 58 80 00 00 00 	addss  xmm0,DWORD PTR [rax+0x0]
     339:	00 
     33a:	f3 0f 11 80 00 00 00 	movss  DWORD PTR [rax+0x0],xmm0
     341:	00 
     342:	f3 0f 10 80 00 00 00 	movss  xmm0,DWORD PTR [rax+0x0]
     349:	00 
     34a:	f3 0f 58 80 00 00 00 	addss  xmm0,DWORD PTR [rax+0x0]
     351:	00 
     352:	f3 0f 11 80 00 00 00 	movss  DWORD PTR [rax+0x0],xmm0
     359:	00 
     35a:	f3 0f 10 80 00 00 00 	movss  xmm0,DWORD PTR [rax+0x0]
     361:	00 
     362:	f3 0f 58 80 00 00 00 	addss  xmm0,DWORD PTR [rax+0x0]
     369:	00 
     36a:	f3 0f 11 80 00 00 00 	movss  DWORD PTR [rax+0x0],xmm0
     371:	00 
     372:	f3 0f 10 80 00 00 00 	movss  xmm0,DWORD PTR [rax+0x0]
     379:	00 
     37a:	f3 0f 58 80 00 00 00 	addss  xmm0,DWORD PTR [rax+0x0]
     381:	00 
     382:	f3 0f 11 80 00 00 00 	movss  DWORD PTR [rax+0x0],xmm0
     389:	00 
     38a:	f3 0f 10 80 00 00 00 	movss  xmm0,DWORD PTR [rax+0x0]
     391:	00 
     392:	f3 0f 58 80 00 00 00 	addss  xmm0,DWORD PTR [rax+0x0]
     399:	00 
     39a:	f3 0f 11 80 00 00 00 	movss  DWORD PTR [rax+0x0],xmm0
     3a1:	00 
     3a2:	f3 0f 10 80 00 00 00 	movss  xmm0,DWORD PTR [rax+0x0]
     3a9:	00 
     3aa:	f3 0f 58 80 00 00 00 	addss  xmm0,DWORD PTR [rax+0x0]
     3b1:	00 
     3b2:	f3 0f 11 80 00 00 00 	movss  DWORD PTR [rax+0x0],xmm0
     3b9:	00 
     3ba:	48 83 f8 fc          	cmp    rax,0xfffffffffffffffc
     3be:	74 21                	je     3e1 <s112+0xf1>
     3c0:	f3 0f 10 80 00 00 00 	movss  xmm0,DWORD PTR [rax+0x0]
     3c7:	00 
     3c8:	f3 0f 58 80 00 00 00 	addss  xmm0,DWORD PTR [rax+0x0]
     3cf:	00 
     3d0:	f3 0f 11 80 00 00 00 	movss  DWORD PTR [rax+0x0],xmm0
     3d7:	00 
     3d8:	48 83 c0 e0          	add    rax,0xffffffffffffffe0
     3dc:	e9 31 ff ff ff       	jmp    312 <s112+0x22>
     3e1:	bf 00 00 00 00       	mov    edi,0x0
     3e6:	be 00 00 00 00       	mov    esi,0x0
     3eb:	ba 00 00 00 00       	mov    edx,0x0
     3f0:	b9 00 00 00 00       	mov    ecx,0x0
     3f5:	41 b8 00 00 00 00    	mov    r8d,0x0
     3fb:	41 b9 00 00 00 00    	mov    r9d,0x0
     401:	0f 57 c0             	xorps  xmm0,xmm0
     404:	68 00 00 00 00       	push   0x0
     409:	68 00 00 00 00       	push   0x0
     40e:	e8 00 00 00 00       	call   413 <s112+0x123>
     413:	48 83 c4 10          	add    rsp,0x10
     417:	ff c3                	inc    ebx
     419:	81 fb e0 93 04 00    	cmp    ebx,0x493e0
     41f:	0f 85 e8 fe ff ff    	jne    30d <s112+0x1d>
     425:	49 83 c6 10          	add    r14,0x10
     429:	4c 89 f7             	mov    rdi,r14
     42c:	31 f6                	xor    esi,esi
     42e:	e8 00 00 00 00       	call   433 <s112+0x143>
     433:	bf 00 00 00 00       	mov    edi,0x0
     438:	48 83 c4 08          	add    rsp,0x8
     43c:	5b                   	pop    rbx
     43d:	41 5e                	pop    r14
     43f:	e9 00 00 00 00       	jmp    444 <s1112>

0000000000000444 <s1112>:
     444:	41 56                	push   r14
     446:	53                   	push   rbx
     447:	50                   	push   rax
     448:	49 89 fe             	mov    r14,rdi
     44b:	bf 00 00 00 00       	mov    edi,0x0
     450:	e8 00 00 00 00       	call   455 <s1112+0x11>
     455:	31 db                	xor    ebx,ebx
     457:	4c 89 f7             	mov    rdi,r14
     45a:	31 f6                	xor    esi,esi
     45c:	e8 00 00 00 00       	call   461 <s1112+0x1d>
     461:	f3 0f 10 0d 00 00 00 	movss  xmm1,DWORD PTR [rip+0x0]        # 469 <s1112+0x25>
     468:	00 
     469:	b8 00 f4 01 00       	mov    eax,0x1f400
     46e:	f3 0f 10 80 00 00 00 	movss  xmm0,DWORD PTR [rax+0x0]
     475:	00 
     476:	f3 0f 58 c1          	addss  xmm0,xmm1
     47a:	f3 0f 11 80 00 00 00 	movss  DWORD PTR [rax+0x0],xmm0
     481:	00 
     482:	f3 0f 10 80 00 00 00 	movss  xmm0,DWORD PTR [rax+0x0]
     489:	00 
     48a:	f3 0f 58 c1          	addss  xmm0,xmm1
     48e:	f3 0f 11 80 00 00 00 	movss  DWORD PTR [rax+0x0],xmm0
     495:	00 
     496:	f3 0f 10 80 00 00 00 	movss  xmm0,DWORD PTR [rax+0x0]
     49d:	00 
     49e:	f3 0f 58 c1          	addss  xmm0,xmm1
     4a2:	f3 0f 11 80 00 00 00 	movss  DWORD PTR [rax+0x0],xmm0
     4a9:	00 
     4aa:	f3 0f 10 80 00 00 00 	movss  xmm0,DWORD PTR [rax+0x0]
     4b1:	00 
     4b2:	f3 0f 58 c1          	addss  xmm0,xmm1
     4b6:	f3 0f 11 80 00 00 00 	movss  DWORD PTR [rax+0x0],xmm0
     4bd:	00 
     4be:	f3 0f 10 80 00 00 00 	movss  xmm0,DWORD PTR [rax+0x0]
     4c5:	00 
     4c6:	f3 0f 58 c1          	addss  xmm0,xmm1
     4ca:	f3 0f 11 80 00 00 00 	movss  DWORD PTR [rax+0x0],xmm0
     4d1:	00 
     4d2:	f3 0f 10 80 00 00 00 	movss  xmm0,DWORD PTR [rax+0x0]
     4d9:	00 
     4da:	f3 0f 58 c1          	addss  xmm0,xmm1
     4de:	f3 0f 11 80 00 00 00 	movss  DWORD PTR [rax+0x0],xmm0
     4e5:	00 
     4e6:	f3 0f 10 80 00 00 00 	movss  xmm0,DWORD PTR [rax+0x0]
     4ed:	00 
     4ee:	f3 0f 58 c1          	addss  xmm0,xmm1
     4f2:	f3 0f 11 80 00 00 00 	movss  DWORD PTR [rax+0x0],xmm0
     4f9:	00 
     4fa:	f3 0f 10 80 00 00 00 	movss  xmm0,DWORD PTR [rax+0x0]
     501:	00 
     502:	f3 0f 58 c1          	addss  xmm0,xmm1
     506:	f3 0f 11 80 00 00 00 	movss  DWORD PTR [rax+0x0],xmm0
     50d:	00 
     50e:	48 83 c0 e0          	add    rax,0xffffffffffffffe0
     512:	0f 85 56 ff ff ff    	jne    46e <s1112+0x2a>
     518:	bf 00 00 00 00       	mov    edi,0x0
     51d:	be 00 00 00 00       	mov    esi,0x0
     522:	ba 00 00 00 00       	mov    edx,0x0
     527:	b9 00 00 00 00       	mov    ecx,0x0
     52c:	41 b8 00 00 00 00    	mov    r8d,0x0
     532:	41 b9 00 00 00 00    	mov    r9d,0x0
     538:	0f 57 c0             	xorps  xmm0,xmm0
     53b:	68 00 00 00 00       	push   0x0
     540:	68 00 00 00 00       	push   0x0
     545:	e8 00 00 00 00       	call   54a <s1112+0x106>
     54a:	f3 0f 10 0d 00 00 00 	movss  xmm1,DWORD PTR [rip+0x0]        # 552 <s1112+0x10e>
     551:	00 
     552:	48 83 c4 10          	add    rsp,0x10
     556:	ff c3                	inc    ebx
     558:	81 fb e0 93 04 00    	cmp    ebx,0x493e0
     55e:	0f 85 05 ff ff ff    	jne    469 <s1112+0x25>
     564:	49 83 c6 10          	add    r14,0x10
     568:	4c 89 f7             	mov    rdi,r14
     56b:	31 f6                	xor    esi,esi
     56d:	e8 00 00 00 00       	call   572 <s1112+0x12e>
     572:	bf 00 00 00 00       	mov    edi,0x0
     577:	48 83 c4 08          	add    rsp,0x8
     57b:	5b                   	pop    rbx
     57c:	41 5e                	pop    r14
     57e:	e9 00 00 00 00       	jmp    583 <s113>

0000000000000583 <s113>:
     583:	41 56                	push   r14
     585:	53                   	push   rbx
     586:	50                   	push   rax
     587:	49 89 fe             	mov    r14,rdi
     58a:	bf 00 00 00 00       	mov    edi,0x0
     58f:	e8 00 00 00 00       	call   594 <s113+0x11>
     594:	31 db                	xor    ebx,ebx
     596:	4c 89 f7             	mov    rdi,r14
     599:	31 f6                	xor    esi,esi
     59b:	e8 00 00 00 00       	call   5a0 <s113+0x1d>
     5a0:	48 c7 c0 20 0c fe ff 	mov    rax,0xfffffffffffe0c20
     5a7:	f3 0f 10 05 00 00 00 	movss  xmm0,DWORD PTR [rip+0x0]        # 5af <s113+0x2c>
     5ae:	00 
     5af:	f3 0f 58 80 00 00 00 	addss  xmm0,DWORD PTR [rax+0x0]
     5b6:	00 
     5b7:	f3 0f 11 80 00 00 00 	movss  DWORD PTR [rax+0x0],xmm0
     5be:	00 
     5bf:	f3 0f 10 05 00 00 00 	movss  xmm0,DWORD PTR [rip+0x0]        # 5c7 <s113+0x44>
     5c6:	00 
     5c7:	f3 0f 10 88 00 00 00 	movss  xmm1,DWORD PTR [rax+0x0]
     5ce:	00 
     5cf:	f3 0f 58 c8          	addss  xmm1,xmm0
     5d3:	f3 0f 11 88 00 00 00 	movss  DWORD PTR [rax+0x0],xmm1
     5da:	00 
     5db:	f3 0f 10 88 00 00 00 	movss  xmm1,DWORD PTR [rax+0x0]
     5e2:	00 
     5e3:	f3 0f 58 c8          	addss  xmm1,xmm0
     5e7:	f3 0f 11 88 00 00 00 	movss  DWORD PTR [rax+0x0],xmm1
     5ee:	00 
     5ef:	f3 0f 10 88 00 00 00 	movss  xmm1,DWORD PTR [rax+0x0]
     5f6:	00 
     5f7:	f3 0f 58 c8          	addss  xmm1,xmm0
     5fb:	f3 0f 11 88 00 00 00 	movss  DWORD PTR [rax+0x0],xmm1
     602:	00 
     603:	f3 0f 10 88 00 00 00 	movss  xmm1,DWORD PTR [rax+0x0]
     60a:	00 
     60b:	f3 0f 58 c8          	addss  xmm1,xmm0
     60f:	f3 0f 11 88 00 00 00 	movss  DWORD PTR [rax+0x0],xmm1
     616:	00 
     617:	f3 0f 10 88 00 00 00 	movss  xmm1,DWORD PTR [rax+0x0]
     61e:	00 
     61f:	f3 0f 58 c8          	addss  xmm1,xmm0
     623:	f3 0f 11 88 00 00 00 	movss  DWORD PTR [rax+0x0],xmm1
     62a:	00 
     62b:	f3 0f 10 88 00 00 00 	movss  xmm1,DWORD PTR [rax+0x0]
     632:	00 
     633:	f3 0f 58 c8          	addss  xmm1,xmm0
     637:	f3 0f 11 88 00 00 00 	movss  DWORD PTR [rax+0x0],xmm1
     63e:	00 
     63f:	48 85 c0             	test   rax,rax
     642:	74 1d                	je     661 <s113+0xde>
     644:	f3 0f 10 88 00 00 00 	movss  xmm1,DWORD PTR [rax+0x0]
     64b:	00 
     64c:	f3 0f 58 c8          	addss  xmm1,xmm0
     650:	f3 0f 11 88 00 00 00 	movss  DWORD PTR [rax+0x0],xmm1
     657:	00 
     658:	48 83 c0 20          	add    rax,0x20
     65c:	e9 4e ff ff ff       	jmp    5af <s113+0x2c>
     661:	bf 00 00 00 00       	mov    edi,0x0
     666:	be 00 00 00 00       	mov    esi,0x0
     66b:	ba 00 00 00 00       	mov    edx,0x0
     670:	b9 00 00 00 00       	mov    ecx,0x0
     675:	41 b8 00 00 00 00    	mov    r8d,0x0
     67b:	41 b9 00 00 00 00    	mov    r9d,0x0
     681:	0f 57 c0             	xorps  xmm0,xmm0
     684:	68 00 00 00 00       	push   0x0
     689:	68 00 00 00 00       	push   0x0
     68e:	e8 00 00 00 00       	call   693 <s113+0x110>
     693:	48 83 c4 10          	add    rsp,0x10
     697:	ff c3                	inc    ebx
     699:	81 fb 80 1a 06 00    	cmp    ebx,0x61a80
     69f:	0f 85 fb fe ff ff    	jne    5a0 <s113+0x1d>
     6a5:	49 83 c6 10          	add    r14,0x10
     6a9:	4c 89 f7             	mov    rdi,r14
     6ac:	31 f6                	xor    esi,esi
     6ae:	e8 00 00 00 00       	call   6b3 <s113+0x130>
     6b3:	bf 00 00 00 00       	mov    edi,0x0
     6b8:	48 83 c4 08          	add    rsp,0x8
     6bc:	5b                   	pop    rbx
     6bd:	41 5e                	pop    r14
     6bf:	e9 00 00 00 00       	jmp    6c4 <s1113>

00000000000006c4 <s1113>:
     6c4:	41 56                	push   r14
     6c6:	53                   	push   rbx
     6c7:	50                   	push   rax
     6c8:	49 89 fe             	mov    r14,rdi
     6cb:	bf 00 00 00 00       	mov    edi,0x0
     6d0:	e8 00 00 00 00       	call   6d5 <s1113+0x11>
     6d5:	31 db                	xor    ebx,ebx
     6d7:	4c 89 f7             	mov    rdi,r14
     6da:	31 f6                	xor    esi,esi
     6dc:	e8 00 00 00 00       	call   6e1 <s1113+0x1d>
     6e1:	48 c7 c0 00 0c fe ff 	mov    rax,0xfffffffffffe0c00
     6e8:	f3 0f 10 05 00 00 00 	movss  xmm0,DWORD PTR [rip+0x0]        # 6f0 <s1113+0x2c>
     6ef:	00 
     6f0:	f3 0f 58 80 00 00 00 	addss  xmm0,DWORD PTR [rax+0x0]
     6f7:	00 
     6f8:	f3 0f 11 80 00 00 00 	movss  DWORD PTR [rax+0x0],xmm0
     6ff:	00 
     700:	48 83 c0 04          	add    rax,0x4
     704:	75 e2                	jne    6e8 <s1113+0x24>
     706:	bf 00 00 00 00       	mov    edi,0x0
     70b:	be 00 00 00 00       	mov    esi,0x0
     710:	ba 00 00 00 00       	mov    edx,0x0
     715:	b9 00 00 00 00       	mov    ecx,0x0
     71a:	41 b8 00 00 00 00    	mov    r8d,0x0
     720:	41 b9 00 00 00 00    	mov    r9d,0x0
     726:	0f 57 c0             	xorps  xmm0,xmm0
     729:	68 00 00 00 00       	push   0x0
     72e:	68 00 00 00 00       	push   0x0
     733:	e8 00 00 00 00       	call   738 <s1113+0x74>
     738:	48 83 c4 10          	add    rsp,0x10
     73c:	ff c3                	inc    ebx
     73e:	81 fb 40 0d 03 00    	cmp    ebx,0x30d40
     744:	75 9b                	jne    6e1 <s1113+0x1d>
     746:	49 83 c6 10          	add    r14,0x10
     74a:	4c 89 f7             	mov    rdi,r14
     74d:	31 f6                	xor    esi,esi
     74f:	e8 00 00 00 00       	call   754 <s1113+0x90>
     754:	bf 00 00 00 00       	mov    edi,0x0
     759:	48 83 c4 08          	add    rsp,0x8
     75d:	5b                   	pop    rbx
     75e:	41 5e                	pop    r14
     760:	e9 00 00 00 00       	jmp    765 <s114>

0000000000000765 <s114>:
     765:	41 56                	push   r14
     767:	53                   	push   rbx
     768:	50                   	push   rax
     769:	49 89 fe             	mov    r14,rdi
     76c:	bf 00 00 00 00       	mov    edi,0x0
     771:	e8 00 00 00 00       	call   776 <s114+0x11>
     776:	31 db                	xor    ebx,ebx
     778:	4c 89 f7             	mov    rdi,r14
     77b:	31 f6                	xor    esi,esi
     77d:	e8 00 00 00 00       	call   782 <s114+0x1d>
     782:	b8 00 00 00 00       	mov    eax,0x0
     787:	31 c9                	xor    ecx,ecx
     789:	31 d2                	xor    edx,edx
     78b:	48 85 d2             	test   rdx,rdx
     78e:	74 2a                	je     7ba <s114+0x55>
     790:	48 89 c6             	mov    rsi,rax
     793:	31 ff                	xor    edi,edi
     795:	f3 0f 10 06          	movss  xmm0,DWORD PTR [rsi]
     799:	f3 0f 58 84 b9 00 00 	addss  xmm0,DWORD PTR [rcx+rdi*4+0x0]
     7a0:	00 00 
     7a2:	f3 0f 11 84 b9 00 00 	movss  DWORD PTR [rcx+rdi*4+0x0],xmm0
     7a9:	00 00 
     7ab:	48 ff c7             	inc    rdi
     7ae:	48 81 c6 00 04 00 00 	add    rsi,0x400
     7b5:	48 39 fa             	cmp    rdx,rdi
     7b8:	75 db                	jne    795 <s114+0x30>
     7ba:	48 ff c2             	inc    rdx
     7bd:	48 81 c1 00 04 00 00 	add    rcx,0x400
     7c4:	48 83 c0 04          	add    rax,0x4
     7c8:	48 81 fa 00 01 00 00 	cmp    rdx,0x100
     7cf:	75 ba                	jne    78b <s114+0x26>
     7d1:	bf 00 00 00 00       	mov    edi,0x0
     7d6:	be 00 00 00 00       	mov    esi,0x0
     7db:	ba 00 00 00 00       	mov    edx,0x0
     7e0:	b9 00 00 00 00       	mov    ecx,0x0
     7e5:	41 b8 00 00 00 00    	mov    r8d,0x0
     7eb:	41 b9 00 00 00 00    	mov    r9d,0x0
     7f1:	0f 57 c0             	xorps  xmm0,xmm0
     7f4:	68 00 00 00 00       	push   0x0
     7f9:	68 00 00 00 00       	push   0x0
     7fe:	e8 00 00 00 00       	call   803 <s114+0x9e>
     803:	48 83 c4 10          	add    rsp,0x10
     807:	ff c3                	inc    ebx
     809:	81 fb b0 30 01 00    	cmp    ebx,0x130b0
     80f:	0f 85 6d ff ff ff    	jne    782 <s114+0x1d>
     815:	49 83 c6 10          	add    r14,0x10
     819:	4c 89 f7             	mov    rdi,r14
     81c:	31 f6                	xor    esi,esi
     81e:	e8 00 00 00 00       	call   823 <s114+0xbe>
     823:	bf 00 00 00 00       	mov    edi,0x0
     828:	48 83 c4 08          	add    rsp,0x8
     82c:	5b                   	pop    rbx
     82d:	41 5e                	pop    r14
     82f:	e9 00 00 00 00       	jmp    834 <s115>

0000000000000834 <s115>:
     834:	41 57                	push   r15
     836:	41 56                	push   r14
     838:	41 54                	push   r12
     83a:	53                   	push   rbx
     83b:	50                   	push   rax
     83c:	49 89 fe             	mov    r14,rdi
     83f:	bf 00 00 00 00       	mov    edi,0x0
     844:	e8 00 00 00 00       	call   849 <s115+0x15>
     849:	45 31 ff             	xor    r15d,r15d
     84c:	4c 89 f7             	mov    rdi,r14
     84f:	31 f6                	xor    esi,esi
     851:	e8 00 00 00 00       	call   856 <s115+0x22>
     856:	41 ba 01 00 00 00    	mov    r10d,0x1
     85c:	49 c7 c3 ff ff ff ff 	mov    r11,0xffffffffffffffff
     863:	ba 00 00 00 00       	mov    edx,0x0
     868:	41 bc 00 00 00 00    	mov    r12d,0x0
     86e:	41 b9 00 00 00 00    	mov    r9d,0x0
     874:	45 31 c0             	xor    r8d,r8d
     877:	4c 89 c3             	mov    rbx,r8
     87a:	49 ff c0             	inc    r8
     87d:	48 81 fb fe 00 00 00 	cmp    rbx,0xfe
     884:	0f 87 8b 00 00 00    	ja     915 <s115+0xe1>
     88a:	b9 07 00 00 00       	mov    ecx,0x7
     88f:	29 d9                	sub    ecx,ebx
     891:	4c 89 d0             	mov    rax,r10
     894:	f6 c1 07             	test   cl,0x7
     897:	74 2f                	je     8c8 <s115+0x94>
     899:	44 89 df             	mov    edi,r11d
     89c:	83 e7 07             	and    edi,0x7
     89f:	31 c0                	xor    eax,eax
     8a1:	f3 41 0f 10 04 84    	movss  xmm0,DWORD PTR [r12+rax*4]
     8a7:	f3 0f 59 04 9d 00 00 	mulss  xmm0,DWORD PTR [rbx*4+0x0]
     8ae:	00 00 
     8b0:	f3 0f 10 0c 82       	movss  xmm1,DWORD PTR [rdx+rax*4]
     8b5:	f3 0f 5c c8          	subss  xmm1,xmm0
     8b9:	f3 0f 11 0c 82       	movss  DWORD PTR [rdx+rax*4],xmm1
     8be:	48 ff c0             	inc    rax
     8c1:	39 c7                	cmp    edi,eax
     8c3:	75 dc                	jne    8a1 <s115+0x6d>
     8c5:	4c 29 d8             	sub    rax,r11
     8c8:	b9 fe 00 00 00       	mov    ecx,0xfe
     8cd:	29 d9                	sub    ecx,ebx
     8cf:	83 f9 07             	cmp    ecx,0x7
     8d2:	72 41                	jb     915 <s115+0xe1>
     8d4:	bf f8 00 00 00       	mov    edi,0xf8
     8d9:	48 29 c7             	sub    rdi,rax
     8dc:	48 83 cf 07          	or     rdi,0x7
     8e0:	48 ff c7             	inc    rdi
     8e3:	48 8d 0c 85 00 00 00 	lea    rcx,[rax*4+0x0]
     8ea:	00 
     8eb:	49 8d 04 81          	lea    rax,[r9+rax*4]
     8ef:	31 f6                	xor    esi,esi
     8f1:	f3 0f 10 04 b0       	movss  xmm0,DWORD PTR [rax+rsi*4]
     8f6:	f3 0f 59 04 9d 00 00 	mulss  xmm0,DWORD PTR [rbx*4+0x0]
     8fd:	00 00 
     8ff:	f3 0f 10 0c b1       	movss  xmm1,DWORD PTR [rcx+rsi*4]
     904:	f3 0f 5c c8          	subss  xmm1,xmm0
     908:	f3 0f 11 0c b1       	movss  DWORD PTR [rcx+rsi*4],xmm1
     90d:	48 ff c6             	inc    rsi
     910:	48 39 f7             	cmp    rdi,rsi
     913:	75 dc                	jne    8f1 <s115+0xbd>
     915:	49 ff c2             	inc    r10
     918:	49 ff cb             	dec    r11
     91b:	48 83 c2 04          	add    rdx,0x4
     91f:	49 81 c4 04 04 00 00 	add    r12,0x404
     926:	49 81 c1 00 04 00 00 	add    r9,0x400
     92d:	49 81 f8 00 01 00 00 	cmp    r8,0x100
     934:	0f 85 3d ff ff ff    	jne    877 <s115+0x43>
     93a:	bf 00 00 00 00       	mov    edi,0x0
     93f:	be 00 00 00 00       	mov    esi,0x0
     944:	ba 00 00 00 00       	mov    edx,0x0
     949:	b9 00 00 00 00       	mov    ecx,0x0
     94e:	41 b8 00 00 00 00    	mov    r8d,0x0
     954:	41 b9 00 00 00 00    	mov    r9d,0x0
     95a:	0f 57 c0             	xorps  xmm0,xmm0
     95d:	68 00 00 00 00       	push   0x0
     962:	68 00 00 00 00       	push   0x0
     967:	e8 00 00 00 00       	call   96c <s115+0x138>
     96c:	48 83 c4 10          	add    rsp,0x10
     970:	41 ff c7             	inc    r15d
     973:	41 81 ff 70 f3 05 00 	cmp    r15d,0x5f370
     97a:	0f 85 d6 fe ff ff    	jne    856 <s115+0x22>
     980:	49 83 c6 10          	add    r14,0x10
     984:	4c 89 f7             	mov    rdi,r14
     987:	31 f6                	xor    esi,esi
     989:	e8 00 00 00 00       	call   98e <s115+0x15a>
     98e:	bf 00 00 00 00       	mov    edi,0x0
     993:	48 83 c4 08          	add    rsp,0x8
     997:	5b                   	pop    rbx
     998:	41 5c                	pop    r12
     99a:	41 5e                	pop    r14
     99c:	41 5f                	pop    r15
     99e:	e9 00 00 00 00       	jmp    9a3 <s1115>

00000000000009a3 <s1115>:
     9a3:	41 56                	push   r14
     9a5:	53                   	push   rbx
     9a6:	50                   	push   rax
     9a7:	49 89 fe             	mov    r14,rdi
     9aa:	bf 00 00 00 00       	mov    edi,0x0
     9af:	e8 00 00 00 00       	call   9b4 <s1115+0x11>
     9b4:	31 db                	xor    ebx,ebx
     9b6:	4c 89 f7             	mov    rdi,r14
     9b9:	31 f6                	xor    esi,esi
     9bb:	e8 00 00 00 00       	call   9c0 <s1115+0x1d>
     9c0:	b8 00 00 00 00       	mov    eax,0x0
     9c5:	31 c9                	xor    ecx,ecx
     9c7:	31 d2                	xor    edx,edx
     9c9:	48 89 ce             	mov    rsi,rcx
     9cc:	31 ff                	xor    edi,edi
     9ce:	f3 0f 10 86 00 00 00 	movss  xmm0,DWORD PTR [rsi+0x0]
     9d5:	00 
     9d6:	f3 0f 59 04 b8       	mulss  xmm0,DWORD PTR [rax+rdi*4]
     9db:	f3 0f 58 86 00 00 00 	addss  xmm0,DWORD PTR [rsi+0x0]
     9e2:	00 
     9e3:	f3 0f 11 86 00 00 00 	movss  DWORD PTR [rsi+0x0],xmm0
     9ea:	00 
     9eb:	48 81 c7 00 01 00 00 	add    rdi,0x100
     9f2:	48 83 c6 04          	add    rsi,0x4
     9f6:	48 81 ff 00 00 01 00 	cmp    rdi,0x10000
     9fd:	75 cf                	jne    9ce <s1115+0x2b>
     9ff:	48 ff c2             	inc    rdx
     a02:	48 81 c1 00 04 00 00 	add    rcx,0x400
     a09:	48 83 c0 04          	add    rax,0x4
     a0d:	48 81 fa 00 01 00 00 	cmp    rdx,0x100
     a14:	75 b3                	jne    9c9 <s1115+0x26>
     a16:	bf 00 00 00 00       	mov    edi,0x0
     a1b:	be 00 00 00 00       	mov    esi,0x0
     a20:	ba 00 00 00 00       	mov    edx,0x0
     a25:	b9 00 00 00 00       	mov    ecx,0x0
     a2a:	41 b8 00 00 00 00    	mov    r8d,0x0
     a30:	41 b9 00 00 00 00    	mov    r9d,0x0
     a36:	0f 57 c0             	xorps  xmm0,xmm0
     a39:	68 00 00 00 00       	push   0x0
     a3e:	68 00 00 00 00       	push   0x0
     a43:	e8 00 00 00 00       	call   a48 <s1115+0xa5>
     a48:	48 83 c4 10          	add    rsp,0x10
     a4c:	ff c3                	inc    ebx
     a4e:	81 fb 58 98 00 00    	cmp    ebx,0x9858
     a54:	0f 85 66 ff ff ff    	jne    9c0 <s1115+0x1d>
     a5a:	49 83 c6 10          	add    r14,0x10
     a5e:	4c 89 f7             	mov    rdi,r14
     a61:	31 f6                	xor    esi,esi
     a63:	e8 00 00 00 00       	call   a68 <s1115+0xc5>
     a68:	bf 00 00 00 00       	mov    edi,0x0
     a6d:	48 83 c4 08          	add    rsp,0x8
     a71:	5b                   	pop    rbx
     a72:	41 5e                	pop    r14
     a74:	e9 00 00 00 00       	jmp    a79 <s116>

0000000000000a79 <s116>:
     a79:	41 56                	push   r14
     a7b:	53                   	push   rbx
     a7c:	50                   	push   rax
     a7d:	49 89 fe             	mov    r14,rdi
     a80:	bf 00 00 00 00       	mov    edi,0x0
     a85:	e8 00 00 00 00       	call   a8a <s116+0x11>
     a8a:	31 db                	xor    ebx,ebx
     a8c:	4c 89 f7             	mov    rdi,r14
     a8f:	31 f6                	xor    esi,esi
     a91:	e8 00 00 00 00       	call   a96 <s116+0x1d>
     a96:	48 c7 c0 fb ff ff ff 	mov    rax,0xfffffffffffffffb
     a9d:	f3 0f 10 05 00 00 00 	movss  xmm0,DWORD PTR [rip+0x0]        # aa5 <s116+0x2c>
     aa4:	00 
     aa5:	f3 0f 10 0c 85 00 00 	movss  xmm1,DWORD PTR [rax*4+0x0]
     aac:	00 00 
     aae:	f3 0f 59 c1          	mulss  xmm0,xmm1
     ab2:	f3 0f 11 04 85 00 00 	movss  DWORD PTR [rax*4+0x0],xmm0
     ab9:	00 00 
     abb:	f3 0f 10 04 85 00 00 	movss  xmm0,DWORD PTR [rax*4+0x0]
     ac2:	00 00 
     ac4:	f3 0f 59 c8          	mulss  xmm1,xmm0
     ac8:	f3 0f 11 0c 85 00 00 	movss  DWORD PTR [rax*4+0x0],xmm1
     acf:	00 00 
     ad1:	f3 0f 10 0c 85 00 00 	movss  xmm1,DWORD PTR [rax*4+0x0]
     ad8:	00 00 
     ada:	f3 0f 59 c1          	mulss  xmm0,xmm1
     ade:	f3 0f 11 04 85 00 00 	movss  DWORD PTR [rax*4+0x0],xmm0
     ae5:	00 00 
     ae7:	f3 0f 10 14 85 00 00 	movss  xmm2,DWORD PTR [rax*4+0x0]
     aee:	00 00 
     af0:	f3 0f 59 ca          	mulss  xmm1,xmm2
     af4:	f3 0f 11 0c 85 00 00 	movss  DWORD PTR [rax*4+0x0],xmm1
     afb:	00 00 
     afd:	f3 0f 10 04 85 00 00 	movss  xmm0,DWORD PTR [rax*4+0x0]
     b04:	00 00 
     b06:	f3 0f 59 d0          	mulss  xmm2,xmm0
     b0a:	f3 0f 11 14 85 00 00 	movss  DWORD PTR [rax*4+0x0],xmm2
     b11:	00 00 
     b13:	48 83 c0 05          	add    rax,0x5
     b17:	48 3d f6 7c 00 00    	cmp    rax,0x7cf6
     b1d:	72 86                	jb     aa5 <s116+0x2c>
     b1f:	bf 00 00 00 00       	mov    edi,0x0
     b24:	be 00 00 00 00       	mov    esi,0x0
     b29:	ba 00 00 00 00       	mov    edx,0x0
     b2e:	b9 00 00 00 00       	mov    ecx,0x0
     b33:	41 b8 00 00 00 00    	mov    r8d,0x0
     b39:	41 b9 00 00 00 00    	mov    r9d,0x0
     b3f:	0f 57 c0             	xorps  xmm0,xmm0
     b42:	68 00 00 00 00       	push   0x0
     b47:	68 00 00 00 00       	push   0x0
     b4c:	e8 00 00 00 00       	call   b51 <s116+0xd8>
     b51:	48 83 c4 10          	add    rsp,0x10
     b55:	ff c3                	inc    ebx
     b57:	81 fb 40 42 0f 00    	cmp    ebx,0xf4240
     b5d:	0f 85 33 ff ff ff    	jne    a96 <s116+0x1d>
     b63:	49 83 c6 10          	add    r14,0x10
     b67:	4c 89 f7             	mov    rdi,r14
     b6a:	31 f6                	xor    esi,esi
     b6c:	e8 00 00 00 00       	call   b71 <s116+0xf8>
     b71:	bf 00 00 00 00       	mov    edi,0x0
     b76:	48 83 c4 08          	add    rsp,0x8
     b7a:	5b                   	pop    rbx
     b7b:	41 5e                	pop    r14
     b7d:	e9 00 00 00 00       	jmp    b82 <s118>

0000000000000b82 <s118>:
     b82:	41 56                	push   r14
     b84:	53                   	push   rbx
     b85:	50                   	push   rax
     b86:	49 89 fe             	mov    r14,rdi
     b89:	bf 00 00 00 00       	mov    edi,0x0
     b8e:	e8 00 00 00 00       	call   b93 <s118+0x11>
     b93:	31 db                	xor    ebx,ebx
     b95:	4c 89 f7             	mov    rdi,r14
     b98:	31 f6                	xor    esi,esi
     b9a:	e8 00 00 00 00       	call   b9f <s118+0x1d>
     b9f:	b8 01 00 00 00       	mov    eax,0x1
     ba4:	b9 00 00 00 00       	mov    ecx,0x0
     ba9:	31 d2                	xor    edx,edx
     bab:	f3 0f 10 04 85 00 00 	movss  xmm0,DWORD PTR [rax*4+0x0]
     bb2:	00 00 
     bb4:	48 89 ce             	mov    rsi,rcx
     bb7:	48 89 d7             	mov    rdi,rdx
     bba:	f3 0f 10 0e          	movss  xmm1,DWORD PTR [rsi]
     bbe:	f3 0f 59 8f 00 00 00 	mulss  xmm1,DWORD PTR [rdi+0x0]
     bc5:	00 
     bc6:	f3 0f 58 c1          	addss  xmm0,xmm1
     bca:	f3 0f 11 04 85 00 00 	movss  DWORD PTR [rax*4+0x0],xmm0
     bd1:	00 00 
     bd3:	48 83 c7 fc          	add    rdi,0xfffffffffffffffc
     bd7:	48 81 c6 00 04 00 00 	add    rsi,0x400
     bde:	48 83 ff fc          	cmp    rdi,0xfffffffffffffffc
     be2:	75 d6                	jne    bba <s118+0x38>
     be4:	48 ff c0             	inc    rax
     be7:	48 83 c2 04          	add    rdx,0x4
     beb:	48 83 c1 04          	add    rcx,0x4
     bef:	48 3d 00 01 00 00    	cmp    rax,0x100
     bf5:	75 b4                	jne    bab <s118+0x29>
     bf7:	bf 00 00 00 00       	mov    edi,0x0
     bfc:	be 00 00 00 00       	mov    esi,0x0
     c01:	ba 00 00 00 00       	mov    edx,0x0
     c06:	b9 00 00 00 00       	mov    ecx,0x0
     c0b:	41 b8 00 00 00 00    	mov    r8d,0x0
     c11:	41 b9 00 00 00 00    	mov    r9d,0x0
     c17:	0f 57 c0             	xorps  xmm0,xmm0
     c1a:	68 00 00 00 00       	push   0x0
     c1f:	68 00 00 00 00       	push   0x0
     c24:	e8 00 00 00 00       	call   c29 <s118+0xa7>
     c29:	48 83 c4 10          	add    rsp,0x10
     c2d:	ff c3                	inc    ebx
     c2f:	81 fb b0 30 01 00    	cmp    ebx,0x130b0
     c35:	0f 85 64 ff ff ff    	jne    b9f <s118+0x1d>
     c3b:	49 83 c6 10          	add    r14,0x10
     c3f:	4c 89 f7             	mov    rdi,r14
     c42:	31 f6                	xor    esi,esi
     c44:	e8 00 00 00 00       	call   c49 <s118+0xc7>
     c49:	bf 00 00 00 00       	mov    edi,0x0
     c4e:	48 83 c4 08          	add    rsp,0x8
     c52:	5b                   	pop    rbx
     c53:	41 5e                	pop    r14
     c55:	e9 00 00 00 00       	jmp    c5a <s119>

0000000000000c5a <s119>:
     c5a:	41 56                	push   r14
     c5c:	53                   	push   rbx
     c5d:	50                   	push   rax
     c5e:	49 89 fe             	mov    r14,rdi
     c61:	bf 00 00 00 00       	mov    edi,0x0
     c66:	e8 00 00 00 00       	call   c6b <s119+0x11>
     c6b:	31 db                	xor    ebx,ebx
     c6d:	4c 89 f7             	mov    rdi,r14
     c70:	31 f6                	xor    esi,esi
     c72:	e8 00 00 00 00       	call   c77 <s119+0x1d>
     c77:	b8 01 00 00 00       	mov    eax,0x1
     c7c:	b9 20 04 00 00       	mov    ecx,0x420
     c81:	48 c7 c2 08 ff ff ff 	mov    rdx,0xffffffffffffff08
     c88:	f3 0f 10 84 91 00 00 	movss  xmm0,DWORD PTR [rcx+rdx*4+0x0]
     c8f:	00 00 
     c91:	f3 0f 58 84 91 00 00 	addss  xmm0,DWORD PTR [rcx+rdx*4+0x0]
     c98:	00 00 
     c9a:	f3 0f 11 84 91 00 00 	movss  DWORD PTR [rcx+rdx*4+0x0],xmm0
     ca1:	00 00 
     ca3:	f3 0f 10 84 91 00 00 	movss  xmm0,DWORD PTR [rcx+rdx*4+0x0]
     caa:	00 00 
     cac:	f3 0f 58 84 91 00 00 	addss  xmm0,DWORD PTR [rcx+rdx*4+0x0]
     cb3:	00 00 
     cb5:	f3 0f 11 84 91 00 00 	movss  DWORD PTR [rcx+rdx*4+0x0],xmm0
     cbc:	00 00 
     cbe:	f3 0f 10 84 91 00 00 	movss  xmm0,DWORD PTR [rcx+rdx*4+0x0]
     cc5:	00 00 
     cc7:	f3 0f 58 84 91 00 00 	addss  xmm0,DWORD PTR [rcx+rdx*4+0x0]
     cce:	00 00 
     cd0:	f3 0f 11 84 91 00 00 	movss  DWORD PTR [rcx+rdx*4+0x0],xmm0
     cd7:	00 00 
     cd9:	f3 0f 10 84 91 00 00 	movss  xmm0,DWORD PTR [rcx+rdx*4+0x0]
     ce0:	00 00 
     ce2:	f3 0f 58 84 91 00 00 	addss  xmm0,DWORD PTR [rcx+rdx*4+0x0]
     ce9:	00 00 
     ceb:	f3 0f 11 84 91 00 00 	movss  DWORD PTR [rcx+rdx*4+0x0],xmm0
     cf2:	00 00 
     cf4:	f3 0f 10 84 91 00 00 	movss  xmm0,DWORD PTR [rcx+rdx*4+0x0]
     cfb:	00 00 
     cfd:	f3 0f 58 84 91 00 00 	addss  xmm0,DWORD PTR [rcx+rdx*4+0x0]
     d04:	00 00 
     d06:	f3 0f 11 84 91 00 00 	movss  DWORD PTR [rcx+rdx*4+0x0],xmm0
     d0d:	00 00 
     d0f:	f3 0f 10 84 91 00 00 	movss  xmm0,DWORD PTR [rcx+rdx*4+0x0]
     d16:	00 00 
     d18:	f3 0f 58 84 91 00 00 	addss  xmm0,DWORD PTR [rcx+rdx*4+0x0]
     d1f:	00 00 
     d21:	f3 0f 11 84 91 00 00 	movss  DWORD PTR [rcx+rdx*4+0x0],xmm0
     d28:	00 00 
     d2a:	f3 0f 10 84 91 00 00 	movss  xmm0,DWORD PTR [rcx+rdx*4+0x0]
     d31:	00 00 
     d33:	f3 0f 58 84 91 00 00 	addss  xmm0,DWORD PTR [rcx+rdx*4+0x0]
     d3a:	00 00 
     d3c:	f3 0f 11 84 91 00 00 	movss  DWORD PTR [rcx+rdx*4+0x0],xmm0
     d43:	00 00 
     d45:	48 85 d2             	test   rdx,rdx
     d48:	74 24                	je     d6e <s119+0x114>
     d4a:	f3 0f 10 84 91 00 00 	movss  xmm0,DWORD PTR [rcx+rdx*4+0x0]
     d51:	00 00 
     d53:	f3 0f 58 84 91 00 00 	addss  xmm0,DWORD PTR [rcx+rdx*4+0x0]
     d5a:	00 00 
     d5c:	f3 0f 11 84 91 00 00 	movss  DWORD PTR [rcx+rdx*4+0x0],xmm0
     d63:	00 00 
     d65:	48 83 c2 08          	add    rdx,0x8
     d69:	e9 1a ff ff ff       	jmp    c88 <s119+0x2e>
     d6e:	48 ff c0             	inc    rax
     d71:	48 81 c1 00 04 00 00 	add    rcx,0x400
     d78:	48 3d 00 01 00 00    	cmp    rax,0x100
     d7e:	0f 85 fd fe ff ff    	jne    c81 <s119+0x27>
     d84:	bf 00 00 00 00       	mov    edi,0x0
     d89:	be 00 00 00 00       	mov    esi,0x0
     d8e:	ba 00 00 00 00       	mov    edx,0x0
     d93:	b9 00 00 00 00       	mov    ecx,0x0
     d98:	41 b8 00 00 00 00    	mov    r8d,0x0
     d9e:	41 b9 00 00 00 00    	mov    r9d,0x0
     da4:	0f 57 c0             	xorps  xmm0,xmm0
     da7:	68 00 00 00 00       	push   0x0
     dac:	68 00 00 00 00       	push   0x0
     db1:	e8 00 00 00 00       	call   db6 <s119+0x15c>
     db6:	48 83 c4 10          	add    rsp,0x10
     dba:	ff c3                	inc    ebx
     dbc:	81 fb b0 30 01 00    	cmp    ebx,0x130b0
     dc2:	0f 85 af fe ff ff    	jne    c77 <s119+0x1d>
     dc8:	49 83 c6 10          	add    r14,0x10
     dcc:	4c 89 f7             	mov    rdi,r14
     dcf:	31 f6                	xor    esi,esi
     dd1:	e8 00 00 00 00       	call   dd6 <s119+0x17c>
     dd6:	bf 00 00 00 00       	mov    edi,0x0
     ddb:	48 83 c4 08          	add    rsp,0x8
     ddf:	5b                   	pop    rbx
     de0:	41 5e                	pop    r14
     de2:	e9 00 00 00 00       	jmp    de7 <s1119>

0000000000000de7 <s1119>:
     de7:	41 56                	push   r14
     de9:	53                   	push   rbx
     dea:	50                   	push   rax
     deb:	49 89 fe             	mov    r14,rdi
     dee:	bf 00 00 00 00       	mov    edi,0x0
     df3:	e8 00 00 00 00       	call   df8 <s1119+0x11>
     df8:	31 db                	xor    ebx,ebx
     dfa:	4c 89 f7             	mov    rdi,r14
     dfd:	31 f6                	xor    esi,esi
     dff:	e8 00 00 00 00       	call   e04 <s1119+0x1d>
     e04:	b8 01 00 00 00       	mov    eax,0x1
     e09:	b9 00 04 00 00       	mov    ecx,0x400
     e0e:	48 c7 c2 00 fc ff ff 	mov    rdx,0xfffffffffffffc00
     e15:	f3 0f 10 84 11 00 00 	movss  xmm0,DWORD PTR [rcx+rdx*1+0x0]
     e1c:	00 00 
     e1e:	f3 0f 58 84 11 00 00 	addss  xmm0,DWORD PTR [rcx+rdx*1+0x0]
     e25:	00 00 
     e27:	f3 0f 11 84 11 00 00 	movss  DWORD PTR [rcx+rdx*1+0x0],xmm0
     e2e:	00 00 
     e30:	48 83 c2 04          	add    rdx,0x4
     e34:	75 df                	jne    e15 <s1119+0x2e>
     e36:	48 ff c0             	inc    rax
     e39:	48 81 c1 00 04 00 00 	add    rcx,0x400
     e40:	48 3d 00 01 00 00    	cmp    rax,0x100
     e46:	75 c6                	jne    e0e <s1119+0x27>
     e48:	bf 00 00 00 00       	mov    edi,0x0
     e4d:	be 00 00 00 00       	mov    esi,0x0
     e52:	ba 00 00 00 00       	mov    edx,0x0
     e57:	b9 00 00 00 00       	mov    ecx,0x0
     e5c:	41 b8 00 00 00 00    	mov    r8d,0x0
     e62:	41 b9 00 00 00 00    	mov    r9d,0x0
     e68:	0f 57 c0             	xorps  xmm0,xmm0
     e6b:	68 00 00 00 00       	push   0x0
     e70:	68 00 00 00 00       	push   0x0
     e75:	e8 00 00 00 00       	call   e7a <s1119+0x93>
     e7a:	48 83 c4 10          	add    rsp,0x10
     e7e:	ff c3                	inc    ebx
     e80:	81 fb b0 30 01 00    	cmp    ebx,0x130b0
     e86:	0f 85 78 ff ff ff    	jne    e04 <s1119+0x1d>
     e8c:	49 83 c6 10          	add    r14,0x10
     e90:	4c 89 f7             	mov    rdi,r14
     e93:	31 f6                	xor    esi,esi
     e95:	e8 00 00 00 00       	call   e9a <s1119+0xb3>
     e9a:	bf 00 00 00 00       	mov    edi,0x0
     e9f:	48 83 c4 08          	add    rsp,0x8
     ea3:	5b                   	pop    rbx
     ea4:	41 5e                	pop    r14
     ea6:	e9 00 00 00 00       	jmp    eab <s121>

0000000000000eab <s121>:
     eab:	41 56                	push   r14
     ead:	53                   	push   rbx
     eae:	50                   	push   rax
     eaf:	49 89 fe             	mov    r14,rdi
     eb2:	bf 00 00 00 00       	mov    edi,0x0
     eb7:	e8 00 00 00 00       	call   ebc <s121+0x11>
     ebc:	31 db                	xor    ebx,ebx
     ebe:	4c 89 f7             	mov    rdi,r14
     ec1:	31 f6                	xor    esi,esi
     ec3:	e8 00 00 00 00       	call   ec8 <s121+0x1d>
     ec8:	48 c7 c0 20 0c fe ff 	mov    rax,0xfffffffffffe0c20
     ecf:	f3 0f 10 80 00 00 00 	movss  xmm0,DWORD PTR [rax+0x0]
     ed6:	00 
     ed7:	f3 0f 58 80 00 00 00 	addss  xmm0,DWORD PTR [rax+0x0]
     ede:	00 
     edf:	f3 0f 11 80 00 00 00 	movss  DWORD PTR [rax+0x0],xmm0
     ee6:	00 
     ee7:	f3 0f 10 80 00 00 00 	movss  xmm0,DWORD PTR [rax+0x0]
     eee:	00 
     eef:	f3 0f 58 80 00 00 00 	addss  xmm0,DWORD PTR [rax+0x0]
     ef6:	00 
     ef7:	f3 0f 11 80 00 00 00 	movss  DWORD PTR [rax+0x0],xmm0
     efe:	00 
     eff:	f3 0f 10 80 00 00 00 	movss  xmm0,DWORD PTR [rax+0x0]
     f06:	00 
     f07:	f3 0f 58 80 00 00 00 	addss  xmm0,DWORD PTR [rax+0x0]
     f0e:	00 
     f0f:	f3 0f 11 80 00 00 00 	movss  DWORD PTR [rax+0x0],xmm0
     f16:	00 
     f17:	f3 0f 10 80 00 00 00 	movss  xmm0,DWORD PTR [rax+0x0]
     f1e:	00 
     f1f:	f3 0f 58 80 00 00 00 	addss  xmm0,DWORD PTR [rax+0x0]
     f26:	00 
     f27:	f3 0f 11 80 00 00 00 	movss  DWORD PTR [rax+0x0],xmm0
     f2e:	00 
     f2f:	f3 0f 10 80 00 00 00 	movss  xmm0,DWORD PTR [rax+0x0]
     f36:	00 
     f37:	f3 0f 58 80 00 00 00 	addss  xmm0,DWORD PTR [rax+0x0]
     f3e:	00 
     f3f:	f3 0f 11 80 00 00 00 	movss  DWORD PTR [rax+0x0],xmm0
     f46:	00 
     f47:	f3 0f 10 80 00 00 00 	movss  xmm0,DWORD PTR [rax+0x0]
     f4e:	00 
     f4f:	f3 0f 58 80 00 00 00 	addss  xmm0,DWORD PTR [rax+0x0]
     f56:	00 
     f57:	f3 0f 11 80 00 00 00 	movss  DWORD PTR [rax+0x0],xmm0
     f5e:	00 
     f5f:	f3 0f 10 80 00 00 00 	movss  xmm0,DWORD PTR [rax+0x0]
     f66:	00 
     f67:	f3 0f 58 80 00 00 00 	addss  xmm0,DWORD PTR [rax+0x0]
     f6e:	00 
     f6f:	f3 0f 11 80 00 00 00 	movss  DWORD PTR [rax+0x0],xmm0
     f76:	00 
     f77:	48 85 c0             	test   rax,rax
     f7a:	74 21                	je     f9d <s121+0xf2>
     f7c:	f3 0f 10 80 00 00 00 	movss  xmm0,DWORD PTR [rax+0x0]
     f83:	00 
     f84:	f3 0f 58 80 00 00 00 	addss  xmm0,DWORD PTR [rax+0x0]
     f8b:	00 
     f8c:	f3 0f 11 80 00 00 00 	movss  DWORD PTR [rax+0x0],xmm0
     f93:	00 
     f94:	48 83 c0 20          	add    rax,0x20
     f98:	e9 32 ff ff ff       	jmp    ecf <s121+0x24>
     f9d:	bf 00 00 00 00       	mov    edi,0x0
     fa2:	be 00 00 00 00       	mov    esi,0x0
     fa7:	ba 00 00 00 00       	mov    edx,0x0
     fac:	b9 00 00 00 00       	mov    ecx,0x0
     fb1:	41 b8 00 00 00 00    	mov    r8d,0x0
     fb7:	41 b9 00 00 00 00    	mov    r9d,0x0
     fbd:	0f 57 c0             	xorps  xmm0,xmm0
     fc0:	68 00 00 00 00       	push   0x0
     fc5:	68 00 00 00 00       	push   0x0
     fca:	e8 00 00 00 00       	call   fcf <s121+0x124>
     fcf:	48 83 c4 10          	add    rsp,0x10
     fd3:	ff c3                	inc    ebx
     fd5:	81 fb e0 93 04 00    	cmp    ebx,0x493e0
     fdb:	0f 85 e7 fe ff ff    	jne    ec8 <s121+0x1d>
     fe1:	49 83 c6 10          	add    r14,0x10
     fe5:	4c 89 f7             	mov    rdi,r14
     fe8:	31 f6                	xor    esi,esi
     fea:	e8 00 00 00 00       	call   fef <s121+0x144>
     fef:	bf 00 00 00 00       	mov    edi,0x0
     ff4:	48 83 c4 08          	add    rsp,0x8
     ff8:	5b                   	pop    rbx
     ff9:	41 5e                	pop    r14
     ffb:	e9 00 00 00 00       	jmp    1000 <s122>

0000000000001000 <s122>:
    1000:	55                   	push   rbp
    1001:	41 57                	push   r15
    1003:	41 56                	push   r14
    1005:	41 55                	push   r13
    1007:	41 54                	push   r12
    1009:	53                   	push   rbx
    100a:	50                   	push   rax
    100b:	48 89 fb             	mov    rbx,rdi
    100e:	48 8b 47 20          	mov    rax,QWORD PTR [rdi+0x20]
    1012:	44 8b 20             	mov    r12d,DWORD PTR [rax]
    1015:	48 63 68 04          	movsxd rbp,DWORD PTR [rax+0x4]
    1019:	bf 00 00 00 00       	mov    edi,0x0
    101e:	e8 00 00 00 00       	call   1023 <s122+0x23>
    1023:	45 31 ed             	xor    r13d,r13d
    1026:	48 89 1c 24          	mov    QWORD PTR [rsp],rbx
    102a:	48 89 df             	mov    rdi,rbx
    102d:	31 f6                	xor    esi,esi
    102f:	e8 00 00 00 00       	call   1034 <s122+0x34>
    1034:	41 8d 44 24 ff       	lea    eax,[r12-0x1]
    1039:	48 63 d8             	movsxd rbx,eax
    103c:	41 8d 04 2c          	lea    eax,[r12+rbp*1]
    1040:	ff c8                	dec    eax
    1042:	41 bf 00 7d 00 00    	mov    r15d,0x7d00
    1048:	44 39 f8             	cmp    eax,r15d
    104b:	44 0f 4f f8          	cmovg  r15d,eax
    104f:	45 29 e7             	sub    r15d,r12d
    1052:	4c 8d 34 ad 00 00 00 	lea    r14,[rbp*4+0x0]
    1059:	00 
    105a:	41 81 fc 00 7d 00 00 	cmp    r12d,0x7d00
    1061:	0f 8f 52 01 00 00    	jg     11b9 <s122+0x1b9>
    1067:	44 89 f8             	mov    eax,r15d
    106a:	31 d2                	xor    edx,edx
    106c:	f7 f5                	div    ebp
    106e:	8d 50 01             	lea    edx,[rax+0x1]
    1071:	41 89 d0             	mov    r8d,edx
    1074:	41 83 e0 07          	and    r8d,0x7
    1078:	83 f8 07             	cmp    eax,0x7
    107b:	73 0a                	jae    1087 <s122+0x87>
    107d:	31 c0                	xor    eax,eax
    107f:	48 89 de             	mov    rsi,rbx
    1082:	e9 fe 00 00 00       	jmp    1185 <s122+0x185>
    1087:	83 e2 f8             	and    edx,0xfffffff8
    108a:	31 c0                	xor    eax,eax
    108c:	49 89 d9             	mov    r9,rbx
    108f:	48 89 de             	mov    rsi,rbx
    1092:	f3 0f 10 04 85 00 00 	movss  xmm0,DWORD PTR [rax*4+0x0]
    1099:	00 00 
    109b:	f3 0f 58 04 b5 00 00 	addss  xmm0,DWORD PTR [rsi*4+0x0]
    10a2:	00 00 
    10a4:	f3 0f 11 04 b5 00 00 	movss  DWORD PTR [rsi*4+0x0],xmm0
    10ab:	00 00 
    10ad:	f3 0f 10 04 85 00 00 	movss  xmm0,DWORD PTR [rax*4+0x0]
    10b4:	00 00 
    10b6:	49 8d 3c b6          	lea    rdi,[r14+rsi*4]
    10ba:	48 81 c7 00 00 00 00 	add    rdi,0x0
    10c1:	f3 41 0f 58 84 b6 00 	addss  xmm0,DWORD PTR [r14+rsi*4+0x0]
    10c8:	00 00 00 
    10cb:	f3 41 0f 11 84 b6 00 	movss  DWORD PTR [r14+rsi*4+0x0],xmm0
    10d2:	00 00 00 
    10d5:	48 01 ee             	add    rsi,rbp
    10d8:	48 01 ee             	add    rsi,rbp
    10db:	f3 0f 10 04 85 00 00 	movss  xmm0,DWORD PTR [rax*4+0x0]
    10e2:	00 00 
    10e4:	4a 8d 1c 37          	lea    rbx,[rdi+r14*1]
    10e8:	f3 0f 58 04 af       	addss  xmm0,DWORD PTR [rdi+rbp*4]
    10ed:	f3 0f 11 04 af       	movss  DWORD PTR [rdi+rbp*4],xmm0
    10f2:	48 01 ee             	add    rsi,rbp
    10f5:	f3 0f 10 04 85 00 00 	movss  xmm0,DWORD PTR [rax*4+0x0]
    10fc:	00 00 
    10fe:	f3 0f 58 04 ef       	addss  xmm0,DWORD PTR [rdi+rbp*8]
    1103:	4a 8d 0c 33          	lea    rcx,[rbx+r14*1]
    1107:	f3 0f 11 04 ef       	movss  DWORD PTR [rdi+rbp*8],xmm0
    110c:	48 01 ee             	add    rsi,rbp
    110f:	f3 0f 10 04 85 00 00 	movss  xmm0,DWORD PTR [rax*4+0x0]
    1116:	00 00 
    1118:	4c 01 f1             	add    rcx,r14
    111b:	f3 0f 58 04 eb       	addss  xmm0,DWORD PTR [rbx+rbp*8]
    1120:	f3 0f 11 04 eb       	movss  DWORD PTR [rbx+rbp*8],xmm0
    1125:	48 01 ee             	add    rsi,rbp
    1128:	f3 0f 10 04 85 00 00 	movss  xmm0,DWORD PTR [rax*4+0x0]
    112f:	00 00 
    1131:	f3 0f 58 04 a9       	addss  xmm0,DWORD PTR [rcx+rbp*4]
    1136:	4a 8d 3c 31          	lea    rdi,[rcx+r14*1]
    113a:	f3 0f 11 04 a9       	movss  DWORD PTR [rcx+rbp*4],xmm0
    113f:	48 01 ee             	add    rsi,rbp
    1142:	f3 0f 10 04 85 00 00 	movss  xmm0,DWORD PTR [rax*4+0x0]
    1149:	00 00 
    114b:	4a 8d 0c 37          	lea    rcx,[rdi+r14*1]
    114f:	f3 0f 58 04 af       	addss  xmm0,DWORD PTR [rdi+rbp*4]
    1154:	f3 0f 11 04 af       	movss  DWORD PTR [rdi+rbp*4],xmm0
    1159:	48 01 ee             	add    rsi,rbp
    115c:	f3 0f 10 04 85 00 00 	movss  xmm0,DWORD PTR [rax*4+0x0]
    1163:	00 00 
    1165:	f3 0f 58 04 a9       	addss  xmm0,DWORD PTR [rcx+rbp*4]
    116a:	f3 0f 11 04 a9       	movss  DWORD PTR [rcx+rbp*4],xmm0
    116f:	48 01 ee             	add    rsi,rbp
    1172:	48 83 c0 f8          	add    rax,0xfffffffffffffff8
    1176:	83 c2 f8             	add    edx,0xfffffff8
    1179:	0f 85 13 ff ff ff    	jne    1092 <s122+0x92>
    117f:	48 f7 d8             	neg    rax
    1182:	4c 89 cb             	mov    rbx,r9
    1185:	45 85 c0             	test   r8d,r8d
    1188:	74 2f                	je     11b9 <s122+0x1b9>
    118a:	48 c1 e0 02          	shl    rax,0x2
    118e:	48 f7 d8             	neg    rax
    1191:	48 8d 04 05 00 00 00 	lea    rax,[rax*1+0x0]
    1198:	00 
    1199:	48 8d 14 b5 00 00 00 	lea    rdx,[rsi*4+0x0]
    11a0:	00 
    11a1:	f3 0f 10 00          	movss  xmm0,DWORD PTR [rax]
    11a5:	f3 0f 58 02          	addss  xmm0,DWORD PTR [rdx]
    11a9:	f3 0f 11 02          	movss  DWORD PTR [rdx],xmm0
    11ad:	48 83 c0 fc          	add    rax,0xfffffffffffffffc
    11b1:	4c 01 f2             	add    rdx,r14
    11b4:	41 ff c8             	dec    r8d
    11b7:	75 e8                	jne    11a1 <s122+0x1a1>
    11b9:	bf 00 00 00 00       	mov    edi,0x0
    11be:	be 00 00 00 00       	mov    esi,0x0
    11c3:	ba 00 00 00 00       	mov    edx,0x0
    11c8:	b9 00 00 00 00       	mov    ecx,0x0
    11cd:	41 b8 00 00 00 00    	mov    r8d,0x0
    11d3:	41 b9 00 00 00 00    	mov    r9d,0x0
    11d9:	0f 57 c0             	xorps  xmm0,xmm0
    11dc:	68 00 00 00 00       	push   0x0
    11e1:	68 00 00 00 00       	push   0x0
    11e6:	e8 00 00 00 00       	call   11eb <s122+0x1eb>
    11eb:	48 83 c4 10          	add    rsp,0x10
    11ef:	41 ff c5             	inc    r13d
    11f2:	41 81 fd a0 86 01 00 	cmp    r13d,0x186a0
    11f9:	0f 85 5b fe ff ff    	jne    105a <s122+0x5a>
    11ff:	48 8b 3c 24          	mov    rdi,QWORD PTR [rsp]
    1203:	48 83 c7 10          	add    rdi,0x10
    1207:	31 f6                	xor    esi,esi
    1209:	e8 00 00 00 00       	call   120e <s122+0x20e>
    120e:	bf 00 00 00 00       	mov    edi,0x0
    1213:	48 83 c4 08          	add    rsp,0x8
    1217:	5b                   	pop    rbx
    1218:	41 5c                	pop    r12
    121a:	41 5d                	pop    r13
    121c:	41 5e                	pop    r14
    121e:	41 5f                	pop    r15
    1220:	5d                   	pop    rbp
    1221:	e9 00 00 00 00       	jmp    1226 <s123>

0000000000001226 <s123>:
    1226:	41 56                	push   r14
    1228:	53                   	push   rbx
    1229:	50                   	push   rax
    122a:	49 89 fe             	mov    r14,rdi
    122d:	bf 00 00 00 00       	mov    edi,0x0
    1232:	e8 00 00 00 00       	call   1237 <s123+0x11>
    1237:	31 db                	xor    ebx,ebx
    1239:	4c 89 f7             	mov    rdi,r14
    123c:	31 f6                	xor    esi,esi
    123e:	e8 00 00 00 00       	call   1243 <s123+0x1d>
    1243:	0f 57 d2             	xorps  xmm2,xmm2
    1246:	b8 ff ff ff ff       	mov    eax,0xffffffff
    124b:	48 c7 c1 00 06 ff ff 	mov    rcx,0xffffffffffff0600
    1252:	f3 0f 10 81 00 00 00 	movss  xmm0,DWORD PTR [rcx+0x0]
    1259:	00 
    125a:	f3 0f 59 81 00 00 00 	mulss  xmm0,DWORD PTR [rcx+0x0]
    1261:	00 
    1262:	f3 0f 10 89 00 00 00 	movss  xmm1,DWORD PTR [rcx+0x0]
    1269:	00 
    126a:	f3 0f 58 c8          	addss  xmm1,xmm0
    126e:	48 63 d0             	movsxd rdx,eax
    1271:	f3 0f 11 0c 95 00 00 	movss  DWORD PTR [rdx*4+0x0],xmm1
    1278:	00 00 
    127a:	f3 0f 10 89 00 00 00 	movss  xmm1,DWORD PTR [rcx+0x0]
    1281:	00 
    1282:	0f 2e ca             	ucomiss xmm1,xmm2
    1285:	76 12                	jbe    1299 <s123+0x73>
    1287:	83 c0 02             	add    eax,0x2
    128a:	f3 0f 58 c1          	addss  xmm0,xmm1
    128e:	f3 0f 11 04 95 00 00 	movss  DWORD PTR [rdx*4+0x0],xmm0
    1295:	00 00 
    1297:	eb 02                	jmp    129b <s123+0x75>
    1299:	ff c0                	inc    eax
    129b:	f3 0f 10 81 00 00 00 	movss  xmm0,DWORD PTR [rcx+0x0]
    12a2:	00 
    12a3:	f3 0f 59 81 00 00 00 	mulss  xmm0,DWORD PTR [rcx+0x0]
    12aa:	00 
    12ab:	f3 0f 10 89 00 00 00 	movss  xmm1,DWORD PTR [rcx+0x0]
    12b2:	00 
    12b3:	f3 0f 58 c8          	addss  xmm1,xmm0
    12b7:	48 63 d0             	movsxd rdx,eax
    12ba:	f3 0f 11 0c 95 00 00 	movss  DWORD PTR [rdx*4+0x0],xmm1
    12c1:	00 00 
    12c3:	f3 0f 10 89 00 00 00 	movss  xmm1,DWORD PTR [rcx+0x0]
    12ca:	00 
    12cb:	0f 2e ca             	ucomiss xmm1,xmm2
    12ce:	76 12                	jbe    12e2 <s123+0xbc>
    12d0:	83 c0 02             	add    eax,0x2
    12d3:	f3 0f 58 c1          	addss  xmm0,xmm1
    12d7:	f3 0f 11 04 95 00 00 	movss  DWORD PTR [rdx*4+0x0],xmm0
    12de:	00 00 
    12e0:	eb 02                	jmp    12e4 <s123+0xbe>
    12e2:	ff c0                	inc    eax
    12e4:	f3 0f 10 81 00 00 00 	movss  xmm0,DWORD PTR [rcx+0x0]
    12eb:	00 
    12ec:	f3 0f 59 81 00 00 00 	mulss  xmm0,DWORD PTR [rcx+0x0]
    12f3:	00 
    12f4:	f3 0f 10 89 00 00 00 	movss  xmm1,DWORD PTR [rcx+0x0]
    12fb:	00 
    12fc:	f3 0f 58 c8          	addss  xmm1,xmm0
    1300:	48 63 d0             	movsxd rdx,eax
    1303:	f3 0f 11 0c 95 00 00 	movss  DWORD PTR [rdx*4+0x0],xmm1
    130a:	00 00 
    130c:	f3 0f 10 89 00 00 00 	movss  xmm1,DWORD PTR [rcx+0x0]
    1313:	00 
    1314:	0f 2e ca             	ucomiss xmm1,xmm2
    1317:	76 12                	jbe    132b <s123+0x105>
    1319:	83 c0 02             	add    eax,0x2
    131c:	f3 0f 58 c1          	addss  xmm0,xmm1
    1320:	f3 0f 11 04 95 00 00 	movss  DWORD PTR [rdx*4+0x0],xmm0
    1327:	00 00 
    1329:	eb 02                	jmp    132d <s123+0x107>
    132b:	ff c0                	inc    eax
    132d:	f3 0f 10 81 00 00 00 	movss  xmm0,DWORD PTR [rcx+0x0]
    1334:	00 
    1335:	f3 0f 59 81 00 00 00 	mulss  xmm0,DWORD PTR [rcx+0x0]
    133c:	00 
    133d:	f3 0f 10 89 00 00 00 	movss  xmm1,DWORD PTR [rcx+0x0]
    1344:	00 
    1345:	f3 0f 58 c8          	addss  xmm1,xmm0
    1349:	48 63 d0             	movsxd rdx,eax
    134c:	f3 0f 11 0c 95 00 00 	movss  DWORD PTR [rdx*4+0x0],xmm1
    1353:	00 00 
    1355:	f3 0f 10 89 00 00 00 	movss  xmm1,DWORD PTR [rcx+0x0]
    135c:	00 
    135d:	0f 2e ca             	ucomiss xmm1,xmm2
    1360:	76 12                	jbe    1374 <s123+0x14e>
    1362:	83 c0 02             	add    eax,0x2
    1365:	f3 0f 58 c1          	addss  xmm0,xmm1
    1369:	f3 0f 11 04 95 00 00 	movss  DWORD PTR [rdx*4+0x0],xmm0
    1370:	00 00 
    1372:	eb 02                	jmp    1376 <s123+0x150>
    1374:	ff c0                	inc    eax
    1376:	f3 0f 10 81 00 00 00 	movss  xmm0,DWORD PTR [rcx+0x0]
    137d:	00 
    137e:	f3 0f 59 81 00 00 00 	mulss  xmm0,DWORD PTR [rcx+0x0]
    1385:	00 
    1386:	f3 0f 10 89 00 00 00 	movss  xmm1,DWORD PTR [rcx+0x0]
    138d:	00 
    138e:	f3 0f 58 c8          	addss  xmm1,xmm0
    1392:	48 63 d0             	movsxd rdx,eax
    1395:	f3 0f 11 0c 95 00 00 	movss  DWORD PTR [rdx*4+0x0],xmm1
    139c:	00 00 
    139e:	f3 0f 10 89 00 00 00 	movss  xmm1,DWORD PTR [rcx+0x0]
    13a5:	00 
    13a6:	0f 2e ca             	ucomiss xmm1,xmm2
    13a9:	76 12                	jbe    13bd <s123+0x197>
    13ab:	83 c0 02             	add    eax,0x2
    13ae:	f3 0f 58 c1          	addss  xmm0,xmm1
    13b2:	f3 0f 11 04 95 00 00 	movss  DWORD PTR [rdx*4+0x0],xmm0
    13b9:	00 00 
    13bb:	eb 02                	jmp    13bf <s123+0x199>
    13bd:	ff c0                	inc    eax
    13bf:	f3 0f 10 81 00 00 00 	movss  xmm0,DWORD PTR [rcx+0x0]
    13c6:	00 
    13c7:	f3 0f 59 81 00 00 00 	mulss  xmm0,DWORD PTR [rcx+0x0]
    13ce:	00 
    13cf:	f3 0f 10 89 00 00 00 	movss  xmm1,DWORD PTR [rcx+0x0]
    13d6:	00 
    13d7:	f3 0f 58 c8          	addss  xmm1,xmm0
    13db:	48 63 d0             	movsxd rdx,eax
    13de:	f3 0f 11 0c 95 00 00 	movss  DWORD PTR [rdx*4+0x0],xmm1
    13e5:	00 00 
    13e7:	f3 0f 10 89 00 00 00 	movss  xmm1,DWORD PTR [rcx+0x0]
    13ee:	00 
    13ef:	0f 2e ca             	ucomiss xmm1,xmm2
    13f2:	76 12                	jbe    1406 <s123+0x1e0>
    13f4:	83 c0 02             	add    eax,0x2
    13f7:	f3 0f 58 c1          	addss  xmm0,xmm1
    13fb:	f3 0f 11 04 95 00 00 	movss  DWORD PTR [rdx*4+0x0],xmm0
    1402:	00 00 
    1404:	eb 02                	jmp    1408 <s123+0x1e2>
    1406:	ff c0                	inc    eax
    1408:	f3 0f 10 81 00 00 00 	movss  xmm0,DWORD PTR [rcx+0x0]
    140f:	00 
    1410:	f3 0f 59 81 00 00 00 	mulss  xmm0,DWORD PTR [rcx+0x0]
    1417:	00 
    1418:	f3 0f 10 89 00 00 00 	movss  xmm1,DWORD PTR [rcx+0x0]
    141f:	00 
    1420:	f3 0f 58 c8          	addss  xmm1,xmm0
    1424:	48 63 d0             	movsxd rdx,eax
    1427:	f3 0f 11 0c 95 00 00 	movss  DWORD PTR [rdx*4+0x0],xmm1
    142e:	00 00 
    1430:	f3 0f 10 89 00 00 00 	movss  xmm1,DWORD PTR [rcx+0x0]
    1437:	00 
    1438:	0f 2e ca             	ucomiss xmm1,xmm2
    143b:	76 12                	jbe    144f <s123+0x229>
    143d:	83 c0 02             	add    eax,0x2
    1440:	f3 0f 58 c1          	addss  xmm0,xmm1
    1444:	f3 0f 11 04 95 00 00 	movss  DWORD PTR [rdx*4+0x0],xmm0
    144b:	00 00 
    144d:	eb 02                	jmp    1451 <s123+0x22b>
    144f:	ff c0                	inc    eax
    1451:	f3 0f 10 81 00 00 00 	movss  xmm0,DWORD PTR [rcx+0x0]
    1458:	00 
    1459:	f3 0f 59 81 00 00 00 	mulss  xmm0,DWORD PTR [rcx+0x0]
    1460:	00 
    1461:	f3 0f 10 89 00 00 00 	movss  xmm1,DWORD PTR [rcx+0x0]
    1468:	00 
    1469:	f3 0f 58 c8          	addss  xmm1,xmm0
    146d:	48 63 d0             	movsxd rdx,eax
    1470:	f3 0f 11 0c 95 00 00 	movss  DWORD PTR [rdx*4+0x0],xmm1
    1477:	00 00 
    1479:	f3 0f 10 89 00 00 00 	movss  xmm1,DWORD PTR [rcx+0x0]
    1480:	00 
    1481:	0f 2e ca             	ucomiss xmm1,xmm2
    1484:	76 12                	jbe    1498 <s123+0x272>
    1486:	83 c0 02             	add    eax,0x2
    1489:	f3 0f 58 c1          	addss  xmm0,xmm1
    148d:	f3 0f 11 04 95 00 00 	movss  DWORD PTR [rdx*4+0x0],xmm0
    1494:	00 00 
    1496:	eb 02                	jmp    149a <s123+0x274>
    1498:	ff c0                	inc    eax
    149a:	48 83 c1 20          	add    rcx,0x20
    149e:	0f 85 ae fd ff ff    	jne    1252 <s123+0x2c>
    14a4:	bf 00 00 00 00       	mov    edi,0x0
    14a9:	be 00 00 00 00       	mov    esi,0x0
    14ae:	ba 00 00 00 00       	mov    edx,0x0
    14b3:	b9 00 00 00 00       	mov    ecx,0x0
    14b8:	41 b8 00 00 00 00    	mov    r8d,0x0
    14be:	41 b9 00 00 00 00    	mov    r9d,0x0
    14c4:	0f 57 c0             	xorps  xmm0,xmm0
    14c7:	68 00 00 00 00       	push   0x0
    14cc:	68 00 00 00 00       	push   0x0
    14d1:	e8 00 00 00 00       	call   14d6 <s123+0x2b0>
    14d6:	0f 57 d2             	xorps  xmm2,xmm2
    14d9:	48 83 c4 10          	add    rsp,0x10
    14dd:	ff c3                	inc    ebx
    14df:	81 fb a0 86 01 00    	cmp    ebx,0x186a0
    14e5:	0f 85 5b fd ff ff    	jne    1246 <s123+0x20>
    14eb:	49 83 c6 10          	add    r14,0x10
    14ef:	4c 89 f7             	mov    rdi,r14
    14f2:	31 f6                	xor    esi,esi
    14f4:	e8 00 00 00 00       	call   14f9 <s123+0x2d3>
    14f9:	bf 00 00 00 00       	mov    edi,0x0
    14fe:	48 83 c4 08          	add    rsp,0x8
    1502:	5b                   	pop    rbx
    1503:	41 5e                	pop    r14
    1505:	e9 00 00 00 00       	jmp    150a <s124>

000000000000150a <s124>:
    150a:	41 56                	push   r14
    150c:	53                   	push   rbx
    150d:	50                   	push   rax
    150e:	49 89 fe             	mov    r14,rdi
    1511:	bf 00 00 00 00       	mov    edi,0x0
    1516:	e8 00 00 00 00       	call   151b <s124+0x11>
    151b:	31 db                	xor    ebx,ebx
    151d:	4c 89 f7             	mov    rdi,r14
    1520:	31 f6                	xor    esi,esi
    1522:	e8 00 00 00 00       	call   1527 <s124+0x1d>
    1527:	0f 57 d2             	xorps  xmm2,xmm2
    152a:	31 c0                	xor    eax,eax
    152c:	f3 0f 10 80 00 00 00 	movss  xmm0,DWORD PTR [rax+0x0]
    1533:	00 
    1534:	0f 2e c2             	ucomiss xmm0,xmm2
    1537:	77 08                	ja     1541 <s124+0x37>
    1539:	f3 0f 10 80 00 00 00 	movss  xmm0,DWORD PTR [rax+0x0]
    1540:	00 
    1541:	f3 0f 10 88 00 00 00 	movss  xmm1,DWORD PTR [rax+0x0]
    1548:	00 
    1549:	f3 0f 59 88 00 00 00 	mulss  xmm1,DWORD PTR [rax+0x0]
    1550:	00 
    1551:	f3 0f 58 c8          	addss  xmm1,xmm0
    1555:	f3 0f 11 88 00 00 00 	movss  DWORD PTR [rax+0x0],xmm1
    155c:	00 
    155d:	f3 0f 10 80 00 00 00 	movss  xmm0,DWORD PTR [rax+0x0]
    1564:	00 
    1565:	0f 2e c2             	ucomiss xmm0,xmm2
    1568:	77 08                	ja     1572 <s124+0x68>
    156a:	f3 0f 10 80 00 00 00 	movss  xmm0,DWORD PTR [rax+0x0]
    1571:	00 
    1572:	f3 0f 10 88 00 00 00 	movss  xmm1,DWORD PTR [rax+0x0]
    1579:	00 
    157a:	f3 0f 59 88 00 00 00 	mulss  xmm1,DWORD PTR [rax+0x0]
    1581:	00 
    1582:	f3 0f 58 c8          	addss  xmm1,xmm0
    1586:	f3 0f 11 88 00 00 00 	movss  DWORD PTR [rax+0x0],xmm1
    158d:	00 
    158e:	f3 0f 10 80 00 00 00 	movss  xmm0,DWORD PTR [rax+0x0]
    1595:	00 
    1596:	0f 2e c2             	ucomiss xmm0,xmm2
    1599:	77 08                	ja     15a3 <s124+0x99>
    159b:	f3 0f 10 80 00 00 00 	movss  xmm0,DWORD PTR [rax+0x0]
    15a2:	00 
    15a3:	f3 0f 10 88 00 00 00 	movss  xmm1,DWORD PTR [rax+0x0]
    15aa:	00 
    15ab:	f3 0f 59 88 00 00 00 	mulss  xmm1,DWORD PTR [rax+0x0]
    15b2:	00 
    15b3:	f3 0f 58 c8          	addss  xmm1,xmm0
    15b7:	f3 0f 11 88 00 00 00 	movss  DWORD PTR [rax+0x0],xmm1
    15be:	00 
    15bf:	f3 0f 10 80 00 00 00 	movss  xmm0,DWORD PTR [rax+0x0]
    15c6:	00 
    15c7:	0f 2e c2             	ucomiss xmm0,xmm2
    15ca:	77 08                	ja     15d4 <s124+0xca>
    15cc:	f3 0f 10 80 00 00 00 	movss  xmm0,DWORD PTR [rax+0x0]
    15d3:	00 
    15d4:	f3 0f 10 88 00 00 00 	movss  xmm1,DWORD PTR [rax+0x0]
    15db:	00 
    15dc:	f3 0f 59 88 00 00 00 	mulss  xmm1,DWORD PTR [rax+0x0]
    15e3:	00 
    15e4:	f3 0f 58 c8          	addss  xmm1,xmm0
    15e8:	f3 0f 11 88 00 00 00 	movss  DWORD PTR [rax+0x0],xmm1
    15ef:	00 
    15f0:	f3 0f 10 80 00 00 00 	movss  xmm0,DWORD PTR [rax+0x0]
    15f7:	00 
    15f8:	0f 2e c2             	ucomiss xmm0,xmm2
    15fb:	77 08                	ja     1605 <s124+0xfb>
    15fd:	f3 0f 10 80 00 00 00 	movss  xmm0,DWORD PTR [rax+0x0]
    1604:	00 
    1605:	f3 0f 10 88 00 00 00 	movss  xmm1,DWORD PTR [rax+0x0]
    160c:	00 
    160d:	f3 0f 59 88 00 00 00 	mulss  xmm1,DWORD PTR [rax+0x0]
    1614:	00 
    1615:	f3 0f 58 c8          	addss  xmm1,xmm0
    1619:	f3 0f 11 88 00 00 00 	movss  DWORD PTR [rax+0x0],xmm1
    1620:	00 
    1621:	f3 0f 10 80 00 00 00 	movss  xmm0,DWORD PTR [rax+0x0]
    1628:	00 
    1629:	0f 2e c2             	ucomiss xmm0,xmm2
    162c:	77 08                	ja     1636 <s124+0x12c>
    162e:	f3 0f 10 80 00 00 00 	movss  xmm0,DWORD PTR [rax+0x0]
    1635:	00 
    1636:	f3 0f 10 88 00 00 00 	movss  xmm1,DWORD PTR [rax+0x0]
    163d:	00 
    163e:	f3 0f 59 88 00 00 00 	mulss  xmm1,DWORD PTR [rax+0x0]
    1645:	00 
    1646:	f3 0f 58 c8          	addss  xmm1,xmm0
    164a:	f3 0f 11 88 00 00 00 	movss  DWORD PTR [rax+0x0],xmm1
    1651:	00 
    1652:	f3 0f 10 80 00 00 00 	movss  xmm0,DWORD PTR [rax+0x0]
    1659:	00 
    165a:	0f 2e c2             	ucomiss xmm0,xmm2
    165d:	77 08                	ja     1667 <s124+0x15d>
    165f:	f3 0f 10 80 00 00 00 	movss  xmm0,DWORD PTR [rax+0x0]
    1666:	00 
    1667:	f3 0f 10 88 00 00 00 	movss  xmm1,DWORD PTR [rax+0x0]
    166e:	00 
    166f:	f3 0f 59 88 00 00 00 	mulss  xmm1,DWORD PTR [rax+0x0]
    1676:	00 
    1677:	f3 0f 58 c8          	addss  xmm1,xmm0
    167b:	f3 0f 11 88 00 00 00 	movss  DWORD PTR [rax+0x0],xmm1
    1682:	00 
    1683:	f3 0f 10 80 00 00 00 	movss  xmm0,DWORD PTR [rax+0x0]
    168a:	00 
    168b:	0f 2e c2             	ucomiss xmm0,xmm2
    168e:	77 08                	ja     1698 <s124+0x18e>
    1690:	f3 0f 10 80 00 00 00 	movss  xmm0,DWORD PTR [rax+0x0]
    1697:	00 
    1698:	f3 0f 10 88 00 00 00 	movss  xmm1,DWORD PTR [rax+0x0]
    169f:	00 
    16a0:	f3 0f 59 88 00 00 00 	mulss  xmm1,DWORD PTR [rax+0x0]
    16a7:	00 
    16a8:	f3 0f 58 c8          	addss  xmm1,xmm0
    16ac:	f3 0f 11 88 00 00 00 	movss  DWORD PTR [rax+0x0],xmm1
    16b3:	00 
    16b4:	48 83 c0 20          	add    rax,0x20
    16b8:	48 3d 00 f4 01 00    	cmp    rax,0x1f400
    16be:	0f 85 68 fe ff ff    	jne    152c <s124+0x22>
    16c4:	bf 00 00 00 00       	mov    edi,0x0
    16c9:	be 00 00 00 00       	mov    esi,0x0
    16ce:	ba 00 00 00 00       	mov    edx,0x0
    16d3:	b9 00 00 00 00       	mov    ecx,0x0
    16d8:	41 b8 00 00 00 00    	mov    r8d,0x0
    16de:	41 b9 00 00 00 00    	mov    r9d,0x0
    16e4:	0f 57 c0             	xorps  xmm0,xmm0
    16e7:	68 00 00 00 00       	push   0x0
    16ec:	68 00 00 00 00       	push   0x0
    16f1:	e8 00 00 00 00       	call   16f6 <s124+0x1ec>
    16f6:	0f 57 d2             	xorps  xmm2,xmm2
    16f9:	48 83 c4 10          	add    rsp,0x10
    16fd:	ff c3                	inc    ebx
    16ff:	81 fb a0 86 01 00    	cmp    ebx,0x186a0
    1705:	0f 85 1f fe ff ff    	jne    152a <s124+0x20>
    170b:	49 83 c6 10          	add    r14,0x10
    170f:	4c 89 f7             	mov    rdi,r14
    1712:	31 f6                	xor    esi,esi
    1714:	e8 00 00 00 00       	call   1719 <s124+0x20f>
    1719:	bf 00 00 00 00       	mov    edi,0x0
    171e:	48 83 c4 08          	add    rsp,0x8
    1722:	5b                   	pop    rbx
    1723:	41 5e                	pop    r14
    1725:	e9 00 00 00 00       	jmp    172a <s125>

000000000000172a <s125>:
    172a:	41 56                	push   r14
    172c:	53                   	push   rbx
    172d:	50                   	push   rax
    172e:	49 89 fe             	mov    r14,rdi
    1731:	bf 00 00 00 00       	mov    edi,0x0
    1736:	e8 00 00 00 00       	call   173b <s125+0x11>
    173b:	31 db                	xor    ebx,ebx
    173d:	4c 89 f7             	mov    rdi,r14
    1740:	31 f6                	xor    esi,esi
    1742:	e8 00 00 00 00       	call   1747 <s125+0x1d>
    1747:	48 c7 c0 ff ff ff ff 	mov    rax,0xffffffffffffffff
    174e:	b9 1c 00 00 00       	mov    ecx,0x1c
    1753:	31 d2                	xor    edx,edx
    1755:	48 63 f0             	movsxd rsi,eax
    1758:	48 8d 3c b5 00 00 00 	lea    rdi,[rsi*4+0x0]
    175f:	00 
    1760:	31 f6                	xor    esi,esi
    1762:	f3 0f 10 84 b1 00 00 	movss  xmm0,DWORD PTR [rcx+rsi*4+0x0]
    1769:	00 00 
    176b:	f3 0f 59 84 b1 00 00 	mulss  xmm0,DWORD PTR [rcx+rsi*4+0x0]
    1772:	00 00 
    1774:	f3 0f 58 84 b1 00 00 	addss  xmm0,DWORD PTR [rcx+rsi*4+0x0]
    177b:	00 00 
    177d:	f3 0f 10 8c b1 00 00 	movss  xmm1,DWORD PTR [rcx+rsi*4+0x0]
    1784:	00 00 
    1786:	f3 0f 59 8c b1 00 00 	mulss  xmm1,DWORD PTR [rcx+rsi*4+0x0]
    178d:	00 00 
    178f:	f3 0f 58 8c b1 00 00 	addss  xmm1,DWORD PTR [rcx+rsi*4+0x0]
    1796:	00 00 
    1798:	f3 0f 11 44 b7 e4    	movss  DWORD PTR [rdi+rsi*4-0x1c],xmm0
    179e:	f3 0f 10 84 b1 00 00 	movss  xmm0,DWORD PTR [rcx+rsi*4+0x0]
    17a5:	00 00 
    17a7:	f3 0f 59 84 b1 00 00 	mulss  xmm0,DWORD PTR [rcx+rsi*4+0x0]
    17ae:	00 00 
    17b0:	f3 0f 11 4c b7 e8    	movss  DWORD PTR [rdi+rsi*4-0x18],xmm1
    17b6:	f3 0f 58 84 b1 00 00 	addss  xmm0,DWORD PTR [rcx+rsi*4+0x0]
    17bd:	00 00 
    17bf:	f3 0f 10 8c b1 00 00 	movss  xmm1,DWORD PTR [rcx+rsi*4+0x0]
    17c6:	00 00 
    17c8:	f3 0f 59 8c b1 00 00 	mulss  xmm1,DWORD PTR [rcx+rsi*4+0x0]
    17cf:	00 00 
    17d1:	f3 0f 58 8c b1 00 00 	addss  xmm1,DWORD PTR [rcx+rsi*4+0x0]
    17d8:	00 00 
    17da:	f3 0f 11 44 b7 ec    	movss  DWORD PTR [rdi+rsi*4-0x14],xmm0
    17e0:	f3 0f 10 84 b1 00 00 	movss  xmm0,DWORD PTR [rcx+rsi*4+0x0]
    17e7:	00 00 
    17e9:	f3 0f 59 84 b1 00 00 	mulss  xmm0,DWORD PTR [rcx+rsi*4+0x0]
    17f0:	00 00 
    17f2:	f3 0f 11 4c b7 f0    	movss  DWORD PTR [rdi+rsi*4-0x10],xmm1
    17f8:	f3 0f 58 84 b1 00 00 	addss  xmm0,DWORD PTR [rcx+rsi*4+0x0]
    17ff:	00 00 
    1801:	f3 0f 10 8c b1 00 00 	movss  xmm1,DWORD PTR [rcx+rsi*4+0x0]
    1808:	00 00 
    180a:	f3 0f 59 8c b1 00 00 	mulss  xmm1,DWORD PTR [rcx+rsi*4+0x0]
    1811:	00 00 
    1813:	f3 0f 58 8c b1 00 00 	addss  xmm1,DWORD PTR [rcx+rsi*4+0x0]
    181a:	00 00 
    181c:	f3 0f 11 44 b7 f4    	movss  DWORD PTR [rdi+rsi*4-0xc],xmm0
    1822:	f3 0f 10 84 b1 00 00 	movss  xmm0,DWORD PTR [rcx+rsi*4+0x0]
    1829:	00 00 
    182b:	f3 0f 59 84 b1 00 00 	mulss  xmm0,DWORD PTR [rcx+rsi*4+0x0]
    1832:	00 00 
    1834:	f3 0f 11 4c b7 f8    	movss  DWORD PTR [rdi+rsi*4-0x8],xmm1
    183a:	f3 0f 58 84 b1 00 00 	addss  xmm0,DWORD PTR [rcx+rsi*4+0x0]
    1841:	00 00 
    1843:	f3 0f 10 8c b1 00 00 	movss  xmm1,DWORD PTR [rcx+rsi*4+0x0]
    184a:	00 00 
    184c:	f3 0f 59 8c b1 00 00 	mulss  xmm1,DWORD PTR [rcx+rsi*4+0x0]
    1853:	00 00 
    1855:	f3 0f 58 8c b1 00 00 	addss  xmm1,DWORD PTR [rcx+rsi*4+0x0]
    185c:	00 00 
    185e:	f3 0f 11 44 b7 fc    	movss  DWORD PTR [rdi+rsi*4-0x4],xmm0
    1864:	f3 0f 11 0c b7       	movss  DWORD PTR [rdi+rsi*4],xmm1
    1869:	48 83 c6 08          	add    rsi,0x8
    186d:	48 81 fe 00 01 00 00 	cmp    rsi,0x100
    1874:	0f 85 e8 fe ff ff    	jne    1762 <s125+0x38>
    187a:	48 ff c2             	inc    rdx
    187d:	48 98                	cdqe   
    187f:	48 01 f0             	add    rax,rsi
    1882:	48 81 c1 00 04 00 00 	add    rcx,0x400
    1889:	48 81 fa 00 01 00 00 	cmp    rdx,0x100
    1890:	0f 85 bf fe ff ff    	jne    1755 <s125+0x2b>
    1896:	bf 00 00 00 00       	mov    edi,0x0
    189b:	be 00 00 00 00       	mov    esi,0x0
    18a0:	ba 00 00 00 00       	mov    edx,0x0
    18a5:	b9 00 00 00 00       	mov    ecx,0x0
    18aa:	41 b8 00 00 00 00    	mov    r8d,0x0
    18b0:	41 b9 00 00 00 00    	mov    r9d,0x0
    18b6:	0f 57 c0             	xorps  xmm0,xmm0
    18b9:	68 00 00 00 00       	push   0x0
    18be:	68 00 00 00 00       	push   0x0
    18c3:	e8 00 00 00 00       	call   18c8 <s125+0x19e>
    18c8:	48 83 c4 10          	add    rsp,0x10
    18cc:	ff c3                	inc    ebx
    18ce:	81 fb 58 98 00 00    	cmp    ebx,0x9858
    18d4:	0f 85 6d fe ff ff    	jne    1747 <s125+0x1d>
    18da:	49 83 c6 10          	add    r14,0x10
    18de:	4c 89 f7             	mov    rdi,r14
    18e1:	31 f6                	xor    esi,esi
    18e3:	e8 00 00 00 00       	call   18e8 <s125+0x1be>
    18e8:	bf 00 00 00 00       	mov    edi,0x0
    18ed:	48 83 c4 08          	add    rsp,0x8
    18f1:	5b                   	pop    rbx
    18f2:	41 5e                	pop    r14
    18f4:	e9 00 00 00 00       	jmp    18f9 <s126>

00000000000018f9 <s126>:
    18f9:	41 56                	push   r14
    18fb:	53                   	push   rbx
    18fc:	50                   	push   rax
    18fd:	49 89 fe             	mov    r14,rdi
    1900:	bf 00 00 00 00       	mov    edi,0x0
    1905:	e8 00 00 00 00       	call   190a <s126+0x11>
    190a:	31 db                	xor    ebx,ebx
    190c:	4c 89 f7             	mov    rdi,r14
    190f:	31 f6                	xor    esi,esi
    1911:	e8 00 00 00 00       	call   1916 <s126+0x1d>
    1916:	ba 01 00 00 00       	mov    edx,0x1
    191b:	31 c0                	xor    eax,eax
    191d:	31 c9                	xor    ecx,ecx
    191f:	48 63 f2             	movsxd rsi,edx
    1922:	f3 0f 10 04 8d 00 00 	movss  xmm0,DWORD PTR [rcx*4+0x0]
    1929:	00 00 
    192b:	8d 56 08             	lea    edx,[rsi+0x8]
    192e:	48 8d 34 b5 00 00 00 	lea    rsi,[rsi*4+0x0]
    1935:	00 
    1936:	31 ff                	xor    edi,edi
    1938:	f3 0f 10 4e fc       	movss  xmm1,DWORD PTR [rsi-0x4]
    193d:	f3 0f 59 8c 38 00 00 	mulss  xmm1,DWORD PTR [rax+rdi*1+0x0]
    1944:	00 00 
    1946:	f3 0f 58 c8          	addss  xmm1,xmm0
    194a:	f3 0f 11 8c 38 00 00 	movss  DWORD PTR [rax+rdi*1+0x0],xmm1
    1951:	00 00 
    1953:	f3 0f 10 06          	movss  xmm0,DWORD PTR [rsi]
    1957:	f3 0f 59 84 38 00 00 	mulss  xmm0,DWORD PTR [rax+rdi*1+0x0]
    195e:	00 00 
    1960:	f3 0f 58 c1          	addss  xmm0,xmm1
    1964:	f3 0f 10 4e 04       	movss  xmm1,DWORD PTR [rsi+0x4]
    1969:	f3 0f 59 8c 38 00 00 	mulss  xmm1,DWORD PTR [rax+rdi*1+0x0]
    1970:	00 00 
    1972:	f3 0f 11 84 38 00 00 	movss  DWORD PTR [rax+rdi*1+0x0],xmm0
    1979:	00 00 
    197b:	f3 0f 58 c8          	addss  xmm1,xmm0
    197f:	f3 0f 11 8c 38 00 00 	movss  DWORD PTR [rax+rdi*1+0x0],xmm1
    1986:	00 00 
    1988:	f3 0f 10 46 08       	movss  xmm0,DWORD PTR [rsi+0x8]
    198d:	f3 0f 59 84 38 00 00 	mulss  xmm0,DWORD PTR [rax+rdi*1+0x0]
    1994:	00 00 
    1996:	f3 0f 58 c1          	addss  xmm0,xmm1
    199a:	f3 0f 11 84 38 00 00 	movss  DWORD PTR [rax+rdi*1+0x0],xmm0
    19a1:	00 00 
    19a3:	f3 0f 10 4e 0c       	movss  xmm1,DWORD PTR [rsi+0xc]
    19a8:	f3 0f 59 8c 38 00 00 	mulss  xmm1,DWORD PTR [rax+rdi*1+0x0]
    19af:	00 00 
    19b1:	f3 0f 58 c8          	addss  xmm1,xmm0
    19b5:	f3 0f 11 8c 38 00 00 	movss  DWORD PTR [rax+rdi*1+0x0],xmm1
    19bc:	00 00 
    19be:	f3 0f 10 56 10       	movss  xmm2,DWORD PTR [rsi+0x10]
    19c3:	f3 0f 59 94 38 00 00 	mulss  xmm2,DWORD PTR [rax+rdi*1+0x0]
    19ca:	00 00 
    19cc:	f3 0f 58 d1          	addss  xmm2,xmm1
    19d0:	f3 0f 10 46 14       	movss  xmm0,DWORD PTR [rsi+0x14]
    19d5:	f3 0f 59 84 38 00 00 	mulss  xmm0,DWORD PTR [rax+rdi*1+0x0]
    19dc:	00 00 
    19de:	f3 0f 11 94 38 00 00 	movss  DWORD PTR [rax+rdi*1+0x0],xmm2
    19e5:	00 00 
    19e7:	f3 0f 58 c2          	addss  xmm0,xmm2
    19eb:	f3 0f 11 84 38 00 00 	movss  DWORD PTR [rax+rdi*1+0x0],xmm0
    19f2:	00 00 
    19f4:	81 ff 00 e0 03 00    	cmp    edi,0x3e000
    19fa:	74 2e                	je     1a2a <s126+0x131>
    19fc:	f3 0f 10 4e 18       	movss  xmm1,DWORD PTR [rsi+0x18]
    1a01:	f3 0f 59 8c 38 00 00 	mulss  xmm1,DWORD PTR [rax+rdi*1+0x0]
    1a08:	00 00 
    1a0a:	f3 0f 58 c1          	addss  xmm0,xmm1
    1a0e:	f3 0f 11 84 38 00 00 	movss  DWORD PTR [rax+rdi*1+0x0],xmm0
    1a15:	00 00 
    1a17:	48 81 c7 00 20 00 00 	add    rdi,0x2000
    1a1e:	83 c2 08             	add    edx,0x8
    1a21:	48 83 c6 20          	add    rsi,0x20
    1a25:	e9 0e ff ff ff       	jmp    1938 <s126+0x3f>
    1a2a:	48 ff c1             	inc    rcx
    1a2d:	48 83 c0 04          	add    rax,0x4
    1a31:	48 81 f9 00 01 00 00 	cmp    rcx,0x100
    1a38:	0f 85 e1 fe ff ff    	jne    191f <s126+0x26>
    1a3e:	bf 00 00 00 00       	mov    edi,0x0
    1a43:	be 00 00 00 00       	mov    esi,0x0
    1a48:	ba 00 00 00 00       	mov    edx,0x0
    1a4d:	b9 00 00 00 00       	mov    ecx,0x0
    1a52:	41 b8 00 00 00 00    	mov    r8d,0x0
    1a58:	41 b9 00 00 00 00    	mov    r9d,0x0
    1a5e:	0f 57 c0             	xorps  xmm0,xmm0
    1a61:	68 00 00 00 00       	push   0x0
    1a66:	68 00 00 00 00       	push   0x0
    1a6b:	e8 00 00 00 00       	call   1a70 <s126+0x177>
    1a70:	48 83 c4 10          	add    rsp,0x10
    1a74:	ff c3                	inc    ebx
    1a76:	81 fb 3c 0f 00 00    	cmp    ebx,0xf3c
    1a7c:	0f 85 94 fe ff ff    	jne    1916 <s126+0x1d>
    1a82:	49 83 c6 10          	add    r14,0x10
    1a86:	4c 89 f7             	mov    rdi,r14
    1a89:	31 f6                	xor    esi,esi
    1a8b:	e8 00 00 00 00       	call   1a90 <s126+0x197>
    1a90:	bf 00 00 00 00       	mov    edi,0x0
    1a95:	48 83 c4 08          	add    rsp,0x8
    1a99:	5b                   	pop    rbx
    1a9a:	41 5e                	pop    r14
    1a9c:	e9 00 00 00 00       	jmp    1aa1 <s127>

0000000000001aa1 <s127>:
    1aa1:	41 56                	push   r14
    1aa3:	53                   	push   rbx
    1aa4:	50                   	push   rax
    1aa5:	49 89 fe             	mov    r14,rdi
    1aa8:	bf 00 00 00 00       	mov    edi,0x0
    1aad:	e8 00 00 00 00       	call   1ab2 <s127+0x11>
    1ab2:	31 db                	xor    ebx,ebx
    1ab4:	4c 89 f7             	mov    rdi,r14
    1ab7:	31 f6                	xor    esi,esi
    1ab9:	e8 00 00 00 00       	call   1abe <s127+0x1d>
    1abe:	31 c0                	xor    eax,eax
    1ac0:	f3 0f 10 04 85 00 00 	movss  xmm0,DWORD PTR [rax*4+0x0]
    1ac7:	00 00 
    1ac9:	f3 0f 10 0c 85 00 00 	movss  xmm1,DWORD PTR [rax*4+0x0]
    1ad0:	00 00 
    1ad2:	f3 0f 10 14 85 00 00 	movss  xmm2,DWORD PTR [rax*4+0x0]
    1ad9:	00 00 
    1adb:	f3 0f 59 d1          	mulss  xmm2,xmm1
    1adf:	f3 0f 58 d0          	addss  xmm2,xmm0
    1ae3:	f3 0f 11 14 c5 00 00 	movss  DWORD PTR [rax*8+0x0],xmm2
    1aea:	00 00 
    1aec:	f3 0f 59 0c 85 00 00 	mulss  xmm1,DWORD PTR [rax*4+0x0]
    1af3:	00 00 
    1af5:	f3 0f 58 c8          	addss  xmm1,xmm0
    1af9:	f3 0f 11 0c c5 00 00 	movss  DWORD PTR [rax*8+0x0],xmm1
    1b00:	00 00 
    1b02:	f3 0f 10 04 85 00 00 	movss  xmm0,DWORD PTR [rax*4+0x0]
    1b09:	00 00 
    1b0b:	f3 0f 10 0c 85 00 00 	movss  xmm1,DWORD PTR [rax*4+0x0]
    1b12:	00 00 
    1b14:	f3 0f 10 14 85 00 00 	movss  xmm2,DWORD PTR [rax*4+0x0]
    1b1b:	00 00 
    1b1d:	f3 0f 59 d1          	mulss  xmm2,xmm1
    1b21:	f3 0f 58 d0          	addss  xmm2,xmm0
    1b25:	f3 0f 11 14 c5 00 00 	movss  DWORD PTR [rax*8+0x0],xmm2
    1b2c:	00 00 
    1b2e:	f3 0f 59 0c 85 00 00 	mulss  xmm1,DWORD PTR [rax*4+0x0]
    1b35:	00 00 
    1b37:	f3 0f 58 c8          	addss  xmm1,xmm0
    1b3b:	f3 0f 11 0c c5 00 00 	movss  DWORD PTR [rax*8+0x0],xmm1
    1b42:	00 00 
    1b44:	f3 0f 10 04 85 00 00 	movss  xmm0,DWORD PTR [rax*4+0x0]
    1b4b:	00 00 
    1b4d:	f3 0f 10 0c 85 00 00 	movss  xmm1,DWORD PTR [rax*4+0x0]
    1b54:	00 00 
    1b56:	f3 0f 10 14 85 00 00 	movss  xmm2,DWORD PTR [rax*4+0x0]
    1b5d:	00 00 
    1b5f:	f3 0f 59 d1          	mulss  xmm2,xmm1
    1b63:	f3 0f 58 d0          	addss  xmm2,xmm0
    1b67:	f3 0f 11 14 c5 00 00 	movss  DWORD PTR [rax*8+0x0],xmm2
    1b6e:	00 00 
    1b70:	f3 0f 59 0c 85 00 00 	mulss  xmm1,DWORD PTR [rax*4+0x0]
    1b77:	00 00 
    1b79:	f3 0f 58 c8          	addss  xmm1,xmm0
    1b7d:	f3 0f 11 0c c5 00 00 	movss  DWORD PTR [rax*8+0x0],xmm1
    1b84:	00 00 
    1b86:	f3 0f 10 04 85 00 00 	movss  xmm0,DWORD PTR [rax*4+0x0]
    1b8d:	00 00 
    1b8f:	f3 0f 10 0c 85 00 00 	movss  xmm1,DWORD PTR [rax*4+0x0]
    1b96:	00 00 
    1b98:	f3 0f 10 14 85 00 00 	movss  xmm2,DWORD PTR [rax*4+0x0]
    1b9f:	00 00 
    1ba1:	f3 0f 59 d1          	mulss  xmm2,xmm1
    1ba5:	f3 0f 58 d0          	addss  xmm2,xmm0
    1ba9:	f3 0f 11 14 c5 00 00 	movss  DWORD PTR [rax*8+0x0],xmm2
    1bb0:	00 00 
    1bb2:	f3 0f 59 0c 85 00 00 	mulss  xmm1,DWORD PTR [rax*4+0x0]
    1bb9:	00 00 
    1bbb:	f3 0f 58 c8          	addss  xmm1,xmm0
    1bbf:	f3 0f 11 0c c5 00 00 	movss  DWORD PTR [rax*8+0x0],xmm1
    1bc6:	00 00 
    1bc8:	f3 0f 10 04 85 00 00 	movss  xmm0,DWORD PTR [rax*4+0x0]
    1bcf:	00 00 
    1bd1:	f3 0f 10 0c 85 00 00 	movss  xmm1,DWORD PTR [rax*4+0x0]
    1bd8:	00 00 
    1bda:	f3 0f 10 14 85 00 00 	movss  xmm2,DWORD PTR [rax*4+0x0]
    1be1:	00 00 
    1be3:	f3 0f 59 d1          	mulss  xmm2,xmm1
    1be7:	f3 0f 58 d0          	addss  xmm2,xmm0
    1beb:	f3 0f 11 14 c5 00 00 	movss  DWORD PTR [rax*8+0x0],xmm2
    1bf2:	00 00 
    1bf4:	f3 0f 59 0c 85 00 00 	mulss  xmm1,DWORD PTR [rax*4+0x0]
    1bfb:	00 00 
    1bfd:	f3 0f 58 c8          	addss  xmm1,xmm0
    1c01:	f3 0f 11 0c c5 00 00 	movss  DWORD PTR [rax*8+0x0],xmm1
    1c08:	00 00 
    1c0a:	f3 0f 10 04 85 00 00 	movss  xmm0,DWORD PTR [rax*4+0x0]
    1c11:	00 00 
    1c13:	f3 0f 10 0c 85 00 00 	movss  xmm1,DWORD PTR [rax*4+0x0]
    1c1a:	00 00 
    1c1c:	f3 0f 10 14 85 00 00 	movss  xmm2,DWORD PTR [rax*4+0x0]
    1c23:	00 00 
    1c25:	f3 0f 59 d1          	mulss  xmm2,xmm1
    1c29:	f3 0f 58 d0          	addss  xmm2,xmm0
    1c2d:	f3 0f 11 14 c5 00 00 	movss  DWORD PTR [rax*8+0x0],xmm2
    1c34:	00 00 
    1c36:	f3 0f 59 0c 85 00 00 	mulss  xmm1,DWORD PTR [rax*4+0x0]
    1c3d:	00 00 
    1c3f:	f3 0f 58 c8          	addss  xmm1,xmm0
    1c43:	f3 0f 11 0c c5 00 00 	movss  DWORD PTR [rax*8+0x0],xmm1
    1c4a:	00 00 
    1c4c:	f3 0f 10 04 85 00 00 	movss  xmm0,DWORD PTR [rax*4+0x0]
    1c53:	00 00 
    1c55:	f3 0f 10 0c 85 00 00 	movss  xmm1,DWORD PTR [rax*4+0x0]
    1c5c:	00 00 
    1c5e:	f3 0f 10 14 85 00 00 	movss  xmm2,DWORD PTR [rax*4+0x0]
    1c65:	00 00 
    1c67:	f3 0f 59 d1          	mulss  xmm2,xmm1
    1c6b:	f3 0f 58 d0          	addss  xmm2,xmm0
    1c6f:	f3 0f 11 14 c5 00 00 	movss  DWORD PTR [rax*8+0x0],xmm2
    1c76:	00 00 
    1c78:	f3 0f 59 0c 85 00 00 	mulss  xmm1,DWORD PTR [rax*4+0x0]
    1c7f:	00 00 
    1c81:	f3 0f 58 c8          	addss  xmm1,xmm0
    1c85:	f3 0f 11 0c c5 00 00 	movss  DWORD PTR [rax*8+0x0],xmm1
    1c8c:	00 00 
    1c8e:	f3 0f 10 04 85 00 00 	movss  xmm0,DWORD PTR [rax*4+0x0]
    1c95:	00 00 
    1c97:	f3 0f 10 0c 85 00 00 	movss  xmm1,DWORD PTR [rax*4+0x0]
    1c9e:	00 00 
    1ca0:	f3 0f 10 14 85 00 00 	movss  xmm2,DWORD PTR [rax*4+0x0]
    1ca7:	00 00 
    1ca9:	f3 0f 59 d1          	mulss  xmm2,xmm1
    1cad:	f3 0f 58 d0          	addss  xmm2,xmm0
    1cb1:	f3 0f 11 14 c5 00 00 	movss  DWORD PTR [rax*8+0x0],xmm2
    1cb8:	00 00 
    1cba:	f3 0f 59 0c 85 00 00 	mulss  xmm1,DWORD PTR [rax*4+0x0]
    1cc1:	00 00 
    1cc3:	f3 0f 58 c8          	addss  xmm1,xmm0
    1cc7:	f3 0f 11 0c c5 00 00 	movss  DWORD PTR [rax*8+0x0],xmm1
    1cce:	00 00 
    1cd0:	48 83 c0 08          	add    rax,0x8
    1cd4:	48 3d 80 3e 00 00    	cmp    rax,0x3e80
    1cda:	0f 85 e0 fd ff ff    	jne    1ac0 <s127+0x1f>
    1ce0:	bf 00 00 00 00       	mov    edi,0x0
    1ce5:	be 00 00 00 00       	mov    esi,0x0
    1cea:	ba 00 00 00 00       	mov    edx,0x0
    1cef:	b9 00 00 00 00       	mov    ecx,0x0
    1cf4:	41 b8 00 00 00 00    	mov    r8d,0x0
    1cfa:	41 b9 00 00 00 00    	mov    r9d,0x0
    1d00:	0f 57 c0             	xorps  xmm0,xmm0
    1d03:	68 00 00 00 00       	push   0x0
    1d08:	68 00 00 00 00       	push   0x0
    1d0d:	e8 00 00 00 00       	call   1d12 <s127+0x271>
    1d12:	48 83 c4 10          	add    rsp,0x10
    1d16:	ff c3                	inc    ebx
    1d18:	81 fb 40 0d 03 00    	cmp    ebx,0x30d40
    1d1e:	0f 85 9a fd ff ff    	jne    1abe <s127+0x1d>
    1d24:	49 83 c6 10          	add    r14,0x10
    1d28:	4c 89 f7             	mov    rdi,r14
    1d2b:	31 f6                	xor    esi,esi
    1d2d:	e8 00 00 00 00       	call   1d32 <s127+0x291>
    1d32:	bf 00 00 00 00       	mov    edi,0x0
    1d37:	48 83 c4 08          	add    rsp,0x8
    1d3b:	5b                   	pop    rbx
    1d3c:	41 5e                	pop    r14
    1d3e:	e9 00 00 00 00       	jmp    1d43 <s128>

0000000000001d43 <s128>:
    1d43:	41 56                	push   r14
    1d45:	53                   	push   rbx
    1d46:	50                   	push   rax
    1d47:	49 89 fe             	mov    r14,rdi
    1d4a:	bf 00 00 00 00       	mov    edi,0x0
    1d4f:	e8 00 00 00 00       	call   1d54 <s128+0x11>
    1d54:	31 db                	xor    ebx,ebx
    1d56:	4c 89 f7             	mov    rdi,r14
    1d59:	31 f6                	xor    esi,esi
    1d5b:	e8 00 00 00 00       	call   1d60 <s128+0x1d>
    1d60:	31 c0                	xor    eax,eax
    1d62:	f3 0f 10 04 c5 00 00 	movss  xmm0,DWORD PTR [rax*8+0x0]
    1d69:	00 00 
    1d6b:	f3 0f 5c 04 85 00 00 	subss  xmm0,DWORD PTR [rax*4+0x0]
    1d72:	00 00 
    1d74:	f3 0f 11 04 85 00 00 	movss  DWORD PTR [rax*4+0x0],xmm0
    1d7b:	00 00 
    1d7d:	f3 0f 58 04 c5 00 00 	addss  xmm0,DWORD PTR [rax*8+0x0]
    1d84:	00 00 
    1d86:	f3 0f 11 04 c5 00 00 	movss  DWORD PTR [rax*8+0x0],xmm0
    1d8d:	00 00 
    1d8f:	f3 0f 10 04 c5 00 00 	movss  xmm0,DWORD PTR [rax*8+0x0]
    1d96:	00 00 
    1d98:	f3 0f 5c 04 85 00 00 	subss  xmm0,DWORD PTR [rax*4+0x0]
    1d9f:	00 00 
    1da1:	f3 0f 11 04 85 00 00 	movss  DWORD PTR [rax*4+0x0],xmm0
    1da8:	00 00 
    1daa:	f3 0f 58 04 c5 00 00 	addss  xmm0,DWORD PTR [rax*8+0x0]
    1db1:	00 00 
    1db3:	f3 0f 11 04 c5 00 00 	movss  DWORD PTR [rax*8+0x0],xmm0
    1dba:	00 00 
    1dbc:	f3 0f 10 04 c5 00 00 	movss  xmm0,DWORD PTR [rax*8+0x0]
    1dc3:	00 00 
    1dc5:	f3 0f 5c 04 85 00 00 	subss  xmm0,DWORD PTR [rax*4+0x0]
    1dcc:	00 00 
    1dce:	f3 0f 11 04 85 00 00 	movss  DWORD PTR [rax*4+0x0],xmm0
    1dd5:	00 00 
    1dd7:	f3 0f 58 04 c5 00 00 	addss  xmm0,DWORD PTR [rax*8+0x0]
    1dde:	00 00 
    1de0:	f3 0f 11 04 c5 00 00 	movss  DWORD PTR [rax*8+0x0],xmm0
    1de7:	00 00 
    1de9:	f3 0f 10 04 c5 00 00 	movss  xmm0,DWORD PTR [rax*8+0x0]
    1df0:	00 00 
    1df2:	f3 0f 5c 04 85 00 00 	subss  xmm0,DWORD PTR [rax*4+0x0]
    1df9:	00 00 
    1dfb:	f3 0f 11 04 85 00 00 	movss  DWORD PTR [rax*4+0x0],xmm0
    1e02:	00 00 
    1e04:	f3 0f 58 04 c5 00 00 	addss  xmm0,DWORD PTR [rax*8+0x0]
    1e0b:	00 00 
    1e0d:	f3 0f 11 04 c5 00 00 	movss  DWORD PTR [rax*8+0x0],xmm0
    1e14:	00 00 
    1e16:	f3 0f 10 04 c5 00 00 	movss  xmm0,DWORD PTR [rax*8+0x0]
    1e1d:	00 00 
    1e1f:	f3 0f 5c 04 85 00 00 	subss  xmm0,DWORD PTR [rax*4+0x0]
    1e26:	00 00 
    1e28:	f3 0f 11 04 85 00 00 	movss  DWORD PTR [rax*4+0x0],xmm0
    1e2f:	00 00 
    1e31:	f3 0f 58 04 c5 00 00 	addss  xmm0,DWORD PTR [rax*8+0x0]
    1e38:	00 00 
    1e3a:	f3 0f 11 04 c5 00 00 	movss  DWORD PTR [rax*8+0x0],xmm0
    1e41:	00 00 
    1e43:	f3 0f 10 04 c5 00 00 	movss  xmm0,DWORD PTR [rax*8+0x0]
    1e4a:	00 00 
    1e4c:	f3 0f 5c 04 85 00 00 	subss  xmm0,DWORD PTR [rax*4+0x0]
    1e53:	00 00 
    1e55:	f3 0f 11 04 85 00 00 	movss  DWORD PTR [rax*4+0x0],xmm0
    1e5c:	00 00 
    1e5e:	f3 0f 58 04 c5 00 00 	addss  xmm0,DWORD PTR [rax*8+0x0]
    1e65:	00 00 
    1e67:	f3 0f 11 04 c5 00 00 	movss  DWORD PTR [rax*8+0x0],xmm0
    1e6e:	00 00 
    1e70:	f3 0f 10 04 c5 00 00 	movss  xmm0,DWORD PTR [rax*8+0x0]
    1e77:	00 00 
    1e79:	f3 0f 5c 04 85 00 00 	subss  xmm0,DWORD PTR [rax*4+0x0]
    1e80:	00 00 
    1e82:	f3 0f 11 04 85 00 00 	movss  DWORD PTR [rax*4+0x0],xmm0
    1e89:	00 00 
    1e8b:	f3 0f 58 04 c5 00 00 	addss  xmm0,DWORD PTR [rax*8+0x0]
    1e92:	00 00 
    1e94:	f3 0f 11 04 c5 00 00 	movss  DWORD PTR [rax*8+0x0],xmm0
    1e9b:	00 00 
    1e9d:	f3 0f 10 04 c5 00 00 	movss  xmm0,DWORD PTR [rax*8+0x0]
    1ea4:	00 00 
    1ea6:	f3 0f 5c 04 85 00 00 	subss  xmm0,DWORD PTR [rax*4+0x0]
    1ead:	00 00 
    1eaf:	f3 0f 11 04 85 00 00 	movss  DWORD PTR [rax*4+0x0],xmm0
    1eb6:	00 00 
    1eb8:	f3 0f 58 04 c5 00 00 	addss  xmm0,DWORD PTR [rax*8+0x0]
    1ebf:	00 00 
    1ec1:	f3 0f 11 04 c5 00 00 	movss  DWORD PTR [rax*8+0x0],xmm0
    1ec8:	00 00 
    1eca:	48 83 c0 08          	add    rax,0x8
    1ece:	48 3d 80 3e 00 00    	cmp    rax,0x3e80
    1ed4:	0f 85 88 fe ff ff    	jne    1d62 <s128+0x1f>
    1eda:	bf 00 00 00 00       	mov    edi,0x0
    1edf:	be 00 00 00 00       	mov    esi,0x0
    1ee4:	ba 00 00 00 00       	mov    edx,0x0
    1ee9:	b9 00 00 00 00       	mov    ecx,0x0
    1eee:	41 b8 00 00 00 00    	mov    r8d,0x0
    1ef4:	41 b9 00 00 00 00    	mov    r9d,0x0
    1efa:	f3 0f 10 05 00 00 00 	movss  xmm0,DWORD PTR [rip+0x0]        # 1f02 <s128+0x1bf>
    1f01:	00 
    1f02:	68 00 00 00 00       	push   0x0
    1f07:	68 00 00 00 00       	push   0x0
    1f0c:	e8 00 00 00 00       	call   1f11 <s128+0x1ce>
    1f11:	48 83 c4 10          	add    rsp,0x10
    1f15:	ff c3                	inc    ebx
    1f17:	81 fb 40 0d 03 00    	cmp    ebx,0x30d40
    1f1d:	0f 85 3d fe ff ff    	jne    1d60 <s128+0x1d>
    1f23:	49 83 c6 10          	add    r14,0x10
    1f27:	4c 89 f7             	mov    rdi,r14
    1f2a:	31 f6                	xor    esi,esi
    1f2c:	e8 00 00 00 00       	call   1f31 <s128+0x1ee>
    1f31:	bf 00 00 00 00       	mov    edi,0x0
    1f36:	48 83 c4 08          	add    rsp,0x8
    1f3a:	5b                   	pop    rbx
    1f3b:	41 5e                	pop    r14
    1f3d:	e9 00 00 00 00       	jmp    1f42 <s131>

0000000000001f42 <s131>:
    1f42:	41 56                	push   r14
    1f44:	53                   	push   rbx
    1f45:	50                   	push   rax
    1f46:	49 89 fe             	mov    r14,rdi
    1f49:	bf 00 00 00 00       	mov    edi,0x0
    1f4e:	e8 00 00 00 00       	call   1f53 <s131+0x11>
    1f53:	31 db                	xor    ebx,ebx
    1f55:	4c 89 f7             	mov    rdi,r14
    1f58:	31 f6                	xor    esi,esi
    1f5a:	e8 00 00 00 00       	call   1f5f <s131+0x1d>
    1f5f:	48 c7 c0 20 0c fe ff 	mov    rax,0xfffffffffffe0c20
    1f66:	f3 0f 10 80 00 00 00 	movss  xmm0,DWORD PTR [rax+0x0]
    1f6d:	00 
    1f6e:	f3 0f 58 80 00 00 00 	addss  xmm0,DWORD PTR [rax+0x0]
    1f75:	00 
    1f76:	f3 0f 11 80 00 00 00 	movss  DWORD PTR [rax+0x0],xmm0
    1f7d:	00 
    1f7e:	f3 0f 10 80 00 00 00 	movss  xmm0,DWORD PTR [rax+0x0]
    1f85:	00 
    1f86:	f3 0f 58 80 00 00 00 	addss  xmm0,DWORD PTR [rax+0x0]
    1f8d:	00 
    1f8e:	f3 0f 11 80 00 00 00 	movss  DWORD PTR [rax+0x0],xmm0
    1f95:	00 
    1f96:	f3 0f 10 80 00 00 00 	movss  xmm0,DWORD PTR [rax+0x0]
    1f9d:	00 
    1f9e:	f3 0f 58 80 00 00 00 	addss  xmm0,DWORD PTR [rax+0x0]
    1fa5:	00 
    1fa6:	f3 0f 11 80 00 00 00 	movss  DWORD PTR [rax+0x0],xmm0
    1fad:	00 
    1fae:	f3 0f 10 80 00 00 00 	movss  xmm0,DWORD PTR [rax+0x0]
    1fb5:	00 
    1fb6:	f3 0f 58 80 00 00 00 	addss  xmm0,DWORD PTR [rax+0x0]
    1fbd:	00 
    1fbe:	f3 0f 11 80 00 00 00 	movss  DWORD PTR [rax+0x0],xmm0
    1fc5:	00 
    1fc6:	f3 0f 10 80 00 00 00 	movss  xmm0,DWORD PTR [rax+0x0]
    1fcd:	00 
    1fce:	f3 0f 58 80 00 00 00 	addss  xmm0,DWORD PTR [rax+0x0]
    1fd5:	00 
    1fd6:	f3 0f 11 80 00 00 00 	movss  DWORD PTR [rax+0x0],xmm0
    1fdd:	00 
    1fde:	f3 0f 10 80 00 00 00 	movss  xmm0,DWORD PTR [rax+0x0]
    1fe5:	00 
    1fe6:	f3 0f 58 80 00 00 00 	addss  xmm0,DWORD PTR [rax+0x0]
    1fed:	00 
    1fee:	f3 0f 11 80 00 00 00 	movss  DWORD PTR [rax+0x0],xmm0
    1ff5:	00 
    1ff6:	f3 0f 10 80 00 00 00 	movss  xmm0,DWORD PTR [rax+0x0]
    1ffd:	00 
    1ffe:	f3 0f 58 80 00 00 00 	addss  xmm0,DWORD PTR [rax+0x0]
    2005:	00 
    2006:	f3 0f 11 80 00 00 00 	movss  DWORD PTR [rax+0x0],xmm0
    200d:	00 
    200e:	48 85 c0             	test   rax,rax
    2011:	74 21                	je     2034 <s131+0xf2>
    2013:	f3 0f 10 80 00 00 00 	movss  xmm0,DWORD PTR [rax+0x0]
    201a:	00 
    201b:	f3 0f 58 80 00 00 00 	addss  xmm0,DWORD PTR [rax+0x0]
    2022:	00 
    2023:	f3 0f 11 80 00 00 00 	movss  DWORD PTR [rax+0x0],xmm0
    202a:	00 
    202b:	48 83 c0 20          	add    rax,0x20
    202f:	e9 32 ff ff ff       	jmp    1f66 <s131+0x24>
    2034:	bf 00 00 00 00       	mov    edi,0x0
    2039:	be 00 00 00 00       	mov    esi,0x0
    203e:	ba 00 00 00 00       	mov    edx,0x0
    2043:	b9 00 00 00 00       	mov    ecx,0x0
    2048:	41 b8 00 00 00 00    	mov    r8d,0x0
    204e:	41 b9 00 00 00 00    	mov    r9d,0x0
    2054:	0f 57 c0             	xorps  xmm0,xmm0
    2057:	68 00 00 00 00       	push   0x0
    205c:	68 00 00 00 00       	push   0x0
    2061:	e8 00 00 00 00       	call   2066 <s131+0x124>
    2066:	48 83 c4 10          	add    rsp,0x10
    206a:	ff c3                	inc    ebx
    206c:	81 fb 20 a1 07 00    	cmp    ebx,0x7a120
    2072:	0f 85 e7 fe ff ff    	jne    1f5f <s131+0x1d>
    2078:	49 83 c6 10          	add    r14,0x10
    207c:	4c 89 f7             	mov    rdi,r14
    207f:	31 f6                	xor    esi,esi
    2081:	e8 00 00 00 00       	call   2086 <s131+0x144>
    2086:	bf 00 00 00 00       	mov    edi,0x0
    208b:	48 83 c4 08          	add    rsp,0x8
    208f:	5b                   	pop    rbx
    2090:	41 5e                	pop    r14
    2092:	e9 00 00 00 00       	jmp    2097 <s132>

0000000000002097 <s132>:
    2097:	41 56                	push   r14
    2099:	53                   	push   rbx
    209a:	50                   	push   rax
    209b:	49 89 fe             	mov    r14,rdi
    209e:	bf 00 00 00 00       	mov    edi,0x0
    20a3:	e8 00 00 00 00       	call   20a8 <s132+0x11>
    20a8:	31 db                	xor    ebx,ebx
    20aa:	4c 89 f7             	mov    rdi,r14
    20ad:	31 f6                	xor    esi,esi
    20af:	e8 00 00 00 00       	call   20b4 <s132+0x1d>
    20b4:	48 c7 c0 20 fc ff ff 	mov    rax,0xfffffffffffffc20
    20bb:	f3 0f 10 05 00 00 00 	movss  xmm0,DWORD PTR [rip+0x0]        # 20c3 <s132+0x2c>
    20c2:	00 
    20c3:	f3 0f 10 88 00 00 00 	movss  xmm1,DWORD PTR [rax+0x0]
    20ca:	00 
    20cb:	f3 0f 59 c8          	mulss  xmm1,xmm0
    20cf:	f3 0f 58 88 00 00 00 	addss  xmm1,DWORD PTR [rax+0x0]
    20d6:	00 
    20d7:	f3 0f 11 88 00 00 00 	movss  DWORD PTR [rax+0x0],xmm1
    20de:	00 
    20df:	f3 0f 10 88 00 00 00 	movss  xmm1,DWORD PTR [rax+0x0]
    20e6:	00 
    20e7:	f3 0f 59 c8          	mulss  xmm1,xmm0
    20eb:	f3 0f 58 88 00 00 00 	addss  xmm1,DWORD PTR [rax+0x0]
    20f2:	00 
    20f3:	f3 0f 11 88 00 00 00 	movss  DWORD PTR [rax+0x0],xmm1
    20fa:	00 
    20fb:	f3 0f 10 88 00 00 00 	movss  xmm1,DWORD PTR [rax+0x0]
    2102:	00 
    2103:	f3 0f 59 c8          	mulss  xmm1,xmm0
    2107:	f3 0f 58 88 00 00 00 	addss  xmm1,DWORD PTR [rax+0x0]
    210e:	00 
    210f:	f3 0f 11 88 00 00 00 	movss  DWORD PTR [rax+0x0],xmm1
    2116:	00 
    2117:	f3 0f 10 88 00 00 00 	movss  xmm1,DWORD PTR [rax+0x0]
    211e:	00 
    211f:	f3 0f 59 c8          	mulss  xmm1,xmm0
    2123:	f3 0f 58 88 00 00 00 	addss  xmm1,DWORD PTR [rax+0x0]
    212a:	00 
    212b:	f3 0f 11 88 00 00 00 	movss  DWORD PTR [rax+0x0],xmm1
    2132:	00 
    2133:	f3 0f 10 88 00 00 00 	movss  xmm1,DWORD PTR [rax+0x0]
    213a:	00 
    213b:	f3 0f 59 c8          	mulss  xmm1,xmm0
    213f:	f3 0f 58 88 00 00 00 	addss  xmm1,DWORD PTR [rax+0x0]
    2146:	00 
    2147:	f3 0f 11 88 00 00 00 	movss  DWORD PTR [rax+0x0],xmm1
    214e:	00 
    214f:	f3 0f 10 88 00 00 00 	movss  xmm1,DWORD PTR [rax+0x0]
    2156:	00 
    2157:	f3 0f 59 c8          	mulss  xmm1,xmm0
    215b:	f3 0f 58 88 00 00 00 	addss  xmm1,DWORD PTR [rax+0x0]
    2162:	00 
    2163:	f3 0f 11 88 00 00 00 	movss  DWORD PTR [rax+0x0],xmm1
    216a:	00 
    216b:	f3 0f 10 88 00 00 00 	movss  xmm1,DWORD PTR [rax+0x0]
    2172:	00 
    2173:	f3 0f 59 c8          	mulss  xmm1,xmm0
    2177:	f3 0f 58 88 00 00 00 	addss  xmm1,DWORD PTR [rax+0x0]
    217e:	00 
    217f:	f3 0f 11 88 00 00 00 	movss  DWORD PTR [rax+0x0],xmm1
    2186:	00 
    2187:	48 85 c0             	test   rax,rax
    218a:	74 25                	je     21b1 <s132+0x11a>
    218c:	f3 0f 10 88 00 00 00 	movss  xmm1,DWORD PTR [rax+0x0]
    2193:	00 
    2194:	f3 0f 59 c8          	mulss  xmm1,xmm0
    2198:	f3 0f 58 88 00 00 00 	addss  xmm1,DWORD PTR [rax+0x0]
    219f:	00 
    21a0:	f3 0f 11 88 00 00 00 	movss  DWORD PTR [rax+0x0],xmm1
    21a7:	00 
    21a8:	48 83 c0 20          	add    rax,0x20
    21ac:	e9 12 ff ff ff       	jmp    20c3 <s132+0x2c>
    21b1:	bf 00 00 00 00       	mov    edi,0x0
    21b6:	be 00 00 00 00       	mov    esi,0x0
    21bb:	ba 00 00 00 00       	mov    edx,0x0
    21c0:	b9 00 00 00 00       	mov    ecx,0x0
    21c5:	41 b8 00 00 00 00    	mov    r8d,0x0
    21cb:	41 b9 00 00 00 00    	mov    r9d,0x0
    21d1:	0f 57 c0             	xorps  xmm0,xmm0
    21d4:	68 00 00 00 00       	push   0x0
    21d9:	68 00 00 00 00       	push   0x0
    21de:	e8 00 00 00 00       	call   21e3 <s132+0x14c>
    21e3:	48 83 c4 10          	add    rsp,0x10
    21e7:	ff c3                	inc    ebx
    21e9:	81 fb 00 5a 62 02    	cmp    ebx,0x2625a00
    21ef:	0f 85 bf fe ff ff    	jne    20b4 <s132+0x1d>
    21f5:	49 83 c6 10          	add    r14,0x10
    21f9:	4c 89 f7             	mov    rdi,r14
    21fc:	31 f6                	xor    esi,esi
    21fe:	e8 00 00 00 00       	call   2203 <s132+0x16c>
    2203:	bf 00 00 00 00       	mov    edi,0x0
    2208:	48 83 c4 08          	add    rsp,0x8
    220c:	5b                   	pop    rbx
    220d:	41 5e                	pop    r14
    220f:	e9 00 00 00 00       	jmp    2214 <s141>

0000000000002214 <s141>:
    2214:	41 57                	push   r15
    2216:	41 56                	push   r14
    2218:	41 54                	push   r12
    221a:	53                   	push   rbx
    221b:	50                   	push   rax
    221c:	49 89 fe             	mov    r14,rdi
    221f:	bf 00 00 00 00       	mov    edi,0x0
    2224:	e8 00 00 00 00       	call   2229 <s141+0x15>
    2229:	45 31 ff             	xor    r15d,r15d
    222c:	4c 89 f7             	mov    rdi,r14
    222f:	31 f6                	xor    esi,esi
    2231:	e8 00 00 00 00       	call   2236 <s141+0x22>
    2236:	b8 00 00 00 00       	mov    eax,0x0
    223b:	41 ba 00 00 00 00    	mov    r10d,0x0
    2241:	45 31 db             	xor    r11d,r11d
    2244:	45 31 c9             	xor    r9d,r9d
    2247:	45 31 c0             	xor    r8d,r8d
    224a:	4d 89 cc             	mov    r12,r9
    224d:	41 ff c0             	inc    r8d
    2250:	44 89 e1             	mov    ecx,r12d
    2253:	f7 d9                	neg    ecx
    2255:	44 89 c6             	mov    esi,r8d
    2258:	41 0f af f4          	imul   esi,r12d
    225c:	d1 ee                	shr    esi,1
    225e:	44 01 e6             	add    esi,r12d
    2261:	f6 c1 07             	test   cl,0x7
    2264:	74 3b                	je     22a1 <s141+0x8d>
    2266:	41 0f b6 cb          	movzx  ecx,r11b
    226a:	83 e1 07             	and    ecx,0x7
    226d:	48 c1 e1 0a          	shl    rcx,0xa
    2271:	31 d2                	xor    edx,edx
    2273:	4c 89 e7             	mov    rdi,r12
    2276:	f3 0f 10 04 10       	movss  xmm0,DWORD PTR [rax+rdx*1]
    227b:	89 f3                	mov    ebx,esi
    227d:	f3 0f 58 04 9d 00 00 	addss  xmm0,DWORD PTR [rbx*4+0x0]
    2284:	00 00 
    2286:	f3 0f 11 04 9d 00 00 	movss  DWORD PTR [rbx*4+0x0],xmm0
    228d:	00 00 
    228f:	48 ff c7             	inc    rdi
    2292:	01 fe                	add    esi,edi
    2294:	48 81 c2 00 04 00 00 	add    rdx,0x400
    229b:	39 d1                	cmp    ecx,edx
    229d:	75 d7                	jne    2276 <s141+0x62>
    229f:	eb 03                	jmp    22a4 <s141+0x90>
    22a1:	4c 89 e7             	mov    rdi,r12
    22a4:	4d 8d 4c 24 01       	lea    r9,[r12+0x1]
    22a9:	49 81 fc f8 00 00 00 	cmp    r12,0xf8
    22b0:	0f 87 54 01 00 00    	ja     240a <s141+0x1f6>
    22b6:	48 8d 9f 00 ff ff ff 	lea    rbx,[rdi-0x100]
    22bd:	48 c1 e7 0a          	shl    rdi,0xa
    22c1:	4c 01 d7             	add    rdi,r10
    22c4:	f3 0f 10 87 00 f0 ff 	movss  xmm0,DWORD PTR [rdi-0x1000]
    22cb:	ff 
    22cc:	89 f1                	mov    ecx,esi
    22ce:	f3 0f 58 04 8d 00 00 	addss  xmm0,DWORD PTR [rcx*4+0x0]
    22d5:	00 00 
    22d7:	f3 0f 11 04 8d 00 00 	movss  DWORD PTR [rcx*4+0x0],xmm0
    22de:	00 00 
    22e0:	8d 0c 33             	lea    ecx,[rbx+rsi*1]
    22e3:	8d 94 33 01 01 00 00 	lea    edx,[rbx+rsi*1+0x101]
    22ea:	f3 0f 10 87 00 f4 ff 	movss  xmm0,DWORD PTR [rdi-0xc00]
    22f1:	ff 
    22f2:	f3 0f 58 04 95 00 00 	addss  xmm0,DWORD PTR [rdx*4+0x0]
    22f9:	00 00 
    22fb:	f3 0f 11 04 95 00 00 	movss  DWORD PTR [rdx*4+0x0],xmm0
    2302:	00 00 
    2304:	8d 94 0b 01 01 00 00 	lea    edx,[rbx+rcx*1+0x101]
    230b:	8d 8c 0b 03 02 00 00 	lea    ecx,[rbx+rcx*1+0x203]
    2312:	f3 0f 10 87 00 f8 ff 	movss  xmm0,DWORD PTR [rdi-0x800]
    2319:	ff 
    231a:	f3 0f 58 04 8d 00 00 	addss  xmm0,DWORD PTR [rcx*4+0x0]
    2321:	00 00 
    2323:	f3 0f 11 04 8d 00 00 	movss  DWORD PTR [rcx*4+0x0],xmm0
    232a:	00 00 
    232c:	8d 8c 13 02 01 00 00 	lea    ecx,[rbx+rdx*1+0x102]
    2333:	8d 94 13 05 02 00 00 	lea    edx,[rbx+rdx*1+0x205]
    233a:	f3 0f 10 87 00 fc ff 	movss  xmm0,DWORD PTR [rdi-0x400]
    2341:	ff 
    2342:	f3 0f 58 04 95 00 00 	addss  xmm0,DWORD PTR [rdx*4+0x0]
    2349:	00 00 
    234b:	f3 0f 11 04 95 00 00 	movss  DWORD PTR [rdx*4+0x0],xmm0
    2352:	00 00 
    2354:	8d 94 0b 03 01 00 00 	lea    edx,[rbx+rcx*1+0x103]
    235b:	8d 8c 0b 07 02 00 00 	lea    ecx,[rbx+rcx*1+0x207]
    2362:	f3 0f 10 07          	movss  xmm0,DWORD PTR [rdi]
    2366:	f3 0f 58 04 8d 00 00 	addss  xmm0,DWORD PTR [rcx*4+0x0]
    236d:	00 00 
    236f:	f3 0f 11 04 8d 00 00 	movss  DWORD PTR [rcx*4+0x0],xmm0
    2376:	00 00 
    2378:	8d 8c 13 04 01 00 00 	lea    ecx,[rbx+rdx*1+0x104]
    237f:	8d 94 13 09 02 00 00 	lea    edx,[rbx+rdx*1+0x209]
    2386:	f3 0f 10 87 00 04 00 	movss  xmm0,DWORD PTR [rdi+0x400]
    238d:	00 
    238e:	f3 0f 58 04 95 00 00 	addss  xmm0,DWORD PTR [rdx*4+0x0]
    2395:	00 00 
    2397:	f3 0f 11 04 95 00 00 	movss  DWORD PTR [rdx*4+0x0],xmm0
    239e:	00 00 
    23a0:	8d 94 0b 05 01 00 00 	lea    edx,[rbx+rcx*1+0x105]
    23a7:	8d 8c 0b 0b 02 00 00 	lea    ecx,[rbx+rcx*1+0x20b]
    23ae:	f3 0f 10 87 00 08 00 	movss  xmm0,DWORD PTR [rdi+0x800]
    23b5:	00 
    23b6:	f3 0f 58 04 8d 00 00 	addss  xmm0,DWORD PTR [rcx*4+0x0]
    23bd:	00 00 
    23bf:	f3 0f 11 04 8d 00 00 	movss  DWORD PTR [rcx*4+0x0],xmm0
    23c6:	00 00 
    23c8:	8d 8c 13 06 01 00 00 	lea    ecx,[rbx+rdx*1+0x106]
    23cf:	8d 94 13 0d 02 00 00 	lea    edx,[rbx+rdx*1+0x20d]
    23d6:	f3 0f 10 87 00 0c 00 	movss  xmm0,DWORD PTR [rdi+0xc00]
    23dd:	00 
    23de:	f3 0f 58 04 95 00 00 	addss  xmm0,DWORD PTR [rdx*4+0x0]
    23e5:	00 00 
    23e7:	f3 0f 11 04 95 00 00 	movss  DWORD PTR [rdx*4+0x0],xmm0
    23ee:	00 00 
    23f0:	8d 34 0b             	lea    esi,[rbx+rcx*1]
    23f3:	81 c6 0f 02 00 00    	add    esi,0x20f
    23f9:	48 81 c7 00 20 00 00 	add    rdi,0x2000
    2400:	48 83 c3 08          	add    rbx,0x8
    2404:	0f 85 ba fe ff ff    	jne    22c4 <s141+0xb0>
    240a:	48 05 04 04 00 00    	add    rax,0x404
    2410:	41 80 c3 07          	add    r11b,0x7
    2414:	49 83 c2 04          	add    r10,0x4
    2418:	49 81 f9 00 01 00 00 	cmp    r9,0x100
    241f:	0f 85 25 fe ff ff    	jne    224a <s141+0x36>
    2425:	bf 00 00 00 00       	mov    edi,0x0
    242a:	be 00 00 00 00       	mov    esi,0x0
    242f:	ba 00 00 00 00       	mov    edx,0x0
    2434:	b9 00 00 00 00       	mov    ecx,0x0
    2439:	41 b8 00 00 00 00    	mov    r8d,0x0
    243f:	41 b9 00 00 00 00    	mov    r9d,0x0
    2445:	0f 57 c0             	xorps  xmm0,xmm0
    2448:	68 00 00 00 00       	push   0x0
    244d:	68 00 00 00 00       	push   0x0
    2452:	e8 00 00 00 00       	call   2457 <s141+0x243>
    2457:	48 83 c4 10          	add    rsp,0x10
    245b:	41 ff c7             	inc    r15d
    245e:	41 81 ff b0 30 01 00 	cmp    r15d,0x130b0
    2465:	0f 85 cb fd ff ff    	jne    2236 <s141+0x22>
    246b:	49 83 c6 10          	add    r14,0x10
    246f:	4c 89 f7             	mov    rdi,r14
    2472:	31 f6                	xor    esi,esi
    2474:	e8 00 00 00 00       	call   2479 <s141+0x265>
    2479:	bf 00 00 00 00       	mov    edi,0x0
    247e:	48 83 c4 08          	add    rsp,0x8
    2482:	5b                   	pop    rbx
    2483:	41 5c                	pop    r12
    2485:	41 5e                	pop    r14
    2487:	41 5f                	pop    r15
    2489:	e9 00 00 00 00       	jmp    248e <s151s>

000000000000248e <s151s>:
    248e:	48 63 c2             	movsxd rax,edx
    2491:	48 8d 04 87          	lea    rax,[rdi+rax*4]
    2495:	b9 07 00 00 00       	mov    ecx,0x7
    249a:	f3 0f 10 44 88 e4    	movss  xmm0,DWORD PTR [rax+rcx*4-0x1c]
    24a0:	f3 0f 58 44 8e e4    	addss  xmm0,DWORD PTR [rsi+rcx*4-0x1c]
    24a6:	f3 0f 11 44 8f e4    	movss  DWORD PTR [rdi+rcx*4-0x1c],xmm0
    24ac:	f3 0f 10 44 88 e8    	movss  xmm0,DWORD PTR [rax+rcx*4-0x18]
    24b2:	f3 0f 58 44 8e e8    	addss  xmm0,DWORD PTR [rsi+rcx*4-0x18]
    24b8:	f3 0f 11 44 8f e8    	movss  DWORD PTR [rdi+rcx*4-0x18],xmm0
    24be:	f3 0f 10 44 88 ec    	movss  xmm0,DWORD PTR [rax+rcx*4-0x14]
    24c4:	f3 0f 58 44 8e ec    	addss  xmm0,DWORD PTR [rsi+rcx*4-0x14]
    24ca:	f3 0f 11 44 8f ec    	movss  DWORD PTR [rdi+rcx*4-0x14],xmm0
    24d0:	f3 0f 10 44 88 f0    	movss  xmm0,DWORD PTR [rax+rcx*4-0x10]
    24d6:	f3 0f 58 44 8e f0    	addss  xmm0,DWORD PTR [rsi+rcx*4-0x10]
    24dc:	f3 0f 11 44 8f f0    	movss  DWORD PTR [rdi+rcx*4-0x10],xmm0
    24e2:	f3 0f 10 44 88 f4    	movss  xmm0,DWORD PTR [rax+rcx*4-0xc]
    24e8:	f3 0f 58 44 8e f4    	addss  xmm0,DWORD PTR [rsi+rcx*4-0xc]
    24ee:	f3 0f 11 44 8f f4    	movss  DWORD PTR [rdi+rcx*4-0xc],xmm0
    24f4:	f3 0f 10 44 88 f8    	movss  xmm0,DWORD PTR [rax+rcx*4-0x8]
    24fa:	f3 0f 58 44 8e f8    	addss  xmm0,DWORD PTR [rsi+rcx*4-0x8]
    2500:	f3 0f 11 44 8f f8    	movss  DWORD PTR [rdi+rcx*4-0x8],xmm0
    2506:	f3 0f 10 44 88 fc    	movss  xmm0,DWORD PTR [rax+rcx*4-0x4]
    250c:	f3 0f 58 44 8e fc    	addss  xmm0,DWORD PTR [rsi+rcx*4-0x4]
    2512:	f3 0f 11 44 8f fc    	movss  DWORD PTR [rdi+rcx*4-0x4],xmm0
    2518:	48 81 f9 ff 7c 00 00 	cmp    rcx,0x7cff
    251f:	74 18                	je     2539 <s151s+0xab>
    2521:	f3 0f 10 04 88       	movss  xmm0,DWORD PTR [rax+rcx*4]
    2526:	f3 0f 58 04 8e       	addss  xmm0,DWORD PTR [rsi+rcx*4]
    252b:	f3 0f 11 04 8f       	movss  DWORD PTR [rdi+rcx*4],xmm0
    2530:	48 83 c1 08          	add    rcx,0x8
    2534:	e9 61 ff ff ff       	jmp    249a <s151s+0xc>
    2539:	c3                   	ret    

000000000000253a <s151>:
    253a:	55                   	push   rbp
    253b:	53                   	push   rbx
    253c:	50                   	push   rax
    253d:	48 89 fb             	mov    rbx,rdi
    2540:	bf 00 00 00 00       	mov    edi,0x0
    2545:	e8 00 00 00 00       	call   254a <s151+0x10>
    254a:	48 89 df             	mov    rdi,rbx
    254d:	31 f6                	xor    esi,esi
    254f:	e8 00 00 00 00       	call   2554 <s151+0x1a>
    2554:	bd 20 a1 07 00       	mov    ebp,0x7a120
    2559:	bf 00 00 00 00       	mov    edi,0x0
    255e:	be 00 00 00 00       	mov    esi,0x0
    2563:	ba 01 00 00 00       	mov    edx,0x1
    2568:	e8 00 00 00 00       	call   256d <s151+0x33>
    256d:	bf 00 00 00 00       	mov    edi,0x0
    2572:	be 00 00 00 00       	mov    esi,0x0
    2577:	ba 00 00 00 00       	mov    edx,0x0
    257c:	b9 00 00 00 00       	mov    ecx,0x0
    2581:	41 b8 00 00 00 00    	mov    r8d,0x0
    2587:	41 b9 00 00 00 00    	mov    r9d,0x0
    258d:	0f 57 c0             	xorps  xmm0,xmm0
    2590:	68 00 00 00 00       	push   0x0
    2595:	68 00 00 00 00       	push   0x0
    259a:	e8 00 00 00 00       	call   259f <s151+0x65>
    259f:	48 83 c4 10          	add    rsp,0x10
    25a3:	ff cd                	dec    ebp
    25a5:	75 b2                	jne    2559 <s151+0x1f>
    25a7:	48 83 c3 10          	add    rbx,0x10
    25ab:	48 89 df             	mov    rdi,rbx
    25ae:	31 f6                	xor    esi,esi
    25b0:	e8 00 00 00 00       	call   25b5 <s151+0x7b>
    25b5:	bf 00 00 00 00       	mov    edi,0x0
    25ba:	48 83 c4 08          	add    rsp,0x8
    25be:	5b                   	pop    rbx
    25bf:	5d                   	pop    rbp
    25c0:	e9 00 00 00 00       	jmp    25c5 <s152s>

00000000000025c5 <s152s>:
    25c5:	48 63 c1             	movsxd rax,ecx
    25c8:	f3 0f 10 04 86       	movss  xmm0,DWORD PTR [rsi+rax*4]
    25cd:	f3 0f 59 04 82       	mulss  xmm0,DWORD PTR [rdx+rax*4]
    25d2:	f3 0f 58 04 87       	addss  xmm0,DWORD PTR [rdi+rax*4]
    25d7:	f3 0f 11 04 87       	movss  DWORD PTR [rdi+rax*4],xmm0
    25dc:	c3                   	ret    

00000000000025dd <s152>:
    25dd:	41 56                	push   r14
    25df:	53                   	push   rbx
    25e0:	50                   	push   rax
    25e1:	49 89 fe             	mov    r14,rdi
    25e4:	bf 00 00 00 00       	mov    edi,0x0
    25e9:	e8 00 00 00 00       	call   25ee <s152+0x11>
    25ee:	31 db                	xor    ebx,ebx
    25f0:	4c 89 f7             	mov    rdi,r14
    25f3:	31 f6                	xor    esi,esi
    25f5:	e8 00 00 00 00       	call   25fa <s152+0x1d>
    25fa:	48 c7 c0 00 0c fe ff 	mov    rax,0xfffffffffffe0c00
    2601:	f3 0f 10 80 00 00 00 	movss  xmm0,DWORD PTR [rax+0x0]
    2608:	00 
    2609:	f3 0f 59 80 00 00 00 	mulss  xmm0,DWORD PTR [rax+0x0]
    2610:	00 
    2611:	f3 0f 11 80 00 00 00 	movss  DWORD PTR [rax+0x0],xmm0
    2618:	00 
    2619:	f3 0f 59 80 00 00 00 	mulss  xmm0,DWORD PTR [rax+0x0]
    2620:	00 
    2621:	f3 0f 58 80 00 00 00 	addss  xmm0,DWORD PTR [rax+0x0]
    2628:	00 
    2629:	f3 0f 11 80 00 00 00 	movss  DWORD PTR [rax+0x0],xmm0
    2630:	00 
    2631:	48 83 c0 04          	add    rax,0x4
    2635:	75 ca                	jne    2601 <s152+0x24>
    2637:	bf 00 00 00 00       	mov    edi,0x0
    263c:	be 00 00 00 00       	mov    esi,0x0
    2641:	ba 00 00 00 00       	mov    edx,0x0
    2646:	b9 00 00 00 00       	mov    ecx,0x0
    264b:	41 b8 00 00 00 00    	mov    r8d,0x0
    2651:	41 b9 00 00 00 00    	mov    r9d,0x0
    2657:	0f 57 c0             	xorps  xmm0,xmm0
    265a:	68 00 00 00 00       	push   0x0
    265f:	68 00 00 00 00       	push   0x0
    2664:	e8 00 00 00 00       	call   2669 <s152+0x8c>
    2669:	48 83 c4 10          	add    rsp,0x10
    266d:	ff c3                	inc    ebx
    266f:	81 fb a0 86 01 00    	cmp    ebx,0x186a0
    2675:	75 83                	jne    25fa <s152+0x1d>
    2677:	49 83 c6 10          	add    r14,0x10
    267b:	4c 89 f7             	mov    rdi,r14
    267e:	31 f6                	xor    esi,esi
    2680:	e8 00 00 00 00       	call   2685 <s152+0xa8>
    2685:	bf 00 00 00 00       	mov    edi,0x0
    268a:	48 83 c4 08          	add    rsp,0x8
    268e:	5b                   	pop    rbx
    268f:	41 5e                	pop    r14
    2691:	e9 00 00 00 00       	jmp    2696 <s161>

0000000000002696 <s161>:
    2696:	41 56                	push   r14
    2698:	53                   	push   rbx
    2699:	50                   	push   rax
    269a:	49 89 fe             	mov    r14,rdi
    269d:	bf 00 00 00 00       	mov    edi,0x0
    26a2:	e8 00 00 00 00       	call   26a7 <s161+0x11>
    26a7:	31 db                	xor    ebx,ebx
    26a9:	4c 89 f7             	mov    rdi,r14
    26ac:	31 f6                	xor    esi,esi
    26ae:	e8 00 00 00 00       	call   26b3 <s161+0x1d>
    26b3:	0f 57 c9             	xorps  xmm1,xmm1
    26b6:	31 c0                	xor    eax,eax
    26b8:	0f 2e 0c 85 00 00 00 	ucomiss xmm1,DWORD PTR [rax*4+0x0]
    26bf:	00 
    26c0:	76 21                	jbe    26e3 <s161+0x4d>
    26c2:	f3 0f 10 04 85 00 00 	movss  xmm0,DWORD PTR [rax*4+0x0]
    26c9:	00 00 
    26cb:	f3 0f 59 c0          	mulss  xmm0,xmm0
    26cf:	f3 0f 58 04 85 00 00 	addss  xmm0,DWORD PTR [rax*4+0x0]
    26d6:	00 00 
    26d8:	f3 0f 11 04 85 00 00 	movss  DWORD PTR [rax*4+0x0],xmm0
    26df:	00 00 
    26e1:	eb 24                	jmp    2707 <s161+0x71>
    26e3:	f3 0f 10 04 85 00 00 	movss  xmm0,DWORD PTR [rax*4+0x0]
    26ea:	00 00 
    26ec:	f3 0f 59 04 85 00 00 	mulss  xmm0,DWORD PTR [rax*4+0x0]
    26f3:	00 00 
    26f5:	f3 0f 58 04 85 00 00 	addss  xmm0,DWORD PTR [rax*4+0x0]
    26fc:	00 00 
    26fe:	f3 0f 11 04 85 00 00 	movss  DWORD PTR [rax*4+0x0],xmm0
    2705:	00 00 
    2707:	48 ff c0             	inc    rax
    270a:	0f 2e 0c 85 00 00 00 	ucomiss xmm1,DWORD PTR [rax*4+0x0]
    2711:	00 
    2712:	76 21                	jbe    2735 <s161+0x9f>
    2714:	f3 0f 10 04 85 00 00 	movss  xmm0,DWORD PTR [rax*4+0x0]
    271b:	00 00 
    271d:	f3 0f 59 c0          	mulss  xmm0,xmm0
    2721:	f3 0f 58 04 85 00 00 	addss  xmm0,DWORD PTR [rax*4+0x0]
    2728:	00 00 
    272a:	f3 0f 11 04 85 00 00 	movss  DWORD PTR [rax*4+0x0],xmm0
    2731:	00 00 
    2733:	eb 24                	jmp    2759 <s161+0xc3>
    2735:	f3 0f 10 04 85 00 00 	movss  xmm0,DWORD PTR [rax*4+0x0]
    273c:	00 00 
    273e:	f3 0f 59 04 85 00 00 	mulss  xmm0,DWORD PTR [rax*4+0x0]
    2745:	00 00 
    2747:	f3 0f 58 04 85 00 00 	addss  xmm0,DWORD PTR [rax*4+0x0]
    274e:	00 00 
    2750:	f3 0f 11 04 85 00 00 	movss  DWORD PTR [rax*4+0x0],xmm0
    2757:	00 00 
    2759:	48 ff c0             	inc    rax
    275c:	0f 2e 0c 85 00 00 00 	ucomiss xmm1,DWORD PTR [rax*4+0x0]
    2763:	00 
    2764:	76 21                	jbe    2787 <s161+0xf1>
    2766:	f3 0f 10 04 85 00 00 	movss  xmm0,DWORD PTR [rax*4+0x0]
    276d:	00 00 
    276f:	f3 0f 59 c0          	mulss  xmm0,xmm0
    2773:	f3 0f 58 04 85 00 00 	addss  xmm0,DWORD PTR [rax*4+0x0]
    277a:	00 00 
    277c:	f3 0f 11 04 85 00 00 	movss  DWORD PTR [rax*4+0x0],xmm0
    2783:	00 00 
    2785:	eb 24                	jmp    27ab <s161+0x115>
    2787:	f3 0f 10 04 85 00 00 	movss  xmm0,DWORD PTR [rax*4+0x0]
    278e:	00 00 
    2790:	f3 0f 59 04 85 00 00 	mulss  xmm0,DWORD PTR [rax*4+0x0]
    2797:	00 00 
    2799:	f3 0f 58 04 85 00 00 	addss  xmm0,DWORD PTR [rax*4+0x0]
    27a0:	00 00 
    27a2:	f3 0f 11 04 85 00 00 	movss  DWORD PTR [rax*4+0x0],xmm0
    27a9:	00 00 
    27ab:	48 ff c0             	inc    rax
    27ae:	0f 2e 0c 85 00 00 00 	ucomiss xmm1,DWORD PTR [rax*4+0x0]
    27b5:	00 
    27b6:	76 21                	jbe    27d9 <s161+0x143>
    27b8:	f3 0f 10 04 85 00 00 	movss  xmm0,DWORD PTR [rax*4+0x0]
    27bf:	00 00 
    27c1:	f3 0f 59 c0          	mulss  xmm0,xmm0
    27c5:	f3 0f 58 04 85 00 00 	addss  xmm0,DWORD PTR [rax*4+0x0]
    27cc:	00 00 
    27ce:	f3 0f 11 04 85 00 00 	movss  DWORD PTR [rax*4+0x0],xmm0
    27d5:	00 00 
    27d7:	eb 24                	jmp    27fd <s161+0x167>
    27d9:	f3 0f 10 04 85 00 00 	movss  xmm0,DWORD PTR [rax*4+0x0]
    27e0:	00 00 
    27e2:	f3 0f 59 04 85 00 00 	mulss  xmm0,DWORD PTR [rax*4+0x0]
    27e9:	00 00 
    27eb:	f3 0f 58 04 85 00 00 	addss  xmm0,DWORD PTR [rax*4+0x0]
    27f2:	00 00 
    27f4:	f3 0f 11 04 85 00 00 	movss  DWORD PTR [rax*4+0x0],xmm0
    27fb:	00 00 
    27fd:	48 ff c0             	inc    rax
    2800:	0f 2e 0c 85 00 00 00 	ucomiss xmm1,DWORD PTR [rax*4+0x0]
    2807:	00 
    2808:	76 21                	jbe    282b <s161+0x195>
    280a:	f3 0f 10 04 85 00 00 	movss  xmm0,DWORD PTR [rax*4+0x0]
    2811:	00 00 
    2813:	f3 0f 59 c0          	mulss  xmm0,xmm0
    2817:	f3 0f 58 04 85 00 00 	addss  xmm0,DWORD PTR [rax*4+0x0]
    281e:	00 00 
    2820:	f3 0f 11 04 85 00 00 	movss  DWORD PTR [rax*4+0x0],xmm0
    2827:	00 00 
    2829:	eb 24                	jmp    284f <s161+0x1b9>
    282b:	f3 0f 10 04 85 00 00 	movss  xmm0,DWORD PTR [rax*4+0x0]
    2832:	00 00 
    2834:	f3 0f 59 04 85 00 00 	mulss  xmm0,DWORD PTR [rax*4+0x0]
    283b:	00 00 
    283d:	f3 0f 58 04 85 00 00 	addss  xmm0,DWORD PTR [rax*4+0x0]
    2844:	00 00 
    2846:	f3 0f 11 04 85 00 00 	movss  DWORD PTR [rax*4+0x0],xmm0
    284d:	00 00 
    284f:	48 ff c0             	inc    rax
    2852:	0f 2e 0c 85 00 00 00 	ucomiss xmm1,DWORD PTR [rax*4+0x0]
    2859:	00 
    285a:	76 21                	jbe    287d <s161+0x1e7>
    285c:	f3 0f 10 04 85 00 00 	movss  xmm0,DWORD PTR [rax*4+0x0]
    2863:	00 00 
    2865:	f3 0f 59 c0          	mulss  xmm0,xmm0
    2869:	f3 0f 58 04 85 00 00 	addss  xmm0,DWORD PTR [rax*4+0x0]
    2870:	00 00 
    2872:	f3 0f 11 04 85 00 00 	movss  DWORD PTR [rax*4+0x0],xmm0
    2879:	00 00 
    287b:	eb 24                	jmp    28a1 <s161+0x20b>
    287d:	f3 0f 10 04 85 00 00 	movss  xmm0,DWORD PTR [rax*4+0x0]
    2884:	00 00 
    2886:	f3 0f 59 04 85 00 00 	mulss  xmm0,DWORD PTR [rax*4+0x0]
    288d:	00 00 
    288f:	f3 0f 58 04 85 00 00 	addss  xmm0,DWORD PTR [rax*4+0x0]
    2896:	00 00 
    2898:	f3 0f 11 04 85 00 00 	movss  DWORD PTR [rax*4+0x0],xmm0
    289f:	00 00 
    28a1:	48 ff c0             	inc    rax
    28a4:	0f 2e 0c 85 00 00 00 	ucomiss xmm1,DWORD PTR [rax*4+0x0]
    28ab:	00 
    28ac:	76 21                	jbe    28cf <s161+0x239>
    28ae:	f3 0f 10 04 85 00 00 	movss  xmm0,DWORD PTR [rax*4+0x0]
    28b5:	00 00 
    28b7:	f3 0f 59 c0          	mulss  xmm0,xmm0
    28bb:	f3 0f 58 04 85 00 00 	addss  xmm0,DWORD PTR [rax*4+0x0]
    28c2:	00 00 
    28c4:	f3 0f 11 04 85 00 00 	movss  DWORD PTR [rax*4+0x0],xmm0
    28cb:	00 00 
    28cd:	eb 24                	jmp    28f3 <s161+0x25d>
    28cf:	f3 0f 10 04 85 00 00 	movss  xmm0,DWORD PTR [rax*4+0x0]
    28d6:	00 00 
    28d8:	f3 0f 59 04 85 00 00 	mulss  xmm0,DWORD PTR [rax*4+0x0]
    28df:	00 00 
    28e1:	f3 0f 58 04 85 00 00 	addss  xmm0,DWORD PTR [rax*4+0x0]
    28e8:	00 00 
    28ea:	f3 0f 11 04 85 00 00 	movss  DWORD PTR [rax*4+0x0],xmm0
    28f1:	00 00 
    28f3:	48 ff c0             	inc    rax
    28f6:	48 3d ff 7c 00 00    	cmp    rax,0x7cff
    28fc:	74 5d                	je     295b <s161+0x2c5>
    28fe:	0f 2e 0c 85 00 00 00 	ucomiss xmm1,DWORD PTR [rax*4+0x0]
    2905:	00 
    2906:	76 27                	jbe    292f <s161+0x299>
    2908:	f3 0f 10 04 85 00 00 	movss  xmm0,DWORD PTR [rax*4+0x0]
    290f:	00 00 
    2911:	f3 0f 59 c0          	mulss  xmm0,xmm0
    2915:	f3 0f 58 04 85 00 00 	addss  xmm0,DWORD PTR [rax*4+0x0]
    291c:	00 00 
    291e:	f3 0f 11 04 85 00 00 	movss  DWORD PTR [rax*4+0x0],xmm0
    2925:	00 00 
    2927:	48 ff c0             	inc    rax
    292a:	e9 89 fd ff ff       	jmp    26b8 <s161+0x22>
    292f:	f3 0f 10 04 85 00 00 	movss  xmm0,DWORD PTR [rax*4+0x0]
    2936:	00 00 
    2938:	f3 0f 59 04 85 00 00 	mulss  xmm0,DWORD PTR [rax*4+0x0]
    293f:	00 00 
    2941:	f3 0f 58 04 85 00 00 	addss  xmm0,DWORD PTR [rax*4+0x0]
    2948:	00 00 
    294a:	f3 0f 11 04 85 00 00 	movss  DWORD PTR [rax*4+0x0],xmm0
    2951:	00 00 
    2953:	48 ff c0             	inc    rax
    2956:	e9 5d fd ff ff       	jmp    26b8 <s161+0x22>
    295b:	bf 00 00 00 00       	mov    edi,0x0
    2960:	be 00 00 00 00       	mov    esi,0x0
    2965:	ba 00 00 00 00       	mov    edx,0x0
    296a:	b9 00 00 00 00       	mov    ecx,0x0
    296f:	41 b8 00 00 00 00    	mov    r8d,0x0
    2975:	41 b9 00 00 00 00    	mov    r9d,0x0
    297b:	0f 57 c0             	xorps  xmm0,xmm0
    297e:	68 00 00 00 00       	push   0x0
    2983:	68 00 00 00 00       	push   0x0
    2988:	e8 00 00 00 00       	call   298d <s161+0x2f7>
    298d:	0f 57 c9             	xorps  xmm1,xmm1
    2990:	48 83 c4 10          	add    rsp,0x10
    2994:	ff c3                	inc    ebx
    2996:	81 fb 50 c3 00 00    	cmp    ebx,0xc350
    299c:	0f 85 14 fd ff ff    	jne    26b6 <s161+0x20>
    29a2:	49 83 c6 10          	add    r14,0x10
    29a6:	4c 89 f7             	mov    rdi,r14
    29a9:	31 f6                	xor    esi,esi
    29ab:	e8 00 00 00 00       	call   29b0 <s161+0x31a>
    29b0:	bf 00 00 00 00       	mov    edi,0x0
    29b5:	48 83 c4 08          	add    rsp,0x8
    29b9:	5b                   	pop    rbx
    29ba:	41 5e                	pop    r14
    29bc:	e9 00 00 00 00       	jmp    29c1 <s1161>

00000000000029c1 <s1161>:
    29c1:	41 56                	push   r14
    29c3:	53                   	push   rbx
    29c4:	50                   	push   rax
    29c5:	49 89 fe             	mov    r14,rdi
    29c8:	bf 00 00 00 00       	mov    edi,0x0
    29cd:	e8 00 00 00 00       	call   29d2 <s1161+0x11>
    29d2:	31 db                	xor    ebx,ebx
    29d4:	4c 89 f7             	mov    rdi,r14
    29d7:	31 f6                	xor    esi,esi
    29d9:	e8 00 00 00 00       	call   29de <s1161+0x1d>
    29de:	0f 57 d2             	xorps  xmm2,xmm2
    29e1:	31 c0                	xor    eax,eax
    29e3:	f3 0f 10 80 00 00 00 	movss  xmm0,DWORD PTR [rax+0x0]
    29ea:	00 
    29eb:	0f 2e d0             	ucomiss xmm2,xmm0
    29ee:	76 1b                	jbe    2a0b <s1161+0x4a>
    29f0:	f3 0f 10 80 00 00 00 	movss  xmm0,DWORD PTR [rax+0x0]
    29f7:	00 
    29f8:	f3 0f 10 88 00 00 00 	movss  xmm1,DWORD PTR [rax+0x0]
    29ff:	00 
    2a00:	f3 0f 59 c9          	mulss  xmm1,xmm1
    2a04:	b9 00 00 00 00       	mov    ecx,0x0
    2a09:	eb 15                	jmp    2a20 <s1161+0x5f>
    2a0b:	f3 0f 10 88 00 00 00 	movss  xmm1,DWORD PTR [rax+0x0]
    2a12:	00 
    2a13:	f3 0f 59 88 00 00 00 	mulss  xmm1,DWORD PTR [rax+0x0]
    2a1a:	00 
    2a1b:	b9 00 00 00 00       	mov    ecx,0x0
    2a20:	f3 0f 58 c8          	addss  xmm1,xmm0
    2a24:	f3 0f 11 0c 01       	movss  DWORD PTR [rcx+rax*1],xmm1
    2a29:	f3 0f 10 80 00 00 00 	movss  xmm0,DWORD PTR [rax+0x0]
    2a30:	00 
    2a31:	0f 2e d0             	ucomiss xmm2,xmm0
    2a34:	76 1b                	jbe    2a51 <s1161+0x90>
    2a36:	f3 0f 10 80 00 00 00 	movss  xmm0,DWORD PTR [rax+0x0]
    2a3d:	00 
    2a3e:	f3 0f 10 88 00 00 00 	movss  xmm1,DWORD PTR [rax+0x0]
    2a45:	00 
    2a46:	f3 0f 59 c9          	mulss  xmm1,xmm1
    2a4a:	b9 00 00 00 00       	mov    ecx,0x0
    2a4f:	eb 15                	jmp    2a66 <s1161+0xa5>
    2a51:	f3 0f 10 88 00 00 00 	movss  xmm1,DWORD PTR [rax+0x0]
    2a58:	00 
    2a59:	f3 0f 59 88 00 00 00 	mulss  xmm1,DWORD PTR [rax+0x0]
    2a60:	00 
    2a61:	b9 00 00 00 00       	mov    ecx,0x0
    2a66:	f3 0f 58 c8          	addss  xmm1,xmm0
    2a6a:	f3 0f 11 4c 01 04    	movss  DWORD PTR [rcx+rax*1+0x4],xmm1
    2a70:	f3 0f 10 80 00 00 00 	movss  xmm0,DWORD PTR [rax+0x0]
    2a77:	00 
    2a78:	0f 2e d0             	ucomiss xmm2,xmm0
    2a7b:	76 1b                	jbe    2a98 <s1161+0xd7>
    2a7d:	f3 0f 10 80 00 00 00 	movss  xmm0,DWORD PTR [rax+0x0]
    2a84:	00 
    2a85:	f3 0f 10 88 00 00 00 	movss  xmm1,DWORD PTR [rax+0x0]
    2a8c:	00 
    2a8d:	f3 0f 59 c9          	mulss  xmm1,xmm1
    2a91:	b9 00 00 00 00       	mov    ecx,0x0
    2a96:	eb 15                	jmp    2aad <s1161+0xec>
    2a98:	f3 0f 10 88 00 00 00 	movss  xmm1,DWORD PTR [rax+0x0]
    2a9f:	00 
    2aa0:	f3 0f 59 88 00 00 00 	mulss  xmm1,DWORD PTR [rax+0x0]
    2aa7:	00 
    2aa8:	b9 00 00 00 00       	mov    ecx,0x0
    2aad:	f3 0f 58 c8          	addss  xmm1,xmm0
    2ab1:	f3 0f 11 4c 01 08    	movss  DWORD PTR [rcx+rax*1+0x8],xmm1
    2ab7:	f3 0f 10 80 00 00 00 	movss  xmm0,DWORD PTR [rax+0x0]
    2abe:	00 
    2abf:	0f 2e d0             	ucomiss xmm2,xmm0
    2ac2:	76 1b                	jbe    2adf <s1161+0x11e>
    2ac4:	f3 0f 10 80 00 00 00 	movss  xmm0,DWORD PTR [rax+0x0]
    2acb:	00 
    2acc:	f3 0f 10 88 00 00 00 	movss  xmm1,DWORD PTR [rax+0x0]
    2ad3:	00 
    2ad4:	f3 0f 59 c9          	mulss  xmm1,xmm1
    2ad8:	b9 00 00 00 00       	mov    ecx,0x0
    2add:	eb 15                	jmp    2af4 <s1161+0x133>
    2adf:	f3 0f 10 88 00 00 00 	movss  xmm1,DWORD PTR [rax+0x0]
    2ae6:	00 
    2ae7:	f3 0f 59 88 00 00 00 	mulss  xmm1,DWORD PTR [rax+0x0]
    2aee:	00 
    2aef:	b9 00 00 00 00       	mov    ecx,0x0
    2af4:	f3 0f 58 c8          	addss  xmm1,xmm0
    2af8:	f3 0f 11 4c 01 0c    	movss  DWORD PTR [rcx+rax*1+0xc],xmm1
    2afe:	f3 0f 10 80 00 00 00 	movss  xmm0,DWORD PTR [rax+0x0]
    2b05:	00 
    2b06:	0f 2e d0             	ucomiss xmm2,xmm0
    2b09:	76 1b                	jbe    2b26 <s1161+0x165>
    2b0b:	f3 0f 10 80 00 00 00 	movss  xmm0,DWORD PTR [rax+0x0]
    2b12:	00 
    2b13:	f3 0f 10 88 00 00 00 	movss  xmm1,DWORD PTR [rax+0x0]
    2b1a:	00 
    2b1b:	f3 0f 59 c9          	mulss  xmm1,xmm1
    2b1f:	b9 00 00 00 00       	mov    ecx,0x0
    2b24:	eb 15                	jmp    2b3b <s1161+0x17a>
    2b26:	f3 0f 10 88 00 00 00 	movss  xmm1,DWORD PTR [rax+0x0]
    2b2d:	00 
    2b2e:	f3 0f 59 88 00 00 00 	mulss  xmm1,DWORD PTR [rax+0x0]
    2b35:	00 
    2b36:	b9 00 00 00 00       	mov    ecx,0x0
    2b3b:	f3 0f 58 c8          	addss  xmm1,xmm0
    2b3f:	f3 0f 11 4c 01 10    	movss  DWORD PTR [rcx+rax*1+0x10],xmm1
    2b45:	f3 0f 10 80 00 00 00 	movss  xmm0,DWORD PTR [rax+0x0]
    2b4c:	00 
    2b4d:	0f 2e d0             	ucomiss xmm2,xmm0
    2b50:	76 1b                	jbe    2b6d <s1161+0x1ac>
    2b52:	f3 0f 10 80 00 00 00 	movss  xmm0,DWORD PTR [rax+0x0]
    2b59:	00 
    2b5a:	f3 0f 10 88 00 00 00 	movss  xmm1,DWORD PTR [rax+0x0]
    2b61:	00 
    2b62:	f3 0f 59 c9          	mulss  xmm1,xmm1
    2b66:	b9 00 00 00 00       	mov    ecx,0x0
    2b6b:	eb 15                	jmp    2b82 <s1161+0x1c1>
    2b6d:	f3 0f 10 88 00 00 00 	movss  xmm1,DWORD PTR [rax+0x0]
    2b74:	00 
    2b75:	f3 0f 59 88 00 00 00 	mulss  xmm1,DWORD PTR [rax+0x0]
    2b7c:	00 
    2b7d:	b9 00 00 00 00       	mov    ecx,0x0
    2b82:	f3 0f 58 c8          	addss  xmm1,xmm0
    2b86:	f3 0f 11 4c 01 14    	movss  DWORD PTR [rcx+rax*1+0x14],xmm1
    2b8c:	f3 0f 10 80 00 00 00 	movss  xmm0,DWORD PTR [rax+0x0]
    2b93:	00 
    2b94:	0f 2e d0             	ucomiss xmm2,xmm0
    2b97:	76 1b                	jbe    2bb4 <s1161+0x1f3>
    2b99:	f3 0f 10 80 00 00 00 	movss  xmm0,DWORD PTR [rax+0x0]
    2ba0:	00 
    2ba1:	f3 0f 10 88 00 00 00 	movss  xmm1,DWORD PTR [rax+0x0]
    2ba8:	00 
    2ba9:	f3 0f 59 c9          	mulss  xmm1,xmm1
    2bad:	b9 00 00 00 00       	mov    ecx,0x0
    2bb2:	eb 15                	jmp    2bc9 <s1161+0x208>
    2bb4:	f3 0f 10 88 00 00 00 	movss  xmm1,DWORD PTR [rax+0x0]
    2bbb:	00 
    2bbc:	f3 0f 59 88 00 00 00 	mulss  xmm1,DWORD PTR [rax+0x0]
    2bc3:	00 
    2bc4:	b9 00 00 00 00       	mov    ecx,0x0
    2bc9:	f3 0f 58 c8          	addss  xmm1,xmm0
    2bcd:	f3 0f 11 4c 01 18    	movss  DWORD PTR [rcx+rax*1+0x18],xmm1
    2bd3:	48 3d e0 f3 01 00    	cmp    rax,0x1f3e0
    2bd9:	74 50                	je     2c2b <s1161+0x26a>
    2bdb:	f3 0f 10 80 00 00 00 	movss  xmm0,DWORD PTR [rax+0x0]
    2be2:	00 
    2be3:	0f 2e d0             	ucomiss xmm2,xmm0
    2be6:	76 1b                	jbe    2c03 <s1161+0x242>
    2be8:	f3 0f 10 80 00 00 00 	movss  xmm0,DWORD PTR [rax+0x0]
    2bef:	00 
    2bf0:	f3 0f 10 88 00 00 00 	movss  xmm1,DWORD PTR [rax+0x0]
    2bf7:	00 
    2bf8:	f3 0f 59 c9          	mulss  xmm1,xmm1
    2bfc:	b9 00 00 00 00       	mov    ecx,0x0
    2c01:	eb 15                	jmp    2c18 <s1161+0x257>
    2c03:	f3 0f 10 88 00 00 00 	movss  xmm1,DWORD PTR [rax+0x0]
    2c0a:	00 
    2c0b:	f3 0f 59 88 00 00 00 	mulss  xmm1,DWORD PTR [rax+0x0]
    2c12:	00 
    2c13:	b9 00 00 00 00       	mov    ecx,0x0
    2c18:	f3 0f 58 c8          	addss  xmm1,xmm0
    2c1c:	f3 0f 11 4c 01 1c    	movss  DWORD PTR [rcx+rax*1+0x1c],xmm1
    2c22:	48 83 c0 20          	add    rax,0x20
    2c26:	e9 b8 fd ff ff       	jmp    29e3 <s1161+0x22>
    2c2b:	bf 00 00 00 00       	mov    edi,0x0
    2c30:	be 00 00 00 00       	mov    esi,0x0
    2c35:	ba 00 00 00 00       	mov    edx,0x0
    2c3a:	b9 00 00 00 00       	mov    ecx,0x0
    2c3f:	41 b8 00 00 00 00    	mov    r8d,0x0
    2c45:	41 b9 00 00 00 00    	mov    r9d,0x0
    2c4b:	0f 57 c0             	xorps  xmm0,xmm0
    2c4e:	68 00 00 00 00       	push   0x0
    2c53:	68 00 00 00 00       	push   0x0
    2c58:	e8 00 00 00 00       	call   2c5d <s1161+0x29c>
    2c5d:	0f 57 d2             	xorps  xmm2,xmm2
    2c60:	48 83 c4 10          	add    rsp,0x10
    2c64:	ff c3                	inc    ebx
    2c66:	81 fb a0 86 01 00    	cmp    ebx,0x186a0
    2c6c:	0f 85 6f fd ff ff    	jne    29e1 <s1161+0x20>
    2c72:	49 83 c6 10          	add    r14,0x10
    2c76:	4c 89 f7             	mov    rdi,r14
    2c79:	31 f6                	xor    esi,esi
    2c7b:	e8 00 00 00 00       	call   2c80 <s1161+0x2bf>
    2c80:	bf 00 00 00 00       	mov    edi,0x0
    2c85:	48 83 c4 08          	add    rsp,0x8
    2c89:	5b                   	pop    rbx
    2c8a:	41 5e                	pop    r14
    2c8c:	e9 00 00 00 00       	jmp    2c91 <s162>

0000000000002c91 <s162>:
    2c91:	41 57                	push   r15
    2c93:	41 56                	push   r14
    2c95:	53                   	push   rbx
    2c96:	49 89 fe             	mov    r14,rdi
    2c99:	48 8b 47 20          	mov    rax,QWORD PTR [rdi+0x20]
    2c9d:	48 63 18             	movsxd rbx,DWORD PTR [rax]
    2ca0:	bf 00 00 00 00       	mov    edi,0x0
    2ca5:	e8 00 00 00 00       	call   2caa <s162+0x19>
    2caa:	45 31 ff             	xor    r15d,r15d
    2cad:	4c 89 f7             	mov    rdi,r14
    2cb0:	31 f6                	xor    esi,esi
    2cb2:	e8 00 00 00 00       	call   2cb7 <s162+0x26>
    2cb7:	85 db                	test   ebx,ebx
    2cb9:	0f 8e 1e 01 00 00    	jle    2ddd <s162+0x14c>
    2cbf:	b8 1c 00 00 00       	mov    eax,0x1c
    2cc4:	f3 0f 10 80 00 00 00 	movss  xmm0,DWORD PTR [rax+0x0]
    2ccb:	00 
    2ccc:	f3 0f 59 80 00 00 00 	mulss  xmm0,DWORD PTR [rax+0x0]
    2cd3:	00 
    2cd4:	f3 0f 58 84 98 00 00 	addss  xmm0,DWORD PTR [rax+rbx*4+0x0]
    2cdb:	00 00 
    2cdd:	f3 0f 11 80 00 00 00 	movss  DWORD PTR [rax+0x0],xmm0
    2ce4:	00 
    2ce5:	f3 0f 10 80 00 00 00 	movss  xmm0,DWORD PTR [rax+0x0]
    2cec:	00 
    2ced:	f3 0f 59 80 00 00 00 	mulss  xmm0,DWORD PTR [rax+0x0]
    2cf4:	00 
    2cf5:	f3 0f 58 84 98 00 00 	addss  xmm0,DWORD PTR [rax+rbx*4+0x0]
    2cfc:	00 00 
    2cfe:	f3 0f 11 80 00 00 00 	movss  DWORD PTR [rax+0x0],xmm0
    2d05:	00 
    2d06:	f3 0f 10 80 00 00 00 	movss  xmm0,DWORD PTR [rax+0x0]
    2d0d:	00 
    2d0e:	f3 0f 59 80 00 00 00 	mulss  xmm0,DWORD PTR [rax+0x0]
    2d15:	00 
    2d16:	f3 0f 58 84 98 00 00 	addss  xmm0,DWORD PTR [rax+rbx*4+0x0]
    2d1d:	00 00 
    2d1f:	f3 0f 11 80 00 00 00 	movss  DWORD PTR [rax+0x0],xmm0
    2d26:	00 
    2d27:	f3 0f 10 80 00 00 00 	movss  xmm0,DWORD PTR [rax+0x0]
    2d2e:	00 
    2d2f:	f3 0f 59 80 00 00 00 	mulss  xmm0,DWORD PTR [rax+0x0]
    2d36:	00 
    2d37:	f3 0f 58 84 98 00 00 	addss  xmm0,DWORD PTR [rax+rbx*4+0x0]
    2d3e:	00 00 
    2d40:	f3 0f 11 80 00 00 00 	movss  DWORD PTR [rax+0x0],xmm0
    2d47:	00 
    2d48:	f3 0f 10 80 00 00 00 	movss  xmm0,DWORD PTR [rax+0x0]
    2d4f:	00 
    2d50:	f3 0f 59 80 00 00 00 	mulss  xmm0,DWORD PTR [rax+0x0]
    2d57:	00 
    2d58:	f3 0f 58 84 98 00 00 	addss  xmm0,DWORD PTR [rax+rbx*4+0x0]
    2d5f:	00 00 
    2d61:	f3 0f 11 80 00 00 00 	movss  DWORD PTR [rax+0x0],xmm0
    2d68:	00 
    2d69:	f3 0f 10 80 00 00 00 	movss  xmm0,DWORD PTR [rax+0x0]
    2d70:	00 
    2d71:	f3 0f 59 80 00 00 00 	mulss  xmm0,DWORD PTR [rax+0x0]
    2d78:	00 
    2d79:	f3 0f 58 84 98 00 00 	addss  xmm0,DWORD PTR [rax+rbx*4+0x0]
    2d80:	00 00 
    2d82:	f3 0f 11 80 00 00 00 	movss  DWORD PTR [rax+0x0],xmm0
    2d89:	00 
    2d8a:	f3 0f 10 80 00 00 00 	movss  xmm0,DWORD PTR [rax+0x0]
    2d91:	00 
    2d92:	f3 0f 59 80 00 00 00 	mulss  xmm0,DWORD PTR [rax+0x0]
    2d99:	00 
    2d9a:	f3 0f 58 84 98 00 00 	addss  xmm0,DWORD PTR [rax+rbx*4+0x0]
    2da1:	00 00 
    2da3:	f3 0f 11 80 00 00 00 	movss  DWORD PTR [rax+0x0],xmm0
    2daa:	00 
    2dab:	48 3d fc f3 01 00    	cmp    rax,0x1f3fc
    2db1:	74 2a                	je     2ddd <s162+0x14c>
    2db3:	f3 0f 10 80 00 00 00 	movss  xmm0,DWORD PTR [rax+0x0]
    2dba:	00 
    2dbb:	f3 0f 59 80 00 00 00 	mulss  xmm0,DWORD PTR [rax+0x0]
    2dc2:	00 
    2dc3:	f3 0f 58 84 98 00 00 	addss  xmm0,DWORD PTR [rax+rbx*4+0x0]
    2dca:	00 00 
    2dcc:	f3 0f 11 80 00 00 00 	movss  DWORD PTR [rax+0x0],xmm0
    2dd3:	00 
    2dd4:	48 83 c0 20          	add    rax,0x20
    2dd8:	e9 e7 fe ff ff       	jmp    2cc4 <s162+0x33>
    2ddd:	bf 00 00 00 00       	mov    edi,0x0
    2de2:	be 00 00 00 00       	mov    esi,0x0
    2de7:	ba 00 00 00 00       	mov    edx,0x0
    2dec:	b9 00 00 00 00       	mov    ecx,0x0
    2df1:	41 b8 00 00 00 00    	mov    r8d,0x0
    2df7:	41 b9 00 00 00 00    	mov    r9d,0x0
    2dfd:	0f 57 c0             	xorps  xmm0,xmm0
    2e00:	68 00 00 00 00       	push   0x0
    2e05:	68 00 00 00 00       	push   0x0
    2e0a:	e8 00 00 00 00       	call   2e0f <s162+0x17e>
    2e0f:	48 83 c4 10          	add    rsp,0x10
    2e13:	41 ff c7             	inc    r15d
    2e16:	41 81 ff a0 86 01 00 	cmp    r15d,0x186a0
    2e1d:	0f 85 94 fe ff ff    	jne    2cb7 <s162+0x26>
    2e23:	49 83 c6 10          	add    r14,0x10
    2e27:	4c 89 f7             	mov    rdi,r14
    2e2a:	31 f6                	xor    esi,esi
    2e2c:	e8 00 00 00 00       	call   2e31 <s162+0x1a0>
    2e31:	bf 00 00 00 00       	mov    edi,0x0
    2e36:	5b                   	pop    rbx
    2e37:	41 5e                	pop    r14
    2e39:	41 5f                	pop    r15
    2e3b:	e9 00 00 00 00       	jmp    2e40 <s171>

0000000000002e40 <s171>:
    2e40:	41 57                	push   r15
    2e42:	41 56                	push   r14
    2e44:	53                   	push   rbx
    2e45:	49 89 fe             	mov    r14,rdi
    2e48:	48 8b 47 20          	mov    rax,QWORD PTR [rdi+0x20]
    2e4c:	48 63 18             	movsxd rbx,DWORD PTR [rax]
    2e4f:	bf 00 00 00 00       	mov    edi,0x0
    2e54:	e8 00 00 00 00       	call   2e59 <s171+0x19>
    2e59:	45 31 ff             	xor    r15d,r15d
    2e5c:	4c 89 f7             	mov    rdi,r14
    2e5f:	31 f6                	xor    esi,esi
    2e61:	e8 00 00 00 00       	call   2e66 <s171+0x26>
    2e66:	48 c1 e3 02          	shl    rbx,0x2
    2e6a:	48 c7 c0 00 0c fe ff 	mov    rax,0xfffffffffffe0c00
    2e71:	b9 00 00 00 00       	mov    ecx,0x0
    2e76:	f3 0f 10 80 00 00 00 	movss  xmm0,DWORD PTR [rax+0x0]
    2e7d:	00 
    2e7e:	f3 0f 58 01          	addss  xmm0,DWORD PTR [rcx]
    2e82:	f3 0f 11 01          	movss  DWORD PTR [rcx],xmm0
    2e86:	48 01 d9             	add    rcx,rbx
    2e89:	48 83 c0 04          	add    rax,0x4
    2e8d:	75 e7                	jne    2e76 <s171+0x36>
    2e8f:	bf 00 00 00 00       	mov    edi,0x0
    2e94:	be 00 00 00 00       	mov    esi,0x0
    2e99:	ba 00 00 00 00       	mov    edx,0x0
    2e9e:	b9 00 00 00 00       	mov    ecx,0x0
    2ea3:	41 b8 00 00 00 00    	mov    r8d,0x0
    2ea9:	41 b9 00 00 00 00    	mov    r9d,0x0
    2eaf:	0f 57 c0             	xorps  xmm0,xmm0
    2eb2:	68 00 00 00 00       	push   0x0
    2eb7:	68 00 00 00 00       	push   0x0
    2ebc:	e8 00 00 00 00       	call   2ec1 <s171+0x81>
    2ec1:	48 83 c4 10          	add    rsp,0x10
    2ec5:	41 ff c7             	inc    r15d
    2ec8:	41 81 ff a0 86 01 00 	cmp    r15d,0x186a0
    2ecf:	75 99                	jne    2e6a <s171+0x2a>
    2ed1:	49 83 c6 10          	add    r14,0x10
    2ed5:	4c 89 f7             	mov    rdi,r14
    2ed8:	31 f6                	xor    esi,esi
    2eda:	e8 00 00 00 00       	call   2edf <s171+0x9f>
    2edf:	bf 00 00 00 00       	mov    edi,0x0
    2ee4:	5b                   	pop    rbx
    2ee5:	41 5e                	pop    r14
    2ee7:	41 5f                	pop    r15
    2ee9:	e9 00 00 00 00       	jmp    2eee <s172>

0000000000002eee <s172>:
    2eee:	55                   	push   rbp
    2eef:	41 57                	push   r15
    2ef1:	41 56                	push   r14
    2ef3:	41 55                	push   r13
    2ef5:	41 54                	push   r12
    2ef7:	53                   	push   rbx
    2ef8:	48 83 ec 18          	sub    rsp,0x18
    2efc:	48 89 fb             	mov    rbx,rdi
    2eff:	48 8b 47 20          	mov    rax,QWORD PTR [rdi+0x20]
    2f03:	44 8b 20             	mov    r12d,DWORD PTR [rax]
    2f06:	48 63 68 04          	movsxd rbp,DWORD PTR [rax+0x4]
    2f0a:	bf 00 00 00 00       	mov    edi,0x0
    2f0f:	e8 00 00 00 00       	call   2f14 <s172+0x26>
    2f14:	45 31 ed             	xor    r13d,r13d
    2f17:	48 89 5c 24 10       	mov    QWORD PTR [rsp+0x10],rbx
    2f1c:	48 89 df             	mov    rdi,rbx
    2f1f:	31 f6                	xor    esi,esi
    2f21:	e8 00 00 00 00       	call   2f26 <s172+0x38>
    2f26:	41 8d 44 24 ff       	lea    eax,[r12-0x1]
    2f2b:	41 8d 0c 2c          	lea    ecx,[r12+rbp*1]
    2f2f:	ff c9                	dec    ecx
    2f31:	ba 00 7d 00 00       	mov    edx,0x7d00
    2f36:	39 d1                	cmp    ecx,edx
    2f38:	0f 4f d1             	cmovg  edx,ecx
    2f3b:	48 98                	cdqe   
    2f3d:	48 89 44 24 08       	mov    QWORD PTR [rsp+0x8],rax
    2f42:	44 29 e2             	sub    edx,r12d
    2f45:	89 54 24 04          	mov    DWORD PTR [rsp+0x4],edx
    2f49:	49 89 ee             	mov    r14,rbp
    2f4c:	49 c1 e6 05          	shl    r14,0x5
    2f50:	4c 8d 3c ad 00 00 00 	lea    r15,[rbp*4+0x0]
    2f57:	00 
    2f58:	41 81 fc 00 7d 00 00 	cmp    r12d,0x7d00
    2f5f:	0f 8f 46 01 00 00    	jg     30ab <s172+0x1bd>
    2f65:	8b 44 24 04          	mov    eax,DWORD PTR [rsp+0x4]
    2f69:	31 d2                	xor    edx,edx
    2f6b:	f7 f5                	div    ebp
    2f6d:	8d 50 01             	lea    edx,[rax+0x1]
    2f70:	48 8b 4c 24 08       	mov    rcx,QWORD PTR [rsp+0x8]
    2f75:	83 e2 07             	and    edx,0x7
    2f78:	74 27                	je     2fa1 <s172+0xb3>
    2f7a:	48 8b 4c 24 08       	mov    rcx,QWORD PTR [rsp+0x8]
    2f7f:	f3 0f 10 04 8d 00 00 	movss  xmm0,DWORD PTR [rcx*4+0x0]
    2f86:	00 00 
    2f88:	f3 0f 58 04 8d 00 00 	addss  xmm0,DWORD PTR [rcx*4+0x0]
    2f8f:	00 00 
    2f91:	f3 0f 11 04 8d 00 00 	movss  DWORD PTR [rcx*4+0x0],xmm0
    2f98:	00 00 
    2f9a:	48 01 e9             	add    rcx,rbp
    2f9d:	ff ca                	dec    edx
    2f9f:	75 de                	jne    2f7f <s172+0x91>
    2fa1:	83 f8 07             	cmp    eax,0x7
    2fa4:	0f 82 01 01 00 00    	jb     30ab <s172+0x1bd>
    2faa:	48 8d 04 8d 00 00 00 	lea    rax,[rcx*4+0x0]
    2fb1:	00 
    2fb2:	f3 0f 10 80 00 00 00 	movss  xmm0,DWORD PTR [rax+0x0]
    2fb9:	00 
    2fba:	f3 0f 58 80 00 00 00 	addss  xmm0,DWORD PTR [rax+0x0]
    2fc1:	00 
    2fc2:	f3 0f 11 80 00 00 00 	movss  DWORD PTR [rax+0x0],xmm0
    2fc9:	00 
    2fca:	48 01 e9             	add    rcx,rbp
    2fcd:	4a 8d 34 38          	lea    rsi,[rax+r15*1]
    2fd1:	48 81 c6 00 00 00 00 	add    rsi,0x0
    2fd8:	f3 0f 10 84 a8 00 00 	movss  xmm0,DWORD PTR [rax+rbp*4+0x0]
    2fdf:	00 00 
    2fe1:	4a 8d 3c 38          	lea    rdi,[rax+r15*1]
    2fe5:	48 81 c7 00 00 00 00 	add    rdi,0x0
    2fec:	f3 0f 58 84 a8 00 00 	addss  xmm0,DWORD PTR [rax+rbp*4+0x0]
    2ff3:	00 00 
    2ff5:	f3 0f 11 84 a8 00 00 	movss  DWORD PTR [rax+rbp*4+0x0],xmm0
    2ffc:	00 00 
    2ffe:	48 01 e9             	add    rcx,rbp
    3001:	4c 01 fe             	add    rsi,r15
    3004:	f3 0f 10 84 e8 00 00 	movss  xmm0,DWORD PTR [rax+rbp*8+0x0]
    300b:	00 00 
    300d:	4c 01 ff             	add    rdi,r15
    3010:	f3 0f 58 84 e8 00 00 	addss  xmm0,DWORD PTR [rax+rbp*8+0x0]
    3017:	00 00 
    3019:	f3 0f 11 84 e8 00 00 	movss  DWORD PTR [rax+rbp*8+0x0],xmm0
    3020:	00 00 
    3022:	48 01 e9             	add    rcx,rbp
    3025:	4a 8d 14 3e          	lea    rdx,[rsi+r15*1]
    3029:	f3 0f 10 04 ae       	movss  xmm0,DWORD PTR [rsi+rbp*4]
    302e:	4a 8d 1c 3f          	lea    rbx,[rdi+r15*1]
    3032:	f3 0f 58 04 af       	addss  xmm0,DWORD PTR [rdi+rbp*4]
    3037:	f3 0f 11 04 af       	movss  DWORD PTR [rdi+rbp*4],xmm0
    303c:	48 01 e9             	add    rcx,rbp
    303f:	4c 01 fa             	add    rdx,r15
    3042:	f3 0f 10 04 ee       	movss  xmm0,DWORD PTR [rsi+rbp*8]
    3047:	f3 0f 58 04 ef       	addss  xmm0,DWORD PTR [rdi+rbp*8]
    304c:	4c 01 fb             	add    rbx,r15
    304f:	f3 0f 11 04 ef       	movss  DWORD PTR [rdi+rbp*8],xmm0
    3054:	48 01 e9             	add    rcx,rbp
    3057:	f3 0f 10 04 aa       	movss  xmm0,DWORD PTR [rdx+rbp*4]
    305c:	4c 01 fa             	add    rdx,r15
    305f:	4a 8d 34 3b          	lea    rsi,[rbx+r15*1]
    3063:	f3 0f 58 04 ab       	addss  xmm0,DWORD PTR [rbx+rbp*4]
    3068:	f3 0f 11 04 ab       	movss  DWORD PTR [rbx+rbp*4],xmm0
    306d:	48 01 e9             	add    rcx,rbp
    3070:	f3 0f 10 04 aa       	movss  xmm0,DWORD PTR [rdx+rbp*4]
    3075:	4c 01 fa             	add    rdx,r15
    3078:	4a 8d 3c 3e          	lea    rdi,[rsi+r15*1]
    307c:	f3 0f 58 04 ae       	addss  xmm0,DWORD PTR [rsi+rbp*4]
    3081:	f3 0f 11 04 ae       	movss  DWORD PTR [rsi+rbp*4],xmm0
    3086:	48 01 e9             	add    rcx,rbp
    3089:	f3 0f 10 04 aa       	movss  xmm0,DWORD PTR [rdx+rbp*4]
    308e:	f3 0f 58 04 af       	addss  xmm0,DWORD PTR [rdi+rbp*4]
    3093:	f3 0f 11 04 af       	movss  DWORD PTR [rdi+rbp*4],xmm0
    3098:	48 01 e9             	add    rcx,rbp
    309b:	4c 01 f0             	add    rax,r14
    309e:	48 81 f9 00 7d 00 00 	cmp    rcx,0x7d00
    30a5:	0f 8c 07 ff ff ff    	jl     2fb2 <s172+0xc4>
    30ab:	bf 00 00 00 00       	mov    edi,0x0
    30b0:	be 00 00 00 00       	mov    esi,0x0
    30b5:	ba 00 00 00 00       	mov    edx,0x0
    30ba:	b9 00 00 00 00       	mov    ecx,0x0
    30bf:	41 b8 00 00 00 00    	mov    r8d,0x0
    30c5:	41 b9 00 00 00 00    	mov    r9d,0x0
    30cb:	0f 57 c0             	xorps  xmm0,xmm0
    30ce:	68 00 00 00 00       	push   0x0
    30d3:	68 00 00 00 00       	push   0x0
    30d8:	e8 00 00 00 00       	call   30dd <s172+0x1ef>
    30dd:	48 83 c4 10          	add    rsp,0x10
    30e1:	41 ff c5             	inc    r13d
    30e4:	41 81 fd a0 86 01 00 	cmp    r13d,0x186a0
    30eb:	0f 85 67 fe ff ff    	jne    2f58 <s172+0x6a>
    30f1:	48 8b 7c 24 10       	mov    rdi,QWORD PTR [rsp+0x10]
    30f6:	48 83 c7 10          	add    rdi,0x10
    30fa:	31 f6                	xor    esi,esi
    30fc:	e8 00 00 00 00       	call   3101 <s172+0x213>
    3101:	bf 00 00 00 00       	mov    edi,0x0
    3106:	48 83 c4 18          	add    rsp,0x18
    310a:	5b                   	pop    rbx
    310b:	41 5c                	pop    r12
    310d:	41 5d                	pop    r13
    310f:	41 5e                	pop    r14
    3111:	41 5f                	pop    r15
    3113:	5d                   	pop    rbp
    3114:	e9 00 00 00 00       	jmp    3119 <s173>

0000000000003119 <s173>:
    3119:	41 56                	push   r14
    311b:	53                   	push   rbx
    311c:	50                   	push   rax
    311d:	49 89 fe             	mov    r14,rdi
    3120:	bf 00 00 00 00       	mov    edi,0x0
    3125:	e8 00 00 00 00       	call   312a <s173+0x11>
    312a:	31 db                	xor    ebx,ebx
    312c:	4c 89 f7             	mov    rdi,r14
    312f:	31 f6                	xor    esi,esi
    3131:	e8 00 00 00 00       	call   3136 <s173+0x1d>
    3136:	48 c7 c0 00 06 ff ff 	mov    rax,0xffffffffffff0600
    313d:	f3 0f 10 80 00 00 00 	movss  xmm0,DWORD PTR [rax+0x0]
    3144:	00 
    3145:	f3 0f 58 80 00 00 00 	addss  xmm0,DWORD PTR [rax+0x0]
    314c:	00 
    314d:	f3 0f 11 80 00 00 00 	movss  DWORD PTR [rax+0x0],xmm0
    3154:	00 
    3155:	f3 0f 10 80 00 00 00 	movss  xmm0,DWORD PTR [rax+0x0]
    315c:	00 
    315d:	f3 0f 58 80 00 00 00 	addss  xmm0,DWORD PTR [rax+0x0]
    3164:	00 
    3165:	f3 0f 11 80 00 00 00 	movss  DWORD PTR [rax+0x0],xmm0
    316c:	00 
    316d:	f3 0f 10 80 00 00 00 	movss  xmm0,DWORD PTR [rax+0x0]
    3174:	00 
    3175:	f3 0f 58 80 00 00 00 	addss  xmm0,DWORD PTR [rax+0x0]
    317c:	00 
    317d:	f3 0f 11 80 00 00 00 	movss  DWORD PTR [rax+0x0],xmm0
    3184:	00 
    3185:	f3 0f 10 80 00 00 00 	movss  xmm0,DWORD PTR [rax+0x0]
    318c:	00 
    318d:	f3 0f 58 80 00 00 00 	addss  xmm0,DWORD PTR [rax+0x0]
    3194:	00 
    3195:	f3 0f 11 80 00 00 00 	movss  DWORD PTR [rax+0x0],xmm0
    319c:	00 
    319d:	f3 0f 10 80 00 00 00 	movss  xmm0,DWORD PTR [rax+0x0]
    31a4:	00 
    31a5:	f3 0f 58 80 00 00 00 	addss  xmm0,DWORD PTR [rax+0x0]
    31ac:	00 
    31ad:	f3 0f 11 80 00 00 00 	movss  DWORD PTR [rax+0x0],xmm0
    31b4:	00 
    31b5:	f3 0f 10 80 00 00 00 	movss  xmm0,DWORD PTR [rax+0x0]
    31bc:	00 
    31bd:	f3 0f 58 80 00 00 00 	addss  xmm0,DWORD PTR [rax+0x0]
    31c4:	00 
    31c5:	f3 0f 11 80 00 00 00 	movss  DWORD PTR [rax+0x0],xmm0
    31cc:	00 
    31cd:	f3 0f 10 80 00 00 00 	movss  xmm0,DWORD PTR [rax+0x0]
    31d4:	00 
    31d5:	f3 0f 58 80 00 00 00 	addss  xmm0,DWORD PTR [rax+0x0]
    31dc:	00 
    31dd:	f3 0f 11 80 00 00 00 	movss  DWORD PTR [rax+0x0],xmm0
    31e4:	00 
    31e5:	f3 0f 10 80 00 00 00 	movss  xmm0,DWORD PTR [rax+0x0]
    31ec:	00 
    31ed:	f3 0f 58 80 00 00 00 	addss  xmm0,DWORD PTR [rax+0x0]
    31f4:	00 
    31f5:	f3 0f 11 80 00 00 00 	movss  DWORD PTR [rax+0x0],xmm0
    31fc:	00 
    31fd:	48 83 c0 20          	add    rax,0x20
    3201:	0f 85 36 ff ff ff    	jne    313d <s173+0x24>
    3207:	bf 00 00 00 00       	mov    edi,0x0
    320c:	be 00 00 00 00       	mov    esi,0x0
    3211:	ba 00 00 00 00       	mov    edx,0x0
    3216:	b9 00 00 00 00       	mov    ecx,0x0
    321b:	41 b8 00 00 00 00    	mov    r8d,0x0
    3221:	41 b9 00 00 00 00    	mov    r9d,0x0
    3227:	0f 57 c0             	xorps  xmm0,xmm0
    322a:	68 00 00 00 00       	push   0x0
    322f:	68 00 00 00 00       	push   0x0
    3234:	e8 00 00 00 00       	call   3239 <s173+0x120>
    3239:	48 83 c4 10          	add    rsp,0x10
    323d:	ff c3                	inc    ebx
    323f:	81 fb 40 42 0f 00    	cmp    ebx,0xf4240
    3245:	0f 85 eb fe ff ff    	jne    3136 <s173+0x1d>
    324b:	49 83 c6 10          	add    r14,0x10
    324f:	4c 89 f7             	mov    rdi,r14
    3252:	31 f6                	xor    esi,esi
    3254:	e8 00 00 00 00       	call   3259 <s173+0x140>
    3259:	bf 00 00 00 00       	mov    edi,0x0
    325e:	48 83 c4 08          	add    rsp,0x8
    3262:	5b                   	pop    rbx
    3263:	41 5e                	pop    r14
    3265:	e9 00 00 00 00       	jmp    326a <s174>

000000000000326a <s174>:
    326a:	41 57                	push   r15
    326c:	41 56                	push   r14
    326e:	41 55                	push   r13
    3270:	41 54                	push   r12
    3272:	53                   	push   rbx
    3273:	49 89 fe             	mov    r14,rdi
    3276:	48 8b 47 20          	mov    rax,QWORD PTR [rdi+0x20]
    327a:	44 8b 38             	mov    r15d,DWORD PTR [rax]
    327d:	bf 00 00 00 00       	mov    edi,0x0
    3282:	e8 00 00 00 00       	call   3287 <s174+0x1d>
    3287:	45 31 e4             	xor    r12d,r12d
    328a:	4c 89 f7             	mov    rdi,r14
    328d:	31 f6                	xor    esi,esi
    328f:	e8 00 00 00 00       	call   3294 <s174+0x2a>
    3294:	4d 63 ef             	movsxd r13,r15d
    3297:	4c 89 fb             	mov    rbx,r15
    329a:	48 c1 e3 02          	shl    rbx,0x2
    329e:	45 85 ff             	test   r15d,r15d
    32a1:	7e 25                	jle    32c8 <s174+0x5e>
    32a3:	31 c0                	xor    eax,eax
    32a5:	f3 0f 10 80 00 00 00 	movss  xmm0,DWORD PTR [rax+0x0]
    32ac:	00 
    32ad:	f3 0f 58 80 00 00 00 	addss  xmm0,DWORD PTR [rax+0x0]
    32b4:	00 
    32b5:	f3 42 0f 11 84 a8 00 	movss  DWORD PTR [rax+r13*4+0x0],xmm0
    32bc:	00 00 00 
    32bf:	48 83 c0 04          	add    rax,0x4
    32c3:	48 39 c3             	cmp    rbx,rax
    32c6:	75 dd                	jne    32a5 <s174+0x3b>
    32c8:	bf 00 00 00 00       	mov    edi,0x0
    32cd:	be 00 00 00 00       	mov    esi,0x0
    32d2:	ba 00 00 00 00       	mov    edx,0x0
    32d7:	b9 00 00 00 00       	mov    ecx,0x0
    32dc:	41 b8 00 00 00 00    	mov    r8d,0x0
    32e2:	41 b9 00 00 00 00    	mov    r9d,0x0
    32e8:	0f 57 c0             	xorps  xmm0,xmm0
    32eb:	68 00 00 00 00       	push   0x0
    32f0:	68 00 00 00 00       	push   0x0
    32f5:	e8 00 00 00 00       	call   32fa <s174+0x90>
    32fa:	48 83 c4 10          	add    rsp,0x10
    32fe:	41 ff c4             	inc    r12d
    3301:	41 81 fc 40 42 0f 00 	cmp    r12d,0xf4240
    3308:	75 94                	jne    329e <s174+0x34>
    330a:	49 83 c6 10          	add    r14,0x10
    330e:	4c 89 f7             	mov    rdi,r14
    3311:	31 f6                	xor    esi,esi
    3313:	e8 00 00 00 00       	call   3318 <s174+0xae>
    3318:	bf 00 00 00 00       	mov    edi,0x0
    331d:	5b                   	pop    rbx
    331e:	41 5c                	pop    r12
    3320:	41 5d                	pop    r13
    3322:	41 5e                	pop    r14
    3324:	41 5f                	pop    r15
    3326:	e9 00 00 00 00       	jmp    332b <s175>

000000000000332b <s175>:
    332b:	55                   	push   rbp
    332c:	41 57                	push   r15
    332e:	41 56                	push   r14
    3330:	41 55                	push   r13
    3332:	41 54                	push   r12
    3334:	53                   	push   rbx
    3335:	48 83 ec 38          	sub    rsp,0x38
    3339:	48 89 fd             	mov    rbp,rdi
    333c:	48 8b 47 20          	mov    rax,QWORD PTR [rdi+0x20]
    3340:	48 63 18             	movsxd rbx,DWORD PTR [rax]
    3343:	bf 00 00 00 00       	mov    edi,0x0
    3348:	e8 00 00 00 00       	call   334d <s175+0x22>
    334d:	31 c0                	xor    eax,eax
    334f:	48 89 44 24 08       	mov    QWORD PTR [rsp+0x8],rax
    3354:	48 89 6c 24 10       	mov    QWORD PTR [rsp+0x10],rbp
    3359:	48 89 ef             	mov    rdi,rbp
    335c:	31 f6                	xor    esi,esi
    335e:	e8 00 00 00 00       	call   3363 <s175+0x38>
    3363:	b8 fe 7c 00 00       	mov    eax,0x7cfe
    3368:	31 d2                	xor    edx,edx
    336a:	f7 f3                	div    ebx
    336c:	ff c0                	inc    eax
    336e:	89 c1                	mov    ecx,eax
    3370:	83 e1 07             	and    ecx,0x7
    3373:	89 0c 24             	mov    DWORD PTR [rsp],ecx
    3376:	25 f8 ff 00 00       	and    eax,0xfff8
    337b:	89 44 24 04          	mov    DWORD PTR [rsp+0x4],eax
    337f:	49 89 d8             	mov    r8,rbx
    3382:	49 c1 e0 05          	shl    r8,0x5
    3386:	4c 8d 0c dd 00 00 00 	lea    r9,[rbx*8+0x0]
    338d:	00 
    338e:	4c 89 cd             	mov    rbp,r9
    3391:	48 29 dd             	sub    rbp,rbx
    3394:	4c 8d 14 1b          	lea    r10,[rbx+rbx*1]
    3398:	4f 8d 2c 52          	lea    r13,[r10+r10*2]
    339c:	4c 8d 24 9b          	lea    r12,[rbx+rbx*4]
    33a0:	4c 8d 3c 9d 00 00 00 	lea    r15,[rbx*4+0x0]
    33a7:	00 
    33a8:	4c 8d 34 5b          	lea    r14,[rbx+rbx*2]
    33ac:	48 8d 04 9d 00 00 00 	lea    rax,[rbx*4+0x0]
    33b3:	00 
    33b4:	48 89 44 24 18       	mov    QWORD PTR [rsp+0x18],rax
    33b9:	4c 89 44 24 30       	mov    QWORD PTR [rsp+0x30],r8
    33be:	4c 89 4c 24 28       	mov    QWORD PTR [rsp+0x28],r9
    33c3:	4c 89 54 24 20       	mov    QWORD PTR [rsp+0x20],r10
    33c8:	81 fb db 11 00 00    	cmp    ebx,0x11db
    33ce:	76 07                	jbe    33d7 <s175+0xac>
    33d0:	31 c0                	xor    eax,eax
    33d2:	e9 14 01 00 00       	jmp    34eb <s175+0x1c0>
    33d7:	31 c9                	xor    ecx,ecx
    33d9:	31 c0                	xor    eax,eax
    33db:	8b 54 24 04          	mov    edx,DWORD PTR [rsp+0x4]
    33df:	48 01 d8             	add    rax,rbx
    33e2:	f3 0f 10 84 99 00 00 	movss  xmm0,DWORD PTR [rcx+rbx*4+0x0]
    33e9:	00 00 
    33eb:	f3 0f 58 81 00 00 00 	addss  xmm0,DWORD PTR [rcx+0x0]
    33f2:	00 
    33f3:	f3 0f 11 81 00 00 00 	movss  DWORD PTR [rcx+0x0],xmm0
    33fa:	00 
    33fb:	48 01 d8             	add    rax,rbx
    33fe:	f3 42 0f 10 84 91 00 	movss  xmm0,DWORD PTR [rcx+r10*4+0x0]
    3405:	00 00 00 
    3408:	4a 8d 34 39          	lea    rsi,[rcx+r15*1]
    340c:	48 81 c6 00 00 00 00 	add    rsi,0x0
    3413:	f3 0f 58 84 99 00 00 	addss  xmm0,DWORD PTR [rcx+rbx*4+0x0]
    341a:	00 00 
    341c:	f3 0f 11 84 99 00 00 	movss  DWORD PTR [rcx+rbx*4+0x0],xmm0
    3423:	00 00 
    3425:	48 01 d8             	add    rax,rbx
    3428:	f3 42 0f 10 84 b1 00 	movss  xmm0,DWORD PTR [rcx+r14*4+0x0]
    342f:	00 00 00 
    3432:	4c 01 fe             	add    rsi,r15
    3435:	f3 0f 58 84 d9 00 00 	addss  xmm0,DWORD PTR [rcx+rbx*8+0x0]
    343c:	00 00 
    343e:	f3 42 0f 11 84 91 00 	movss  DWORD PTR [rcx+r10*4+0x0],xmm0
    3445:	00 00 00 
    3448:	48 01 d8             	add    rax,rbx
    344b:	f3 42 0f 10 84 b9 00 	movss  xmm0,DWORD PTR [rcx+r15*4+0x0]
    3452:	00 00 00 
    3455:	4a 8d 3c 3e          	lea    rdi,[rsi+r15*1]
    3459:	f3 0f 58 04 9e       	addss  xmm0,DWORD PTR [rsi+rbx*4]
    345e:	f3 42 0f 11 84 b1 00 	movss  DWORD PTR [rcx+r14*4+0x0],xmm0
    3465:	00 00 00 
    3468:	48 01 d8             	add    rax,rbx
    346b:	f3 42 0f 10 84 a1 00 	movss  xmm0,DWORD PTR [rcx+r12*4+0x0]
    3472:	00 00 00 
    3475:	4c 01 ff             	add    rdi,r15
    3478:	f3 0f 58 04 de       	addss  xmm0,DWORD PTR [rsi+rbx*8]
    347d:	f3 42 0f 11 84 b9 00 	movss  DWORD PTR [rcx+r15*4+0x0],xmm0
    3484:	00 00 00 
    3487:	f3 42 0f 10 84 a9 00 	movss  xmm0,DWORD PTR [rcx+r13*4+0x0]
    348e:	00 00 00 
    3491:	f3 0f 58 04 9f       	addss  xmm0,DWORD PTR [rdi+rbx*4]
    3496:	48 01 d8             	add    rax,rbx
    3499:	4c 01 ff             	add    rdi,r15
    349c:	f3 42 0f 11 84 a1 00 	movss  DWORD PTR [rcx+r12*4+0x0],xmm0
    34a3:	00 00 00 
    34a6:	48 01 d8             	add    rax,rbx
    34a9:	f3 0f 10 84 a9 00 00 	movss  xmm0,DWORD PTR [rcx+rbp*4+0x0]
    34b0:	00 00 
    34b2:	f3 0f 58 04 9f       	addss  xmm0,DWORD PTR [rdi+rbx*4]
    34b7:	4c 01 ff             	add    rdi,r15
    34ba:	f3 42 0f 11 84 a9 00 	movss  DWORD PTR [rcx+r13*4+0x0],xmm0
    34c1:	00 00 00 
    34c4:	f3 42 0f 10 84 89 00 	movss  xmm0,DWORD PTR [rcx+r9*4+0x0]
    34cb:	00 00 00 
    34ce:	f3 0f 58 04 9f       	addss  xmm0,DWORD PTR [rdi+rbx*4]
    34d3:	48 01 d8             	add    rax,rbx
    34d6:	f3 0f 11 84 a9 00 00 	movss  DWORD PTR [rcx+rbp*4+0x0],xmm0
    34dd:	00 00 
    34df:	4c 01 c1             	add    rcx,r8
    34e2:	83 c2 f8             	add    edx,0xfffffff8
    34e5:	0f 85 f4 fe ff ff    	jne    33df <s175+0xb4>
    34eb:	83 3c 24 00          	cmp    DWORD PTR [rsp],0x0
    34ef:	74 30                	je     3521 <s175+0x1f6>
    34f1:	48 8b 4c 24 18       	mov    rcx,QWORD PTR [rsp+0x18]
    34f6:	48 8d 0c 81          	lea    rcx,[rcx+rax*4]
    34fa:	48 c1 e0 02          	shl    rax,0x2
    34fe:	31 d2                	xor    edx,edx
    3500:	8b 34 24             	mov    esi,DWORD PTR [rsp]
    3503:	f3 0f 10 04 11       	movss  xmm0,DWORD PTR [rcx+rdx*1]
    3508:	f3 0f 58 84 10 00 00 	addss  xmm0,DWORD PTR [rax+rdx*1+0x0]
    350f:	00 00 
    3511:	f3 0f 11 84 10 00 00 	movss  DWORD PTR [rax+rdx*1+0x0],xmm0
    3518:	00 00 
    351a:	4c 01 fa             	add    rdx,r15
    351d:	ff ce                	dec    esi
    351f:	75 e2                	jne    3503 <s175+0x1d8>
    3521:	bf 00 00 00 00       	mov    edi,0x0
    3526:	be 00 00 00 00       	mov    esi,0x0
    352b:	ba 00 00 00 00       	mov    edx,0x0
    3530:	b9 00 00 00 00       	mov    ecx,0x0
    3535:	41 b8 00 00 00 00    	mov    r8d,0x0
    353b:	41 b9 00 00 00 00    	mov    r9d,0x0
    3541:	0f 57 c0             	xorps  xmm0,xmm0
    3544:	68 00 00 00 00       	push   0x0
    3549:	68 00 00 00 00       	push   0x0
    354e:	e8 00 00 00 00       	call   3553 <s175+0x228>
    3553:	48 83 c4 10          	add    rsp,0x10
    3557:	48 8b 44 24 08       	mov    rax,QWORD PTR [rsp+0x8]
    355c:	ff c0                	inc    eax
    355e:	48 89 44 24 08       	mov    QWORD PTR [rsp+0x8],rax
    3563:	3d a0 86 01 00       	cmp    eax,0x186a0
    3568:	4c 8b 44 24 30       	mov    r8,QWORD PTR [rsp+0x30]
    356d:	4c 8b 4c 24 28       	mov    r9,QWORD PTR [rsp+0x28]
    3572:	4c 8b 54 24 20       	mov    r10,QWORD PTR [rsp+0x20]
    3577:	0f 85 4b fe ff ff    	jne    33c8 <s175+0x9d>
    357d:	48 8b 7c 24 10       	mov    rdi,QWORD PTR [rsp+0x10]
    3582:	48 83 c7 10          	add    rdi,0x10
    3586:	31 f6                	xor    esi,esi
    3588:	e8 00 00 00 00       	call   358d <s175+0x262>
    358d:	bf 00 00 00 00       	mov    edi,0x0
    3592:	48 83 c4 38          	add    rsp,0x38
    3596:	5b                   	pop    rbx
    3597:	41 5c                	pop    r12
    3599:	41 5d                	pop    r13
    359b:	41 5e                	pop    r14
    359d:	41 5f                	pop    r15
    359f:	5d                   	pop    rbp
    35a0:	e9 00 00 00 00       	jmp    35a5 <s176>

00000000000035a5 <s176>:
    35a5:	41 56                	push   r14
    35a7:	53                   	push   rbx
    35a8:	50                   	push   rax
    35a9:	49 89 fe             	mov    r14,rdi
    35ac:	bf 00 00 00 00       	mov    edi,0x0
    35b1:	e8 00 00 00 00       	call   35b6 <s176+0x11>
    35b6:	31 db                	xor    ebx,ebx
    35b8:	4c 89 f7             	mov    rdi,r14
    35bb:	31 f6                	xor    esi,esi
    35bd:	e8 00 00 00 00       	call   35c2 <s176+0x1d>
    35c2:	b8 00 00 00 00       	mov    eax,0x0
    35c7:	31 c9                	xor    ecx,ecx
    35c9:	f3 0f 10 04 8d 00 00 	movss  xmm0,DWORD PTR [rcx*4+0x0]
    35d0:	00 00 
    35d2:	48 c7 c2 00 06 ff ff 	mov    rdx,0xffffffffffff0600
    35d9:	f3 0f 10 8c 10 00 fa 	movss  xmm1,DWORD PTR [rax+rdx*1+0xfa00]
    35e0:	00 00 
    35e2:	f3 0f 59 c8          	mulss  xmm1,xmm0
    35e6:	f3 0f 58 8a 00 00 00 	addss  xmm1,DWORD PTR [rdx+0x0]
    35ed:	00 
    35ee:	f3 0f 11 8a 00 00 00 	movss  DWORD PTR [rdx+0x0],xmm1
    35f5:	00 
    35f6:	48 83 c2 04          	add    rdx,0x4
    35fa:	75 dd                	jne    35d9 <s176+0x34>
    35fc:	48 ff c1             	inc    rcx
    35ff:	48 83 c0 fc          	add    rax,0xfffffffffffffffc
    3603:	48 81 f9 80 3e 00 00 	cmp    rcx,0x3e80
    360a:	75 bd                	jne    35c9 <s176+0x24>
    360c:	bf 00 00 00 00       	mov    edi,0x0
    3611:	be 00 00 00 00       	mov    esi,0x0
    3616:	ba 00 00 00 00       	mov    edx,0x0
    361b:	b9 00 00 00 00       	mov    ecx,0x0
    3620:	41 b8 00 00 00 00    	mov    r8d,0x0
    3626:	41 b9 00 00 00 00    	mov    r9d,0x0
    362c:	0f 57 c0             	xorps  xmm0,xmm0
    362f:	68 00 00 00 00       	push   0x0
    3634:	68 00 00 00 00       	push   0x0
    3639:	e8 00 00 00 00       	call   363e <s176+0x99>
    363e:	48 83 c4 10          	add    rsp,0x10
    3642:	ff c3                	inc    ebx
    3644:	83 fb 0c             	cmp    ebx,0xc
    3647:	0f 85 75 ff ff ff    	jne    35c2 <s176+0x1d>
    364d:	49 83 c6 10          	add    r14,0x10
    3651:	4c 89 f7             	mov    rdi,r14
    3654:	31 f6                	xor    esi,esi
    3656:	e8 00 00 00 00       	call   365b <s176+0xb6>
    365b:	bf 00 00 00 00       	mov    edi,0x0
    3660:	48 83 c4 08          	add    rsp,0x8
    3664:	5b                   	pop    rbx
    3665:	41 5e                	pop    r14
    3667:	e9 00 00 00 00       	jmp    366c <s211>

000000000000366c <s211>:
    366c:	41 56                	push   r14
    366e:	53                   	push   rbx
    366f:	50                   	push   rax
    3670:	49 89 fe             	mov    r14,rdi
    3673:	bf 00 00 00 00       	mov    edi,0x0
    3678:	e8 00 00 00 00       	call   367d <s211+0x11>
    367d:	31 db                	xor    ebx,ebx
    367f:	4c 89 f7             	mov    rdi,r14
    3682:	31 f6                	xor    esi,esi
    3684:	e8 00 00 00 00       	call   3689 <s211+0x1d>
    3689:	f3 0f 10 05 00 00 00 	movss  xmm0,DWORD PTR [rip+0x0]        # 3691 <s211+0x25>
    3690:	00 
    3691:	31 c0                	xor    eax,eax
    3693:	f3 0f 10 88 00 00 00 	movss  xmm1,DWORD PTR [rax+0x0]
    369a:	00 
    369b:	f3 0f 10 90 00 00 00 	movss  xmm2,DWORD PTR [rax+0x0]
    36a2:	00 
    36a3:	f3 0f 59 d1          	mulss  xmm2,xmm1
    36a7:	f3 0f 58 d0          	addss  xmm2,xmm0
    36ab:	f3 0f 11 90 00 00 00 	movss  DWORD PTR [rax+0x0],xmm2
    36b2:	00 
    36b3:	f3 0f 10 80 00 00 00 	movss  xmm0,DWORD PTR [rax+0x0]
    36ba:	00 
    36bb:	f3 0f 59 88 00 00 00 	mulss  xmm1,DWORD PTR [rax+0x0]
    36c2:	00 
    36c3:	f3 0f 5c c1          	subss  xmm0,xmm1
    36c7:	f3 0f 11 80 00 00 00 	movss  DWORD PTR [rax+0x0],xmm0
    36ce:	00 
    36cf:	f3 0f 10 88 00 00 00 	movss  xmm1,DWORD PTR [rax+0x0]
    36d6:	00 
    36d7:	f3 0f 10 90 00 00 00 	movss  xmm2,DWORD PTR [rax+0x0]
    36de:	00 
    36df:	f3 0f 59 d1          	mulss  xmm2,xmm1
    36e3:	f3 0f 58 d0          	addss  xmm2,xmm0
    36e7:	f3 0f 11 90 00 00 00 	movss  DWORD PTR [rax+0x0],xmm2
    36ee:	00 
    36ef:	f3 0f 59 88 00 00 00 	mulss  xmm1,DWORD PTR [rax+0x0]
    36f6:	00 
    36f7:	f3 0f 10 80 00 00 00 	movss  xmm0,DWORD PTR [rax+0x0]
    36fe:	00 
    36ff:	f3 0f 5c c1          	subss  xmm0,xmm1
    3703:	f3 0f 11 80 00 00 00 	movss  DWORD PTR [rax+0x0],xmm0
    370a:	00 
    370b:	f3 0f 10 88 00 00 00 	movss  xmm1,DWORD PTR [rax+0x0]
    3712:	00 
    3713:	f3 0f 10 90 00 00 00 	movss  xmm2,DWORD PTR [rax+0x0]
    371a:	00 
    371b:	f3 0f 59 d1          	mulss  xmm2,xmm1
    371f:	f3 0f 58 d0          	addss  xmm2,xmm0
    3723:	f3 0f 11 90 00 00 00 	movss  DWORD PTR [rax+0x0],xmm2
    372a:	00 
    372b:	f3 0f 10 80 00 00 00 	movss  xmm0,DWORD PTR [rax+0x0]
    3732:	00 
    3733:	f3 0f 59 88 00 00 00 	mulss  xmm1,DWORD PTR [rax+0x0]
    373a:	00 
    373b:	f3 0f 5c c1          	subss  xmm0,xmm1
    373f:	f3 0f 11 80 00 00 00 	movss  DWORD PTR [rax+0x0],xmm0
    3746:	00 
    3747:	f3 0f 10 88 00 00 00 	movss  xmm1,DWORD PTR [rax+0x0]
    374e:	00 
    374f:	f3 0f 10 90 00 00 00 	movss  xmm2,DWORD PTR [rax+0x0]
    3756:	00 
    3757:	f3 0f 59 d1          	mulss  xmm2,xmm1
    375b:	f3 0f 58 d0          	addss  xmm2,xmm0
    375f:	f3 0f 11 90 00 00 00 	movss  DWORD PTR [rax+0x0],xmm2
    3766:	00 
    3767:	f3 0f 59 88 00 00 00 	mulss  xmm1,DWORD PTR [rax+0x0]
    376e:	00 
    376f:	f3 0f 10 80 00 00 00 	movss  xmm0,DWORD PTR [rax+0x0]
    3776:	00 
    3777:	f3 0f 5c c1          	subss  xmm0,xmm1
    377b:	f3 0f 11 80 00 00 00 	movss  DWORD PTR [rax+0x0],xmm0
    3782:	00 
    3783:	f3 0f 10 88 00 00 00 	movss  xmm1,DWORD PTR [rax+0x0]
    378a:	00 
    378b:	f3 0f 10 90 00 00 00 	movss  xmm2,DWORD PTR [rax+0x0]
    3792:	00 
    3793:	f3 0f 59 d1          	mulss  xmm2,xmm1
    3797:	f3 0f 58 d0          	addss  xmm2,xmm0
    379b:	f3 0f 11 90 00 00 00 	movss  DWORD PTR [rax+0x0],xmm2
    37a2:	00 
    37a3:	f3 0f 10 80 00 00 00 	movss  xmm0,DWORD PTR [rax+0x0]
    37aa:	00 
    37ab:	f3 0f 59 88 00 00 00 	mulss  xmm1,DWORD PTR [rax+0x0]
    37b2:	00 
    37b3:	f3 0f 5c c1          	subss  xmm0,xmm1
    37b7:	f3 0f 11 80 00 00 00 	movss  DWORD PTR [rax+0x0],xmm0
    37be:	00 
    37bf:	f3 0f 10 88 00 00 00 	movss  xmm1,DWORD PTR [rax+0x0]
    37c6:	00 
    37c7:	f3 0f 10 90 00 00 00 	movss  xmm2,DWORD PTR [rax+0x0]
    37ce:	00 
    37cf:	f3 0f 59 d1          	mulss  xmm2,xmm1
    37d3:	f3 0f 58 d0          	addss  xmm2,xmm0
    37d7:	f3 0f 11 90 00 00 00 	movss  DWORD PTR [rax+0x0],xmm2
    37de:	00 
    37df:	f3 0f 59 88 00 00 00 	mulss  xmm1,DWORD PTR [rax+0x0]
    37e6:	00 
    37e7:	f3 0f 10 80 00 00 00 	movss  xmm0,DWORD PTR [rax+0x0]
    37ee:	00 
    37ef:	f3 0f 5c c1          	subss  xmm0,xmm1
    37f3:	f3 0f 11 80 00 00 00 	movss  DWORD PTR [rax+0x0],xmm0
    37fa:	00 
    37fb:	48 3d e0 f3 01 00    	cmp    rax,0x1f3e0
    3801:	0f 84 81 00 00 00    	je     3888 <s211+0x21c>
    3807:	f3 0f 10 88 00 00 00 	movss  xmm1,DWORD PTR [rax+0x0]
    380e:	00 
    380f:	f3 0f 10 90 00 00 00 	movss  xmm2,DWORD PTR [rax+0x0]
    3816:	00 
    3817:	f3 0f 59 d1          	mulss  xmm2,xmm1
    381b:	f3 0f 58 c2          	addss  xmm0,xmm2
    381f:	f3 0f 11 80 00 00 00 	movss  DWORD PTR [rax+0x0],xmm0
    3826:	00 
    3827:	f3 0f 10 80 00 00 00 	movss  xmm0,DWORD PTR [rax+0x0]
    382e:	00 
    382f:	f3 0f 59 88 00 00 00 	mulss  xmm1,DWORD PTR [rax+0x0]
    3836:	00 
    3837:	f3 0f 5c c1          	subss  xmm0,xmm1
    383b:	f3 0f 11 80 00 00 00 	movss  DWORD PTR [rax+0x0],xmm0
    3842:	00 
    3843:	f3 0f 10 88 00 00 00 	movss  xmm1,DWORD PTR [rax+0x0]
    384a:	00 
    384b:	f3 0f 10 90 00 00 00 	movss  xmm2,DWORD PTR [rax+0x0]
    3852:	00 
    3853:	f3 0f 59 d1          	mulss  xmm2,xmm1
    3857:	f3 0f 58 d0          	addss  xmm2,xmm0
    385b:	f3 0f 11 90 00 00 00 	movss  DWORD PTR [rax+0x0],xmm2
    3862:	00 
    3863:	f3 0f 59 88 00 00 00 	mulss  xmm1,DWORD PTR [rax+0x0]
    386a:	00 
    386b:	f3 0f 10 80 00 00 00 	movss  xmm0,DWORD PTR [rax+0x0]
    3872:	00 
    3873:	f3 0f 5c c1          	subss  xmm0,xmm1
    3877:	f3 0f 11 80 00 00 00 	movss  DWORD PTR [rax+0x0],xmm0
    387e:	00 
    387f:	48 83 c0 20          	add    rax,0x20
    3883:	e9 0b fe ff ff       	jmp    3693 <s211+0x27>
    3888:	bf 00 00 00 00       	mov    edi,0x0
    388d:	be 00 00 00 00       	mov    esi,0x0
    3892:	ba 00 00 00 00       	mov    edx,0x0
    3897:	b9 00 00 00 00       	mov    ecx,0x0
    389c:	41 b8 00 00 00 00    	mov    r8d,0x0
    38a2:	41 b9 00 00 00 00    	mov    r9d,0x0
    38a8:	0f 57 c0             	xorps  xmm0,xmm0
    38ab:	68 00 00 00 00       	push   0x0
    38b0:	68 00 00 00 00       	push   0x0
    38b5:	e8 00 00 00 00       	call   38ba <s211+0x24e>
    38ba:	48 83 c4 10          	add    rsp,0x10
    38be:	ff c3                	inc    ebx
    38c0:	81 fb a0 86 01 00    	cmp    ebx,0x186a0
    38c6:	0f 85 bd fd ff ff    	jne    3689 <s211+0x1d>
    38cc:	49 83 c6 10          	add    r14,0x10
    38d0:	4c 89 f7             	mov    rdi,r14
    38d3:	31 f6                	xor    esi,esi
    38d5:	e8 00 00 00 00       	call   38da <s211+0x26e>
    38da:	bf 00 00 00 00       	mov    edi,0x0
    38df:	48 83 c4 08          	add    rsp,0x8
    38e3:	5b                   	pop    rbx
    38e4:	41 5e                	pop    r14
    38e6:	e9 00 00 00 00       	jmp    38eb <s212>

00000000000038eb <s212>:
    38eb:	41 56                	push   r14
    38ed:	53                   	push   rbx
    38ee:	50                   	push   rax
    38ef:	49 89 fe             	mov    r14,rdi
    38f2:	bf 00 00 00 00       	mov    edi,0x0
    38f7:	e8 00 00 00 00       	call   38fc <s212+0x11>
    38fc:	31 db                	xor    ebx,ebx
    38fe:	4c 89 f7             	mov    rdi,r14
    3901:	31 f6                	xor    esi,esi
    3903:	e8 00 00 00 00       	call   3908 <s212+0x1d>
    3908:	48 c7 c0 20 0c fe ff 	mov    rax,0xfffffffffffe0c20
    390f:	f3 0f 10 05 00 00 00 	movss  xmm0,DWORD PTR [rip+0x0]        # 3917 <s212+0x2c>
    3916:	00 
    3917:	f3 0f 59 80 00 00 00 	mulss  xmm0,DWORD PTR [rax+0x0]
    391e:	00 
    391f:	f3 0f 11 80 00 00 00 	movss  DWORD PTR [rax+0x0],xmm0
    3926:	00 
    3927:	f3 0f 10 80 00 00 00 	movss  xmm0,DWORD PTR [rax+0x0]
    392e:	00 
    392f:	f3 0f 10 88 00 00 00 	movss  xmm1,DWORD PTR [rax+0x0]
    3936:	00 
    3937:	f3 0f 59 c8          	mulss  xmm1,xmm0
    393b:	f3 0f 58 88 00 00 00 	addss  xmm1,DWORD PTR [rax+0x0]
    3942:	00 
    3943:	f3 0f 59 80 00 00 00 	mulss  xmm0,DWORD PTR [rax+0x0]
    394a:	00 
    394b:	f3 0f 11 88 00 00 00 	movss  DWORD PTR [rax+0x0],xmm1
    3952:	00 
    3953:	f3 0f 11 80 00 00 00 	movss  DWORD PTR [rax+0x0],xmm0
    395a:	00 
    395b:	f3 0f 10 80 00 00 00 	movss  xmm0,DWORD PTR [rax+0x0]
    3962:	00 
    3963:	f3 0f 10 88 00 00 00 	movss  xmm1,DWORD PTR [rax+0x0]
    396a:	00 
    396b:	f3 0f 59 c8          	mulss  xmm1,xmm0
    396f:	f3 0f 58 88 00 00 00 	addss  xmm1,DWORD PTR [rax+0x0]
    3976:	00 
    3977:	f3 0f 11 88 00 00 00 	movss  DWORD PTR [rax+0x0],xmm1
    397e:	00 
    397f:	f3 0f 59 80 00 00 00 	mulss  xmm0,DWORD PTR [rax+0x0]
    3986:	00 
    3987:	f3 0f 11 80 00 00 00 	movss  DWORD PTR [rax+0x0],xmm0
    398e:	00 
    398f:	f3 0f 10 80 00 00 00 	movss  xmm0,DWORD PTR [rax+0x0]
    3996:	00 
    3997:	f3 0f 10 88 00 00 00 	movss  xmm1,DWORD PTR [rax+0x0]
    399e:	00 
    399f:	f3 0f 59 c8          	mulss  xmm1,xmm0
    39a3:	f3 0f 58 88 00 00 00 	addss  xmm1,DWORD PTR [rax+0x0]
    39aa:	00 
    39ab:	f3 0f 11 88 00 00 00 	movss  DWORD PTR [rax+0x0],xmm1
    39b2:	00 
    39b3:	f3 0f 59 80 00 00 00 	mulss  xmm0,DWORD PTR [rax+0x0]
    39ba:	00 
    39bb:	f3 0f 11 80 00 00 00 	movss  DWORD PTR [rax+0x0],xmm0
    39c2:	00 
    39c3:	f3 0f 10 80 00 00 00 	movss  xmm0,DWORD PTR [rax+0x0]
    39ca:	00 
    39cb:	f3 0f 10 88 00 00 00 	movss  xmm1,DWORD PTR [rax+0x0]
    39d2:	00 
    39d3:	f3 0f 59 c8          	mulss  xmm1,xmm0
    39d7:	f3 0f 58 88 00 00 00 	addss  xmm1,DWORD PTR [rax+0x0]
    39de:	00 
    39df:	f3 0f 59 80 00 00 00 	mulss  xmm0,DWORD PTR [rax+0x0]
    39e6:	00 
    39e7:	f3 0f 11 88 00 00 00 	movss  DWORD PTR [rax+0x0],xmm1
    39ee:	00 
    39ef:	f3 0f 11 80 00 00 00 	movss  DWORD PTR [rax+0x0],xmm0
    39f6:	00 
    39f7:	f3 0f 10 80 00 00 00 	movss  xmm0,DWORD PTR [rax+0x0]
    39fe:	00 
    39ff:	f3 0f 10 88 00 00 00 	movss  xmm1,DWORD PTR [rax+0x0]
    3a06:	00 
    3a07:	f3 0f 59 c8          	mulss  xmm1,xmm0
    3a0b:	f3 0f 58 88 00 00 00 	addss  xmm1,DWORD PTR [rax+0x0]
    3a12:	00 
    3a13:	f3 0f 11 88 00 00 00 	movss  DWORD PTR [rax+0x0],xmm1
    3a1a:	00 
    3a1b:	f3 0f 59 80 00 00 00 	mulss  xmm0,DWORD PTR [rax+0x0]
    3a22:	00 
    3a23:	f3 0f 11 80 00 00 00 	movss  DWORD PTR [rax+0x0],xmm0
    3a2a:	00 
    3a2b:	f3 0f 10 80 00 00 00 	movss  xmm0,DWORD PTR [rax+0x0]
    3a32:	00 
    3a33:	f3 0f 10 88 00 00 00 	movss  xmm1,DWORD PTR [rax+0x0]
    3a3a:	00 
    3a3b:	f3 0f 59 c8          	mulss  xmm1,xmm0
    3a3f:	f3 0f 58 88 00 00 00 	addss  xmm1,DWORD PTR [rax+0x0]
    3a46:	00 
    3a47:	f3 0f 11 88 00 00 00 	movss  DWORD PTR [rax+0x0],xmm1
    3a4e:	00 
    3a4f:	f3 0f 59 80 00 00 00 	mulss  xmm0,DWORD PTR [rax+0x0]
    3a56:	00 
    3a57:	f3 0f 11 80 00 00 00 	movss  DWORD PTR [rax+0x0],xmm0
    3a5e:	00 
    3a5f:	f3 0f 10 80 00 00 00 	movss  xmm0,DWORD PTR [rax+0x0]
    3a66:	00 
    3a67:	f3 0f 10 88 00 00 00 	movss  xmm1,DWORD PTR [rax+0x0]
    3a6e:	00 
    3a6f:	f3 0f 59 c8          	mulss  xmm1,xmm0
    3a73:	f3 0f 58 88 00 00 00 	addss  xmm1,DWORD PTR [rax+0x0]
    3a7a:	00 
    3a7b:	f3 0f 11 88 00 00 00 	movss  DWORD PTR [rax+0x0],xmm1
    3a82:	00 
    3a83:	48 85 c0             	test   rax,rax
    3a86:	74 3d                	je     3ac5 <s212+0x1da>
    3a88:	f3 0f 59 80 00 00 00 	mulss  xmm0,DWORD PTR [rax+0x0]
    3a8f:	00 
    3a90:	f3 0f 11 80 00 00 00 	movss  DWORD PTR [rax+0x0],xmm0
    3a97:	00 
    3a98:	f3 0f 10 80 00 00 00 	movss  xmm0,DWORD PTR [rax+0x0]
    3a9f:	00 
    3aa0:	f3 0f 10 88 00 00 00 	movss  xmm1,DWORD PTR [rax+0x0]
    3aa7:	00 
    3aa8:	f3 0f 59 c8          	mulss  xmm1,xmm0
    3aac:	f3 0f 58 88 00 00 00 	addss  xmm1,DWORD PTR [rax+0x0]
    3ab3:	00 
    3ab4:	f3 0f 11 88 00 00 00 	movss  DWORD PTR [rax+0x0],xmm1
    3abb:	00 
    3abc:	48 83 c0 20          	add    rax,0x20
    3ac0:	e9 52 fe ff ff       	jmp    3917 <s212+0x2c>
    3ac5:	bf 00 00 00 00       	mov    edi,0x0
    3aca:	be 00 00 00 00       	mov    esi,0x0
    3acf:	ba 00 00 00 00       	mov    edx,0x0
    3ad4:	b9 00 00 00 00       	mov    ecx,0x0
    3ad9:	41 b8 00 00 00 00    	mov    r8d,0x0
    3adf:	41 b9 00 00 00 00    	mov    r9d,0x0
    3ae5:	0f 57 c0             	xorps  xmm0,xmm0
    3ae8:	68 00 00 00 00       	push   0x0
    3aed:	68 00 00 00 00       	push   0x0
    3af2:	e8 00 00 00 00       	call   3af7 <s212+0x20c>
    3af7:	48 83 c4 10          	add    rsp,0x10
    3afb:	ff c3                	inc    ebx
    3afd:	81 fb a0 86 01 00    	cmp    ebx,0x186a0
    3b03:	0f 85 ff fd ff ff    	jne    3908 <s212+0x1d>
    3b09:	49 83 c6 10          	add    r14,0x10
    3b0d:	4c 89 f7             	mov    rdi,r14
    3b10:	31 f6                	xor    esi,esi
    3b12:	e8 00 00 00 00       	call   3b17 <s212+0x22c>
    3b17:	bf 00 00 00 00       	mov    edi,0x0
    3b1c:	48 83 c4 08          	add    rsp,0x8
    3b20:	5b                   	pop    rbx
    3b21:	41 5e                	pop    r14
    3b23:	e9 00 00 00 00       	jmp    3b28 <s1213>

0000000000003b28 <s1213>:
    3b28:	41 56                	push   r14
    3b2a:	53                   	push   rbx
    3b2b:	50                   	push   rax
    3b2c:	49 89 fe             	mov    r14,rdi
    3b2f:	bf 00 00 00 00       	mov    edi,0x0
    3b34:	e8 00 00 00 00       	call   3b39 <s1213+0x11>
    3b39:	31 db                	xor    ebx,ebx
    3b3b:	4c 89 f7             	mov    rdi,r14
    3b3e:	31 f6                	xor    esi,esi
    3b40:	e8 00 00 00 00       	call   3b45 <s1213+0x1d>
    3b45:	f3 0f 10 05 00 00 00 	movss  xmm0,DWORD PTR [rip+0x0]        # 3b4d <s1213+0x25>
    3b4c:	00 
    3b4d:	31 c0                	xor    eax,eax
    3b4f:	f3 0f 58 80 00 00 00 	addss  xmm0,DWORD PTR [rax+0x0]
    3b56:	00 
    3b57:	f3 0f 11 80 00 00 00 	movss  DWORD PTR [rax+0x0],xmm0
    3b5e:	00 
    3b5f:	f3 0f 10 80 00 00 00 	movss  xmm0,DWORD PTR [rax+0x0]
    3b66:	00 
    3b67:	f3 0f 59 80 00 00 00 	mulss  xmm0,DWORD PTR [rax+0x0]
    3b6e:	00 
    3b6f:	f3 0f 11 80 00 00 00 	movss  DWORD PTR [rax+0x0],xmm0
    3b76:	00 
    3b77:	f3 0f 58 80 00 00 00 	addss  xmm0,DWORD PTR [rax+0x0]
    3b7e:	00 
    3b7f:	f3 0f 11 80 00 00 00 	movss  DWORD PTR [rax+0x0],xmm0
    3b86:	00 
    3b87:	f3 0f 10 80 00 00 00 	movss  xmm0,DWORD PTR [rax+0x0]
    3b8e:	00 
    3b8f:	f3 0f 59 80 00 00 00 	mulss  xmm0,DWORD PTR [rax+0x0]
    3b96:	00 
    3b97:	f3 0f 11 80 00 00 00 	movss  DWORD PTR [rax+0x0],xmm0
    3b9e:	00 
    3b9f:	f3 0f 58 80 00 00 00 	addss  xmm0,DWORD PTR [rax+0x0]
    3ba6:	00 
    3ba7:	f3 0f 11 80 00 00 00 	movss  DWORD PTR [rax+0x0],xmm0
    3bae:	00 
    3baf:	f3 0f 10 80 00 00 00 	movss  xmm0,DWORD PTR [rax+0x0]
    3bb6:	00 
    3bb7:	f3 0f 59 80 00 00 00 	mulss  xmm0,DWORD PTR [rax+0x0]
    3bbe:	00 
    3bbf:	f3 0f 11 80 00 00 00 	movss  DWORD PTR [rax+0x0],xmm0
    3bc6:	00 
    3bc7:	f3 0f 58 80 00 00 00 	addss  xmm0,DWORD PTR [rax+0x0]
    3bce:	00 
    3bcf:	f3 0f 11 80 00 00 00 	movss  DWORD PTR [rax+0x0],xmm0
    3bd6:	00 
    3bd7:	f3 0f 10 80 00 00 00 	movss  xmm0,DWORD PTR [rax+0x0]
    3bde:	00 
    3bdf:	f3 0f 59 80 00 00 00 	mulss  xmm0,DWORD PTR [rax+0x0]
    3be6:	00 
    3be7:	f3 0f 11 80 00 00 00 	movss  DWORD PTR [rax+0x0],xmm0
    3bee:	00 
    3bef:	f3 0f 58 80 00 00 00 	addss  xmm0,DWORD PTR [rax+0x0]
    3bf6:	00 
    3bf7:	f3 0f 11 80 00 00 00 	movss  DWORD PTR [rax+0x0],xmm0
    3bfe:	00 
    3bff:	f3 0f 10 80 00 00 00 	movss  xmm0,DWORD PTR [rax+0x0]
    3c06:	00 
    3c07:	f3 0f 59 80 00 00 00 	mulss  xmm0,DWORD PTR [rax+0x0]
    3c0e:	00 
    3c0f:	f3 0f 11 80 00 00 00 	movss  DWORD PTR [rax+0x0],xmm0
    3c16:	00 
    3c17:	f3 0f 58 80 00 00 00 	addss  xmm0,DWORD PTR [rax+0x0]
    3c1e:	00 
    3c1f:	f3 0f 11 80 00 00 00 	movss  DWORD PTR [rax+0x0],xmm0
    3c26:	00 
    3c27:	f3 0f 10 80 00 00 00 	movss  xmm0,DWORD PTR [rax+0x0]
    3c2e:	00 
    3c2f:	f3 0f 59 80 00 00 00 	mulss  xmm0,DWORD PTR [rax+0x0]
    3c36:	00 
    3c37:	f3 0f 11 80 00 00 00 	movss  DWORD PTR [rax+0x0],xmm0
    3c3e:	00 
    3c3f:	48 3d e0 f3 01 00    	cmp    rax,0x1f3e0
    3c45:	74 59                	je     3ca0 <s1213+0x178>
    3c47:	f3 0f 58 80 00 00 00 	addss  xmm0,DWORD PTR [rax+0x0]
    3c4e:	00 
    3c4f:	f3 0f 11 80 00 00 00 	movss  DWORD PTR [rax+0x0],xmm0
    3c56:	00 
    3c57:	f3 0f 10 80 00 00 00 	movss  xmm0,DWORD PTR [rax+0x0]
    3c5e:	00 
    3c5f:	f3 0f 59 80 00 00 00 	mulss  xmm0,DWORD PTR [rax+0x0]
    3c66:	00 
    3c67:	f3 0f 11 80 00 00 00 	movss  DWORD PTR [rax+0x0],xmm0
    3c6e:	00 
    3c6f:	f3 0f 58 80 00 00 00 	addss  xmm0,DWORD PTR [rax+0x0]
    3c76:	00 
    3c77:	f3 0f 11 80 00 00 00 	movss  DWORD PTR [rax+0x0],xmm0
    3c7e:	00 
    3c7f:	f3 0f 10 80 00 00 00 	movss  xmm0,DWORD PTR [rax+0x0]
    3c86:	00 
    3c87:	f3 0f 59 80 00 00 00 	mulss  xmm0,DWORD PTR [rax+0x0]
    3c8e:	00 
    3c8f:	f3 0f 11 80 00 00 00 	movss  DWORD PTR [rax+0x0],xmm0
    3c96:	00 
    3c97:	48 83 c0 20          	add    rax,0x20
    3c9b:	e9 af fe ff ff       	jmp    3b4f <s1213+0x27>
    3ca0:	bf 00 00 00 00       	mov    edi,0x0
    3ca5:	be 00 00 00 00       	mov    esi,0x0
    3caa:	ba 00 00 00 00       	mov    edx,0x0
    3caf:	b9 00 00 00 00       	mov    ecx,0x0
    3cb4:	41 b8 00 00 00 00    	mov    r8d,0x0
    3cba:	41 b9 00 00 00 00    	mov    r9d,0x0
    3cc0:	0f 57 c0             	xorps  xmm0,xmm0
    3cc3:	68 00 00 00 00       	push   0x0
    3cc8:	68 00 00 00 00       	push   0x0
    3ccd:	e8 00 00 00 00       	call   3cd2 <s1213+0x1aa>
    3cd2:	48 83 c4 10          	add    rsp,0x10
    3cd6:	ff c3                	inc    ebx
    3cd8:	81 fb a0 86 01 00    	cmp    ebx,0x186a0
    3cde:	0f 85 61 fe ff ff    	jne    3b45 <s1213+0x1d>
    3ce4:	49 83 c6 10          	add    r14,0x10
    3ce8:	4c 89 f7             	mov    rdi,r14
    3ceb:	31 f6                	xor    esi,esi
    3ced:	e8 00 00 00 00       	call   3cf2 <s1213+0x1ca>
    3cf2:	bf 00 00 00 00       	mov    edi,0x0
    3cf7:	48 83 c4 08          	add    rsp,0x8
    3cfb:	5b                   	pop    rbx
    3cfc:	41 5e                	pop    r14
    3cfe:	e9 00 00 00 00       	jmp    3d03 <s221>

0000000000003d03 <s221>:
    3d03:	41 56                	push   r14
    3d05:	53                   	push   rbx
    3d06:	50                   	push   rax
    3d07:	49 89 fe             	mov    r14,rdi
    3d0a:	bf 00 00 00 00       	mov    edi,0x0
    3d0f:	e8 00 00 00 00       	call   3d14 <s221+0x11>
    3d14:	31 db                	xor    ebx,ebx
    3d16:	4c 89 f7             	mov    rdi,r14
    3d19:	31 f6                	xor    esi,esi
    3d1b:	e8 00 00 00 00       	call   3d20 <s221+0x1d>
    3d20:	48 c7 c0 20 0c fe ff 	mov    rax,0xfffffffffffe0c20
    3d27:	f3 0f 10 05 00 00 00 	movss  xmm0,DWORD PTR [rip+0x0]        # 3d2f <s221+0x2c>
    3d2e:	00 
    3d2f:	f3 0f 10 88 00 00 00 	movss  xmm1,DWORD PTR [rax+0x0]
    3d36:	00 
    3d37:	f3 0f 10 90 00 00 00 	movss  xmm2,DWORD PTR [rax+0x0]
    3d3e:	00 
    3d3f:	f3 0f 59 d1          	mulss  xmm2,xmm1
    3d43:	f3 0f 58 90 00 00 00 	addss  xmm2,DWORD PTR [rax+0x0]
    3d4a:	00 
    3d4b:	f3 0f 11 90 00 00 00 	movss  DWORD PTR [rax+0x0],xmm2
    3d52:	00 
    3d53:	f3 0f 58 d0          	addss  xmm2,xmm0
    3d57:	f3 0f 58 d1          	addss  xmm2,xmm1
    3d5b:	f3 0f 11 90 00 00 00 	movss  DWORD PTR [rax+0x0],xmm2
    3d62:	00 
    3d63:	f3 0f 10 80 00 00 00 	movss  xmm0,DWORD PTR [rax+0x0]
    3d6a:	00 
    3d6b:	f3 0f 10 88 00 00 00 	movss  xmm1,DWORD PTR [rax+0x0]
    3d72:	00 
    3d73:	f3 0f 59 c8          	mulss  xmm1,xmm0
    3d77:	f3 0f 58 88 00 00 00 	addss  xmm1,DWORD PTR [rax+0x0]
    3d7e:	00 
    3d7f:	f3 0f 11 88 00 00 00 	movss  DWORD PTR [rax+0x0],xmm1
    3d86:	00 
    3d87:	f3 0f 58 ca          	addss  xmm1,xmm2
    3d8b:	f3 0f 58 c8          	addss  xmm1,xmm0
    3d8f:	f3 0f 11 88 00 00 00 	movss  DWORD PTR [rax+0x0],xmm1
    3d96:	00 
    3d97:	f3 0f 10 80 00 00 00 	movss  xmm0,DWORD PTR [rax+0x0]
    3d9e:	00 
    3d9f:	f3 0f 10 90 00 00 00 	movss  xmm2,DWORD PTR [rax+0x0]
    3da6:	00 
    3da7:	f3 0f 59 d0          	mulss  xmm2,xmm0
    3dab:	f3 0f 58 90 00 00 00 	addss  xmm2,DWORD PTR [rax+0x0]
    3db2:	00 
    3db3:	f3 0f 11 90 00 00 00 	movss  DWORD PTR [rax+0x0],xmm2
    3dba:	00 
    3dbb:	f3 0f 58 d1          	addss  xmm2,xmm1
    3dbf:	f3 0f 58 d0          	addss  xmm2,xmm0
    3dc3:	f3 0f 11 90 00 00 00 	movss  DWORD PTR [rax+0x0],xmm2
    3dca:	00 
    3dcb:	f3 0f 10 80 00 00 00 	movss  xmm0,DWORD PTR [rax+0x0]
    3dd2:	00 
    3dd3:	f3 0f 10 88 00 00 00 	movss  xmm1,DWORD PTR [rax+0x0]
    3dda:	00 
    3ddb:	f3 0f 59 c8          	mulss  xmm1,xmm0
    3ddf:	f3 0f 58 88 00 00 00 	addss  xmm1,DWORD PTR [rax+0x0]
    3de6:	00 
    3de7:	f3 0f 11 88 00 00 00 	movss  DWORD PTR [rax+0x0],xmm1
    3dee:	00 
    3def:	f3 0f 58 ca          	addss  xmm1,xmm2
    3df3:	f3 0f 58 c8          	addss  xmm1,xmm0
    3df7:	f3 0f 10 80 00 00 00 	movss  xmm0,DWORD PTR [rax+0x0]
    3dfe:	00 
    3dff:	f3 0f 10 90 00 00 00 	movss  xmm2,DWORD PTR [rax+0x0]
    3e06:	00 
    3e07:	f3 0f 59 d0          	mulss  xmm2,xmm0
    3e0b:	f3 0f 58 90 00 00 00 	addss  xmm2,DWORD PTR [rax+0x0]
    3e12:	00 
    3e13:	f3 0f 11 88 00 00 00 	movss  DWORD PTR [rax+0x0],xmm1
    3e1a:	00 
    3e1b:	f3 0f 11 90 00 00 00 	movss  DWORD PTR [rax+0x0],xmm2
    3e22:	00 
    3e23:	f3 0f 58 d1          	addss  xmm2,xmm1
    3e27:	f3 0f 58 d0          	addss  xmm2,xmm0
    3e2b:	f3 0f 11 90 00 00 00 	movss  DWORD PTR [rax+0x0],xmm2
    3e32:	00 
    3e33:	f3 0f 10 80 00 00 00 	movss  xmm0,DWORD PTR [rax+0x0]
    3e3a:	00 
    3e3b:	f3 0f 10 88 00 00 00 	movss  xmm1,DWORD PTR [rax+0x0]
    3e42:	00 
    3e43:	f3 0f 59 c8          	mulss  xmm1,xmm0
    3e47:	f3 0f 58 88 00 00 00 	addss  xmm1,DWORD PTR [rax+0x0]
    3e4e:	00 
    3e4f:	f3 0f 11 88 00 00 00 	movss  DWORD PTR [rax+0x0],xmm1
    3e56:	00 
    3e57:	f3 0f 58 ca          	addss  xmm1,xmm2
    3e5b:	f3 0f 58 c8          	addss  xmm1,xmm0
    3e5f:	f3 0f 11 88 00 00 00 	movss  DWORD PTR [rax+0x0],xmm1
    3e66:	00 
    3e67:	f3 0f 10 90 00 00 00 	movss  xmm2,DWORD PTR [rax+0x0]
    3e6e:	00 
    3e6f:	f3 0f 10 80 00 00 00 	movss  xmm0,DWORD PTR [rax+0x0]
    3e76:	00 
    3e77:	f3 0f 59 c2          	mulss  xmm0,xmm2
    3e7b:	f3 0f 58 80 00 00 00 	addss  xmm0,DWORD PTR [rax+0x0]
    3e82:	00 
    3e83:	f3 0f 11 80 00 00 00 	movss  DWORD PTR [rax+0x0],xmm0
    3e8a:	00 
    3e8b:	f3 0f 58 c1          	addss  xmm0,xmm1
    3e8f:	f3 0f 58 c2          	addss  xmm0,xmm2
    3e93:	f3 0f 11 80 00 00 00 	movss  DWORD PTR [rax+0x0],xmm0
    3e9a:	00 
    3e9b:	48 85 c0             	test   rax,rax
    3e9e:	74 3d                	je     3edd <s221+0x1da>
    3ea0:	f3 0f 10 88 00 00 00 	movss  xmm1,DWORD PTR [rax+0x0]
    3ea7:	00 
    3ea8:	f3 0f 10 90 00 00 00 	movss  xmm2,DWORD PTR [rax+0x0]
    3eaf:	00 
    3eb0:	f3 0f 59 d1          	mulss  xmm2,xmm1
    3eb4:	f3 0f 58 90 00 00 00 	addss  xmm2,DWORD PTR [rax+0x0]
    3ebb:	00 
    3ebc:	f3 0f 11 90 00 00 00 	movss  DWORD PTR [rax+0x0],xmm2
    3ec3:	00 
    3ec4:	f3 0f 58 c2          	addss  xmm0,xmm2
    3ec8:	f3 0f 58 c1          	addss  xmm0,xmm1
    3ecc:	f3 0f 11 80 00 00 00 	movss  DWORD PTR [rax+0x0],xmm0
    3ed3:	00 
    3ed4:	48 83 c0 20          	add    rax,0x20
    3ed8:	e9 52 fe ff ff       	jmp    3d2f <s221+0x2c>
    3edd:	bf 00 00 00 00       	mov    edi,0x0
    3ee2:	be 00 00 00 00       	mov    esi,0x0
    3ee7:	ba 00 00 00 00       	mov    edx,0x0
    3eec:	b9 00 00 00 00       	mov    ecx,0x0
    3ef1:	41 b8 00 00 00 00    	mov    r8d,0x0
    3ef7:	41 b9 00 00 00 00    	mov    r9d,0x0
    3efd:	0f 57 c0             	xorps  xmm0,xmm0
    3f00:	68 00 00 00 00       	push   0x0
    3f05:	68 00 00 00 00       	push   0x0
    3f0a:	e8 00 00 00 00       	call   3f0f <s221+0x20c>
    3f0f:	48 83 c4 10          	add    rsp,0x10
    3f13:	ff c3                	inc    ebx
    3f15:	81 fb 50 c3 00 00    	cmp    ebx,0xc350
    3f1b:	0f 85 ff fd ff ff    	jne    3d20 <s221+0x1d>
    3f21:	49 83 c6 10          	add    r14,0x10
    3f25:	4c 89 f7             	mov    rdi,r14
    3f28:	31 f6                	xor    esi,esi
    3f2a:	e8 00 00 00 00       	call   3f2f <s221+0x22c>
    3f2f:	bf 00 00 00 00       	mov    edi,0x0
    3f34:	48 83 c4 08          	add    rsp,0x8
    3f38:	5b                   	pop    rbx
    3f39:	41 5e                	pop    r14
    3f3b:	e9 00 00 00 00       	jmp    3f40 <s1221>

0000000000003f40 <s1221>:
    3f40:	41 56                	push   r14
    3f42:	53                   	push   rbx
    3f43:	50                   	push   rax
    3f44:	49 89 fe             	mov    r14,rdi
    3f47:	bf 00 00 00 00       	mov    edi,0x0
    3f4c:	e8 00 00 00 00       	call   3f51 <s1221+0x11>
    3f51:	31 db                	xor    ebx,ebx
    3f53:	4c 89 f7             	mov    rdi,r14
    3f56:	31 f6                	xor    esi,esi
    3f58:	e8 00 00 00 00       	call   3f5d <s1221+0x1d>
    3f5d:	f3 0f 10 05 00 00 00 	movss  xmm0,DWORD PTR [rip+0x0]        # 3f65 <s1221+0x25>
    3f64:	00 
    3f65:	f3 0f 10 0d 00 00 00 	movss  xmm1,DWORD PTR [rip+0x0]        # 3f6d <s1221+0x2d>
    3f6c:	00 
    3f6d:	f3 0f 10 15 00 00 00 	movss  xmm2,DWORD PTR [rip+0x0]        # 3f75 <s1221+0x35>
    3f74:	00 
    3f75:	48 c7 c0 20 0c fe ff 	mov    rax,0xfffffffffffe0c20
    3f7c:	f3 0f 10 1d 00 00 00 	movss  xmm3,DWORD PTR [rip+0x0]        # 3f84 <s1221+0x44>
    3f83:	00 
    3f84:	f3 0f 58 80 00 00 00 	addss  xmm0,DWORD PTR [rax+0x0]
    3f8b:	00 
    3f8c:	f3 0f 11 80 00 00 00 	movss  DWORD PTR [rax+0x0],xmm0
    3f93:	00 
    3f94:	f3 0f 58 88 00 00 00 	addss  xmm1,DWORD PTR [rax+0x0]
    3f9b:	00 
    3f9c:	f3 0f 11 88 00 00 00 	movss  DWORD PTR [rax+0x0],xmm1
    3fa3:	00 
    3fa4:	f3 0f 58 90 00 00 00 	addss  xmm2,DWORD PTR [rax+0x0]
    3fab:	00 
    3fac:	f3 0f 11 90 00 00 00 	movss  DWORD PTR [rax+0x0],xmm2
    3fb3:	00 
    3fb4:	f3 0f 58 98 00 00 00 	addss  xmm3,DWORD PTR [rax+0x0]
    3fbb:	00 
    3fbc:	f3 0f 11 98 00 00 00 	movss  DWORD PTR [rax+0x0],xmm3
    3fc3:	00 
    3fc4:	48 85 c0             	test   rax,rax
    3fc7:	74 49                	je     4012 <s1221+0xd2>
    3fc9:	f3 0f 58 80 00 00 00 	addss  xmm0,DWORD PTR [rax+0x0]
    3fd0:	00 
    3fd1:	f3 0f 11 80 00 00 00 	movss  DWORD PTR [rax+0x0],xmm0
    3fd8:	00 
    3fd9:	f3 0f 58 88 00 00 00 	addss  xmm1,DWORD PTR [rax+0x0]
    3fe0:	00 
    3fe1:	f3 0f 11 88 00 00 00 	movss  DWORD PTR [rax+0x0],xmm1
    3fe8:	00 
    3fe9:	f3 0f 58 90 00 00 00 	addss  xmm2,DWORD PTR [rax+0x0]
    3ff0:	00 
    3ff1:	f3 0f 11 90 00 00 00 	movss  DWORD PTR [rax+0x0],xmm2
    3ff8:	00 
    3ff9:	f3 0f 58 98 00 00 00 	addss  xmm3,DWORD PTR [rax+0x0]
    4000:	00 
    4001:	f3 0f 11 98 00 00 00 	movss  DWORD PTR [rax+0x0],xmm3
    4008:	00 
    4009:	48 83 c0 20          	add    rax,0x20
    400d:	e9 72 ff ff ff       	jmp    3f84 <s1221+0x44>
    4012:	bf 00 00 00 00       	mov    edi,0x0
    4017:	be 00 00 00 00       	mov    esi,0x0
    401c:	ba 00 00 00 00       	mov    edx,0x0
    4021:	b9 00 00 00 00       	mov    ecx,0x0
    4026:	41 b8 00 00 00 00    	mov    r8d,0x0
    402c:	41 b9 00 00 00 00    	mov    r9d,0x0
    4032:	0f 57 c0             	xorps  xmm0,xmm0
    4035:	68 00 00 00 00       	push   0x0
    403a:	68 00 00 00 00       	push   0x0
    403f:	e8 00 00 00 00       	call   4044 <s1221+0x104>
    4044:	48 83 c4 10          	add    rsp,0x10
    4048:	ff c3                	inc    ebx
    404a:	81 fb a0 86 01 00    	cmp    ebx,0x186a0
    4050:	0f 85 07 ff ff ff    	jne    3f5d <s1221+0x1d>
    4056:	49 83 c6 10          	add    r14,0x10
    405a:	4c 89 f7             	mov    rdi,r14
    405d:	31 f6                	xor    esi,esi
    405f:	e8 00 00 00 00       	call   4064 <s1221+0x124>
    4064:	bf 00 00 00 00       	mov    edi,0x0
    4069:	48 83 c4 08          	add    rsp,0x8
    406d:	5b                   	pop    rbx
    406e:	41 5e                	pop    r14
    4070:	e9 00 00 00 00       	jmp    4075 <s222>

0000000000004075 <s222>:
    4075:	41 56                	push   r14
    4077:	53                   	push   rbx
    4078:	50                   	push   rax
    4079:	49 89 fe             	mov    r14,rdi
    407c:	bf 00 00 00 00       	mov    edi,0x0
    4081:	e8 00 00 00 00       	call   4086 <s222+0x11>
    4086:	31 db                	xor    ebx,ebx
    4088:	4c 89 f7             	mov    rdi,r14
    408b:	31 f6                	xor    esi,esi
    408d:	e8 00 00 00 00       	call   4092 <s222+0x1d>
    4092:	48 c7 c0 20 0c fe ff 	mov    rax,0xfffffffffffe0c20
    4099:	f3 0f 10 05 00 00 00 	movss  xmm0,DWORD PTR [rip+0x0]        # 40a1 <s222+0x2c>
    40a0:	00 
    40a1:	f3 0f 10 88 00 00 00 	movss  xmm1,DWORD PTR [rax+0x0]
    40a8:	00 
    40a9:	f3 0f 59 88 00 00 00 	mulss  xmm1,DWORD PTR [rax+0x0]
    40b0:	00 
    40b1:	f3 0f 10 90 00 00 00 	movss  xmm2,DWORD PTR [rax+0x0]
    40b8:	00 
    40b9:	f3 0f 58 d1          	addss  xmm2,xmm1
    40bd:	f3 0f 59 c0          	mulss  xmm0,xmm0
    40c1:	f3 0f 11 80 00 00 00 	movss  DWORD PTR [rax+0x0],xmm0
    40c8:	00 
    40c9:	f3 0f 5c d1          	subss  xmm2,xmm1
    40cd:	f3 0f 11 90 00 00 00 	movss  DWORD PTR [rax+0x0],xmm2
    40d4:	00 
    40d5:	f3 0f 10 88 00 00 00 	movss  xmm1,DWORD PTR [rax+0x0]
    40dc:	00 
    40dd:	f3 0f 59 88 00 00 00 	mulss  xmm1,DWORD PTR [rax+0x0]
    40e4:	00 
    40e5:	f3 0f 10 90 00 00 00 	movss  xmm2,DWORD PTR [rax+0x0]
    40ec:	00 
    40ed:	f3 0f 58 d1          	addss  xmm2,xmm1
    40f1:	f3 0f 59 c0          	mulss  xmm0,xmm0
    40f5:	f3 0f 11 80 00 00 00 	movss  DWORD PTR [rax+0x0],xmm0
    40fc:	00 
    40fd:	f3 0f 5c d1          	subss  xmm2,xmm1
    4101:	f3 0f 10 88 00 00 00 	movss  xmm1,DWORD PTR [rax+0x0]
    4108:	00 
    4109:	f3 0f 59 88 00 00 00 	mulss  xmm1,DWORD PTR [rax+0x0]
    4110:	00 
    4111:	f3 0f 11 90 00 00 00 	movss  DWORD PTR [rax+0x0],xmm2
    4118:	00 
    4119:	f3 0f 10 90 00 00 00 	movss  xmm2,DWORD PTR [rax+0x0]
    4120:	00 
    4121:	f3 0f 58 d1          	addss  xmm2,xmm1
    4125:	f3 0f 59 c0          	mulss  xmm0,xmm0
    4129:	f3 0f 11 80 00 00 00 	movss  DWORD PTR [rax+0x0],xmm0
    4130:	00 
    4131:	f3 0f 5c d1          	subss  xmm2,xmm1
    4135:	f3 0f 11 90 00 00 00 	movss  DWORD PTR [rax+0x0],xmm2
    413c:	00 
    413d:	f3 0f 10 88 00 00 00 	movss  xmm1,DWORD PTR [rax+0x0]
    4144:	00 
    4145:	f3 0f 59 88 00 00 00 	mulss  xmm1,DWORD PTR [rax+0x0]
    414c:	00 
    414d:	f3 0f 10 90 00 00 00 	movss  xmm2,DWORD PTR [rax+0x0]
    4154:	00 
    4155:	f3 0f 58 d1          	addss  xmm2,xmm1
    4159:	f3 0f 59 c0          	mulss  xmm0,xmm0
    415d:	f3 0f 11 80 00 00 00 	movss  DWORD PTR [rax+0x0],xmm0
    4164:	00 
    4165:	f3 0f 5c d1          	subss  xmm2,xmm1
    4169:	f3 0f 11 90 00 00 00 	movss  DWORD PTR [rax+0x0],xmm2
    4170:	00 
    4171:	f3 0f 10 88 00 00 00 	movss  xmm1,DWORD PTR [rax+0x0]
    4178:	00 
    4179:	f3 0f 59 88 00 00 00 	mulss  xmm1,DWORD PTR [rax+0x0]
    4180:	00 
    4181:	f3 0f 10 90 00 00 00 	movss  xmm2,DWORD PTR [rax+0x0]
    4188:	00 
    4189:	f3 0f 58 d1          	addss  xmm2,xmm1
    418d:	f3 0f 59 c0          	mulss  xmm0,xmm0
    4191:	f3 0f 11 80 00 00 00 	movss  DWORD PTR [rax+0x0],xmm0
    4198:	00 
    4199:	f3 0f 5c d1          	subss  xmm2,xmm1
    419d:	f3 0f 11 90 00 00 00 	movss  DWORD PTR [rax+0x0],xmm2
    41a4:	00 
    41a5:	f3 0f 10 88 00 00 00 	movss  xmm1,DWORD PTR [rax+0x0]
    41ac:	00 
    41ad:	f3 0f 59 88 00 00 00 	mulss  xmm1,DWORD PTR [rax+0x0]
    41b4:	00 
    41b5:	f3 0f 10 90 00 00 00 	movss  xmm2,DWORD PTR [rax+0x0]
    41bc:	00 
    41bd:	f3 0f 58 d1          	addss  xmm2,xmm1
    41c1:	f3 0f 59 c0          	mulss  xmm0,xmm0
    41c5:	f3 0f 11 80 00 00 00 	movss  DWORD PTR [rax+0x0],xmm0
    41cc:	00 
    41cd:	f3 0f 5c d1          	subss  xmm2,xmm1
    41d1:	f3 0f 10 88 00 00 00 	movss  xmm1,DWORD PTR [rax+0x0]
    41d8:	00 
    41d9:	f3 0f 59 88 00 00 00 	mulss  xmm1,DWORD PTR [rax+0x0]
    41e0:	00 
    41e1:	f3 0f 11 90 00 00 00 	movss  DWORD PTR [rax+0x0],xmm2
    41e8:	00 
    41e9:	f3 0f 10 90 00 00 00 	movss  xmm2,DWORD PTR [rax+0x0]
    41f0:	00 
    41f1:	f3 0f 58 d1          	addss  xmm2,xmm1
    41f5:	f3 0f 59 c0          	mulss  xmm0,xmm0
    41f9:	f3 0f 11 80 00 00 00 	movss  DWORD PTR [rax+0x0],xmm0
    4200:	00 
    4201:	f3 0f 5c d1          	subss  xmm2,xmm1
    4205:	f3 0f 11 90 00 00 00 	movss  DWORD PTR [rax+0x0],xmm2
    420c:	00 
    420d:	48 85 c0             	test   rax,rax
    4210:	74 3d                	je     424f <s222+0x1da>
    4212:	f3 0f 10 88 00 00 00 	movss  xmm1,DWORD PTR [rax+0x0]
    4219:	00 
    421a:	f3 0f 59 88 00 00 00 	mulss  xmm1,DWORD PTR [rax+0x0]
    4221:	00 
    4222:	f3 0f 10 90 00 00 00 	movss  xmm2,DWORD PTR [rax+0x0]
    4229:	00 
    422a:	f3 0f 58 d1          	addss  xmm2,xmm1
    422e:	f3 0f 59 c0          	mulss  xmm0,xmm0
    4232:	f3 0f 11 80 00 00 00 	movss  DWORD PTR [rax+0x0],xmm0
    4239:	00 
    423a:	f3 0f 5c d1          	subss  xmm2,xmm1
    423e:	f3 0f 11 90 00 00 00 	movss  DWORD PTR [rax+0x0],xmm2
    4245:	00 
    4246:	48 83 c0 20          	add    rax,0x20
    424a:	e9 52 fe ff ff       	jmp    40a1 <s222+0x2c>
    424f:	bf 00 00 00 00       	mov    edi,0x0
    4254:	be 00 00 00 00       	mov    esi,0x0
    4259:	ba 00 00 00 00       	mov    edx,0x0
    425e:	b9 00 00 00 00       	mov    ecx,0x0
    4263:	41 b8 00 00 00 00    	mov    r8d,0x0
    4269:	41 b9 00 00 00 00    	mov    r9d,0x0
    426f:	0f 57 c0             	xorps  xmm0,xmm0
    4272:	68 00 00 00 00       	push   0x0
    4277:	68 00 00 00 00       	push   0x0
    427c:	e8 00 00 00 00       	call   4281 <s222+0x20c>
    4281:	48 83 c4 10          	add    rsp,0x10
    4285:	ff c3                	inc    ebx
    4287:	81 fb 50 c3 00 00    	cmp    ebx,0xc350
    428d:	0f 85 ff fd ff ff    	jne    4092 <s222+0x1d>
    4293:	49 83 c6 10          	add    r14,0x10
    4297:	4c 89 f7             	mov    rdi,r14
    429a:	31 f6                	xor    esi,esi
    429c:	e8 00 00 00 00       	call   42a1 <s222+0x22c>
    42a1:	bf 00 00 00 00       	mov    edi,0x0
    42a6:	48 83 c4 08          	add    rsp,0x8
    42aa:	5b                   	pop    rbx
    42ab:	41 5e                	pop    r14
    42ad:	e9 00 00 00 00       	jmp    42b2 <s231>

00000000000042b2 <s231>:
    42b2:	41 56                	push   r14
    42b4:	53                   	push   rbx
    42b5:	50                   	push   rax
    42b6:	49 89 fe             	mov    r14,rdi
    42b9:	bf 00 00 00 00       	mov    edi,0x0
    42be:	e8 00 00 00 00       	call   42c3 <s231+0x11>
    42c3:	31 db                	xor    ebx,ebx
    42c5:	4c 89 f7             	mov    rdi,r14
    42c8:	31 f6                	xor    esi,esi
    42ca:	e8 00 00 00 00       	call   42cf <s231+0x1d>
    42cf:	b8 00 20 00 00       	mov    eax,0x2000
    42d4:	31 c9                	xor    ecx,ecx
    42d6:	f3 0f 10 04 8d 00 00 	movss  xmm0,DWORD PTR [rcx*4+0x0]
    42dd:	00 00 
    42df:	48 c7 c2 00 20 fc ff 	mov    rdx,0xfffffffffffc2000
    42e6:	f3 0f 58 84 10 00 00 	addss  xmm0,DWORD PTR [rax+rdx*1+0x0]
    42ed:	00 00 
    42ef:	f3 0f 11 84 10 00 00 	movss  DWORD PTR [rax+rdx*1+0x0],xmm0
    42f6:	00 00 
    42f8:	f3 0f 58 84 10 00 00 	addss  xmm0,DWORD PTR [rax+rdx*1+0x0]
    42ff:	00 00 
    4301:	f3 0f 11 84 10 00 00 	movss  DWORD PTR [rax+rdx*1+0x0],xmm0
    4308:	00 00 
    430a:	f3 0f 58 84 10 00 00 	addss  xmm0,DWORD PTR [rax+rdx*1+0x0]
    4311:	00 00 
    4313:	f3 0f 11 84 10 00 00 	movss  DWORD PTR [rax+rdx*1+0x0],xmm0
    431a:	00 00 
    431c:	f3 0f 58 84 10 00 00 	addss  xmm0,DWORD PTR [rax+rdx*1+0x0]
    4323:	00 00 
    4325:	f3 0f 11 84 10 00 00 	movss  DWORD PTR [rax+rdx*1+0x0],xmm0
    432c:	00 00 
    432e:	f3 0f 58 84 10 00 00 	addss  xmm0,DWORD PTR [rax+rdx*1+0x0]
    4335:	00 00 
    4337:	f3 0f 11 84 10 00 00 	movss  DWORD PTR [rax+rdx*1+0x0],xmm0
    433e:	00 00 
    4340:	f3 0f 58 84 10 00 00 	addss  xmm0,DWORD PTR [rax+rdx*1+0x0]
    4347:	00 00 
    4349:	f3 0f 11 84 10 00 00 	movss  DWORD PTR [rax+rdx*1+0x0],xmm0
    4350:	00 00 
    4352:	f3 0f 58 84 10 00 00 	addss  xmm0,DWORD PTR [rax+rdx*1+0x0]
    4359:	00 00 
    435b:	f3 0f 11 84 10 00 00 	movss  DWORD PTR [rax+rdx*1+0x0],xmm0
    4362:	00 00 
    4364:	48 85 d2             	test   rdx,rdx
    4367:	74 1e                	je     4387 <s231+0xd5>
    4369:	f3 0f 58 84 10 00 00 	addss  xmm0,DWORD PTR [rax+rdx*1+0x0]
    4370:	00 00 
    4372:	f3 0f 11 84 10 00 00 	movss  DWORD PTR [rax+rdx*1+0x0],xmm0
    4379:	00 00 
    437b:	48 81 c2 00 20 00 00 	add    rdx,0x2000
    4382:	e9 5f ff ff ff       	jmp    42e6 <s231+0x34>
    4387:	48 ff c1             	inc    rcx
    438a:	48 83 c0 04          	add    rax,0x4
    438e:	48 81 f9 00 01 00 00 	cmp    rcx,0x100
    4395:	0f 85 3b ff ff ff    	jne    42d6 <s231+0x24>
    439b:	bf 00 00 00 00       	mov    edi,0x0
    43a0:	be 00 00 00 00       	mov    esi,0x0
    43a5:	ba 00 00 00 00       	mov    edx,0x0
    43aa:	b9 00 00 00 00       	mov    ecx,0x0
    43af:	41 b8 00 00 00 00    	mov    r8d,0x0
    43b5:	41 b9 00 00 00 00    	mov    r9d,0x0
    43bb:	0f 57 c0             	xorps  xmm0,xmm0
    43be:	68 00 00 00 00       	push   0x0
    43c3:	68 00 00 00 00       	push   0x0
    43c8:	e8 00 00 00 00       	call   43cd <s231+0x11b>
    43cd:	48 83 c4 10          	add    rsp,0x10
    43d1:	ff c3                	inc    ebx
    43d3:	81 fb 58 98 00 00    	cmp    ebx,0x9858
    43d9:	0f 85 f0 fe ff ff    	jne    42cf <s231+0x1d>
    43df:	49 83 c6 10          	add    r14,0x10
    43e3:	4c 89 f7             	mov    rdi,r14
    43e6:	31 f6                	xor    esi,esi
    43e8:	e8 00 00 00 00       	call   43ed <s231+0x13b>
    43ed:	bf 00 00 00 00       	mov    edi,0x0
    43f2:	48 83 c4 08          	add    rsp,0x8
    43f6:	5b                   	pop    rbx
    43f7:	41 5e                	pop    r14
    43f9:	e9 00 00 00 00       	jmp    43fe <s232>

00000000000043fe <s232>:
    43fe:	41 56                	push   r14
    4400:	53                   	push   rbx
    4401:	50                   	push   rax
    4402:	49 89 fe             	mov    r14,rdi
    4405:	bf 00 00 00 00       	mov    edi,0x0
    440a:	e8 00 00 00 00       	call   440f <s232+0x11>
    440f:	31 db                	xor    ebx,ebx
    4411:	4c 89 f7             	mov    rdi,r14
    4414:	31 f6                	xor    esi,esi
    4416:	e8 00 00 00 00       	call   441b <s232+0x1d>
    441b:	b8 01 00 00 00       	mov    eax,0x1
    4420:	31 c9                	xor    ecx,ecx
    4422:	48 89 c2             	mov    rdx,rax
    4425:	48 c1 e2 0a          	shl    rdx,0xa
    4429:	f3 0f 10 82 00 00 00 	movss  xmm0,DWORD PTR [rdx+0x0]
    4430:	00 
    4431:	31 d2                	xor    edx,edx
    4433:	f3 0f 59 c0          	mulss  xmm0,xmm0
    4437:	f3 0f 58 84 91 00 00 	addss  xmm0,DWORD PTR [rcx+rdx*4+0x0]
    443e:	00 00 
    4440:	f3 0f 11 84 91 00 00 	movss  DWORD PTR [rcx+rdx*4+0x0],xmm0
    4447:	00 00 
    4449:	48 ff c2             	inc    rdx
    444c:	48 39 d0             	cmp    rax,rdx
    444f:	75 e2                	jne    4433 <s232+0x35>
    4451:	48 ff c0             	inc    rax
    4454:	48 81 c1 00 04 00 00 	add    rcx,0x400
    445b:	48 3d 00 01 00 00    	cmp    rax,0x100
    4461:	75 bf                	jne    4422 <s232+0x24>
    4463:	bf 00 00 00 00       	mov    edi,0x0
    4468:	be 00 00 00 00       	mov    esi,0x0
    446d:	ba 00 00 00 00       	mov    edx,0x0
    4472:	b9 00 00 00 00       	mov    ecx,0x0
    4477:	41 b8 00 00 00 00    	mov    r8d,0x0
    447d:	41 b9 00 00 00 00    	mov    r9d,0x0
    4483:	f3 0f 10 05 00 00 00 	movss  xmm0,DWORD PTR [rip+0x0]        # 448b <s232+0x8d>
    448a:	00 
    448b:	68 00 00 00 00       	push   0x0
    4490:	68 00 00 00 00       	push   0x0
    4495:	e8 00 00 00 00       	call   449a <s232+0x9c>
    449a:	48 83 c4 10          	add    rsp,0x10
    449e:	ff c3                	inc    ebx
    44a0:	81 fb 58 98 00 00    	cmp    ebx,0x9858
    44a6:	0f 85 6f ff ff ff    	jne    441b <s232+0x1d>
    44ac:	49 83 c6 10          	add    r14,0x10
    44b0:	4c 89 f7             	mov    rdi,r14
    44b3:	31 f6                	xor    esi,esi
    44b5:	e8 00 00 00 00       	call   44ba <s232+0xbc>
    44ba:	bf 00 00 00 00       	mov    edi,0x0
    44bf:	48 83 c4 08          	add    rsp,0x8
    44c3:	5b                   	pop    rbx
    44c4:	41 5e                	pop    r14
    44c6:	e9 00 00 00 00       	jmp    44cb <s1232>

00000000000044cb <s1232>:
    44cb:	41 57                	push   r15
    44cd:	41 56                	push   r14
    44cf:	53                   	push   rbx
    44d0:	49 89 fe             	mov    r14,rdi
    44d3:	bf 00 00 00 00       	mov    edi,0x0
    44d8:	e8 00 00 00 00       	call   44dd <s1232+0x12>
    44dd:	45 31 ff             	xor    r15d,r15d
    44e0:	4c 89 f7             	mov    rdi,r14
    44e3:	31 f6                	xor    esi,esi
    44e5:	e8 00 00 00 00       	call   44ea <s1232+0x1f>
    44ea:	45 31 c0             	xor    r8d,r8d
    44ed:	31 c9                	xor    ecx,ecx
    44ef:	31 c0                	xor    eax,eax
    44f1:	31 f6                	xor    esi,esi
    44f3:	89 f2                	mov    edx,esi
    44f5:	f7 da                	neg    edx
    44f7:	48 89 f7             	mov    rdi,rsi
    44fa:	f6 c2 07             	test   dl,0x7
    44fd:	74 39                	je     4538 <s1232+0x6d>
    44ff:	0f b6 f9             	movzx  edi,cl
    4502:	83 e7 07             	and    edi,0x7
    4505:	f7 df                	neg    edi
    4507:	48 89 c2             	mov    rdx,rax
    450a:	31 db                	xor    ebx,ebx
    450c:	f3 0f 10 82 00 00 00 	movss  xmm0,DWORD PTR [rdx+0x0]
    4513:	00 
    4514:	f3 0f 58 82 00 00 00 	addss  xmm0,DWORD PTR [rdx+0x0]
    451b:	00 
    451c:	f3 0f 11 82 00 00 00 	movss  DWORD PTR [rdx+0x0],xmm0
    4523:	00 
    4524:	48 ff cb             	dec    rbx
    4527:	48 81 c2 00 04 00 00 	add    rdx,0x400
    452e:	39 df                	cmp    edi,ebx
    4530:	75 da                	jne    450c <s1232+0x41>
    4532:	48 89 f7             	mov    rdi,rsi
    4535:	48 29 df             	sub    rdi,rbx
    4538:	48 81 fe f8 00 00 00 	cmp    rsi,0xf8
    453f:	77 3a                	ja     457b <s1232+0xb0>
    4541:	bb f8 00 00 00       	mov    ebx,0xf8
    4546:	48 29 fb             	sub    rbx,rdi
    4549:	48 83 cb 07          	or     rbx,0x7
    454d:	48 ff c3             	inc    rbx
    4550:	48 c1 e7 0a          	shl    rdi,0xa
    4554:	4c 01 c7             	add    rdi,r8
    4557:	f3 0f 10 87 00 00 00 	movss  xmm0,DWORD PTR [rdi+0x0]
    455e:	00 
    455f:	f3 0f 58 87 00 00 00 	addss  xmm0,DWORD PTR [rdi+0x0]
    4566:	00 
    4567:	f3 0f 11 87 00 00 00 	movss  DWORD PTR [rdi+0x0],xmm0
    456e:	00 
    456f:	48 81 c7 00 04 00 00 	add    rdi,0x400
    4576:	48 ff cb             	dec    rbx
    4579:	75 dc                	jne    4557 <s1232+0x8c>
    457b:	48 ff c6             	inc    rsi
    457e:	48 05 04 04 00 00    	add    rax,0x404
    4584:	80 c1 07             	add    cl,0x7
    4587:	49 83 c0 04          	add    r8,0x4
    458b:	48 81 fe 00 01 00 00 	cmp    rsi,0x100
    4592:	0f 85 5b ff ff ff    	jne    44f3 <s1232+0x28>
    4598:	bf 00 00 00 00       	mov    edi,0x0
    459d:	be 00 00 00 00       	mov    esi,0x0
    45a2:	ba 00 00 00 00       	mov    edx,0x0
    45a7:	b9 00 00 00 00       	mov    ecx,0x0
    45ac:	41 b8 00 00 00 00    	mov    r8d,0x0
    45b2:	41 b9 00 00 00 00    	mov    r9d,0x0
    45b8:	f3 0f 10 05 00 00 00 	movss  xmm0,DWORD PTR [rip+0x0]        # 45c0 <s1232+0xf5>
    45bf:	00 
    45c0:	68 00 00 00 00       	push   0x0
    45c5:	68 00 00 00 00       	push   0x0
    45ca:	e8 00 00 00 00       	call   45cf <s1232+0x104>
    45cf:	48 83 c4 10          	add    rsp,0x10
    45d3:	41 ff c7             	inc    r15d
    45d6:	41 81 ff 58 98 00 00 	cmp    r15d,0x9858
    45dd:	0f 85 07 ff ff ff    	jne    44ea <s1232+0x1f>
    45e3:	49 83 c6 10          	add    r14,0x10
    45e7:	4c 89 f7             	mov    rdi,r14
    45ea:	31 f6                	xor    esi,esi
    45ec:	e8 00 00 00 00       	call   45f1 <s1232+0x126>
    45f1:	bf 00 00 00 00       	mov    edi,0x0
    45f6:	5b                   	pop    rbx
    45f7:	41 5e                	pop    r14
    45f9:	41 5f                	pop    r15
    45fb:	e9 00 00 00 00       	jmp    4600 <s233>

0000000000004600 <s233>:
    4600:	41 56                	push   r14
    4602:	53                   	push   rbx
    4603:	50                   	push   rax
    4604:	49 89 fe             	mov    r14,rdi
    4607:	bf 00 00 00 00       	mov    edi,0x0
    460c:	e8 00 00 00 00       	call   4611 <s233+0x11>
    4611:	31 db                	xor    ebx,ebx
    4613:	4c 89 f7             	mov    rdi,r14
    4616:	31 f6                	xor    esi,esi
    4618:	e8 00 00 00 00       	call   461d <s233+0x1d>
    461d:	b8 01 00 00 00       	mov    eax,0x1
    4622:	b9 04 20 00 00       	mov    ecx,0x2004
    4627:	f3 0f 10 04 85 00 00 	movss  xmm0,DWORD PTR [rax*4+0x0]
    462e:	00 00 
    4630:	48 c7 c2 00 20 fc ff 	mov    rdx,0xfffffffffffc2000
    4637:	f3 0f 58 84 11 00 00 	addss  xmm0,DWORD PTR [rcx+rdx*1+0x0]
    463e:	00 00 
    4640:	f3 0f 11 84 11 00 00 	movss  DWORD PTR [rcx+rdx*1+0x0],xmm0
    4647:	00 00 
    4649:	f3 0f 58 84 11 00 00 	addss  xmm0,DWORD PTR [rcx+rdx*1+0x0]
    4650:	00 00 
    4652:	f3 0f 11 84 11 00 00 	movss  DWORD PTR [rcx+rdx*1+0x0],xmm0
    4659:	00 00 
    465b:	f3 0f 58 84 11 00 00 	addss  xmm0,DWORD PTR [rcx+rdx*1+0x0]
    4662:	00 00 
    4664:	f3 0f 11 84 11 00 00 	movss  DWORD PTR [rcx+rdx*1+0x0],xmm0
    466b:	00 00 
    466d:	f3 0f 58 84 11 00 00 	addss  xmm0,DWORD PTR [rcx+rdx*1+0x0]
    4674:	00 00 
    4676:	f3 0f 11 84 11 00 00 	movss  DWORD PTR [rcx+rdx*1+0x0],xmm0
    467d:	00 00 
    467f:	f3 0f 58 84 11 00 00 	addss  xmm0,DWORD PTR [rcx+rdx*1+0x0]
    4686:	00 00 
    4688:	f3 0f 11 84 11 00 00 	movss  DWORD PTR [rcx+rdx*1+0x0],xmm0
    468f:	00 00 
    4691:	f3 0f 58 84 11 00 00 	addss  xmm0,DWORD PTR [rcx+rdx*1+0x0]
    4698:	00 00 
    469a:	f3 0f 11 84 11 00 00 	movss  DWORD PTR [rcx+rdx*1+0x0],xmm0
    46a1:	00 00 
    46a3:	f3 0f 58 84 11 00 00 	addss  xmm0,DWORD PTR [rcx+rdx*1+0x0]
    46aa:	00 00 
    46ac:	f3 0f 11 84 11 00 00 	movss  DWORD PTR [rcx+rdx*1+0x0],xmm0
    46b3:	00 00 
    46b5:	48 85 d2             	test   rdx,rdx
    46b8:	74 1e                	je     46d8 <s233+0xd8>
    46ba:	f3 0f 58 84 11 00 00 	addss  xmm0,DWORD PTR [rcx+rdx*1+0x0]
    46c1:	00 00 
    46c3:	f3 0f 11 84 11 00 00 	movss  DWORD PTR [rcx+rdx*1+0x0],xmm0
    46ca:	00 00 
    46cc:	48 81 c2 00 20 00 00 	add    rdx,0x2000
    46d3:	e9 5f ff ff ff       	jmp    4637 <s233+0x37>
    46d8:	48 c7 c2 00 20 fc ff 	mov    rdx,0xfffffffffffc2000
    46df:	f3 0f 10 84 11 00 00 	movss  xmm0,DWORD PTR [rcx+rdx*1+0x0]
    46e6:	00 00 
    46e8:	f3 0f 58 84 11 00 00 	addss  xmm0,DWORD PTR [rcx+rdx*1+0x0]
    46ef:	00 00 
    46f1:	f3 0f 11 84 11 00 00 	movss  DWORD PTR [rcx+rdx*1+0x0],xmm0
    46f8:	00 00 
    46fa:	f3 0f 10 84 11 00 00 	movss  xmm0,DWORD PTR [rcx+rdx*1+0x0]
    4701:	00 00 
    4703:	f3 0f 58 84 11 00 00 	addss  xmm0,DWORD PTR [rcx+rdx*1+0x0]
    470a:	00 00 
    470c:	f3 0f 11 84 11 00 00 	movss  DWORD PTR [rcx+rdx*1+0x0],xmm0
    4713:	00 00 
    4715:	f3 0f 10 84 11 00 00 	movss  xmm0,DWORD PTR [rcx+rdx*1+0x0]
    471c:	00 00 
    471e:	f3 0f 58 84 11 00 00 	addss  xmm0,DWORD PTR [rcx+rdx*1+0x0]
    4725:	00 00 
    4727:	f3 0f 11 84 11 00 00 	movss  DWORD PTR [rcx+rdx*1+0x0],xmm0
    472e:	00 00 
    4730:	f3 0f 10 84 11 00 00 	movss  xmm0,DWORD PTR [rcx+rdx*1+0x0]
    4737:	00 00 
    4739:	f3 0f 58 84 11 00 00 	addss  xmm0,DWORD PTR [rcx+rdx*1+0x0]
    4740:	00 00 
    4742:	f3 0f 11 84 11 00 00 	movss  DWORD PTR [rcx+rdx*1+0x0],xmm0
    4749:	00 00 
    474b:	f3 0f 10 84 11 00 00 	movss  xmm0,DWORD PTR [rcx+rdx*1+0x0]
    4752:	00 00 
    4754:	f3 0f 58 84 11 00 00 	addss  xmm0,DWORD PTR [rcx+rdx*1+0x0]
    475b:	00 00 
    475d:	f3 0f 11 84 11 00 00 	movss  DWORD PTR [rcx+rdx*1+0x0],xmm0
    4764:	00 00 
    4766:	f3 0f 10 84 11 00 00 	movss  xmm0,DWORD PTR [rcx+rdx*1+0x0]
    476d:	00 00 
    476f:	f3 0f 58 84 11 00 00 	addss  xmm0,DWORD PTR [rcx+rdx*1+0x0]
    4776:	00 00 
    4778:	f3 0f 11 84 11 00 00 	movss  DWORD PTR [rcx+rdx*1+0x0],xmm0
    477f:	00 00 
    4781:	f3 0f 10 84 11 00 00 	movss  xmm0,DWORD PTR [rcx+rdx*1+0x0]
    4788:	00 00 
    478a:	f3 0f 58 84 11 00 00 	addss  xmm0,DWORD PTR [rcx+rdx*1+0x0]
    4791:	00 00 
    4793:	f3 0f 11 84 11 00 00 	movss  DWORD PTR [rcx+rdx*1+0x0],xmm0
    479a:	00 00 
    479c:	48 85 d2             	test   rdx,rdx
    479f:	74 27                	je     47c8 <s233+0x1c8>
    47a1:	f3 0f 10 84 11 00 00 	movss  xmm0,DWORD PTR [rcx+rdx*1+0x0]
    47a8:	00 00 
    47aa:	f3 0f 58 84 11 00 00 	addss  xmm0,DWORD PTR [rcx+rdx*1+0x0]
    47b1:	00 00 
    47b3:	f3 0f 11 84 11 00 00 	movss  DWORD PTR [rcx+rdx*1+0x0],xmm0
    47ba:	00 00 
    47bc:	48 81 c2 00 20 00 00 	add    rdx,0x2000
    47c3:	e9 17 ff ff ff       	jmp    46df <s233+0xdf>
    47c8:	48 ff c0             	inc    rax
    47cb:	48 83 c1 04          	add    rcx,0x4
    47cf:	48 3d 00 01 00 00    	cmp    rax,0x100
    47d5:	0f 85 4c fe ff ff    	jne    4627 <s233+0x27>
    47db:	bf 00 00 00 00       	mov    edi,0x0
    47e0:	be 00 00 00 00       	mov    esi,0x0
    47e5:	ba 00 00 00 00       	mov    edx,0x0
    47ea:	b9 00 00 00 00       	mov    ecx,0x0
    47ef:	41 b8 00 00 00 00    	mov    r8d,0x0
    47f5:	41 b9 00 00 00 00    	mov    r9d,0x0
    47fb:	0f 57 c0             	xorps  xmm0,xmm0
    47fe:	68 00 00 00 00       	push   0x0
    4803:	68 00 00 00 00       	push   0x0
    4808:	e8 00 00 00 00       	call   480d <s233+0x20d>
    480d:	48 83 c4 10          	add    rsp,0x10
    4811:	ff c3                	inc    ebx
    4813:	81 fb 58 98 00 00    	cmp    ebx,0x9858
    4819:	0f 85 fe fd ff ff    	jne    461d <s233+0x1d>
    481f:	49 83 c6 10          	add    r14,0x10
    4823:	4c 89 f7             	mov    rdi,r14
    4826:	31 f6                	xor    esi,esi
    4828:	e8 00 00 00 00       	call   482d <s233+0x22d>
    482d:	bf 00 00 00 00       	mov    edi,0x0
    4832:	48 83 c4 08          	add    rsp,0x8
    4836:	5b                   	pop    rbx
    4837:	41 5e                	pop    r14
    4839:	e9 00 00 00 00       	jmp    483e <s2233>

000000000000483e <s2233>:
    483e:	41 56                	push   r14
    4840:	53                   	push   rbx
    4841:	50                   	push   rax
    4842:	49 89 fe             	mov    r14,rdi
    4845:	bf 00 00 00 00       	mov    edi,0x0
    484a:	e8 00 00 00 00       	call   484f <s2233+0x11>
    484f:	31 db                	xor    ebx,ebx
    4851:	4c 89 f7             	mov    rdi,r14
    4854:	31 f6                	xor    esi,esi
    4856:	e8 00 00 00 00       	call   485b <s2233+0x1d>
    485b:	b8 01 00 00 00       	mov    eax,0x1
    4860:	b9 04 20 00 00       	mov    ecx,0x2004
    4865:	ba 04 04 00 00       	mov    edx,0x404
    486a:	f3 0f 10 04 85 00 00 	movss  xmm0,DWORD PTR [rax*4+0x0]
    4871:	00 00 
    4873:	48 c7 c6 00 20 fc ff 	mov    rsi,0xfffffffffffc2000
    487a:	f3 0f 58 84 31 00 00 	addss  xmm0,DWORD PTR [rcx+rsi*1+0x0]
    4881:	00 00 
    4883:	f3 0f 11 84 31 00 00 	movss  DWORD PTR [rcx+rsi*1+0x0],xmm0
    488a:	00 00 
    488c:	f3 0f 58 84 31 00 00 	addss  xmm0,DWORD PTR [rcx+rsi*1+0x0]
    4893:	00 00 
    4895:	f3 0f 11 84 31 00 00 	movss  DWORD PTR [rcx+rsi*1+0x0],xmm0
    489c:	00 00 
    489e:	f3 0f 58 84 31 00 00 	addss  xmm0,DWORD PTR [rcx+rsi*1+0x0]
    48a5:	00 00 
    48a7:	f3 0f 11 84 31 00 00 	movss  DWORD PTR [rcx+rsi*1+0x0],xmm0
    48ae:	00 00 
    48b0:	f3 0f 58 84 31 00 00 	addss  xmm0,DWORD PTR [rcx+rsi*1+0x0]
    48b7:	00 00 
    48b9:	f3 0f 11 84 31 00 00 	movss  DWORD PTR [rcx+rsi*1+0x0],xmm0
    48c0:	00 00 
    48c2:	f3 0f 58 84 31 00 00 	addss  xmm0,DWORD PTR [rcx+rsi*1+0x0]
    48c9:	00 00 
    48cb:	f3 0f 11 84 31 00 00 	movss  DWORD PTR [rcx+rsi*1+0x0],xmm0
    48d2:	00 00 
    48d4:	f3 0f 58 84 31 00 00 	addss  xmm0,DWORD PTR [rcx+rsi*1+0x0]
    48db:	00 00 
    48dd:	f3 0f 11 84 31 00 00 	movss  DWORD PTR [rcx+rsi*1+0x0],xmm0
    48e4:	00 00 
    48e6:	f3 0f 58 84 31 00 00 	addss  xmm0,DWORD PTR [rcx+rsi*1+0x0]
    48ed:	00 00 
    48ef:	f3 0f 11 84 31 00 00 	movss  DWORD PTR [rcx+rsi*1+0x0],xmm0
    48f6:	00 00 
    48f8:	48 85 f6             	test   rsi,rsi
    48fb:	74 1e                	je     491b <s2233+0xdd>
    48fd:	f3 0f 58 84 31 00 00 	addss  xmm0,DWORD PTR [rcx+rsi*1+0x0]
    4904:	00 00 
    4906:	f3 0f 11 84 31 00 00 	movss  DWORD PTR [rcx+rsi*1+0x0],xmm0
    490d:	00 00 
    490f:	48 81 c6 00 20 00 00 	add    rsi,0x2000
    4916:	e9 5f ff ff ff       	jmp    487a <s2233+0x3c>
    491b:	48 c7 c6 08 ff ff ff 	mov    rsi,0xffffffffffffff08
    4922:	f3 0f 10 84 b2 00 00 	movss  xmm0,DWORD PTR [rdx+rsi*4+0x0]
    4929:	00 00 
    492b:	f3 0f 58 84 b2 00 00 	addss  xmm0,DWORD PTR [rdx+rsi*4+0x0]
    4932:	00 00 
    4934:	f3 0f 11 84 b2 00 00 	movss  DWORD PTR [rdx+rsi*4+0x0],xmm0
    493b:	00 00 
    493d:	f3 0f 10 84 b2 00 00 	movss  xmm0,DWORD PTR [rdx+rsi*4+0x0]
    4944:	00 00 
    4946:	f3 0f 58 84 b2 00 00 	addss  xmm0,DWORD PTR [rdx+rsi*4+0x0]
    494d:	00 00 
    494f:	f3 0f 11 84 b2 00 00 	movss  DWORD PTR [rdx+rsi*4+0x0],xmm0
    4956:	00 00 
    4958:	f3 0f 10 84 b2 00 00 	movss  xmm0,DWORD PTR [rdx+rsi*4+0x0]
    495f:	00 00 
    4961:	f3 0f 58 84 b2 00 00 	addss  xmm0,DWORD PTR [rdx+rsi*4+0x0]
    4968:	00 00 
    496a:	f3 0f 11 84 b2 00 00 	movss  DWORD PTR [rdx+rsi*4+0x0],xmm0
    4971:	00 00 
    4973:	f3 0f 10 84 b2 00 00 	movss  xmm0,DWORD PTR [rdx+rsi*4+0x0]
    497a:	00 00 
    497c:	f3 0f 58 84 b2 00 00 	addss  xmm0,DWORD PTR [rdx+rsi*4+0x0]
    4983:	00 00 
    4985:	f3 0f 11 84 b2 00 00 	movss  DWORD PTR [rdx+rsi*4+0x0],xmm0
    498c:	00 00 
    498e:	f3 0f 10 84 b2 00 00 	movss  xmm0,DWORD PTR [rdx+rsi*4+0x0]
    4995:	00 00 
    4997:	f3 0f 58 84 b2 00 00 	addss  xmm0,DWORD PTR [rdx+rsi*4+0x0]
    499e:	00 00 
    49a0:	f3 0f 11 84 b2 00 00 	movss  DWORD PTR [rdx+rsi*4+0x0],xmm0
    49a7:	00 00 
    49a9:	f3 0f 10 84 b2 00 00 	movss  xmm0,DWORD PTR [rdx+rsi*4+0x0]
    49b0:	00 00 
    49b2:	f3 0f 58 84 b2 00 00 	addss  xmm0,DWORD PTR [rdx+rsi*4+0x0]
    49b9:	00 00 
    49bb:	f3 0f 11 84 b2 00 00 	movss  DWORD PTR [rdx+rsi*4+0x0],xmm0
    49c2:	00 00 
    49c4:	f3 0f 10 84 b2 00 00 	movss  xmm0,DWORD PTR [rdx+rsi*4+0x0]
    49cb:	00 00 
    49cd:	f3 0f 58 84 b2 00 00 	addss  xmm0,DWORD PTR [rdx+rsi*4+0x0]
    49d4:	00 00 
    49d6:	f3 0f 11 84 b2 00 00 	movss  DWORD PTR [rdx+rsi*4+0x0],xmm0
    49dd:	00 00 
    49df:	48 85 f6             	test   rsi,rsi
    49e2:	74 24                	je     4a08 <s2233+0x1ca>
    49e4:	f3 0f 10 84 b2 00 00 	movss  xmm0,DWORD PTR [rdx+rsi*4+0x0]
    49eb:	00 00 
    49ed:	f3 0f 58 84 b2 00 00 	addss  xmm0,DWORD PTR [rdx+rsi*4+0x0]
    49f4:	00 00 
    49f6:	f3 0f 11 84 b2 00 00 	movss  DWORD PTR [rdx+rsi*4+0x0],xmm0
    49fd:	00 00 
    49ff:	48 83 c6 08          	add    rsi,0x8
    4a03:	e9 1a ff ff ff       	jmp    4922 <s2233+0xe4>
    4a08:	48 ff c0             	inc    rax
    4a0b:	48 83 c1 04          	add    rcx,0x4
    4a0f:	48 81 c2 00 04 00 00 	add    rdx,0x400
    4a16:	48 3d 00 01 00 00    	cmp    rax,0x100
    4a1c:	0f 85 48 fe ff ff    	jne    486a <s2233+0x2c>
    4a22:	bf 00 00 00 00       	mov    edi,0x0
    4a27:	be 00 00 00 00       	mov    esi,0x0
    4a2c:	ba 00 00 00 00       	mov    edx,0x0
    4a31:	b9 00 00 00 00       	mov    ecx,0x0
    4a36:	41 b8 00 00 00 00    	mov    r8d,0x0
    4a3c:	41 b9 00 00 00 00    	mov    r9d,0x0
    4a42:	0f 57 c0             	xorps  xmm0,xmm0
    4a45:	68 00 00 00 00       	push   0x0
    4a4a:	68 00 00 00 00       	push   0x0
    4a4f:	e8 00 00 00 00       	call   4a54 <s2233+0x216>
    4a54:	48 83 c4 10          	add    rsp,0x10
    4a58:	ff c3                	inc    ebx
    4a5a:	81 fb 58 98 00 00    	cmp    ebx,0x9858
    4a60:	0f 85 f5 fd ff ff    	jne    485b <s2233+0x1d>
    4a66:	49 83 c6 10          	add    r14,0x10
    4a6a:	4c 89 f7             	mov    rdi,r14
    4a6d:	31 f6                	xor    esi,esi
    4a6f:	e8 00 00 00 00       	call   4a74 <s2233+0x236>
    4a74:	bf 00 00 00 00       	mov    edi,0x0
    4a79:	48 83 c4 08          	add    rsp,0x8
    4a7d:	5b                   	pop    rbx
    4a7e:	41 5e                	pop    r14
    4a80:	e9 00 00 00 00       	jmp    4a85 <s235>

0000000000004a85 <s235>:
    4a85:	41 56                	push   r14
    4a87:	53                   	push   rbx
    4a88:	50                   	push   rax
    4a89:	49 89 fe             	mov    r14,rdi
    4a8c:	bf 00 00 00 00       	mov    edi,0x0
    4a91:	e8 00 00 00 00       	call   4a96 <s235+0x11>
    4a96:	31 db                	xor    ebx,ebx
    4a98:	4c 89 f7             	mov    rdi,r14
    4a9b:	31 f6                	xor    esi,esi
    4a9d:	e8 00 00 00 00       	call   4aa2 <s235+0x1d>
    4aa2:	b8 00 20 00 00       	mov    eax,0x2000
    4aa7:	31 c9                	xor    ecx,ecx
    4aa9:	f3 0f 10 04 8d 00 00 	movss  xmm0,DWORD PTR [rcx*4+0x0]
    4ab0:	00 00 
    4ab2:	f3 0f 59 04 8d 00 00 	mulss  xmm0,DWORD PTR [rcx*4+0x0]
    4ab9:	00 00 
    4abb:	f3 0f 58 04 8d 00 00 	addss  xmm0,DWORD PTR [rcx*4+0x0]
    4ac2:	00 00 
    4ac4:	f3 0f 11 04 8d 00 00 	movss  DWORD PTR [rcx*4+0x0],xmm0
    4acb:	00 00 
    4acd:	f3 0f 10 0c 8d 00 00 	movss  xmm1,DWORD PTR [rcx*4+0x0]
    4ad4:	00 00 
    4ad6:	48 c7 c2 00 20 fc ff 	mov    rdx,0xfffffffffffc2000
    4add:	f3 0f 10 94 10 00 00 	movss  xmm2,DWORD PTR [rax+rdx*1+0x0]
    4ae4:	00 00 
    4ae6:	f3 0f 59 d0          	mulss  xmm2,xmm0
    4aea:	f3 0f 58 d1          	addss  xmm2,xmm1
    4aee:	f3 0f 11 94 10 00 00 	movss  DWORD PTR [rax+rdx*1+0x0],xmm2
    4af5:	00 00 
    4af7:	f3 0f 10 8c 10 00 00 	movss  xmm1,DWORD PTR [rax+rdx*1+0x0]
    4afe:	00 00 
    4b00:	f3 0f 59 c8          	mulss  xmm1,xmm0
    4b04:	f3 0f 58 ca          	addss  xmm1,xmm2
    4b08:	f3 0f 11 8c 10 00 00 	movss  DWORD PTR [rax+rdx*1+0x0],xmm1
    4b0f:	00 00 
    4b11:	f3 0f 10 94 10 00 00 	movss  xmm2,DWORD PTR [rax+rdx*1+0x0]
    4b18:	00 00 
    4b1a:	f3 0f 59 d0          	mulss  xmm2,xmm0
    4b1e:	f3 0f 58 d1          	addss  xmm2,xmm1
    4b22:	f3 0f 11 94 10 00 00 	movss  DWORD PTR [rax+rdx*1+0x0],xmm2
    4b29:	00 00 
    4b2b:	f3 0f 10 8c 10 00 00 	movss  xmm1,DWORD PTR [rax+rdx*1+0x0]
    4b32:	00 00 
    4b34:	f3 0f 59 c8          	mulss  xmm1,xmm0
    4b38:	f3 0f 58 ca          	addss  xmm1,xmm2
    4b3c:	f3 0f 11 8c 10 00 00 	movss  DWORD PTR [rax+rdx*1+0x0],xmm1
    4b43:	00 00 
    4b45:	f3 0f 10 94 10 00 00 	movss  xmm2,DWORD PTR [rax+rdx*1+0x0]
    4b4c:	00 00 
    4b4e:	f3 0f 59 d0          	mulss  xmm2,xmm0
    4b52:	f3 0f 58 d1          	addss  xmm2,xmm1
    4b56:	f3 0f 11 94 10 00 00 	movss  DWORD PTR [rax+rdx*1+0x0],xmm2
    4b5d:	00 00 
    4b5f:	f3 0f 10 9c 10 00 00 	movss  xmm3,DWORD PTR [rax+rdx*1+0x0]
    4b66:	00 00 
    4b68:	f3 0f 59 d8          	mulss  xmm3,xmm0
    4b6c:	f3 0f 58 da          	addss  xmm3,xmm2
    4b70:	f3 0f 11 9c 10 00 00 	movss  DWORD PTR [rax+rdx*1+0x0],xmm3
    4b77:	00 00 
    4b79:	f3 0f 10 8c 10 00 00 	movss  xmm1,DWORD PTR [rax+rdx*1+0x0]
    4b80:	00 00 
    4b82:	f3 0f 59 c8          	mulss  xmm1,xmm0
    4b86:	f3 0f 58 cb          	addss  xmm1,xmm3
    4b8a:	f3 0f 11 8c 10 00 00 	movss  DWORD PTR [rax+rdx*1+0x0],xmm1
    4b91:	00 00 
    4b93:	48 85 d2             	test   rdx,rdx
    4b96:	74 26                	je     4bbe <s235+0x139>
    4b98:	f3 0f 10 94 10 00 00 	movss  xmm2,DWORD PTR [rax+rdx*1+0x0]
    4b9f:	00 00 
    4ba1:	f3 0f 59 d0          	mulss  xmm2,xmm0
    4ba5:	f3 0f 58 ca          	addss  xmm1,xmm2
    4ba9:	f3 0f 11 8c 10 00 00 	movss  DWORD PTR [rax+rdx*1+0x0],xmm1
    4bb0:	00 00 
    4bb2:	48 81 c2 00 20 00 00 	add    rdx,0x2000
    4bb9:	e9 1f ff ff ff       	jmp    4add <s235+0x58>
    4bbe:	48 ff c1             	inc    rcx
    4bc1:	48 83 c0 04          	add    rax,0x4
    4bc5:	48 81 f9 00 01 00 00 	cmp    rcx,0x100
    4bcc:	0f 85 d7 fe ff ff    	jne    4aa9 <s235+0x24>
    4bd2:	bf 00 00 00 00       	mov    edi,0x0
    4bd7:	be 00 00 00 00       	mov    esi,0x0
    4bdc:	ba 00 00 00 00       	mov    edx,0x0
    4be1:	b9 00 00 00 00       	mov    ecx,0x0
    4be6:	41 b8 00 00 00 00    	mov    r8d,0x0
    4bec:	41 b9 00 00 00 00    	mov    r9d,0x0
    4bf2:	0f 57 c0             	xorps  xmm0,xmm0
    4bf5:	68 00 00 00 00       	push   0x0
    4bfa:	68 00 00 00 00       	push   0x0
    4bff:	e8 00 00 00 00       	call   4c04 <s235+0x17f>
    4c04:	48 83 c4 10          	add    rsp,0x10
    4c08:	ff c3                	inc    ebx
    4c0a:	81 fb b0 30 01 00    	cmp    ebx,0x130b0
    4c10:	0f 85 8c fe ff ff    	jne    4aa2 <s235+0x1d>
    4c16:	49 83 c6 10          	add    r14,0x10
    4c1a:	4c 89 f7             	mov    rdi,r14
    4c1d:	31 f6                	xor    esi,esi
    4c1f:	e8 00 00 00 00       	call   4c24 <s235+0x19f>
    4c24:	bf 00 00 00 00       	mov    edi,0x0
    4c29:	48 83 c4 08          	add    rsp,0x8
    4c2d:	5b                   	pop    rbx
    4c2e:	41 5e                	pop    r14
    4c30:	e9 00 00 00 00       	jmp    4c35 <s241>

0000000000004c35 <s241>:
    4c35:	41 56                	push   r14
    4c37:	53                   	push   rbx
    4c38:	50                   	push   rax
    4c39:	49 89 fe             	mov    r14,rdi
    4c3c:	bf 00 00 00 00       	mov    edi,0x0
    4c41:	e8 00 00 00 00       	call   4c46 <s241+0x11>
    4c46:	31 db                	xor    ebx,ebx
    4c48:	4c 89 f7             	mov    rdi,r14
    4c4b:	31 f6                	xor    esi,esi
    4c4d:	e8 00 00 00 00       	call   4c52 <s241+0x1d>
    4c52:	48 c7 c0 20 0c fe ff 	mov    rax,0xfffffffffffe0c20
    4c59:	f3 0f 10 80 00 00 00 	movss  xmm0,DWORD PTR [rax+0x0]
    4c60:	00 
    4c61:	f3 0f 59 80 00 00 00 	mulss  xmm0,DWORD PTR [rax+0x0]
    4c68:	00 
    4c69:	f3 0f 10 88 00 00 00 	movss  xmm1,DWORD PTR [rax+0x0]
    4c70:	00 
    4c71:	f3 0f 59 c1          	mulss  xmm0,xmm1
    4c75:	f3 0f 11 80 00 00 00 	movss  DWORD PTR [rax+0x0],xmm0
    4c7c:	00 
    4c7d:	f3 0f 59 80 00 00 00 	mulss  xmm0,DWORD PTR [rax+0x0]
    4c84:	00 
    4c85:	f3 0f 59 c1          	mulss  xmm0,xmm1
    4c89:	f3 0f 11 80 00 00 00 	movss  DWORD PTR [rax+0x0],xmm0
    4c90:	00 
    4c91:	f3 0f 10 80 00 00 00 	movss  xmm0,DWORD PTR [rax+0x0]
    4c98:	00 
    4c99:	f3 0f 59 80 00 00 00 	mulss  xmm0,DWORD PTR [rax+0x0]
    4ca0:	00 
    4ca1:	f3 0f 10 88 00 00 00 	movss  xmm1,DWORD PTR [rax+0x0]
    4ca8:	00 
    4ca9:	f3 0f 59 c1          	mulss  xmm0,xmm1
    4cad:	f3 0f 11 80 00 00 00 	movss  DWORD PTR [rax+0x0],xmm0
    4cb4:	00 
    4cb5:	f3 0f 59 80 00 00 00 	mulss  xmm0,DWORD PTR [rax+0x0]
    4cbc:	00 
    4cbd:	f3 0f 59 c1          	mulss  xmm0,xmm1
    4cc1:	f3 0f 11 80 00 00 00 	movss  DWORD PTR [rax+0x0],xmm0
    4cc8:	00 
    4cc9:	f3 0f 10 80 00 00 00 	movss  xmm0,DWORD PTR [rax+0x0]
    4cd0:	00 
    4cd1:	f3 0f 59 80 00 00 00 	mulss  xmm0,DWORD PTR [rax+0x0]
    4cd8:	00 
    4cd9:	f3 0f 10 88 00 00 00 	movss  xmm1,DWORD PTR [rax+0x0]
    4ce0:	00 
    4ce1:	f3 0f 59 c1          	mulss  xmm0,xmm1
    4ce5:	f3 0f 11 80 00 00 00 	movss  DWORD PTR [rax+0x0],xmm0
    4cec:	00 
    4ced:	f3 0f 59 80 00 00 00 	mulss  xmm0,DWORD PTR [rax+0x0]
    4cf4:	00 
    4cf5:	f3 0f 59 c1          	mulss  xmm0,xmm1
    4cf9:	f3 0f 11 80 00 00 00 	movss  DWORD PTR [rax+0x0],xmm0
    4d00:	00 
    4d01:	f3 0f 10 80 00 00 00 	movss  xmm0,DWORD PTR [rax+0x0]
    4d08:	00 
    4d09:	f3 0f 59 80 00 00 00 	mulss  xmm0,DWORD PTR [rax+0x0]
    4d10:	00 
    4d11:	f3 0f 10 88 00 00 00 	movss  xmm1,DWORD PTR [rax+0x0]
    4d18:	00 
    4d19:	f3 0f 59 c1          	mulss  xmm0,xmm1
    4d1d:	f3 0f 11 80 00 00 00 	movss  DWORD PTR [rax+0x0],xmm0
    4d24:	00 
    4d25:	f3 0f 59 80 00 00 00 	mulss  xmm0,DWORD PTR [rax+0x0]
    4d2c:	00 
    4d2d:	f3 0f 59 c1          	mulss  xmm0,xmm1
    4d31:	f3 0f 11 80 00 00 00 	movss  DWORD PTR [rax+0x0],xmm0
    4d38:	00 
    4d39:	f3 0f 10 80 00 00 00 	movss  xmm0,DWORD PTR [rax+0x0]
    4d40:	00 
    4d41:	f3 0f 59 80 00 00 00 	mulss  xmm0,DWORD PTR [rax+0x0]
    4d48:	00 
    4d49:	f3 0f 10 88 00 00 00 	movss  xmm1,DWORD PTR [rax+0x0]
    4d50:	00 
    4d51:	f3 0f 59 c1          	mulss  xmm0,xmm1
    4d55:	f3 0f 11 80 00 00 00 	movss  DWORD PTR [rax+0x0],xmm0
    4d5c:	00 
    4d5d:	f3 0f 59 80 00 00 00 	mulss  xmm0,DWORD PTR [rax+0x0]
    4d64:	00 
    4d65:	f3 0f 59 c1          	mulss  xmm0,xmm1
    4d69:	f3 0f 11 80 00 00 00 	movss  DWORD PTR [rax+0x0],xmm0
    4d70:	00 
    4d71:	f3 0f 10 80 00 00 00 	movss  xmm0,DWORD PTR [rax+0x0]
    4d78:	00 
    4d79:	f3 0f 59 80 00 00 00 	mulss  xmm0,DWORD PTR [rax+0x0]
    4d80:	00 
    4d81:	f3 0f 10 88 00 00 00 	movss  xmm1,DWORD PTR [rax+0x0]
    4d88:	00 
    4d89:	f3 0f 59 c1          	mulss  xmm0,xmm1
    4d8d:	f3 0f 11 80 00 00 00 	movss  DWORD PTR [rax+0x0],xmm0
    4d94:	00 
    4d95:	f3 0f 59 80 00 00 00 	mulss  xmm0,DWORD PTR [rax+0x0]
    4d9c:	00 
    4d9d:	f3 0f 59 c1          	mulss  xmm0,xmm1
    4da1:	f3 0f 11 80 00 00 00 	movss  DWORD PTR [rax+0x0],xmm0
    4da8:	00 
    4da9:	f3 0f 10 80 00 00 00 	movss  xmm0,DWORD PTR [rax+0x0]
    4db0:	00 
    4db1:	f3 0f 59 80 00 00 00 	mulss  xmm0,DWORD PTR [rax+0x0]
    4db8:	00 
    4db9:	f3 0f 10 88 00 00 00 	movss  xmm1,DWORD PTR [rax+0x0]
    4dc0:	00 
    4dc1:	f3 0f 59 c1          	mulss  xmm0,xmm1
    4dc5:	f3 0f 11 80 00 00 00 	movss  DWORD PTR [rax+0x0],xmm0
    4dcc:	00 
    4dcd:	f3 0f 59 80 00 00 00 	mulss  xmm0,DWORD PTR [rax+0x0]
    4dd4:	00 
    4dd5:	f3 0f 59 c1          	mulss  xmm0,xmm1
    4dd9:	f3 0f 11 80 00 00 00 	movss  DWORD PTR [rax+0x0],xmm0
    4de0:	00 
    4de1:	48 85 c0             	test   rax,rax
    4de4:	74 41                	je     4e27 <s241+0x1f2>
    4de6:	f3 0f 10 80 00 00 00 	movss  xmm0,DWORD PTR [rax+0x0]
    4ded:	00 
    4dee:	f3 0f 59 80 00 00 00 	mulss  xmm0,DWORD PTR [rax+0x0]
    4df5:	00 
    4df6:	f3 0f 10 88 00 00 00 	movss  xmm1,DWORD PTR [rax+0x0]
    4dfd:	00 
    4dfe:	f3 0f 59 c1          	mulss  xmm0,xmm1
    4e02:	f3 0f 11 80 00 00 00 	movss  DWORD PTR [rax+0x0],xmm0
    4e09:	00 
    4e0a:	f3 0f 59 80 00 00 00 	mulss  xmm0,DWORD PTR [rax+0x0]
    4e11:	00 
    4e12:	f3 0f 59 c1          	mulss  xmm0,xmm1
    4e16:	f3 0f 11 80 00 00 00 	movss  DWORD PTR [rax+0x0],xmm0
    4e1d:	00 
    4e1e:	48 83 c0 20          	add    rax,0x20
    4e22:	e9 32 fe ff ff       	jmp    4c59 <s241+0x24>
    4e27:	bf 00 00 00 00       	mov    edi,0x0
    4e2c:	be 00 00 00 00       	mov    esi,0x0
    4e31:	ba 00 00 00 00       	mov    edx,0x0
    4e36:	b9 00 00 00 00       	mov    ecx,0x0
    4e3b:	41 b8 00 00 00 00    	mov    r8d,0x0
    4e41:	41 b9 00 00 00 00    	mov    r9d,0x0
    4e47:	0f 57 c0             	xorps  xmm0,xmm0
    4e4a:	68 00 00 00 00       	push   0x0
    4e4f:	68 00 00 00 00       	push   0x0
    4e54:	e8 00 00 00 00       	call   4e59 <s241+0x224>
    4e59:	48 83 c4 10          	add    rsp,0x10
    4e5d:	ff c3                	inc    ebx
    4e5f:	81 fb 40 0d 03 00    	cmp    ebx,0x30d40
    4e65:	0f 85 e7 fd ff ff    	jne    4c52 <s241+0x1d>
    4e6b:	49 83 c6 10          	add    r14,0x10
    4e6f:	4c 89 f7             	mov    rdi,r14
    4e72:	31 f6                	xor    esi,esi
    4e74:	e8 00 00 00 00       	call   4e79 <s241+0x244>
    4e79:	bf 00 00 00 00       	mov    edi,0x0
    4e7e:	48 83 c4 08          	add    rsp,0x8
    4e82:	5b                   	pop    rbx
    4e83:	41 5e                	pop    r14
    4e85:	e9 00 00 00 00       	jmp    4e8a <s242>

0000000000004e8a <s242>:
    4e8a:	41 56                	push   r14
    4e8c:	53                   	push   rbx
    4e8d:	50                   	push   rax
    4e8e:	49 89 fe             	mov    r14,rdi
    4e91:	48 8b 47 20          	mov    rax,QWORD PTR [rdi+0x20]
    4e95:	f3 0f 10 00          	movss  xmm0,DWORD PTR [rax]
    4e99:	f3 0f 11 44 24 04    	movss  DWORD PTR [rsp+0x4],xmm0
    4e9f:	f3 0f 10 40 04       	movss  xmm0,DWORD PTR [rax+0x4]
    4ea4:	f3 0f 11 04 24       	movss  DWORD PTR [rsp],xmm0
    4ea9:	bf 00 00 00 00       	mov    edi,0x0
    4eae:	e8 00 00 00 00       	call   4eb3 <s242+0x29>
    4eb3:	31 db                	xor    ebx,ebx
    4eb5:	4c 89 f7             	mov    rdi,r14
    4eb8:	31 f6                	xor    esi,esi
    4eba:	e8 00 00 00 00       	call   4ebf <s242+0x35>
    4ebf:	48 c7 c0 20 0c fe ff 	mov    rax,0xfffffffffffe0c20
    4ec6:	f3 0f 10 05 00 00 00 	movss  xmm0,DWORD PTR [rip+0x0]        # 4ece <s242+0x44>
    4ecd:	00 
    4ece:	f3 0f 10 4c 24 04    	movss  xmm1,DWORD PTR [rsp+0x4]
    4ed4:	f3 0f 10 14 24       	movss  xmm2,DWORD PTR [rsp]
    4ed9:	f3 0f 58 c1          	addss  xmm0,xmm1
    4edd:	f3 0f 58 c2          	addss  xmm0,xmm2
    4ee1:	f3 0f 58 80 00 00 00 	addss  xmm0,DWORD PTR [rax+0x0]
    4ee8:	00 
    4ee9:	f3 0f 58 80 00 00 00 	addss  xmm0,DWORD PTR [rax+0x0]
    4ef0:	00 
    4ef1:	f3 0f 58 80 00 00 00 	addss  xmm0,DWORD PTR [rax+0x0]
    4ef8:	00 
    4ef9:	f3 0f 11 80 00 00 00 	movss  DWORD PTR [rax+0x0],xmm0
    4f00:	00 
    4f01:	f3 0f 58 c1          	addss  xmm0,xmm1
    4f05:	f3 0f 58 c2          	addss  xmm0,xmm2
    4f09:	f3 0f 58 80 00 00 00 	addss  xmm0,DWORD PTR [rax+0x0]
    4f10:	00 
    4f11:	f3 0f 58 80 00 00 00 	addss  xmm0,DWORD PTR [rax+0x0]
    4f18:	00 
    4f19:	f3 0f 58 80 00 00 00 	addss  xmm0,DWORD PTR [rax+0x0]
    4f20:	00 
    4f21:	f3 0f 11 80 00 00 00 	movss  DWORD PTR [rax+0x0],xmm0
    4f28:	00 
    4f29:	f3 0f 58 c1          	addss  xmm0,xmm1
    4f2d:	f3 0f 58 c2          	addss  xmm0,xmm2
    4f31:	f3 0f 58 80 00 00 00 	addss  xmm0,DWORD PTR [rax+0x0]
    4f38:	00 
    4f39:	f3 0f 58 80 00 00 00 	addss  xmm0,DWORD PTR [rax+0x0]
    4f40:	00 
    4f41:	f3 0f 58 80 00 00 00 	addss  xmm0,DWORD PTR [rax+0x0]
    4f48:	00 
    4f49:	f3 0f 11 80 00 00 00 	movss  DWORD PTR [rax+0x0],xmm0
    4f50:	00 
    4f51:	f3 0f 58 c1          	addss  xmm0,xmm1
    4f55:	f3 0f 58 c2          	addss  xmm0,xmm2
    4f59:	f3 0f 58 80 00 00 00 	addss  xmm0,DWORD PTR [rax+0x0]
    4f60:	00 
    4f61:	f3 0f 58 80 00 00 00 	addss  xmm0,DWORD PTR [rax+0x0]
    4f68:	00 
    4f69:	f3 0f 58 80 00 00 00 	addss  xmm0,DWORD PTR [rax+0x0]
    4f70:	00 
    4f71:	f3 0f 11 80 00 00 00 	movss  DWORD PTR [rax+0x0],xmm0
    4f78:	00 
    4f79:	f3 0f 58 c1          	addss  xmm0,xmm1
    4f7d:	f3 0f 58 c2          	addss  xmm0,xmm2
    4f81:	f3 0f 58 80 00 00 00 	addss  xmm0,DWORD PTR [rax+0x0]
    4f88:	00 
    4f89:	f3 0f 58 80 00 00 00 	addss  xmm0,DWORD PTR [rax+0x0]
    4f90:	00 
    4f91:	f3 0f 58 80 00 00 00 	addss  xmm0,DWORD PTR [rax+0x0]
    4f98:	00 
    4f99:	f3 0f 11 80 00 00 00 	movss  DWORD PTR [rax+0x0],xmm0
    4fa0:	00 
    4fa1:	f3 0f 58 c1          	addss  xmm0,xmm1
    4fa5:	f3 0f 58 c2          	addss  xmm0,xmm2
    4fa9:	f3 0f 58 80 00 00 00 	addss  xmm0,DWORD PTR [rax+0x0]
    4fb0:	00 
    4fb1:	f3 0f 58 80 00 00 00 	addss  xmm0,DWORD PTR [rax+0x0]
    4fb8:	00 
    4fb9:	f3 0f 58 80 00 00 00 	addss  xmm0,DWORD PTR [rax+0x0]
    4fc0:	00 
    4fc1:	f3 0f 11 80 00 00 00 	movss  DWORD PTR [rax+0x0],xmm0
    4fc8:	00 
    4fc9:	f3 0f 58 c1          	addss  xmm0,xmm1
    4fcd:	f3 0f 58 c2          	addss  xmm0,xmm2
    4fd1:	f3 0f 58 80 00 00 00 	addss  xmm0,DWORD PTR [rax+0x0]
    4fd8:	00 
    4fd9:	f3 0f 58 80 00 00 00 	addss  xmm0,DWORD PTR [rax+0x0]
    4fe0:	00 
    4fe1:	f3 0f 58 80 00 00 00 	addss  xmm0,DWORD PTR [rax+0x0]
    4fe8:	00 
    4fe9:	f3 0f 11 80 00 00 00 	movss  DWORD PTR [rax+0x0],xmm0
    4ff0:	00 
    4ff1:	48 85 c0             	test   rax,rax
    4ff4:	74 31                	je     5027 <s242+0x19d>
    4ff6:	f3 0f 58 c1          	addss  xmm0,xmm1
    4ffa:	f3 0f 58 c2          	addss  xmm0,xmm2
    4ffe:	f3 0f 58 80 00 00 00 	addss  xmm0,DWORD PTR [rax+0x0]
    5005:	00 
    5006:	f3 0f 58 80 00 00 00 	addss  xmm0,DWORD PTR [rax+0x0]
    500d:	00 
    500e:	f3 0f 58 80 00 00 00 	addss  xmm0,DWORD PTR [rax+0x0]
    5015:	00 
    5016:	f3 0f 11 80 00 00 00 	movss  DWORD PTR [rax+0x0],xmm0
    501d:	00 
    501e:	48 83 c0 20          	add    rax,0x20
    5022:	e9 b2 fe ff ff       	jmp    4ed9 <s242+0x4f>
    5027:	bf 00 00 00 00       	mov    edi,0x0
    502c:	be 00 00 00 00       	mov    esi,0x0
    5031:	ba 00 00 00 00       	mov    edx,0x0
    5036:	b9 00 00 00 00       	mov    ecx,0x0
    503b:	41 b8 00 00 00 00    	mov    r8d,0x0
    5041:	41 b9 00 00 00 00    	mov    r9d,0x0
    5047:	0f 57 c0             	xorps  xmm0,xmm0
    504a:	68 00 00 00 00       	push   0x0
    504f:	68 00 00 00 00       	push   0x0
    5054:	e8 00 00 00 00       	call   5059 <s242+0x1cf>
    5059:	48 83 c4 10          	add    rsp,0x10
    505d:	ff c3                	inc    ebx
    505f:	81 fb 20 4e 00 00    	cmp    ebx,0x4e20
    5065:	0f 85 54 fe ff ff    	jne    4ebf <s242+0x35>
    506b:	49 83 c6 10          	add    r14,0x10
    506f:	4c 89 f7             	mov    rdi,r14
    5072:	31 f6                	xor    esi,esi
    5074:	e8 00 00 00 00       	call   5079 <s242+0x1ef>
    5079:	bf 00 00 00 00       	mov    edi,0x0
    507e:	48 83 c4 08          	add    rsp,0x8
    5082:	5b                   	pop    rbx
    5083:	41 5e                	pop    r14
    5085:	e9 00 00 00 00       	jmp    508a <s243>

000000000000508a <s243>:
    508a:	41 56                	push   r14
    508c:	53                   	push   rbx
    508d:	50                   	push   rax
    508e:	49 89 fe             	mov    r14,rdi
    5091:	bf 00 00 00 00       	mov    edi,0x0
    5096:	e8 00 00 00 00       	call   509b <s243+0x11>
    509b:	31 db                	xor    ebx,ebx
    509d:	4c 89 f7             	mov    rdi,r14
    50a0:	31 f6                	xor    esi,esi
    50a2:	e8 00 00 00 00       	call   50a7 <s243+0x1d>
    50a7:	31 c0                	xor    eax,eax
    50a9:	f3 0f 10 80 00 00 00 	movss  xmm0,DWORD PTR [rax+0x0]
    50b0:	00 
    50b1:	f3 0f 10 88 00 00 00 	movss  xmm1,DWORD PTR [rax+0x0]
    50b8:	00 
    50b9:	f3 0f 59 c8          	mulss  xmm1,xmm0
    50bd:	f3 0f 58 88 00 00 00 	addss  xmm1,DWORD PTR [rax+0x0]
    50c4:	00 
    50c5:	f3 0f 10 90 00 00 00 	movss  xmm2,DWORD PTR [rax+0x0]
    50cc:	00 
    50cd:	f3 0f 59 d0          	mulss  xmm2,xmm0
    50d1:	f3 0f 58 d1          	addss  xmm2,xmm1
    50d5:	f3 0f 11 90 00 00 00 	movss  DWORD PTR [rax+0x0],xmm2
    50dc:	00 
    50dd:	f3 0f 59 80 00 00 00 	mulss  xmm0,DWORD PTR [rax+0x0]
    50e4:	00 
    50e5:	f3 0f 58 c2          	addss  xmm0,xmm2
    50e9:	f3 0f 11 80 00 00 00 	movss  DWORD PTR [rax+0x0],xmm0
    50f0:	00 
    50f1:	f3 0f 10 80 00 00 00 	movss  xmm0,DWORD PTR [rax+0x0]
    50f8:	00 
    50f9:	f3 0f 10 88 00 00 00 	movss  xmm1,DWORD PTR [rax+0x0]
    5100:	00 
    5101:	f3 0f 59 c8          	mulss  xmm1,xmm0
    5105:	f3 0f 58 88 00 00 00 	addss  xmm1,DWORD PTR [rax+0x0]
    510c:	00 
    510d:	f3 0f 10 90 00 00 00 	movss  xmm2,DWORD PTR [rax+0x0]
    5114:	00 
    5115:	f3 0f 59 d0          	mulss  xmm2,xmm0
    5119:	f3 0f 58 d1          	addss  xmm2,xmm1
    511d:	f3 0f 11 90 00 00 00 	movss  DWORD PTR [rax+0x0],xmm2
    5124:	00 
    5125:	f3 0f 59 80 00 00 00 	mulss  xmm0,DWORD PTR [rax+0x0]
    512c:	00 
    512d:	f3 0f 58 c2          	addss  xmm0,xmm2
    5131:	f3 0f 11 80 00 00 00 	movss  DWORD PTR [rax+0x0],xmm0
    5138:	00 
    5139:	f3 0f 10 80 00 00 00 	movss  xmm0,DWORD PTR [rax+0x0]
    5140:	00 
    5141:	f3 0f 10 88 00 00 00 	movss  xmm1,DWORD PTR [rax+0x0]
    5148:	00 
    5149:	f3 0f 59 c8          	mulss  xmm1,xmm0
    514d:	f3 0f 58 88 00 00 00 	addss  xmm1,DWORD PTR [rax+0x0]
    5154:	00 
    5155:	f3 0f 10 90 00 00 00 	movss  xmm2,DWORD PTR [rax+0x0]
    515c:	00 
    515d:	f3 0f 59 d0          	mulss  xmm2,xmm0
    5161:	f3 0f 58 d1          	addss  xmm2,xmm1
    5165:	f3 0f 59 80 00 00 00 	mulss  xmm0,DWORD PTR [rax+0x0]
    516c:	00 
    516d:	f3 0f 11 90 00 00 00 	movss  DWORD PTR [rax+0x0],xmm2
    5174:	00 
    5175:	f3 0f 58 c2          	addss  xmm0,xmm2
    5179:	f3 0f 11 80 00 00 00 	movss  DWORD PTR [rax+0x0],xmm0
    5180:	00 
    5181:	f3 0f 10 80 00 00 00 	movss  xmm0,DWORD PTR [rax+0x0]
    5188:	00 
    5189:	f3 0f 10 88 00 00 00 	movss  xmm1,DWORD PTR [rax+0x0]
    5190:	00 
    5191:	f3 0f 59 c8          	mulss  xmm1,xmm0
    5195:	f3 0f 58 88 00 00 00 	addss  xmm1,DWORD PTR [rax+0x0]
    519c:	00 
    519d:	f3 0f 10 90 00 00 00 	movss  xmm2,DWORD PTR [rax+0x0]
    51a4:	00 
    51a5:	f3 0f 59 d0          	mulss  xmm2,xmm0
    51a9:	f3 0f 58 d1          	addss  xmm2,xmm1
    51ad:	f3 0f 11 90 00 00 00 	movss  DWORD PTR [rax+0x0],xmm2
    51b4:	00 
    51b5:	f3 0f 59 80 00 00 00 	mulss  xmm0,DWORD PTR [rax+0x0]
    51bc:	00 
    51bd:	f3 0f 58 c2          	addss  xmm0,xmm2
    51c1:	f3 0f 10 88 00 00 00 	movss  xmm1,DWORD PTR [rax+0x0]
    51c8:	00 
    51c9:	f3 0f 10 90 00 00 00 	movss  xmm2,DWORD PTR [rax+0x0]
    51d0:	00 
    51d1:	f3 0f 59 d1          	mulss  xmm2,xmm1
    51d5:	f3 0f 58 90 00 00 00 	addss  xmm2,DWORD PTR [rax+0x0]
    51dc:	00 
    51dd:	f3 0f 11 80 00 00 00 	movss  DWORD PTR [rax+0x0],xmm0
    51e4:	00 
    51e5:	f3 0f 10 80 00 00 00 	movss  xmm0,DWORD PTR [rax+0x0]
    51ec:	00 
    51ed:	f3 0f 59 c1          	mulss  xmm0,xmm1
    51f1:	f3 0f 58 c2          	addss  xmm0,xmm2
    51f5:	f3 0f 11 80 00 00 00 	movss  DWORD PTR [rax+0x0],xmm0
    51fc:	00 
    51fd:	f3 0f 59 88 00 00 00 	mulss  xmm1,DWORD PTR [rax+0x0]
    5204:	00 
    5205:	f3 0f 58 c8          	addss  xmm1,xmm0
    5209:	f3 0f 11 88 00 00 00 	movss  DWORD PTR [rax+0x0],xmm1
    5210:	00 
    5211:	f3 0f 10 80 00 00 00 	movss  xmm0,DWORD PTR [rax+0x0]
    5218:	00 
    5219:	f3 0f 10 88 00 00 00 	movss  xmm1,DWORD PTR [rax+0x0]
    5220:	00 
    5221:	f3 0f 59 c8          	mulss  xmm1,xmm0
    5225:	f3 0f 58 88 00 00 00 	addss  xmm1,DWORD PTR [rax+0x0]
    522c:	00 
    522d:	f3 0f 10 90 00 00 00 	movss  xmm2,DWORD PTR [rax+0x0]
    5234:	00 
    5235:	f3 0f 59 d0          	mulss  xmm2,xmm0
    5239:	f3 0f 58 d1          	addss  xmm2,xmm1
    523d:	f3 0f 11 90 00 00 00 	movss  DWORD PTR [rax+0x0],xmm2
    5244:	00 
    5245:	f3 0f 59 80 00 00 00 	mulss  xmm0,DWORD PTR [rax+0x0]
    524c:	00 
    524d:	f3 0f 58 c2          	addss  xmm0,xmm2
    5251:	f3 0f 11 80 00 00 00 	movss  DWORD PTR [rax+0x0],xmm0
    5258:	00 
    5259:	f3 0f 10 80 00 00 00 	movss  xmm0,DWORD PTR [rax+0x0]
    5260:	00 
    5261:	f3 0f 10 88 00 00 00 	movss  xmm1,DWORD PTR [rax+0x0]
    5268:	00 
    5269:	f3 0f 59 c8          	mulss  xmm1,xmm0
    526d:	f3 0f 58 88 00 00 00 	addss  xmm1,DWORD PTR [rax+0x0]
    5274:	00 
    5275:	f3 0f 10 90 00 00 00 	movss  xmm2,DWORD PTR [rax+0x0]
    527c:	00 
    527d:	f3 0f 59 d0          	mulss  xmm2,xmm0
    5281:	f3 0f 58 d1          	addss  xmm2,xmm1
    5285:	f3 0f 59 80 00 00 00 	mulss  xmm0,DWORD PTR [rax+0x0]
    528c:	00 
    528d:	f3 0f 11 90 00 00 00 	movss  DWORD PTR [rax+0x0],xmm2
    5294:	00 
    5295:	f3 0f 58 c2          	addss  xmm0,xmm2
    5299:	f3 0f 11 80 00 00 00 	movss  DWORD PTR [rax+0x0],xmm0
    52a0:	00 
    52a1:	48 3d e0 f3 01 00    	cmp    rax,0x1f3e0
    52a7:	74 51                	je     52fa <s243+0x270>
    52a9:	f3 0f 10 80 00 00 00 	movss  xmm0,DWORD PTR [rax+0x0]
    52b0:	00 
    52b1:	f3 0f 10 88 00 00 00 	movss  xmm1,DWORD PTR [rax+0x0]
    52b8:	00 
    52b9:	f3 0f 59 c8          	mulss  xmm1,xmm0
    52bd:	f3 0f 58 88 00 00 00 	addss  xmm1,DWORD PTR [rax+0x0]
    52c4:	00 
    52c5:	f3 0f 10 90 00 00 00 	movss  xmm2,DWORD PTR [rax+0x0]
    52cc:	00 
    52cd:	f3 0f 59 d0          	mulss  xmm2,xmm0
    52d1:	f3 0f 58 d1          	addss  xmm2,xmm1
    52d5:	f3 0f 59 80 00 00 00 	mulss  xmm0,DWORD PTR [rax+0x0]
    52dc:	00 
    52dd:	f3 0f 11 90 00 00 00 	movss  DWORD PTR [rax+0x0],xmm2
    52e4:	00 
    52e5:	f3 0f 58 c2          	addss  xmm0,xmm2
    52e9:	f3 0f 11 80 00 00 00 	movss  DWORD PTR [rax+0x0],xmm0
    52f0:	00 
    52f1:	48 83 c0 20          	add    rax,0x20
    52f5:	e9 af fd ff ff       	jmp    50a9 <s243+0x1f>
    52fa:	bf 00 00 00 00       	mov    edi,0x0
    52ff:	be 00 00 00 00       	mov    esi,0x0
    5304:	ba 00 00 00 00       	mov    edx,0x0
    5309:	b9 00 00 00 00       	mov    ecx,0x0
    530e:	41 b8 00 00 00 00    	mov    r8d,0x0
    5314:	41 b9 00 00 00 00    	mov    r9d,0x0
    531a:	0f 57 c0             	xorps  xmm0,xmm0
    531d:	68 00 00 00 00       	push   0x0
    5322:	68 00 00 00 00       	push   0x0
    5327:	e8 00 00 00 00       	call   532c <s243+0x2a2>
    532c:	48 83 c4 10          	add    rsp,0x10
    5330:	ff c3                	inc    ebx
    5332:	81 fb a0 86 01 00    	cmp    ebx,0x186a0
    5338:	0f 85 69 fd ff ff    	jne    50a7 <s243+0x1d>
    533e:	49 83 c6 10          	add    r14,0x10
    5342:	4c 89 f7             	mov    rdi,r14
    5345:	31 f6                	xor    esi,esi
    5347:	e8 00 00 00 00       	call   534c <s243+0x2c2>
    534c:	bf 00 00 00 00       	mov    edi,0x0
    5351:	48 83 c4 08          	add    rsp,0x8
    5355:	5b                   	pop    rbx
    5356:	41 5e                	pop    r14
    5358:	e9 00 00 00 00       	jmp    535d <s244>

000000000000535d <s244>:
    535d:	41 56                	push   r14
    535f:	53                   	push   rbx
    5360:	50                   	push   rax
    5361:	49 89 fe             	mov    r14,rdi
    5364:	bf 00 00 00 00       	mov    edi,0x0
    5369:	e8 00 00 00 00       	call   536e <s244+0x11>
    536e:	31 db                	xor    ebx,ebx
    5370:	4c 89 f7             	mov    rdi,r14
    5373:	31 f6                	xor    esi,esi
    5375:	e8 00 00 00 00       	call   537a <s244+0x1d>
    537a:	48 c7 c0 20 0c fe ff 	mov    rax,0xfffffffffffe0c20
    5381:	f3 0f 10 80 00 00 00 	movss  xmm0,DWORD PTR [rax+0x0]
    5388:	00 
    5389:	f3 0f 10 88 00 00 00 	movss  xmm1,DWORD PTR [rax+0x0]
    5390:	00 
    5391:	f3 0f 10 90 00 00 00 	movss  xmm2,DWORD PTR [rax+0x0]
    5398:	00 
    5399:	f3 0f 59 d1          	mulss  xmm2,xmm1
    539d:	f3 0f 58 d0          	addss  xmm2,xmm0
    53a1:	f3 0f 11 90 00 00 00 	movss  DWORD PTR [rax+0x0],xmm2
    53a8:	00 
    53a9:	f3 0f 58 c1          	addss  xmm0,xmm1
    53ad:	f3 0f 11 80 00 00 00 	movss  DWORD PTR [rax+0x0],xmm0
    53b4:	00 
    53b5:	f3 0f 10 80 00 00 00 	movss  xmm0,DWORD PTR [rax+0x0]
    53bc:	00 
    53bd:	f3 0f 10 88 00 00 00 	movss  xmm1,DWORD PTR [rax+0x0]
    53c4:	00 
    53c5:	f3 0f 10 90 00 00 00 	movss  xmm2,DWORD PTR [rax+0x0]
    53cc:	00 
    53cd:	f3 0f 59 d1          	mulss  xmm2,xmm1
    53d1:	f3 0f 58 d0          	addss  xmm2,xmm0
    53d5:	f3 0f 11 90 00 00 00 	movss  DWORD PTR [rax+0x0],xmm2
    53dc:	00 
    53dd:	f3 0f 58 c1          	addss  xmm0,xmm1
    53e1:	f3 0f 11 80 00 00 00 	movss  DWORD PTR [rax+0x0],xmm0
    53e8:	00 
    53e9:	f3 0f 10 80 00 00 00 	movss  xmm0,DWORD PTR [rax+0x0]
    53f0:	00 
    53f1:	f3 0f 10 88 00 00 00 	movss  xmm1,DWORD PTR [rax+0x0]
    53f8:	00 
    53f9:	f3 0f 10 90 00 00 00 	movss  xmm2,DWORD PTR [rax+0x0]
    5400:	00 
    5401:	f3 0f 59 d1          	mulss  xmm2,xmm1
    5405:	f3 0f 58 d0          	addss  xmm2,xmm0
    5409:	f3 0f 11 90 00 00 00 	movss  DWORD PTR [rax+0x0],xmm2
    5410:	00 
    5411:	f3 0f 58 c1          	addss  xmm0,xmm1
    5415:	f3 0f 11 80 00 00 00 	movss  DWORD PTR [rax+0x0],xmm0
    541c:	00 
    541d:	f3 0f 10 80 00 00 00 	movss  xmm0,DWORD PTR [rax+0x0]
    5424:	00 
    5425:	f3 0f 10 88 00 00 00 	movss  xmm1,DWORD PTR [rax+0x0]
    542c:	00 
    542d:	f3 0f 10 90 00 00 00 	movss  xmm2,DWORD PTR [rax+0x0]
    5434:	00 
    5435:	f3 0f 59 d1          	mulss  xmm2,xmm1
    5439:	f3 0f 58 d0          	addss  xmm2,xmm0
    543d:	f3 0f 11 90 00 00 00 	movss  DWORD PTR [rax+0x0],xmm2
    5444:	00 
    5445:	f3 0f 58 c1          	addss  xmm0,xmm1
    5449:	f3 0f 11 80 00 00 00 	movss  DWORD PTR [rax+0x0],xmm0
    5450:	00 
    5451:	f3 0f 10 80 00 00 00 	movss  xmm0,DWORD PTR [rax+0x0]
    5458:	00 
    5459:	f3 0f 10 88 00 00 00 	movss  xmm1,DWORD PTR [rax+0x0]
    5460:	00 
    5461:	f3 0f 10 90 00 00 00 	movss  xmm2,DWORD PTR [rax+0x0]
    5468:	00 
    5469:	f3 0f 59 d1          	mulss  xmm2,xmm1
    546d:	f3 0f 58 d0          	addss  xmm2,xmm0
    5471:	f3 0f 11 90 00 00 00 	movss  DWORD PTR [rax+0x0],xmm2
    5478:	00 
    5479:	f3 0f 58 c1          	addss  xmm0,xmm1
    547d:	f3 0f 11 80 00 00 00 	movss  DWORD PTR [rax+0x0],xmm0
    5484:	00 
    5485:	f3 0f 10 80 00 00 00 	movss  xmm0,DWORD PTR [rax+0x0]
    548c:	00 
    548d:	f3 0f 10 88 00 00 00 	movss  xmm1,DWORD PTR [rax+0x0]
    5494:	00 
    5495:	f3 0f 10 90 00 00 00 	movss  xmm2,DWORD PTR [rax+0x0]
    549c:	00 
    549d:	f3 0f 59 d1          	mulss  xmm2,xmm1
    54a1:	f3 0f 58 d0          	addss  xmm2,xmm0
    54a5:	f3 0f 11 90 00 00 00 	movss  DWORD PTR [rax+0x0],xmm2
    54ac:	00 
    54ad:	f3 0f 58 c1          	addss  xmm0,xmm1
    54b1:	f3 0f 11 80 00 00 00 	movss  DWORD PTR [rax+0x0],xmm0
    54b8:	00 
    54b9:	f3 0f 10 80 00 00 00 	movss  xmm0,DWORD PTR [rax+0x0]
    54c0:	00 
    54c1:	f3 0f 10 88 00 00 00 	movss  xmm1,DWORD PTR [rax+0x0]
    54c8:	00 
    54c9:	f3 0f 10 90 00 00 00 	movss  xmm2,DWORD PTR [rax+0x0]
    54d0:	00 
    54d1:	0f 28 d9             	movaps xmm3,xmm1
    54d4:	f3 0f 59 da          	mulss  xmm3,xmm2
    54d8:	f3 0f 58 d8          	addss  xmm3,xmm0
    54dc:	f3 0f 11 98 00 00 00 	movss  DWORD PTR [rax+0x0],xmm3
    54e3:	00 
    54e4:	f3 0f 58 c1          	addss  xmm0,xmm1
    54e8:	f3 0f 59 90 00 00 00 	mulss  xmm2,DWORD PTR [rax+0x0]
    54ef:	00 
    54f0:	f3 0f 11 80 00 00 00 	movss  DWORD PTR [rax+0x0],xmm0
    54f7:	00 
    54f8:	f3 0f 58 d0          	addss  xmm2,xmm0
    54fc:	f3 0f 11 90 00 00 00 	movss  DWORD PTR [rax+0x0],xmm2
    5503:	00 
    5504:	48 85 c0             	test   rax,rax
    5507:	74 54                	je     555d <s244+0x200>
    5509:	f3 0f 10 80 00 00 00 	movss  xmm0,DWORD PTR [rax+0x0]
    5510:	00 
    5511:	f3 0f 10 88 00 00 00 	movss  xmm1,DWORD PTR [rax+0x0]
    5518:	00 
    5519:	f3 0f 10 90 00 00 00 	movss  xmm2,DWORD PTR [rax+0x0]
    5520:	00 
    5521:	0f 28 d9             	movaps xmm3,xmm1
    5524:	f3 0f 59 da          	mulss  xmm3,xmm2
    5528:	f3 0f 58 d8          	addss  xmm3,xmm0
    552c:	f3 0f 11 98 00 00 00 	movss  DWORD PTR [rax+0x0],xmm3
    5533:	00 
    5534:	f3 0f 58 c1          	addss  xmm0,xmm1
    5538:	f3 0f 59 90 00 00 00 	mulss  xmm2,DWORD PTR [rax+0x0]
    553f:	00 
    5540:	f3 0f 11 80 00 00 00 	movss  DWORD PTR [rax+0x0],xmm0
    5547:	00 
    5548:	f3 0f 58 d0          	addss  xmm2,xmm0
    554c:	f3 0f 11 90 00 00 00 	movss  DWORD PTR [rax+0x0],xmm2
    5553:	00 
    5554:	48 83 c0 20          	add    rax,0x20
    5558:	e9 24 fe ff ff       	jmp    5381 <s244+0x24>
    555d:	bf 00 00 00 00       	mov    edi,0x0
    5562:	be 00 00 00 00       	mov    esi,0x0
    5567:	ba 00 00 00 00       	mov    edx,0x0
    556c:	b9 00 00 00 00       	mov    ecx,0x0
    5571:	41 b8 00 00 00 00    	mov    r8d,0x0
    5577:	41 b9 00 00 00 00    	mov    r9d,0x0
    557d:	0f 57 c0             	xorps  xmm0,xmm0
    5580:	68 00 00 00 00       	push   0x0
    5585:	68 00 00 00 00       	push   0x0
    558a:	e8 00 00 00 00       	call   558f <s244+0x232>
    558f:	48 83 c4 10          	add    rsp,0x10
    5593:	ff c3                	inc    ebx
    5595:	81 fb a0 86 01 00    	cmp    ebx,0x186a0
    559b:	0f 85 d9 fd ff ff    	jne    537a <s244+0x1d>
    55a1:	49 83 c6 10          	add    r14,0x10
    55a5:	4c 89 f7             	mov    rdi,r14
    55a8:	31 f6                	xor    esi,esi
    55aa:	e8 00 00 00 00       	call   55af <s244+0x252>
    55af:	bf 00 00 00 00       	mov    edi,0x0
    55b4:	48 83 c4 08          	add    rsp,0x8
    55b8:	5b                   	pop    rbx
    55b9:	41 5e                	pop    r14
    55bb:	e9 00 00 00 00       	jmp    55c0 <s1244>

00000000000055c0 <s1244>:
    55c0:	41 56                	push   r14
    55c2:	53                   	push   rbx
    55c3:	50                   	push   rax
    55c4:	49 89 fe             	mov    r14,rdi
    55c7:	bf 00 00 00 00       	mov    edi,0x0
    55cc:	e8 00 00 00 00       	call   55d1 <s1244+0x11>
    55d1:	31 db                	xor    ebx,ebx
    55d3:	4c 89 f7             	mov    rdi,r14
    55d6:	31 f6                	xor    esi,esi
    55d8:	e8 00 00 00 00       	call   55dd <s1244+0x1d>
    55dd:	48 c7 c0 20 0c fe ff 	mov    rax,0xfffffffffffe0c20
    55e4:	f3 0f 10 80 00 00 00 	movss  xmm0,DWORD PTR [rax+0x0]
    55eb:	00 
    55ec:	f3 0f 10 88 00 00 00 	movss  xmm1,DWORD PTR [rax+0x0]
    55f3:	00 
    55f4:	0f 28 d1             	movaps xmm2,xmm1
    55f7:	f3 0f 59 d1          	mulss  xmm2,xmm1
    55fb:	f3 0f 58 d0          	addss  xmm2,xmm0
    55ff:	f3 0f 59 c0          	mulss  xmm0,xmm0
    5603:	f3 0f 58 c2          	addss  xmm0,xmm2
    5607:	f3 0f 58 c1          	addss  xmm0,xmm1
    560b:	f3 0f 11 80 00 00 00 	movss  DWORD PTR [rax+0x0],xmm0
    5612:	00 
    5613:	f3 0f 58 80 00 00 00 	addss  xmm0,DWORD PTR [rax+0x0]
    561a:	00 
    561b:	f3 0f 11 80 00 00 00 	movss  DWORD PTR [rax+0x0],xmm0
    5622:	00 
    5623:	f3 0f 10 80 00 00 00 	movss  xmm0,DWORD PTR [rax+0x0]
    562a:	00 
    562b:	f3 0f 10 88 00 00 00 	movss  xmm1,DWORD PTR [rax+0x0]
    5632:	00 
    5633:	0f 28 d1             	movaps xmm2,xmm1
    5636:	f3 0f 59 d1          	mulss  xmm2,xmm1
    563a:	f3 0f 58 d0          	addss  xmm2,xmm0
    563e:	f3 0f 59 c0          	mulss  xmm0,xmm0
    5642:	f3 0f 58 c2          	addss  xmm0,xmm2
    5646:	f3 0f 58 c1          	addss  xmm0,xmm1
    564a:	f3 0f 11 80 00 00 00 	movss  DWORD PTR [rax+0x0],xmm0
    5651:	00 
    5652:	f3 0f 58 80 00 00 00 	addss  xmm0,DWORD PTR [rax+0x0]
    5659:	00 
    565a:	f3 0f 11 80 00 00 00 	movss  DWORD PTR [rax+0x0],xmm0
    5661:	00 
    5662:	f3 0f 10 80 00 00 00 	movss  xmm0,DWORD PTR [rax+0x0]
    5669:	00 
    566a:	f3 0f 10 88 00 00 00 	movss  xmm1,DWORD PTR [rax+0x0]
    5671:	00 
    5672:	0f 28 d1             	movaps xmm2,xmm1
    5675:	f3 0f 59 d1          	mulss  xmm2,xmm1
    5679:	f3 0f 58 d0          	addss  xmm2,xmm0
    567d:	f3 0f 59 c0          	mulss  xmm0,xmm0
    5681:	f3 0f 58 c2          	addss  xmm0,xmm2
    5685:	f3 0f 58 c1          	addss  xmm0,xmm1
    5689:	f3 0f 10 88 00 00 00 	movss  xmm1,DWORD PTR [rax+0x0]
    5690:	00 
    5691:	f3 0f 10 90 00 00 00 	movss  xmm2,DWORD PTR [rax+0x0]
    5698:	00 
    5699:	0f 28 da             	movaps xmm3,xmm2
    569c:	f3 0f 59 da          	mulss  xmm3,xmm2
    56a0:	f3 0f 58 d9          	addss  xmm3,xmm1
    56a4:	f3 0f 59 c9          	mulss  xmm1,xmm1
    56a8:	f3 0f 58 cb          	addss  xmm1,xmm3
    56ac:	f3 0f 11 80 00 00 00 	movss  DWORD PTR [rax+0x0],xmm0
    56b3:	00 
    56b4:	f3 0f 58 80 00 00 00 	addss  xmm0,DWORD PTR [rax+0x0]
    56bb:	00 
    56bc:	f3 0f 58 ca          	addss  xmm1,xmm2
    56c0:	f3 0f 11 88 00 00 00 	movss  DWORD PTR [rax+0x0],xmm1
    56c7:	00 
    56c8:	f3 0f 58 88 00 00 00 	addss  xmm1,DWORD PTR [rax+0x0]
    56cf:	00 
    56d0:	f3 0f 11 80 00 00 00 	movss  DWORD PTR [rax+0x0],xmm0
    56d7:	00 
    56d8:	f3 0f 11 88 00 00 00 	movss  DWORD PTR [rax+0x0],xmm1
    56df:	00 
    56e0:	f3 0f 10 80 00 00 00 	movss  xmm0,DWORD PTR [rax+0x0]
    56e7:	00 
    56e8:	f3 0f 10 88 00 00 00 	movss  xmm1,DWORD PTR [rax+0x0]
    56ef:	00 
    56f0:	0f 28 d1             	movaps xmm2,xmm1
    56f3:	f3 0f 59 d1          	mulss  xmm2,xmm1
    56f7:	f3 0f 58 d0          	addss  xmm2,xmm0
    56fb:	f3 0f 59 c0          	mulss  xmm0,xmm0
    56ff:	f3 0f 58 c2          	addss  xmm0,xmm2
    5703:	f3 0f 58 c1          	addss  xmm0,xmm1
    5707:	f3 0f 11 80 00 00 00 	movss  DWORD PTR [rax+0x0],xmm0
    570e:	00 
    570f:	f3 0f 58 80 00 00 00 	addss  xmm0,DWORD PTR [rax+0x0]
    5716:	00 
    5717:	f3 0f 11 80 00 00 00 	movss  DWORD PTR [rax+0x0],xmm0
    571e:	00 
    571f:	f3 0f 10 80 00 00 00 	movss  xmm0,DWORD PTR [rax+0x0]
    5726:	00 
    5727:	f3 0f 10 88 00 00 00 	movss  xmm1,DWORD PTR [rax+0x0]
    572e:	00 
    572f:	0f 28 d1             	movaps xmm2,xmm1
    5732:	f3 0f 59 d1          	mulss  xmm2,xmm1
    5736:	f3 0f 58 d0          	addss  xmm2,xmm0
    573a:	f3 0f 59 c0          	mulss  xmm0,xmm0
    573e:	f3 0f 58 c2          	addss  xmm0,xmm2
    5742:	f3 0f 58 c1          	addss  xmm0,xmm1
    5746:	f3 0f 11 80 00 00 00 	movss  DWORD PTR [rax+0x0],xmm0
    574d:	00 
    574e:	f3 0f 58 80 00 00 00 	addss  xmm0,DWORD PTR [rax+0x0]
    5755:	00 
    5756:	f3 0f 11 80 00 00 00 	movss  DWORD PTR [rax+0x0],xmm0
    575d:	00 
    575e:	f3 0f 10 80 00 00 00 	movss  xmm0,DWORD PTR [rax+0x0]
    5765:	00 
    5766:	f3 0f 10 88 00 00 00 	movss  xmm1,DWORD PTR [rax+0x0]
    576d:	00 
    576e:	0f 28 d1             	movaps xmm2,xmm1
    5771:	f3 0f 59 d1          	mulss  xmm2,xmm1
    5775:	f3 0f 58 d0          	addss  xmm2,xmm0
    5779:	f3 0f 59 c0          	mulss  xmm0,xmm0
    577d:	f3 0f 58 c2          	addss  xmm0,xmm2
    5781:	f3 0f 58 c1          	addss  xmm0,xmm1
    5785:	f3 0f 11 80 00 00 00 	movss  DWORD PTR [rax+0x0],xmm0
    578c:	00 
    578d:	f3 0f 58 80 00 00 00 	addss  xmm0,DWORD PTR [rax+0x0]
    5794:	00 
    5795:	f3 0f 11 80 00 00 00 	movss  DWORD PTR [rax+0x0],xmm0
    579c:	00 
    579d:	48 85 c0             	test   rax,rax
    57a0:	74 48                	je     57ea <s1244+0x22a>
    57a2:	f3 0f 10 80 00 00 00 	movss  xmm0,DWORD PTR [rax+0x0]
    57a9:	00 
    57aa:	f3 0f 10 88 00 00 00 	movss  xmm1,DWORD PTR [rax+0x0]
    57b1:	00 
    57b2:	0f 28 d1             	movaps xmm2,xmm1
    57b5:	f3 0f 59 d1          	mulss  xmm2,xmm1
    57b9:	f3 0f 58 d0          	addss  xmm2,xmm0
    57bd:	f3 0f 59 c0          	mulss  xmm0,xmm0
    57c1:	f3 0f 58 c2          	addss  xmm0,xmm2
    57c5:	f3 0f 58 c1          	addss  xmm0,xmm1
    57c9:	f3 0f 11 80 00 00 00 	movss  DWORD PTR [rax+0x0],xmm0
    57d0:	00 
    57d1:	f3 0f 58 80 00 00 00 	addss  xmm0,DWORD PTR [rax+0x0]
    57d8:	00 
    57d9:	f3 0f 11 80 00 00 00 	movss  DWORD PTR [rax+0x0],xmm0
    57e0:	00 
    57e1:	48 83 c0 20          	add    rax,0x20
    57e5:	e9 fa fd ff ff       	jmp    55e4 <s1244+0x24>
    57ea:	bf 00 00 00 00       	mov    edi,0x0
    57ef:	be 00 00 00 00       	mov    esi,0x0
    57f4:	ba 00 00 00 00       	mov    edx,0x0
    57f9:	b9 00 00 00 00       	mov    ecx,0x0
    57fe:	41 b8 00 00 00 00    	mov    r8d,0x0
    5804:	41 b9 00 00 00 00    	mov    r9d,0x0
    580a:	0f 57 c0             	xorps  xmm0,xmm0
    580d:	68 00 00 00 00       	push   0x0
    5812:	68 00 00 00 00       	push   0x0
    5817:	e8 00 00 00 00       	call   581c <s1244+0x25c>
    581c:	48 83 c4 10          	add    rsp,0x10
    5820:	ff c3                	inc    ebx
    5822:	81 fb a0 86 01 00    	cmp    ebx,0x186a0
    5828:	0f 85 af fd ff ff    	jne    55dd <s1244+0x1d>
    582e:	49 83 c6 10          	add    r14,0x10
    5832:	4c 89 f7             	mov    rdi,r14
    5835:	31 f6                	xor    esi,esi
    5837:	e8 00 00 00 00       	call   583c <s1244+0x27c>
    583c:	bf 00 00 00 00       	mov    edi,0x0
    5841:	48 83 c4 08          	add    rsp,0x8
    5845:	5b                   	pop    rbx
    5846:	41 5e                	pop    r14
    5848:	e9 00 00 00 00       	jmp    584d <s2244>

000000000000584d <s2244>:
    584d:	41 56                	push   r14
    584f:	53                   	push   rbx
    5850:	50                   	push   rax
    5851:	49 89 fe             	mov    r14,rdi
    5854:	bf 00 00 00 00       	mov    edi,0x0
    5859:	e8 00 00 00 00       	call   585e <s2244+0x11>
    585e:	31 db                	xor    ebx,ebx
    5860:	4c 89 f7             	mov    rdi,r14
    5863:	31 f6                	xor    esi,esi
    5865:	e8 00 00 00 00       	call   586a <s2244+0x1d>
    586a:	48 c7 c0 20 0c fe ff 	mov    rax,0xfffffffffffe0c20
    5871:	f3 0f 10 80 00 00 00 	movss  xmm0,DWORD PTR [rax+0x0]
    5878:	00 
    5879:	f3 0f 58 80 00 00 00 	addss  xmm0,DWORD PTR [rax+0x0]
    5880:	00 
    5881:	f3 0f 11 80 00 00 00 	movss  DWORD PTR [rax+0x0],xmm0
    5888:	00 
    5889:	f3 0f 10 80 00 00 00 	movss  xmm0,DWORD PTR [rax+0x0]
    5890:	00 
    5891:	f3 0f 58 80 00 00 00 	addss  xmm0,DWORD PTR [rax+0x0]
    5898:	00 
    5899:	f3 0f 11 80 00 00 00 	movss  DWORD PTR [rax+0x0],xmm0
    58a0:	00 
    58a1:	f3 0f 10 80 00 00 00 	movss  xmm0,DWORD PTR [rax+0x0]
    58a8:	00 
    58a9:	f3 0f 58 80 00 00 00 	addss  xmm0,DWORD PTR [rax+0x0]
    58b0:	00 
    58b1:	f3 0f 11 80 00 00 00 	movss  DWORD PTR [rax+0x0],xmm0
    58b8:	00 
    58b9:	f3 0f 10 80 00 00 00 	movss  xmm0,DWORD PTR [rax+0x0]
    58c0:	00 
    58c1:	f3 0f 58 80 00 00 00 	addss  xmm0,DWORD PTR [rax+0x0]
    58c8:	00 
    58c9:	f3 0f 11 80 00 00 00 	movss  DWORD PTR [rax+0x0],xmm0
    58d0:	00 
    58d1:	f3 0f 10 80 00 00 00 	movss  xmm0,DWORD PTR [rax+0x0]
    58d8:	00 
    58d9:	f3 0f 58 80 00 00 00 	addss  xmm0,DWORD PTR [rax+0x0]
    58e0:	00 
    58e1:	f3 0f 11 80 00 00 00 	movss  DWORD PTR [rax+0x0],xmm0
    58e8:	00 
    58e9:	f3 0f 10 80 00 00 00 	movss  xmm0,DWORD PTR [rax+0x0]
    58f0:	00 
    58f1:	f3 0f 58 80 00 00 00 	addss  xmm0,DWORD PTR [rax+0x0]
    58f8:	00 
    58f9:	f3 0f 11 80 00 00 00 	movss  DWORD PTR [rax+0x0],xmm0
    5900:	00 
    5901:	f3 0f 10 80 00 00 00 	movss  xmm0,DWORD PTR [rax+0x0]
    5908:	00 
    5909:	f3 0f 10 88 00 00 00 	movss  xmm1,DWORD PTR [rax+0x0]
    5910:	00 
    5911:	f3 0f 58 c8          	addss  xmm1,xmm0
    5915:	f3 0f 11 88 00 00 00 	movss  DWORD PTR [rax+0x0],xmm1
    591c:	00 
    591d:	f3 0f 58 80 00 00 00 	addss  xmm0,DWORD PTR [rax+0x0]
    5924:	00 
    5925:	f3 0f 11 80 00 00 00 	movss  DWORD PTR [rax+0x0],xmm0
    592c:	00 
    592d:	48 85 c0             	test   rax,rax
    5930:	74 35                	je     5967 <s2244+0x11a>
    5932:	f3 0f 10 80 00 00 00 	movss  xmm0,DWORD PTR [rax+0x0]
    5939:	00 
    593a:	f3 0f 10 88 00 00 00 	movss  xmm1,DWORD PTR [rax+0x0]
    5941:	00 
    5942:	f3 0f 58 c8          	addss  xmm1,xmm0
    5946:	f3 0f 11 88 00 00 00 	movss  DWORD PTR [rax+0x0],xmm1
    594d:	00 
    594e:	f3 0f 58 80 00 00 00 	addss  xmm0,DWORD PTR [rax+0x0]
    5955:	00 
    5956:	f3 0f 11 80 00 00 00 	movss  DWORD PTR [rax+0x0],xmm0
    595d:	00 
    595e:	48 83 c0 20          	add    rax,0x20
    5962:	e9 0a ff ff ff       	jmp    5871 <s2244+0x24>
    5967:	bf 00 00 00 00       	mov    edi,0x0
    596c:	be 00 00 00 00       	mov    esi,0x0
    5971:	ba 00 00 00 00       	mov    edx,0x0
    5976:	b9 00 00 00 00       	mov    ecx,0x0
    597b:	41 b8 00 00 00 00    	mov    r8d,0x0
    5981:	41 b9 00 00 00 00    	mov    r9d,0x0
    5987:	0f 57 c0             	xorps  xmm0,xmm0
    598a:	68 00 00 00 00       	push   0x0
    598f:	68 00 00 00 00       	push   0x0
    5994:	e8 00 00 00 00       	call   5999 <s2244+0x14c>
    5999:	48 83 c4 10          	add    rsp,0x10
    599d:	ff c3                	inc    ebx
    599f:	81 fb a0 86 01 00    	cmp    ebx,0x186a0
    59a5:	0f 85 bf fe ff ff    	jne    586a <s2244+0x1d>
    59ab:	49 83 c6 10          	add    r14,0x10
    59af:	4c 89 f7             	mov    rdi,r14
    59b2:	31 f6                	xor    esi,esi
    59b4:	e8 00 00 00 00       	call   59b9 <s2244+0x16c>
    59b9:	bf 00 00 00 00       	mov    edi,0x0
    59be:	48 83 c4 08          	add    rsp,0x8
    59c2:	5b                   	pop    rbx
    59c3:	41 5e                	pop    r14
    59c5:	e9 00 00 00 00       	jmp    59ca <s251>

00000000000059ca <s251>:
    59ca:	41 56                	push   r14
    59cc:	53                   	push   rbx
    59cd:	50                   	push   rax
    59ce:	49 89 fe             	mov    r14,rdi
    59d1:	bf 00 00 00 00       	mov    edi,0x0
    59d6:	e8 00 00 00 00       	call   59db <s251+0x11>
    59db:	31 db                	xor    ebx,ebx
    59dd:	4c 89 f7             	mov    rdi,r14
    59e0:	31 f6                	xor    esi,esi
    59e2:	e8 00 00 00 00       	call   59e7 <s251+0x1d>
    59e7:	48 c7 c0 00 0c fe ff 	mov    rax,0xfffffffffffe0c00
    59ee:	f3 0f 10 80 00 00 00 	movss  xmm0,DWORD PTR [rax+0x0]
    59f5:	00 
    59f6:	f3 0f 59 80 00 00 00 	mulss  xmm0,DWORD PTR [rax+0x0]
    59fd:	00 
    59fe:	f3 0f 58 80 00 00 00 	addss  xmm0,DWORD PTR [rax+0x0]
    5a05:	00 
    5a06:	f3 0f 59 c0          	mulss  xmm0,xmm0
    5a0a:	f3 0f 11 80 00 00 00 	movss  DWORD PTR [rax+0x0],xmm0
    5a11:	00 
    5a12:	48 83 c0 04          	add    rax,0x4
    5a16:	75 d6                	jne    59ee <s251+0x24>
    5a18:	bf 00 00 00 00       	mov    edi,0x0
    5a1d:	be 00 00 00 00       	mov    esi,0x0
    5a22:	ba 00 00 00 00       	mov    edx,0x0
    5a27:	b9 00 00 00 00       	mov    ecx,0x0
    5a2c:	41 b8 00 00 00 00    	mov    r8d,0x0
    5a32:	41 b9 00 00 00 00    	mov    r9d,0x0
    5a38:	0f 57 c0             	xorps  xmm0,xmm0
    5a3b:	68 00 00 00 00       	push   0x0
    5a40:	68 00 00 00 00       	push   0x0
    5a45:	e8 00 00 00 00       	call   5a4a <s251+0x80>
    5a4a:	48 83 c4 10          	add    rsp,0x10
    5a4e:	ff c3                	inc    ebx
    5a50:	81 fb 80 1a 06 00    	cmp    ebx,0x61a80
    5a56:	75 8f                	jne    59e7 <s251+0x1d>
    5a58:	49 83 c6 10          	add    r14,0x10
    5a5c:	4c 89 f7             	mov    rdi,r14
    5a5f:	31 f6                	xor    esi,esi
    5a61:	e8 00 00 00 00       	call   5a66 <s251+0x9c>
    5a66:	bf 00 00 00 00       	mov    edi,0x0
    5a6b:	48 83 c4 08          	add    rsp,0x8
    5a6f:	5b                   	pop    rbx
    5a70:	41 5e                	pop    r14
    5a72:	e9 00 00 00 00       	jmp    5a77 <s1251>

0000000000005a77 <s1251>:
    5a77:	41 56                	push   r14
    5a79:	53                   	push   rbx
    5a7a:	50                   	push   rax
    5a7b:	49 89 fe             	mov    r14,rdi
    5a7e:	bf 00 00 00 00       	mov    edi,0x0
    5a83:	e8 00 00 00 00       	call   5a88 <s1251+0x11>
    5a88:	31 db                	xor    ebx,ebx
    5a8a:	4c 89 f7             	mov    rdi,r14
    5a8d:	31 f6                	xor    esi,esi
    5a8f:	e8 00 00 00 00       	call   5a94 <s1251+0x1d>
    5a94:	48 c7 c0 00 0c fe ff 	mov    rax,0xfffffffffffe0c00
    5a9b:	f3 0f 10 80 00 00 00 	movss  xmm0,DWORD PTR [rax+0x0]
    5aa2:	00 
    5aa3:	f3 0f 58 80 00 00 00 	addss  xmm0,DWORD PTR [rax+0x0]
    5aaa:	00 
    5aab:	f3 0f 10 88 00 00 00 	movss  xmm1,DWORD PTR [rax+0x0]
    5ab2:	00 
    5ab3:	f3 0f 58 88 00 00 00 	addss  xmm1,DWORD PTR [rax+0x0]
    5aba:	00 
    5abb:	f3 0f 11 88 00 00 00 	movss  DWORD PTR [rax+0x0],xmm1
    5ac2:	00 
    5ac3:	f3 0f 59 80 00 00 00 	mulss  xmm0,DWORD PTR [rax+0x0]
    5aca:	00 
    5acb:	f3 0f 11 80 00 00 00 	movss  DWORD PTR [rax+0x0],xmm0
    5ad2:	00 
    5ad3:	48 83 c0 04          	add    rax,0x4
    5ad7:	75 c2                	jne    5a9b <s1251+0x24>
    5ad9:	bf 00 00 00 00       	mov    edi,0x0
    5ade:	be 00 00 00 00       	mov    esi,0x0
    5ae3:	ba 00 00 00 00       	mov    edx,0x0
    5ae8:	b9 00 00 00 00       	mov    ecx,0x0
    5aed:	41 b8 00 00 00 00    	mov    r8d,0x0
    5af3:	41 b9 00 00 00 00    	mov    r9d,0x0
    5af9:	0f 57 c0             	xorps  xmm0,xmm0
    5afc:	68 00 00 00 00       	push   0x0
    5b01:	68 00 00 00 00       	push   0x0
    5b06:	e8 00 00 00 00       	call   5b0b <s1251+0x94>
    5b0b:	48 83 c4 10          	add    rsp,0x10
    5b0f:	ff c3                	inc    ebx
    5b11:	81 fb 80 1a 06 00    	cmp    ebx,0x61a80
    5b17:	0f 85 77 ff ff ff    	jne    5a94 <s1251+0x1d>
    5b1d:	49 83 c6 10          	add    r14,0x10
    5b21:	4c 89 f7             	mov    rdi,r14
    5b24:	31 f6                	xor    esi,esi
    5b26:	e8 00 00 00 00       	call   5b2b <s1251+0xb4>
    5b2b:	bf 00 00 00 00       	mov    edi,0x0
    5b30:	48 83 c4 08          	add    rsp,0x8
    5b34:	5b                   	pop    rbx
    5b35:	41 5e                	pop    r14
    5b37:	e9 00 00 00 00       	jmp    5b3c <s2251>

0000000000005b3c <s2251>:
    5b3c:	41 56                	push   r14
    5b3e:	53                   	push   rbx
    5b3f:	50                   	push   rax
    5b40:	49 89 fe             	mov    r14,rdi
    5b43:	bf 00 00 00 00       	mov    edi,0x0
    5b48:	e8 00 00 00 00       	call   5b4d <s2251+0x11>
    5b4d:	31 db                	xor    ebx,ebx
    5b4f:	4c 89 f7             	mov    rdi,r14
    5b52:	31 f6                	xor    esi,esi
    5b54:	e8 00 00 00 00       	call   5b59 <s2251+0x1d>
    5b59:	48 c7 c0 00 0c fe ff 	mov    rax,0xfffffffffffe0c00
    5b60:	0f 57 c0             	xorps  xmm0,xmm0
    5b63:	f3 0f 59 80 00 00 00 	mulss  xmm0,DWORD PTR [rax+0x0]
    5b6a:	00 
    5b6b:	f3 0f 11 80 00 00 00 	movss  DWORD PTR [rax+0x0],xmm0
    5b72:	00 
    5b73:	f3 0f 10 88 00 00 00 	movss  xmm1,DWORD PTR [rax+0x0]
    5b7a:	00 
    5b7b:	f3 0f 58 88 00 00 00 	addss  xmm1,DWORD PTR [rax+0x0]
    5b82:	00 
    5b83:	f3 0f 58 80 00 00 00 	addss  xmm0,DWORD PTR [rax+0x0]
    5b8a:	00 
    5b8b:	f3 0f 11 80 00 00 00 	movss  DWORD PTR [rax+0x0],xmm0
    5b92:	00 
    5b93:	f3 0f 59 88 00 00 00 	mulss  xmm1,DWORD PTR [rax+0x0]
    5b9a:	00 
    5b9b:	f3 0f 11 88 00 00 00 	movss  DWORD PTR [rax+0x0],xmm1
    5ba2:	00 
    5ba3:	f3 0f 10 80 00 00 00 	movss  xmm0,DWORD PTR [rax+0x0]
    5baa:	00 
    5bab:	f3 0f 58 80 00 00 00 	addss  xmm0,DWORD PTR [rax+0x0]
    5bb2:	00 
    5bb3:	f3 0f 58 88 00 00 00 	addss  xmm1,DWORD PTR [rax+0x0]
    5bba:	00 
    5bbb:	f3 0f 59 80 00 00 00 	mulss  xmm0,DWORD PTR [rax+0x0]
    5bc2:	00 
    5bc3:	f3 0f 11 88 00 00 00 	movss  DWORD PTR [rax+0x0],xmm1
    5bca:	00 
    5bcb:	f3 0f 10 88 00 00 00 	movss  xmm1,DWORD PTR [rax+0x0]
    5bd2:	00 
    5bd3:	f3 0f 58 88 00 00 00 	addss  xmm1,DWORD PTR [rax+0x0]
    5bda:	00 
    5bdb:	f3 0f 11 80 00 00 00 	movss  DWORD PTR [rax+0x0],xmm0
    5be2:	00 
    5be3:	f3 0f 58 80 00 00 00 	addss  xmm0,DWORD PTR [rax+0x0]
    5bea:	00 
    5beb:	f3 0f 11 80 00 00 00 	movss  DWORD PTR [rax+0x0],xmm0
    5bf2:	00 
    5bf3:	f3 0f 59 88 00 00 00 	mulss  xmm1,DWORD PTR [rax+0x0]
    5bfa:	00 
    5bfb:	f3 0f 11 88 00 00 00 	movss  DWORD PTR [rax+0x0],xmm1
    5c02:	00 
    5c03:	f3 0f 10 80 00 00 00 	movss  xmm0,DWORD PTR [rax+0x0]
    5c0a:	00 
    5c0b:	f3 0f 58 80 00 00 00 	addss  xmm0,DWORD PTR [rax+0x0]
    5c12:	00 
    5c13:	f3 0f 58 88 00 00 00 	addss  xmm1,DWORD PTR [rax+0x0]
    5c1a:	00 
    5c1b:	f3 0f 11 88 00 00 00 	movss  DWORD PTR [rax+0x0],xmm1
    5c22:	00 
    5c23:	f3 0f 59 80 00 00 00 	mulss  xmm0,DWORD PTR [rax+0x0]
    5c2a:	00 
    5c2b:	f3 0f 11 80 00 00 00 	movss  DWORD PTR [rax+0x0],xmm0
    5c32:	00 
    5c33:	f3 0f 10 88 00 00 00 	movss  xmm1,DWORD PTR [rax+0x0]
    5c3a:	00 
    5c3b:	f3 0f 58 88 00 00 00 	addss  xmm1,DWORD PTR [rax+0x0]
    5c42:	00 
    5c43:	f3 0f 58 80 00 00 00 	addss  xmm0,DWORD PTR [rax+0x0]
    5c4a:	00 
    5c4b:	f3 0f 59 88 00 00 00 	mulss  xmm1,DWORD PTR [rax+0x0]
    5c52:	00 
    5c53:	f3 0f 11 80 00 00 00 	movss  DWORD PTR [rax+0x0],xmm0
    5c5a:	00 
    5c5b:	f3 0f 10 80 00 00 00 	movss  xmm0,DWORD PTR [rax+0x0]
    5c62:	00 
    5c63:	f3 0f 58 80 00 00 00 	addss  xmm0,DWORD PTR [rax+0x0]
    5c6a:	00 
    5c6b:	f3 0f 11 88 00 00 00 	movss  DWORD PTR [rax+0x0],xmm1
    5c72:	00 
    5c73:	f3 0f 58 88 00 00 00 	addss  xmm1,DWORD PTR [rax+0x0]
    5c7a:	00 
    5c7b:	f3 0f 11 88 00 00 00 	movss  DWORD PTR [rax+0x0],xmm1
    5c82:	00 
    5c83:	f3 0f 59 80 00 00 00 	mulss  xmm0,DWORD PTR [rax+0x0]
    5c8a:	00 
    5c8b:	f3 0f 11 80 00 00 00 	movss  DWORD PTR [rax+0x0],xmm0
    5c92:	00 
    5c93:	f3 0f 10 88 00 00 00 	movss  xmm1,DWORD PTR [rax+0x0]
    5c9a:	00 
    5c9b:	f3 0f 58 88 00 00 00 	addss  xmm1,DWORD PTR [rax+0x0]
    5ca2:	00 
    5ca3:	f3 0f 58 80 00 00 00 	addss  xmm0,DWORD PTR [rax+0x0]
    5caa:	00 
    5cab:	f3 0f 11 80 00 00 00 	movss  DWORD PTR [rax+0x0],xmm0
    5cb2:	00 
    5cb3:	f3 0f 59 88 00 00 00 	mulss  xmm1,DWORD PTR [rax+0x0]
    5cba:	00 
    5cbb:	f3 0f 11 88 00 00 00 	movss  DWORD PTR [rax+0x0],xmm1
    5cc2:	00 
    5cc3:	f3 0f 10 80 00 00 00 	movss  xmm0,DWORD PTR [rax+0x0]
    5cca:	00 
    5ccb:	f3 0f 58 80 00 00 00 	addss  xmm0,DWORD PTR [rax+0x0]
    5cd2:	00 
    5cd3:	f3 0f 58 88 00 00 00 	addss  xmm1,DWORD PTR [rax+0x0]
    5cda:	00 
    5cdb:	f3 0f 11 88 00 00 00 	movss  DWORD PTR [rax+0x0],xmm1
    5ce2:	00 
    5ce3:	48 83 c0 20          	add    rax,0x20
    5ce7:	0f 85 76 fe ff ff    	jne    5b63 <s2251+0x27>
    5ced:	bf 00 00 00 00       	mov    edi,0x0
    5cf2:	be 00 00 00 00       	mov    esi,0x0
    5cf7:	ba 00 00 00 00       	mov    edx,0x0
    5cfc:	b9 00 00 00 00       	mov    ecx,0x0
    5d01:	41 b8 00 00 00 00    	mov    r8d,0x0
    5d07:	41 b9 00 00 00 00    	mov    r9d,0x0
    5d0d:	0f 57 c0             	xorps  xmm0,xmm0
    5d10:	68 00 00 00 00       	push   0x0
    5d15:	68 00 00 00 00       	push   0x0
    5d1a:	e8 00 00 00 00       	call   5d1f <s2251+0x1e3>
    5d1f:	48 83 c4 10          	add    rsp,0x10
    5d23:	ff c3                	inc    ebx
    5d25:	81 fb a0 86 01 00    	cmp    ebx,0x186a0
    5d2b:	0f 85 28 fe ff ff    	jne    5b59 <s2251+0x1d>
    5d31:	49 83 c6 10          	add    r14,0x10
    5d35:	4c 89 f7             	mov    rdi,r14
    5d38:	31 f6                	xor    esi,esi
    5d3a:	e8 00 00 00 00       	call   5d3f <s2251+0x203>
    5d3f:	bf 00 00 00 00       	mov    edi,0x0
    5d44:	48 83 c4 08          	add    rsp,0x8
    5d48:	5b                   	pop    rbx
    5d49:	41 5e                	pop    r14
    5d4b:	e9 00 00 00 00       	jmp    5d50 <s3251>

0000000000005d50 <s3251>:
    5d50:	41 56                	push   r14
    5d52:	53                   	push   rbx
    5d53:	50                   	push   rax
    5d54:	49 89 fe             	mov    r14,rdi
    5d57:	bf 00 00 00 00       	mov    edi,0x0
    5d5c:	e8 00 00 00 00       	call   5d61 <s3251+0x11>
    5d61:	31 db                	xor    ebx,ebx
    5d63:	4c 89 f7             	mov    rdi,r14
    5d66:	31 f6                	xor    esi,esi
    5d68:	e8 00 00 00 00       	call   5d6d <s3251+0x1d>
    5d6d:	f3 0f 10 05 00 00 00 	movss  xmm0,DWORD PTR [rip+0x0]        # 5d75 <s3251+0x25>
    5d74:	00 
    5d75:	31 c0                	xor    eax,eax
    5d77:	f3 0f 10 88 00 00 00 	movss  xmm1,DWORD PTR [rax+0x0]
    5d7e:	00 
    5d7f:	f3 0f 10 90 00 00 00 	movss  xmm2,DWORD PTR [rax+0x0]
    5d86:	00 
    5d87:	f3 0f 58 d1          	addss  xmm2,xmm1
    5d8b:	f3 0f 11 90 00 00 00 	movss  DWORD PTR [rax+0x0],xmm2
    5d92:	00 
    5d93:	f3 0f 10 98 00 00 00 	movss  xmm3,DWORD PTR [rax+0x0]
    5d9a:	00 
    5d9b:	f3 0f 59 cb          	mulss  xmm1,xmm3
    5d9f:	f3 0f 11 88 00 00 00 	movss  DWORD PTR [rax+0x0],xmm1
    5da6:	00 
    5da7:	f3 0f 59 c3          	mulss  xmm0,xmm3
    5dab:	f3 0f 11 80 00 00 00 	movss  DWORD PTR [rax+0x0],xmm0
    5db2:	00 
    5db3:	f3 0f 10 80 00 00 00 	movss  xmm0,DWORD PTR [rax+0x0]
    5dba:	00 
    5dbb:	f3 0f 10 88 00 00 00 	movss  xmm1,DWORD PTR [rax+0x0]
    5dc2:	00 
    5dc3:	f3 0f 58 c8          	addss  xmm1,xmm0
    5dc7:	f3 0f 11 88 00 00 00 	movss  DWORD PTR [rax+0x0],xmm1
    5dce:	00 
    5dcf:	f3 0f 10 98 00 00 00 	movss  xmm3,DWORD PTR [rax+0x0]
    5dd6:	00 
    5dd7:	f3 0f 59 c3          	mulss  xmm0,xmm3
    5ddb:	f3 0f 11 80 00 00 00 	movss  DWORD PTR [rax+0x0],xmm0
    5de2:	00 
    5de3:	f3 0f 59 d3          	mulss  xmm2,xmm3
    5de7:	f3 0f 11 90 00 00 00 	movss  DWORD PTR [rax+0x0],xmm2
    5dee:	00 
    5def:	f3 0f 10 80 00 00 00 	movss  xmm0,DWORD PTR [rax+0x0]
    5df6:	00 
    5df7:	f3 0f 10 90 00 00 00 	movss  xmm2,DWORD PTR [rax+0x0]
    5dfe:	00 
    5dff:	f3 0f 58 d0          	addss  xmm2,xmm0
    5e03:	f3 0f 11 90 00 00 00 	movss  DWORD PTR [rax+0x0],xmm2
    5e0a:	00 
    5e0b:	f3 0f 10 98 00 00 00 	movss  xmm3,DWORD PTR [rax+0x0]
    5e12:	00 
    5e13:	f3 0f 59 c3          	mulss  xmm0,xmm3
    5e17:	f3 0f 11 80 00 00 00 	movss  DWORD PTR [rax+0x0],xmm0
    5e1e:	00 
    5e1f:	f3 0f 59 cb          	mulss  xmm1,xmm3
    5e23:	f3 0f 11 88 00 00 00 	movss  DWORD PTR [rax+0x0],xmm1
    5e2a:	00 
    5e2b:	f3 0f 10 80 00 00 00 	movss  xmm0,DWORD PTR [rax+0x0]
    5e32:	00 
    5e33:	f3 0f 10 88 00 00 00 	movss  xmm1,DWORD PTR [rax+0x0]
    5e3a:	00 
    5e3b:	f3 0f 58 c8          	addss  xmm1,xmm0
    5e3f:	f3 0f 11 88 00 00 00 	movss  DWORD PTR [rax+0x0],xmm1
    5e46:	00 
    5e47:	f3 0f 10 98 00 00 00 	movss  xmm3,DWORD PTR [rax+0x0]
    5e4e:	00 
    5e4f:	f3 0f 59 c3          	mulss  xmm0,xmm3
    5e53:	f3 0f 11 80 00 00 00 	movss  DWORD PTR [rax+0x0],xmm0
    5e5a:	00 
    5e5b:	f3 0f 59 d3          	mulss  xmm2,xmm3
    5e5f:	f3 0f 11 90 00 00 00 	movss  DWORD PTR [rax+0x0],xmm2
    5e66:	00 
    5e67:	f3 0f 10 80 00 00 00 	movss  xmm0,DWORD PTR [rax+0x0]
    5e6e:	00 
    5e6f:	f3 0f 10 90 00 00 00 	movss  xmm2,DWORD PTR [rax+0x0]
    5e76:	00 
    5e77:	f3 0f 58 d0          	addss  xmm2,xmm0
    5e7b:	f3 0f 11 90 00 00 00 	movss  DWORD PTR [rax+0x0],xmm2
    5e82:	00 
    5e83:	f3 0f 10 98 00 00 00 	movss  xmm3,DWORD PTR [rax+0x0]
    5e8a:	00 
    5e8b:	f3 0f 59 c3          	mulss  xmm0,xmm3
    5e8f:	f3 0f 11 80 00 00 00 	movss  DWORD PTR [rax+0x0],xmm0
    5e96:	00 
    5e97:	f3 0f 59 cb          	mulss  xmm1,xmm3
    5e9b:	f3 0f 11 88 00 00 00 	movss  DWORD PTR [rax+0x0],xmm1
    5ea2:	00 
    5ea3:	f3 0f 10 80 00 00 00 	movss  xmm0,DWORD PTR [rax+0x0]
    5eaa:	00 
    5eab:	f3 0f 10 98 00 00 00 	movss  xmm3,DWORD PTR [rax+0x0]
    5eb2:	00 
    5eb3:	f3 0f 58 d8          	addss  xmm3,xmm0
    5eb7:	f3 0f 11 98 00 00 00 	movss  DWORD PTR [rax+0x0],xmm3
    5ebe:	00 
    5ebf:	f3 0f 10 88 00 00 00 	movss  xmm1,DWORD PTR [rax+0x0]
    5ec6:	00 
    5ec7:	f3 0f 59 c1          	mulss  xmm0,xmm1
    5ecb:	f3 0f 11 80 00 00 00 	movss  DWORD PTR [rax+0x0],xmm0
    5ed2:	00 
    5ed3:	f3 0f 59 d1          	mulss  xmm2,xmm1
    5ed7:	f3 0f 11 90 00 00 00 	movss  DWORD PTR [rax+0x0],xmm2
    5ede:	00 
    5edf:	f3 0f 10 80 00 00 00 	movss  xmm0,DWORD PTR [rax+0x0]
    5ee6:	00 
    5ee7:	f3 0f 10 88 00 00 00 	movss  xmm1,DWORD PTR [rax+0x0]
    5eee:	00 
    5eef:	f3 0f 58 c8          	addss  xmm1,xmm0
    5ef3:	f3 0f 11 88 00 00 00 	movss  DWORD PTR [rax+0x0],xmm1
    5efa:	00 
    5efb:	f3 0f 10 90 00 00 00 	movss  xmm2,DWORD PTR [rax+0x0]
    5f02:	00 
    5f03:	f3 0f 59 c2          	mulss  xmm0,xmm2
    5f07:	f3 0f 11 80 00 00 00 	movss  DWORD PTR [rax+0x0],xmm0
    5f0e:	00 
    5f0f:	f3 0f 59 da          	mulss  xmm3,xmm2
    5f13:	f3 0f 11 98 00 00 00 	movss  DWORD PTR [rax+0x0],xmm3
    5f1a:	00 
    5f1b:	48 3d e0 f3 01 00    	cmp    rax,0x1f3e0
    5f21:	74 45                	je     5f68 <s3251+0x218>
    5f23:	f3 0f 10 90 00 00 00 	movss  xmm2,DWORD PTR [rax+0x0]
    5f2a:	00 
    5f2b:	f3 0f 10 80 00 00 00 	movss  xmm0,DWORD PTR [rax+0x0]
    5f32:	00 
    5f33:	f3 0f 58 c2          	addss  xmm0,xmm2
    5f37:	f3 0f 11 80 00 00 00 	movss  DWORD PTR [rax+0x0],xmm0
    5f3e:	00 
    5f3f:	f3 0f 10 98 00 00 00 	movss  xmm3,DWORD PTR [rax+0x0]
    5f46:	00 
    5f47:	f3 0f 59 d3          	mulss  xmm2,xmm3
    5f4b:	f3 0f 11 90 00 00 00 	movss  DWORD PTR [rax+0x0],xmm2
    5f52:	00 
    5f53:	f3 0f 59 cb          	mulss  xmm1,xmm3
    5f57:	f3 0f 11 88 00 00 00 	movss  DWORD PTR [rax+0x0],xmm1
    5f5e:	00 
    5f5f:	48 83 c0 20          	add    rax,0x20
    5f63:	e9 0f fe ff ff       	jmp    5d77 <s3251+0x27>
    5f68:	bf 00 00 00 00       	mov    edi,0x0
    5f6d:	be 00 00 00 00       	mov    esi,0x0
    5f72:	ba 00 00 00 00       	mov    edx,0x0
    5f77:	b9 00 00 00 00       	mov    ecx,0x0
    5f7c:	41 b8 00 00 00 00    	mov    r8d,0x0
    5f82:	41 b9 00 00 00 00    	mov    r9d,0x0
    5f88:	0f 57 c0             	xorps  xmm0,xmm0
    5f8b:	68 00 00 00 00       	push   0x0
    5f90:	68 00 00 00 00       	push   0x0
    5f95:	e8 00 00 00 00       	call   5f9a <s3251+0x24a>
    5f9a:	48 83 c4 10          	add    rsp,0x10
    5f9e:	ff c3                	inc    ebx
    5fa0:	81 fb a0 86 01 00    	cmp    ebx,0x186a0
    5fa6:	0f 85 c1 fd ff ff    	jne    5d6d <s3251+0x1d>
    5fac:	49 83 c6 10          	add    r14,0x10
    5fb0:	4c 89 f7             	mov    rdi,r14
    5fb3:	31 f6                	xor    esi,esi
    5fb5:	e8 00 00 00 00       	call   5fba <s3251+0x26a>
    5fba:	bf 00 00 00 00       	mov    edi,0x0
    5fbf:	48 83 c4 08          	add    rsp,0x8
    5fc3:	5b                   	pop    rbx
    5fc4:	41 5e                	pop    r14
    5fc6:	e9 00 00 00 00       	jmp    5fcb <s252>

0000000000005fcb <s252>:
    5fcb:	41 56                	push   r14
    5fcd:	53                   	push   rbx
    5fce:	50                   	push   rax
    5fcf:	49 89 fe             	mov    r14,rdi
    5fd2:	bf 00 00 00 00       	mov    edi,0x0
    5fd7:	e8 00 00 00 00       	call   5fdc <s252+0x11>
    5fdc:	31 db                	xor    ebx,ebx
    5fde:	4c 89 f7             	mov    rdi,r14
    5fe1:	31 f6                	xor    esi,esi
    5fe3:	e8 00 00 00 00       	call   5fe8 <s252+0x1d>
    5fe8:	48 c7 c0 00 0c fe ff 	mov    rax,0xfffffffffffe0c00
    5fef:	0f 57 c0             	xorps  xmm0,xmm0
    5ff2:	f3 0f 10 88 00 00 00 	movss  xmm1,DWORD PTR [rax+0x0]
    5ff9:	00 
    5ffa:	f3 0f 59 88 00 00 00 	mulss  xmm1,DWORD PTR [rax+0x0]
    6001:	00 
    6002:	f3 0f 58 c1          	addss  xmm0,xmm1
    6006:	f3 0f 11 80 00 00 00 	movss  DWORD PTR [rax+0x0],xmm0
    600d:	00 
    600e:	f3 0f 10 80 00 00 00 	movss  xmm0,DWORD PTR [rax+0x0]
    6015:	00 
    6016:	f3 0f 59 80 00 00 00 	mulss  xmm0,DWORD PTR [rax+0x0]
    601d:	00 
    601e:	f3 0f 58 c8          	addss  xmm1,xmm0
    6022:	f3 0f 11 88 00 00 00 	movss  DWORD PTR [rax+0x0],xmm1
    6029:	00 
    602a:	f3 0f 10 88 00 00 00 	movss  xmm1,DWORD PTR [rax+0x0]
    6031:	00 
    6032:	f3 0f 59 88 00 00 00 	mulss  xmm1,DWORD PTR [rax+0x0]
    6039:	00 
    603a:	f3 0f 58 c1          	addss  xmm0,xmm1
    603e:	f3 0f 10 90 00 00 00 	movss  xmm2,DWORD PTR [rax+0x0]
    6045:	00 
    6046:	f3 0f 59 90 00 00 00 	mulss  xmm2,DWORD PTR [rax+0x0]
    604d:	00 
    604e:	f3 0f 11 80 00 00 00 	movss  DWORD PTR [rax+0x0],xmm0
    6055:	00 
    6056:	f3 0f 58 ca          	addss  xmm1,xmm2
    605a:	f3 0f 11 88 00 00 00 	movss  DWORD PTR [rax+0x0],xmm1
    6061:	00 
    6062:	f3 0f 10 80 00 00 00 	movss  xmm0,DWORD PTR [rax+0x0]
    6069:	00 
    606a:	f3 0f 59 80 00 00 00 	mulss  xmm0,DWORD PTR [rax+0x0]
    6071:	00 
    6072:	f3 0f 58 d0          	addss  xmm2,xmm0
    6076:	f3 0f 11 90 00 00 00 	movss  DWORD PTR [rax+0x0],xmm2
    607d:	00 
    607e:	f3 0f 10 88 00 00 00 	movss  xmm1,DWORD PTR [rax+0x0]
    6085:	00 
    6086:	f3 0f 59 88 00 00 00 	mulss  xmm1,DWORD PTR [rax+0x0]
    608d:	00 
    608e:	f3 0f 58 c1          	addss  xmm0,xmm1
    6092:	f3 0f 11 80 00 00 00 	movss  DWORD PTR [rax+0x0],xmm0
    6099:	00 
    609a:	f3 0f 10 90 00 00 00 	movss  xmm2,DWORD PTR [rax+0x0]
    60a1:	00 
    60a2:	f3 0f 59 90 00 00 00 	mulss  xmm2,DWORD PTR [rax+0x0]
    60a9:	00 
    60aa:	f3 0f 58 ca          	addss  xmm1,xmm2
    60ae:	f3 0f 10 80 00 00 00 	movss  xmm0,DWORD PTR [rax+0x0]
    60b5:	00 
    60b6:	f3 0f 59 80 00 00 00 	mulss  xmm0,DWORD PTR [rax+0x0]
    60bd:	00 
    60be:	f3 0f 11 88 00 00 00 	movss  DWORD PTR [rax+0x0],xmm1
    60c5:	00 
    60c6:	f3 0f 58 d0          	addss  xmm2,xmm0
    60ca:	f3 0f 11 90 00 00 00 	movss  DWORD PTR [rax+0x0],xmm2
    60d1:	00 
    60d2:	48 83 c0 20          	add    rax,0x20
    60d6:	0f 85 16 ff ff ff    	jne    5ff2 <s252+0x27>
    60dc:	bf 00 00 00 00       	mov    edi,0x0
    60e1:	be 00 00 00 00       	mov    esi,0x0
    60e6:	ba 00 00 00 00       	mov    edx,0x0
    60eb:	b9 00 00 00 00       	mov    ecx,0x0
    60f0:	41 b8 00 00 00 00    	mov    r8d,0x0
    60f6:	41 b9 00 00 00 00    	mov    r9d,0x0
    60fc:	0f 57 c0             	xorps  xmm0,xmm0
    60ff:	68 00 00 00 00       	push   0x0
    6104:	68 00 00 00 00       	push   0x0
    6109:	e8 00 00 00 00       	call   610e <s252+0x143>
    610e:	48 83 c4 10          	add    rsp,0x10
    6112:	ff c3                	inc    ebx
    6114:	81 fb a0 86 01 00    	cmp    ebx,0x186a0
    611a:	0f 85 c8 fe ff ff    	jne    5fe8 <s252+0x1d>
    6120:	49 83 c6 10          	add    r14,0x10
    6124:	4c 89 f7             	mov    rdi,r14
    6127:	31 f6                	xor    esi,esi
    6129:	e8 00 00 00 00       	call   612e <s252+0x163>
    612e:	bf 00 00 00 00       	mov    edi,0x0
    6133:	48 83 c4 08          	add    rsp,0x8
    6137:	5b                   	pop    rbx
    6138:	41 5e                	pop    r14
    613a:	e9 00 00 00 00       	jmp    613f <s253>

000000000000613f <s253>:
    613f:	41 56                	push   r14
    6141:	53                   	push   rbx
    6142:	50                   	push   rax
    6143:	49 89 fe             	mov    r14,rdi
    6146:	bf 00 00 00 00       	mov    edi,0x0
    614b:	e8 00 00 00 00       	call   6150 <s253+0x11>
    6150:	31 db                	xor    ebx,ebx
    6152:	4c 89 f7             	mov    rdi,r14
    6155:	31 f6                	xor    esi,esi
    6157:	e8 00 00 00 00       	call   615c <s253+0x1d>
    615c:	48 c7 c0 00 0c fe ff 	mov    rax,0xfffffffffffe0c00
    6163:	f3 0f 10 80 00 00 00 	movss  xmm0,DWORD PTR [rax+0x0]
    616a:	00 
    616b:	f3 0f 10 88 00 00 00 	movss  xmm1,DWORD PTR [rax+0x0]
    6172:	00 
    6173:	0f 2e c1             	ucomiss xmm0,xmm1
    6176:	76 28                	jbe    61a0 <s253+0x61>
    6178:	f3 0f 59 88 00 00 00 	mulss  xmm1,DWORD PTR [rax+0x0]
    617f:	00 
    6180:	f3 0f 5c c1          	subss  xmm0,xmm1
    6184:	f3 0f 10 88 00 00 00 	movss  xmm1,DWORD PTR [rax+0x0]
    618b:	00 
    618c:	f3 0f 58 c8          	addss  xmm1,xmm0
    6190:	f3 0f 11 88 00 00 00 	movss  DWORD PTR [rax+0x0],xmm1
    6197:	00 
    6198:	f3 0f 11 80 00 00 00 	movss  DWORD PTR [rax+0x0],xmm0
    619f:	00 
    61a0:	f3 0f 10 80 00 00 00 	movss  xmm0,DWORD PTR [rax+0x0]
    61a7:	00 
    61a8:	f3 0f 10 88 00 00 00 	movss  xmm1,DWORD PTR [rax+0x0]
    61af:	00 
    61b0:	0f 2e c1             	ucomiss xmm0,xmm1
    61b3:	76 28                	jbe    61dd <s253+0x9e>
    61b5:	f3 0f 59 88 00 00 00 	mulss  xmm1,DWORD PTR [rax+0x0]
    61bc:	00 
    61bd:	f3 0f 5c c1          	subss  xmm0,xmm1
    61c1:	f3 0f 10 88 00 00 00 	movss  xmm1,DWORD PTR [rax+0x0]
    61c8:	00 
    61c9:	f3 0f 58 c8          	addss  xmm1,xmm0
    61cd:	f3 0f 11 88 00 00 00 	movss  DWORD PTR [rax+0x0],xmm1
    61d4:	00 
    61d5:	f3 0f 11 80 00 00 00 	movss  DWORD PTR [rax+0x0],xmm0
    61dc:	00 
    61dd:	f3 0f 10 80 00 00 00 	movss  xmm0,DWORD PTR [rax+0x0]
    61e4:	00 
    61e5:	f3 0f 10 88 00 00 00 	movss  xmm1,DWORD PTR [rax+0x0]
    61ec:	00 
    61ed:	0f 2e c1             	ucomiss xmm0,xmm1
    61f0:	76 28                	jbe    621a <s253+0xdb>
    61f2:	f3 0f 59 88 00 00 00 	mulss  xmm1,DWORD PTR [rax+0x0]
    61f9:	00 
    61fa:	f3 0f 5c c1          	subss  xmm0,xmm1
    61fe:	f3 0f 10 88 00 00 00 	movss  xmm1,DWORD PTR [rax+0x0]
    6205:	00 
    6206:	f3 0f 58 c8          	addss  xmm1,xmm0
    620a:	f3 0f 11 88 00 00 00 	movss  DWORD PTR [rax+0x0],xmm1
    6211:	00 
    6212:	f3 0f 11 80 00 00 00 	movss  DWORD PTR [rax+0x0],xmm0
    6219:	00 
    621a:	f3 0f 10 80 00 00 00 	movss  xmm0,DWORD PTR [rax+0x0]
    6221:	00 
    6222:	f3 0f 10 88 00 00 00 	movss  xmm1,DWORD PTR [rax+0x0]
    6229:	00 
    622a:	0f 2e c1             	ucomiss xmm0,xmm1
    622d:	76 28                	jbe    6257 <s253+0x118>
    622f:	f3 0f 59 88 00 00 00 	mulss  xmm1,DWORD PTR [rax+0x0]
    6236:	00 
    6237:	f3 0f 5c c1          	subss  xmm0,xmm1
    623b:	f3 0f 10 88 00 00 00 	movss  xmm1,DWORD PTR [rax+0x0]
    6242:	00 
    6243:	f3 0f 58 c8          	addss  xmm1,xmm0
    6247:	f3 0f 11 88 00 00 00 	movss  DWORD PTR [rax+0x0],xmm1
    624e:	00 
    624f:	f3 0f 11 80 00 00 00 	movss  DWORD PTR [rax+0x0],xmm0
    6256:	00 
    6257:	f3 0f 10 80 00 00 00 	movss  xmm0,DWORD PTR [rax+0x0]
    625e:	00 
    625f:	f3 0f 10 88 00 00 00 	movss  xmm1,DWORD PTR [rax+0x0]
    6266:	00 
    6267:	0f 2e c1             	ucomiss xmm0,xmm1
    626a:	76 28                	jbe    6294 <s253+0x155>
    626c:	f3 0f 59 88 00 00 00 	mulss  xmm1,DWORD PTR [rax+0x0]
    6273:	00 
    6274:	f3 0f 5c c1          	subss  xmm0,xmm1
    6278:	f3 0f 10 88 00 00 00 	movss  xmm1,DWORD PTR [rax+0x0]
    627f:	00 
    6280:	f3 0f 58 c8          	addss  xmm1,xmm0
    6284:	f3 0f 11 88 00 00 00 	movss  DWORD PTR [rax+0x0],xmm1
    628b:	00 
    628c:	f3 0f 11 80 00 00 00 	movss  DWORD PTR [rax+0x0],xmm0
    6293:	00 
    6294:	f3 0f 10 80 00 00 00 	movss  xmm0,DWORD PTR [rax+0x0]
    629b:	00 
    629c:	f3 0f 10 88 00 00 00 	movss  xmm1,DWORD PTR [rax+0x0]
    62a3:	00 
    62a4:	0f 2e c1             	ucomiss xmm0,xmm1
    62a7:	76 28                	jbe    62d1 <s253+0x192>
    62a9:	f3 0f 59 88 00 00 00 	mulss  xmm1,DWORD PTR [rax+0x0]
    62b0:	00 
    62b1:	f3 0f 5c c1          	subss  xmm0,xmm1
    62b5:	f3 0f 10 88 00 00 00 	movss  xmm1,DWORD PTR [rax+0x0]
    62bc:	00 
    62bd:	f3 0f 58 c8          	addss  xmm1,xmm0
    62c1:	f3 0f 11 88 00 00 00 	movss  DWORD PTR [rax+0x0],xmm1
    62c8:	00 
    62c9:	f3 0f 11 80 00 00 00 	movss  DWORD PTR [rax+0x0],xmm0
    62d0:	00 
    62d1:	f3 0f 10 80 00 00 00 	movss  xmm0,DWORD PTR [rax+0x0]
    62d8:	00 
    62d9:	f3 0f 10 88 00 00 00 	movss  xmm1,DWORD PTR [rax+0x0]
    62e0:	00 
    62e1:	0f 2e c1             	ucomiss xmm0,xmm1
    62e4:	76 28                	jbe    630e <s253+0x1cf>
    62e6:	f3 0f 59 88 00 00 00 	mulss  xmm1,DWORD PTR [rax+0x0]
    62ed:	00 
    62ee:	f3 0f 5c c1          	subss  xmm0,xmm1
    62f2:	f3 0f 10 88 00 00 00 	movss  xmm1,DWORD PTR [rax+0x0]
    62f9:	00 
    62fa:	f3 0f 58 c8          	addss  xmm1,xmm0
    62fe:	f3 0f 11 88 00 00 00 	movss  DWORD PTR [rax+0x0],xmm1
    6305:	00 
    6306:	f3 0f 11 80 00 00 00 	movss  DWORD PTR [rax+0x0],xmm0
    630d:	00 
    630e:	f3 0f 10 80 00 00 00 	movss  xmm0,DWORD PTR [rax+0x0]
    6315:	00 
    6316:	f3 0f 10 88 00 00 00 	movss  xmm1,DWORD PTR [rax+0x0]
    631d:	00 
    631e:	0f 2e c1             	ucomiss xmm0,xmm1
    6321:	76 28                	jbe    634b <s253+0x20c>
    6323:	f3 0f 59 88 00 00 00 	mulss  xmm1,DWORD PTR [rax+0x0]
    632a:	00 
    632b:	f3 0f 5c c1          	subss  xmm0,xmm1
    632f:	f3 0f 10 88 00 00 00 	movss  xmm1,DWORD PTR [rax+0x0]
    6336:	00 
    6337:	f3 0f 58 c8          	addss  xmm1,xmm0
    633b:	f3 0f 11 88 00 00 00 	movss  DWORD PTR [rax+0x0],xmm1
    6342:	00 
    6343:	f3 0f 11 80 00 00 00 	movss  DWORD PTR [rax+0x0],xmm0
    634a:	00 
    634b:	48 83 c0 20          	add    rax,0x20
    634f:	0f 85 0e fe ff ff    	jne    6163 <s253+0x24>
    6355:	bf 00 00 00 00       	mov    edi,0x0
    635a:	be 00 00 00 00       	mov    esi,0x0
    635f:	ba 00 00 00 00       	mov    edx,0x0
    6364:	b9 00 00 00 00       	mov    ecx,0x0
    6369:	41 b8 00 00 00 00    	mov    r8d,0x0
    636f:	41 b9 00 00 00 00    	mov    r9d,0x0
    6375:	0f 57 c0             	xorps  xmm0,xmm0
    6378:	68 00 00 00 00       	push   0x0
    637d:	68 00 00 00 00       	push   0x0
    6382:	e8 00 00 00 00       	call   6387 <s253+0x248>
    6387:	48 83 c4 10          	add    rsp,0x10
    638b:	ff c3                	inc    ebx
    638d:	81 fb a0 86 01 00    	cmp    ebx,0x186a0
    6393:	0f 85 c3 fd ff ff    	jne    615c <s253+0x1d>
    6399:	49 83 c6 10          	add    r14,0x10
    639d:	4c 89 f7             	mov    rdi,r14
    63a0:	31 f6                	xor    esi,esi
    63a2:	e8 00 00 00 00       	call   63a7 <s253+0x268>
    63a7:	bf 00 00 00 00       	mov    edi,0x0
    63ac:	48 83 c4 08          	add    rsp,0x8
    63b0:	5b                   	pop    rbx
    63b1:	41 5e                	pop    r14
    63b3:	e9 00 00 00 00       	jmp    63b8 <s254>

00000000000063b8 <s254>:
    63b8:	41 56                	push   r14
    63ba:	53                   	push   rbx
    63bb:	50                   	push   rax
    63bc:	49 89 fe             	mov    r14,rdi
    63bf:	bf 00 00 00 00       	mov    edi,0x0
    63c4:	e8 00 00 00 00       	call   63c9 <s254+0x11>
    63c9:	31 db                	xor    ebx,ebx
    63cb:	4c 89 f7             	mov    rdi,r14
    63ce:	31 f6                	xor    esi,esi
    63d0:	e8 00 00 00 00       	call   63d5 <s254+0x1d>
    63d5:	f3 0f 10 15 00 00 00 	movss  xmm2,DWORD PTR [rip+0x0]        # 63dd <s254+0x25>
    63dc:	00 
    63dd:	48 c7 c0 00 0c fe ff 	mov    rax,0xfffffffffffe0c00
    63e4:	f3 0f 10 05 00 00 00 	movss  xmm0,DWORD PTR [rip+0x0]        # 63ec <s254+0x34>
    63eb:	00 
    63ec:	f3 0f 10 88 00 00 00 	movss  xmm1,DWORD PTR [rax+0x0]
    63f3:	00 
    63f4:	f3 0f 58 c1          	addss  xmm0,xmm1
    63f8:	f3 0f 59 c2          	mulss  xmm0,xmm2
    63fc:	f3 0f 11 80 00 00 00 	movss  DWORD PTR [rax+0x0],xmm0
    6403:	00 
    6404:	f3 0f 10 80 00 00 00 	movss  xmm0,DWORD PTR [rax+0x0]
    640b:	00 
    640c:	f3 0f 58 c8          	addss  xmm1,xmm0
    6410:	f3 0f 59 ca          	mulss  xmm1,xmm2
    6414:	f3 0f 11 88 00 00 00 	movss  DWORD PTR [rax+0x0],xmm1
    641b:	00 
    641c:	f3 0f 10 88 00 00 00 	movss  xmm1,DWORD PTR [rax+0x0]
    6423:	00 
    6424:	f3 0f 58 c1          	addss  xmm0,xmm1
    6428:	f3 0f 59 c2          	mulss  xmm0,xmm2
    642c:	f3 0f 11 80 00 00 00 	movss  DWORD PTR [rax+0x0],xmm0
    6433:	00 
    6434:	f3 0f 10 80 00 00 00 	movss  xmm0,DWORD PTR [rax+0x0]
    643b:	00 
    643c:	f3 0f 58 c8          	addss  xmm1,xmm0
    6440:	f3 0f 59 ca          	mulss  xmm1,xmm2
    6444:	f3 0f 11 88 00 00 00 	movss  DWORD PTR [rax+0x0],xmm1
    644b:	00 
    644c:	f3 0f 10 88 00 00 00 	movss  xmm1,DWORD PTR [rax+0x0]
    6453:	00 
    6454:	f3 0f 58 c1          	addss  xmm0,xmm1
    6458:	f3 0f 59 c2          	mulss  xmm0,xmm2
    645c:	f3 0f 11 80 00 00 00 	movss  DWORD PTR [rax+0x0],xmm0
    6463:	00 
    6464:	f3 0f 10 80 00 00 00 	movss  xmm0,DWORD PTR [rax+0x0]
    646b:	00 
    646c:	f3 0f 58 c8          	addss  xmm1,xmm0
    6470:	f3 0f 59 ca          	mulss  xmm1,xmm2
    6474:	f3 0f 11 88 00 00 00 	movss  DWORD PTR [rax+0x0],xmm1
    647b:	00 
    647c:	f3 0f 10 88 00 00 00 	movss  xmm1,DWORD PTR [rax+0x0]
    6483:	00 
    6484:	f3 0f 58 c1          	addss  xmm0,xmm1
    6488:	f3 0f 59 c2          	mulss  xmm0,xmm2
    648c:	f3 0f 11 80 00 00 00 	movss  DWORD PTR [rax+0x0],xmm0
    6493:	00 
    6494:	f3 0f 10 80 00 00 00 	movss  xmm0,DWORD PTR [rax+0x0]
    649b:	00 
    649c:	f3 0f 58 c8          	addss  xmm1,xmm0
    64a0:	f3 0f 59 ca          	mulss  xmm1,xmm2
    64a4:	f3 0f 11 88 00 00 00 	movss  DWORD PTR [rax+0x0],xmm1
    64ab:	00 
    64ac:	48 83 c0 20          	add    rax,0x20
    64b0:	0f 85 36 ff ff ff    	jne    63ec <s254+0x34>
    64b6:	bf 00 00 00 00       	mov    edi,0x0
    64bb:	be 00 00 00 00       	mov    esi,0x0
    64c0:	ba 00 00 00 00       	mov    edx,0x0
    64c5:	b9 00 00 00 00       	mov    ecx,0x0
    64ca:	41 b8 00 00 00 00    	mov    r8d,0x0
    64d0:	41 b9 00 00 00 00    	mov    r9d,0x0
    64d6:	0f 57 c0             	xorps  xmm0,xmm0
    64d9:	68 00 00 00 00       	push   0x0
    64de:	68 00 00 00 00       	push   0x0
    64e3:	e8 00 00 00 00       	call   64e8 <s254+0x130>
    64e8:	f3 0f 10 15 00 00 00 	movss  xmm2,DWORD PTR [rip+0x0]        # 64f0 <s254+0x138>
    64ef:	00 
    64f0:	48 83 c4 10          	add    rsp,0x10
    64f4:	ff c3                	inc    ebx
    64f6:	81 fb 80 1a 06 00    	cmp    ebx,0x61a80
    64fc:	0f 85 db fe ff ff    	jne    63dd <s254+0x25>
    6502:	49 83 c6 10          	add    r14,0x10
    6506:	4c 89 f7             	mov    rdi,r14
    6509:	31 f6                	xor    esi,esi
    650b:	e8 00 00 00 00       	call   6510 <s254+0x158>
    6510:	bf 00 00 00 00       	mov    edi,0x0
    6515:	48 83 c4 08          	add    rsp,0x8
    6519:	5b                   	pop    rbx
    651a:	41 5e                	pop    r14
    651c:	e9 00 00 00 00       	jmp    6521 <s255>

0000000000006521 <s255>:
    6521:	41 56                	push   r14
    6523:	53                   	push   rbx
    6524:	50                   	push   rax
    6525:	49 89 fe             	mov    r14,rdi
    6528:	bf 00 00 00 00       	mov    edi,0x0
    652d:	e8 00 00 00 00       	call   6532 <s255+0x11>
    6532:	31 db                	xor    ebx,ebx
    6534:	4c 89 f7             	mov    rdi,r14
    6537:	31 f6                	xor    esi,esi
    6539:	e8 00 00 00 00       	call   653e <s255+0x1d>
    653e:	f3 0f 10 2d 00 00 00 	movss  xmm5,DWORD PTR [rip+0x0]        # 6546 <s255+0x25>
    6545:	00 
    6546:	f3 0f 10 05 00 00 00 	movss  xmm0,DWORD PTR [rip+0x0]        # 654e <s255+0x2d>
    654d:	00 
    654e:	48 c7 c0 00 0c fe ff 	mov    rax,0xfffffffffffe0c00
    6555:	f3 0f 10 0d 00 00 00 	movss  xmm1,DWORD PTR [rip+0x0]        # 655d <s255+0x3c>
    655c:	00 
    655d:	f3 0f 10 90 00 00 00 	movss  xmm2,DWORD PTR [rax+0x0]
    6564:	00 
    6565:	f3 0f 10 98 00 00 00 	movss  xmm3,DWORD PTR [rax+0x0]
    656c:	00 
    656d:	0f 28 e2             	movaps xmm4,xmm2
    6570:	f3 0f 58 e3          	addss  xmm4,xmm3
    6574:	f3 0f 58 e1          	addss  xmm4,xmm1
    6578:	f3 0f 58 ca          	addss  xmm1,xmm2
    657c:	f3 0f 58 c8          	addss  xmm1,xmm0
    6580:	f3 0f 59 cd          	mulss  xmm1,xmm5
    6584:	f3 0f 11 88 00 00 00 	movss  DWORD PTR [rax+0x0],xmm1
    658b:	00 
    658c:	f3 0f 59 e5          	mulss  xmm4,xmm5
    6590:	f3 0f 11 a0 00 00 00 	movss  DWORD PTR [rax+0x0],xmm4
    6597:	00 
    6598:	f3 0f 10 80 00 00 00 	movss  xmm0,DWORD PTR [rax+0x0]
    659f:	00 
    65a0:	f3 0f 10 88 00 00 00 	movss  xmm1,DWORD PTR [rax+0x0]
    65a7:	00 
    65a8:	0f 28 e0             	movaps xmm4,xmm0
    65ab:	f3 0f 58 e1          	addss  xmm4,xmm1
    65af:	f3 0f 58 e3          	addss  xmm4,xmm3
    65b3:	f3 0f 58 d8          	addss  xmm3,xmm0
    65b7:	f3 0f 58 da          	addss  xmm3,xmm2
    65bb:	f3 0f 59 dd          	mulss  xmm3,xmm5
    65bf:	f3 0f 11 98 00 00 00 	movss  DWORD PTR [rax+0x0],xmm3
    65c6:	00 
    65c7:	f3 0f 59 e5          	mulss  xmm4,xmm5
    65cb:	f3 0f 11 a0 00 00 00 	movss  DWORD PTR [rax+0x0],xmm4
    65d2:	00 
    65d3:	f3 0f 10 90 00 00 00 	movss  xmm2,DWORD PTR [rax+0x0]
    65da:	00 
    65db:	f3 0f 10 98 00 00 00 	movss  xmm3,DWORD PTR [rax+0x0]
    65e2:	00 
    65e3:	0f 28 e2             	movaps xmm4,xmm2
    65e6:	f3 0f 58 e3          	addss  xmm4,xmm3
    65ea:	f3 0f 58 e1          	addss  xmm4,xmm1
    65ee:	f3 0f 58 ca          	addss  xmm1,xmm2
    65f2:	f3 0f 58 c8          	addss  xmm1,xmm0
    65f6:	f3 0f 59 cd          	mulss  xmm1,xmm5
    65fa:	f3 0f 11 88 00 00 00 	movss  DWORD PTR [rax+0x0],xmm1
    6601:	00 
    6602:	f3 0f 59 e5          	mulss  xmm4,xmm5
    6606:	f3 0f 11 a0 00 00 00 	movss  DWORD PTR [rax+0x0],xmm4
    660d:	00 
    660e:	f3 0f 10 80 00 00 00 	movss  xmm0,DWORD PTR [rax+0x0]
    6615:	00 
    6616:	f3 0f 10 88 00 00 00 	movss  xmm1,DWORD PTR [rax+0x0]
    661d:	00 
    661e:	0f 28 e0             	movaps xmm4,xmm0
    6621:	f3 0f 58 e1          	addss  xmm4,xmm1
    6625:	f3 0f 58 e3          	addss  xmm4,xmm3
    6629:	f3 0f 58 d8          	addss  xmm3,xmm0
    662d:	f3 0f 58 da          	addss  xmm3,xmm2
    6631:	f3 0f 59 dd          	mulss  xmm3,xmm5
    6635:	f3 0f 11 98 00 00 00 	movss  DWORD PTR [rax+0x0],xmm3
    663c:	00 
    663d:	f3 0f 59 e5          	mulss  xmm4,xmm5
    6641:	f3 0f 11 a0 00 00 00 	movss  DWORD PTR [rax+0x0],xmm4
    6648:	00 
    6649:	48 83 c0 20          	add    rax,0x20
    664d:	0f 85 0a ff ff ff    	jne    655d <s255+0x3c>
    6653:	bf 00 00 00 00       	mov    edi,0x0
    6658:	be 00 00 00 00       	mov    esi,0x0
    665d:	ba 00 00 00 00       	mov    edx,0x0
    6662:	b9 00 00 00 00       	mov    ecx,0x0
    6667:	41 b8 00 00 00 00    	mov    r8d,0x0
    666d:	41 b9 00 00 00 00    	mov    r9d,0x0
    6673:	0f 57 c0             	xorps  xmm0,xmm0
    6676:	68 00 00 00 00       	push   0x0
    667b:	68 00 00 00 00       	push   0x0
    6680:	e8 00 00 00 00       	call   6685 <s255+0x164>
    6685:	f3 0f 10 2d 00 00 00 	movss  xmm5,DWORD PTR [rip+0x0]        # 668d <s255+0x16c>
    668c:	00 
    668d:	48 83 c4 10          	add    rsp,0x10
    6691:	ff c3                	inc    ebx
    6693:	81 fb a0 86 01 00    	cmp    ebx,0x186a0
    6699:	0f 85 a7 fe ff ff    	jne    6546 <s255+0x25>
    669f:	49 83 c6 10          	add    r14,0x10
    66a3:	4c 89 f7             	mov    rdi,r14
    66a6:	31 f6                	xor    esi,esi
    66a8:	e8 00 00 00 00       	call   66ad <s255+0x18c>
    66ad:	bf 00 00 00 00       	mov    edi,0x0
    66b2:	48 83 c4 08          	add    rsp,0x8
    66b6:	5b                   	pop    rbx
    66b7:	41 5e                	pop    r14
    66b9:	e9 00 00 00 00       	jmp    66be <s256>

00000000000066be <s256>:
    66be:	41 56                	push   r14
    66c0:	53                   	push   rbx
    66c1:	50                   	push   rax
    66c2:	49 89 fe             	mov    r14,rdi
    66c5:	bf 00 00 00 00       	mov    edi,0x0
    66ca:	e8 00 00 00 00       	call   66cf <s256+0x11>
    66cf:	31 db                	xor    ebx,ebx
    66d1:	4c 89 f7             	mov    rdi,r14
    66d4:	31 f6                	xor    esi,esi
    66d6:	e8 00 00 00 00       	call   66db <s256+0x1d>
    66db:	f3 0f 10 15 00 00 00 	movss  xmm2,DWORD PTR [rip+0x0]        # 66e3 <s256+0x25>
    66e2:	00 
    66e3:	31 c0                	xor    eax,eax
    66e5:	31 c9                	xor    ecx,ecx
    66e7:	f3 0f 10 05 00 00 00 	movss  xmm0,DWORD PTR [rip+0x0]        # 66ef <s256+0x31>
    66ee:	00 
    66ef:	31 d2                	xor    edx,edx
    66f1:	31 f6                	xor    esi,esi
    66f3:	0f 28 ca             	movaps xmm1,xmm2
    66f6:	f3 0f 5c c8          	subss  xmm1,xmm0
    66fa:	f3 0f 11 8e 00 00 00 	movss  DWORD PTR [rsi+0x0],xmm1
    6701:	00 
    6702:	f3 0f 10 84 10 00 00 	movss  xmm0,DWORD PTR [rax+rdx*1+0x0]
    6709:	00 00 
    670b:	f3 0f 59 86 00 00 00 	mulss  xmm0,DWORD PTR [rsi+0x0]
    6712:	00 
    6713:	f3 0f 58 c1          	addss  xmm0,xmm1
    6717:	f3 0f 11 84 10 00 00 	movss  DWORD PTR [rax+rdx*1+0x0],xmm0
    671e:	00 00 
    6720:	0f 28 c2             	movaps xmm0,xmm2
    6723:	f3 0f 5c c1          	subss  xmm0,xmm1
    6727:	f3 0f 11 86 00 00 00 	movss  DWORD PTR [rsi+0x0],xmm0
    672e:	00 
    672f:	f3 0f 10 8c 10 00 00 	movss  xmm1,DWORD PTR [rax+rdx*1+0x0]
    6736:	00 00 
    6738:	f3 0f 59 8e 00 00 00 	mulss  xmm1,DWORD PTR [rsi+0x0]
    673f:	00 
    6740:	f3 0f 58 c8          	addss  xmm1,xmm0
    6744:	f3 0f 11 8c 10 00 00 	movss  DWORD PTR [rax+rdx*1+0x0],xmm1
    674b:	00 00 
    674d:	0f 28 ca             	movaps xmm1,xmm2
    6750:	f3 0f 5c c8          	subss  xmm1,xmm0
    6754:	f3 0f 10 84 10 00 00 	movss  xmm0,DWORD PTR [rax+rdx*1+0x0]
    675b:	00 00 
    675d:	f3 0f 59 86 00 00 00 	mulss  xmm0,DWORD PTR [rsi+0x0]
    6764:	00 
    6765:	f3 0f 11 8e 00 00 00 	movss  DWORD PTR [rsi+0x0],xmm1
    676c:	00 
    676d:	f3 0f 58 c1          	addss  xmm0,xmm1
    6771:	f3 0f 11 84 10 00 00 	movss  DWORD PTR [rax+rdx*1+0x0],xmm0
    6778:	00 00 
    677a:	0f 28 c2             	movaps xmm0,xmm2
    677d:	f3 0f 5c c1          	subss  xmm0,xmm1
    6781:	f3 0f 11 86 00 00 00 	movss  DWORD PTR [rsi+0x0],xmm0
    6788:	00 
    6789:	f3 0f 10 8c 10 00 00 	movss  xmm1,DWORD PTR [rax+rdx*1+0x0]
    6790:	00 00 
    6792:	f3 0f 59 8e 00 00 00 	mulss  xmm1,DWORD PTR [rsi+0x0]
    6799:	00 
    679a:	f3 0f 58 c8          	addss  xmm1,xmm0
    679e:	f3 0f 11 8c 10 00 00 	movss  DWORD PTR [rax+rdx*1+0x0],xmm1
    67a5:	00 00 
    67a7:	0f 28 ca             	movaps xmm1,xmm2
    67aa:	f3 0f 5c c8          	subss  xmm1,xmm0
    67ae:	f3 0f 11 8e 00 00 00 	movss  DWORD PTR [rsi+0x0],xmm1
    67b5:	00 
    67b6:	f3 0f 10 84 10 00 00 	movss  xmm0,DWORD PTR [rax+rdx*1+0x0]
    67bd:	00 00 
    67bf:	f3 0f 59 86 00 00 00 	mulss  xmm0,DWORD PTR [rsi+0x0]
    67c6:	00 
    67c7:	f3 0f 58 c1          	addss  xmm0,xmm1
    67cb:	f3 0f 11 84 10 00 00 	movss  DWORD PTR [rax+rdx*1+0x0],xmm0
    67d2:	00 00 
    67d4:	0f 28 c2             	movaps xmm0,xmm2
    67d7:	f3 0f 5c c1          	subss  xmm0,xmm1
    67db:	f3 0f 11 86 00 00 00 	movss  DWORD PTR [rsi+0x0],xmm0
    67e2:	00 
    67e3:	f3 0f 10 8c 10 00 00 	movss  xmm1,DWORD PTR [rax+rdx*1+0x0]
    67ea:	00 00 
    67ec:	f3 0f 59 8e 00 00 00 	mulss  xmm1,DWORD PTR [rsi+0x0]
    67f3:	00 
    67f4:	f3 0f 58 c8          	addss  xmm1,xmm0
    67f8:	f3 0f 11 8c 10 00 00 	movss  DWORD PTR [rax+rdx*1+0x0],xmm1
    67ff:	00 00 
    6801:	0f 28 ca             	movaps xmm1,xmm2
    6804:	f3 0f 5c c8          	subss  xmm1,xmm0
    6808:	f3 0f 10 84 10 00 00 	movss  xmm0,DWORD PTR [rax+rdx*1+0x0]
    680f:	00 00 
    6811:	f3 0f 59 86 00 00 00 	mulss  xmm0,DWORD PTR [rsi+0x0]
    6818:	00 
    6819:	f3 0f 11 8e 00 00 00 	movss  DWORD PTR [rsi+0x0],xmm1
    6820:	00 
    6821:	f3 0f 58 c1          	addss  xmm0,xmm1
    6825:	f3 0f 11 84 10 00 00 	movss  DWORD PTR [rax+rdx*1+0x0],xmm0
    682c:	00 00 
    682e:	48 81 fa 00 e0 03 00 	cmp    rdx,0x3e000
    6835:	74 3d                	je     6874 <s256+0x1b6>
    6837:	0f 28 c2             	movaps xmm0,xmm2
    683a:	f3 0f 5c c1          	subss  xmm0,xmm1
    683e:	f3 0f 11 86 00 00 00 	movss  DWORD PTR [rsi+0x0],xmm0
    6845:	00 
    6846:	f3 0f 10 8c 10 00 00 	movss  xmm1,DWORD PTR [rax+rdx*1+0x0]
    684d:	00 00 
    684f:	f3 0f 59 8e 00 00 00 	mulss  xmm1,DWORD PTR [rsi+0x0]
    6856:	00 
    6857:	f3 0f 58 c8          	addss  xmm1,xmm0
    685b:	f3 0f 11 8c 10 00 00 	movss  DWORD PTR [rax+rdx*1+0x0],xmm1
    6862:	00 00 
    6864:	48 83 c6 20          	add    rsi,0x20
    6868:	48 81 c2 00 20 00 00 	add    rdx,0x2000
    686f:	e9 7f fe ff ff       	jmp    66f3 <s256+0x35>
    6874:	48 ff c1             	inc    rcx
    6877:	48 83 c0 04          	add    rax,0x4
    687b:	48 81 f9 00 01 00 00 	cmp    rcx,0x100
    6882:	0f 85 5f fe ff ff    	jne    66e7 <s256+0x29>
    6888:	bf 00 00 00 00       	mov    edi,0x0
    688d:	be 00 00 00 00       	mov    esi,0x0
    6892:	ba 00 00 00 00       	mov    edx,0x0
    6897:	b9 00 00 00 00       	mov    ecx,0x0
    689c:	41 b8 00 00 00 00    	mov    r8d,0x0
    68a2:	41 b9 00 00 00 00    	mov    r9d,0x0
    68a8:	0f 57 c0             	xorps  xmm0,xmm0
    68ab:	68 00 00 00 00       	push   0x0
    68b0:	68 00 00 00 00       	push   0x0
    68b5:	e8 00 00 00 00       	call   68ba <s256+0x1fc>
    68ba:	f3 0f 10 15 00 00 00 	movss  xmm2,DWORD PTR [rip+0x0]        # 68c2 <s256+0x204>
    68c1:	00 
    68c2:	48 83 c4 10          	add    rsp,0x10
    68c6:	ff c3                	inc    ebx
    68c8:	81 fb 3c 0f 00 00    	cmp    ebx,0xf3c
    68ce:	0f 85 0f fe ff ff    	jne    66e3 <s256+0x25>
    68d4:	49 83 c6 10          	add    r14,0x10
    68d8:	4c 89 f7             	mov    rdi,r14
    68db:	31 f6                	xor    esi,esi
    68dd:	e8 00 00 00 00       	call   68e2 <s256+0x224>
    68e2:	bf 00 00 00 00       	mov    edi,0x0
    68e7:	48 83 c4 08          	add    rsp,0x8
    68eb:	5b                   	pop    rbx
    68ec:	41 5e                	pop    r14
    68ee:	e9 00 00 00 00       	jmp    68f3 <s257>

00000000000068f3 <s257>:
    68f3:	41 56                	push   r14
    68f5:	53                   	push   rbx
    68f6:	50                   	push   rax
    68f7:	49 89 fe             	mov    r14,rdi
    68fa:	bf 00 00 00 00       	mov    edi,0x0
    68ff:	e8 00 00 00 00       	call   6904 <s257+0x11>
    6904:	31 db                	xor    ebx,ebx
    6906:	4c 89 f7             	mov    rdi,r14
    6909:	31 f6                	xor    esi,esi
    690b:	e8 00 00 00 00       	call   6910 <s257+0x1d>
    6910:	b8 01 00 00 00       	mov    eax,0x1
    6915:	b9 04 1c 00 00       	mov    ecx,0x1c04
    691a:	f3 0f 10 05 00 00 00 	movss  xmm0,DWORD PTR [rip+0x0]        # 6922 <s257+0x2f>
    6921:	00 
    6922:	48 c7 c2 00 00 fc ff 	mov    rdx,0xfffffffffffc0000
    6929:	f3 0f 10 8c 11 00 00 	movss  xmm1,DWORD PTR [rcx+rdx*1+0x0]
    6930:	00 00 
    6932:	f3 0f 5c c8          	subss  xmm1,xmm0
    6936:	f3 0f 58 8c 11 00 00 	addss  xmm1,DWORD PTR [rcx+rdx*1+0x0]
    693d:	00 00 
    693f:	f3 0f 11 8c 11 00 00 	movss  DWORD PTR [rcx+rdx*1+0x0],xmm1
    6946:	00 00 
    6948:	f3 0f 10 8c 11 00 00 	movss  xmm1,DWORD PTR [rcx+rdx*1+0x0]
    694f:	00 00 
    6951:	f3 0f 5c c8          	subss  xmm1,xmm0
    6955:	f3 0f 58 8c 11 00 00 	addss  xmm1,DWORD PTR [rcx+rdx*1+0x0]
    695c:	00 00 
    695e:	f3 0f 11 8c 11 00 00 	movss  DWORD PTR [rcx+rdx*1+0x0],xmm1
    6965:	00 00 
    6967:	f3 0f 10 8c 11 00 00 	movss  xmm1,DWORD PTR [rcx+rdx*1+0x0]
    696e:	00 00 
    6970:	f3 0f 5c c8          	subss  xmm1,xmm0
    6974:	f3 0f 58 8c 11 00 00 	addss  xmm1,DWORD PTR [rcx+rdx*1+0x0]
    697b:	00 00 
    697d:	f3 0f 11 8c 11 00 00 	movss  DWORD PTR [rcx+rdx*1+0x0],xmm1
    6984:	00 00 
    6986:	f3 0f 10 8c 11 00 00 	movss  xmm1,DWORD PTR [rcx+rdx*1+0x0]
    698d:	00 00 
    698f:	f3 0f 5c c8          	subss  xmm1,xmm0
    6993:	f3 0f 58 8c 11 00 00 	addss  xmm1,DWORD PTR [rcx+rdx*1+0x0]
    699a:	00 00 
    699c:	f3 0f 11 8c 11 00 00 	movss  DWORD PTR [rcx+rdx*1+0x0],xmm1
    69a3:	00 00 
    69a5:	f3 0f 10 8c 11 00 00 	movss  xmm1,DWORD PTR [rcx+rdx*1+0x0]
    69ac:	00 00 
    69ae:	f3 0f 5c c8          	subss  xmm1,xmm0
    69b2:	f3 0f 58 8c 11 00 00 	addss  xmm1,DWORD PTR [rcx+rdx*1+0x0]
    69b9:	00 00 
    69bb:	f3 0f 11 8c 11 00 00 	movss  DWORD PTR [rcx+rdx*1+0x0],xmm1
    69c2:	00 00 
    69c4:	f3 0f 10 8c 11 00 00 	movss  xmm1,DWORD PTR [rcx+rdx*1+0x0]
    69cb:	00 00 
    69cd:	f3 0f 5c c8          	subss  xmm1,xmm0
    69d1:	f3 0f 58 8c 11 00 00 	addss  xmm1,DWORD PTR [rcx+rdx*1+0x0]
    69d8:	00 00 
    69da:	f3 0f 11 8c 11 00 00 	movss  DWORD PTR [rcx+rdx*1+0x0],xmm1
    69e1:	00 00 
    69e3:	f3 0f 10 8c 11 00 00 	movss  xmm1,DWORD PTR [rcx+rdx*1+0x0]
    69ea:	00 00 
    69ec:	f3 0f 5c c8          	subss  xmm1,xmm0
    69f0:	f3 0f 58 8c 11 00 00 	addss  xmm1,DWORD PTR [rcx+rdx*1+0x0]
    69f7:	00 00 
    69f9:	f3 0f 11 8c 11 00 00 	movss  DWORD PTR [rcx+rdx*1+0x0],xmm1
    6a00:	00 00 
    6a02:	f3 0f 10 8c 11 00 00 	movss  xmm1,DWORD PTR [rcx+rdx*1+0x0]
    6a09:	00 00 
    6a0b:	f3 0f 5c c8          	subss  xmm1,xmm0
    6a0f:	f3 0f 10 94 11 00 00 	movss  xmm2,DWORD PTR [rcx+rdx*1+0x0]
    6a16:	00 00 
    6a18:	f3 0f 58 d1          	addss  xmm2,xmm1
    6a1c:	f3 0f 11 94 11 00 00 	movss  DWORD PTR [rcx+rdx*1+0x0],xmm2
    6a23:	00 00 
    6a25:	48 81 c2 00 20 00 00 	add    rdx,0x2000
    6a2c:	0f 85 f7 fe ff ff    	jne    6929 <s257+0x36>
    6a32:	f3 0f 11 0c 85 00 00 	movss  DWORD PTR [rax*4+0x0],xmm1
    6a39:	00 00 
    6a3b:	48 ff c0             	inc    rax
    6a3e:	48 83 c1 04          	add    rcx,0x4
    6a42:	0f 28 c1             	movaps xmm0,xmm1
    6a45:	48 3d 00 01 00 00    	cmp    rax,0x100
    6a4b:	0f 85 d1 fe ff ff    	jne    6922 <s257+0x2f>
    6a51:	bf 00 00 00 00       	mov    edi,0x0
    6a56:	be 00 00 00 00       	mov    esi,0x0
    6a5b:	ba 00 00 00 00       	mov    edx,0x0
    6a60:	b9 00 00 00 00       	mov    ecx,0x0
    6a65:	41 b8 00 00 00 00    	mov    r8d,0x0
    6a6b:	41 b9 00 00 00 00    	mov    r9d,0x0
    6a71:	0f 57 c0             	xorps  xmm0,xmm0
    6a74:	68 00 00 00 00       	push   0x0
    6a79:	68 00 00 00 00       	push   0x0
    6a7e:	e8 00 00 00 00       	call   6a83 <s257+0x190>
    6a83:	48 83 c4 10          	add    rsp,0x10
    6a87:	ff c3                	inc    ebx
    6a89:	81 fb 3c 0f 00 00    	cmp    ebx,0xf3c
    6a8f:	0f 85 7b fe ff ff    	jne    6910 <s257+0x1d>
    6a95:	49 83 c6 10          	add    r14,0x10
    6a99:	4c 89 f7             	mov    rdi,r14
    6a9c:	31 f6                	xor    esi,esi
    6a9e:	e8 00 00 00 00       	call   6aa3 <s257+0x1b0>
    6aa3:	bf 00 00 00 00       	mov    edi,0x0
    6aa8:	48 83 c4 08          	add    rsp,0x8
    6aac:	5b                   	pop    rbx
    6aad:	41 5e                	pop    r14
    6aaf:	e9 00 00 00 00       	jmp    6ab4 <s258>

0000000000006ab4 <s258>:
    6ab4:	41 56                	push   r14
    6ab6:	53                   	push   rbx
    6ab7:	50                   	push   rax
    6ab8:	49 89 fe             	mov    r14,rdi
    6abb:	bf 00 00 00 00       	mov    edi,0x0
    6ac0:	e8 00 00 00 00       	call   6ac5 <s258+0x11>
    6ac5:	31 db                	xor    ebx,ebx
    6ac7:	4c 89 f7             	mov    rdi,r14
    6aca:	31 f6                	xor    esi,esi
    6acc:	e8 00 00 00 00       	call   6ad1 <s258+0x1d>
    6ad1:	0f 57 f6             	xorps  xmm6,xmm6
    6ad4:	f3 0f 10 3d 00 00 00 	movss  xmm7,DWORD PTR [rip+0x0]        # 6adc <s258+0x28>
    6adb:	00 
    6adc:	48 c7 c0 00 fc ff ff 	mov    rax,0xfffffffffffffc00
    6ae3:	0f 57 d2             	xorps  xmm2,xmm2
    6ae6:	f3 0f 10 80 00 00 00 	movss  xmm0,DWORD PTR [rax+0x0]
    6aed:	00 
    6aee:	0f 28 d8             	movaps xmm3,xmm0
    6af1:	f3 0f 59 d8          	mulss  xmm3,xmm0
    6af5:	0f 57 c9             	xorps  xmm1,xmm1
    6af8:	f3 0f c2 88 00 00 00 	cmpltss xmm1,DWORD PTR [rax+0x0]
    6aff:	00 01 
    6b01:	0f 28 e1             	movaps xmm4,xmm1
    6b04:	0f 55 e2             	andnps xmm4,xmm2
    6b07:	0f 54 cb             	andps  xmm1,xmm3
    6b0a:	0f 56 cc             	orps   xmm1,xmm4
    6b0d:	f3 0f 10 90 00 00 00 	movss  xmm2,DWORD PTR [rax+0x0]
    6b14:	00 
    6b15:	f3 0f 59 d1          	mulss  xmm2,xmm1
    6b19:	f3 0f 58 d0          	addss  xmm2,xmm0
    6b1d:	f3 0f 11 90 00 00 00 	movss  DWORD PTR [rax+0x0],xmm2
    6b24:	00 
    6b25:	0f 28 c1             	movaps xmm0,xmm1
    6b28:	f3 0f 58 c7          	addss  xmm0,xmm7
    6b2c:	f3 0f 10 90 00 00 00 	movss  xmm2,DWORD PTR [rax+0x0]
    6b33:	00 
    6b34:	f3 0f 59 d0          	mulss  xmm2,xmm0
    6b38:	f3 0f 11 90 00 00 00 	movss  DWORD PTR [rax+0x0],xmm2
    6b3f:	00 
    6b40:	f3 0f 10 a8 00 00 00 	movss  xmm5,DWORD PTR [rax+0x0]
    6b47:	00 
    6b48:	0f 2e ee             	ucomiss xmm5,xmm6
    6b4b:	f3 0f 10 98 00 00 00 	movss  xmm3,DWORD PTR [rax+0x0]
    6b52:	00 
    6b53:	0f 28 e3             	movaps xmm4,xmm3
    6b56:	f3 0f 59 e3          	mulss  xmm4,xmm3
    6b5a:	76 07                	jbe    6b63 <s258+0xaf>
    6b5c:	0f 28 c4             	movaps xmm0,xmm4
    6b5f:	f3 0f 58 c7          	addss  xmm0,xmm7
    6b63:	0f 57 d2             	xorps  xmm2,xmm2
    6b66:	f3 0f c2 d5 01       	cmpltss xmm2,xmm5
    6b6b:	0f 28 ea             	movaps xmm5,xmm2
    6b6e:	0f 55 e9             	andnps xmm5,xmm1
    6b71:	0f 54 d4             	andps  xmm2,xmm4
    6b74:	0f 56 d5             	orps   xmm2,xmm5
    6b77:	f3 0f 10 88 00 00 00 	movss  xmm1,DWORD PTR [rax+0x0]
    6b7e:	00 
    6b7f:	f3 0f 59 ca          	mulss  xmm1,xmm2
    6b83:	f3 0f 58 d9          	addss  xmm3,xmm1
    6b87:	f3 0f 11 98 00 00 00 	movss  DWORD PTR [rax+0x0],xmm3
    6b8e:	00 
    6b8f:	f3 0f 10 88 00 00 00 	movss  xmm1,DWORD PTR [rax+0x0]
    6b96:	00 
    6b97:	f3 0f 59 c8          	mulss  xmm1,xmm0
    6b9b:	f3 0f 11 88 00 00 00 	movss  DWORD PTR [rax+0x0],xmm1
    6ba2:	00 
    6ba3:	f3 0f 10 a8 00 00 00 	movss  xmm5,DWORD PTR [rax+0x0]
    6baa:	00 
    6bab:	0f 2e ee             	ucomiss xmm5,xmm6
    6bae:	f3 0f 10 98 00 00 00 	movss  xmm3,DWORD PTR [rax+0x0]
    6bb5:	00 
    6bb6:	0f 28 e3             	movaps xmm4,xmm3
    6bb9:	f3 0f 59 e3          	mulss  xmm4,xmm3
    6bbd:	76 07                	jbe    6bc6 <s258+0x112>
    6bbf:	0f 28 c4             	movaps xmm0,xmm4
    6bc2:	f3 0f 58 c7          	addss  xmm0,xmm7
    6bc6:	0f 57 c9             	xorps  xmm1,xmm1
    6bc9:	f3 0f c2 cd 01       	cmpltss xmm1,xmm5
    6bce:	0f 28 e9             	movaps xmm5,xmm1
    6bd1:	0f 55 ea             	andnps xmm5,xmm2
    6bd4:	0f 54 cc             	andps  xmm1,xmm4
    6bd7:	0f 56 cd             	orps   xmm1,xmm5
    6bda:	f3 0f 10 90 00 00 00 	movss  xmm2,DWORD PTR [rax+0x0]
    6be1:	00 
    6be2:	f3 0f 59 d1          	mulss  xmm2,xmm1
    6be6:	f3 0f 58 da          	addss  xmm3,xmm2
    6bea:	f3 0f 11 98 00 00 00 	movss  DWORD PTR [rax+0x0],xmm3
    6bf1:	00 
    6bf2:	f3 0f 10 90 00 00 00 	movss  xmm2,DWORD PTR [rax+0x0]
    6bf9:	00 
    6bfa:	f3 0f 59 d0          	mulss  xmm2,xmm0
    6bfe:	f3 0f 11 90 00 00 00 	movss  DWORD PTR [rax+0x0],xmm2
    6c05:	00 
    6c06:	f3 0f 10 a8 00 00 00 	movss  xmm5,DWORD PTR [rax+0x0]
    6c0d:	00 
    6c0e:	0f 2e ee             	ucomiss xmm5,xmm6
    6c11:	f3 0f 10 98 00 00 00 	movss  xmm3,DWORD PTR [rax+0x0]
    6c18:	00 
    6c19:	0f 28 e3             	movaps xmm4,xmm3
    6c1c:	f3 0f 59 e3          	mulss  xmm4,xmm3
    6c20:	76 07                	jbe    6c29 <s258+0x175>
    6c22:	0f 28 c4             	movaps xmm0,xmm4
    6c25:	f3 0f 58 c7          	addss  xmm0,xmm7
    6c29:	0f 57 d2             	xorps  xmm2,xmm2
    6c2c:	f3 0f c2 d5 01       	cmpltss xmm2,xmm5
    6c31:	0f 28 ea             	movaps xmm5,xmm2
    6c34:	0f 55 e9             	andnps xmm5,xmm1
    6c37:	0f 54 d4             	andps  xmm2,xmm4
    6c3a:	0f 56 d5             	orps   xmm2,xmm5
    6c3d:	f3 0f 10 88 00 00 00 	movss  xmm1,DWORD PTR [rax+0x0]
    6c44:	00 
    6c45:	f3 0f 59 ca          	mulss  xmm1,xmm2
    6c49:	f3 0f 58 d9          	addss  xmm3,xmm1
    6c4d:	f3 0f 11 98 00 00 00 	movss  DWORD PTR [rax+0x0],xmm3
    6c54:	00 
    6c55:	f3 0f 10 88 00 00 00 	movss  xmm1,DWORD PTR [rax+0x0]
    6c5c:	00 
    6c5d:	f3 0f 59 c8          	mulss  xmm1,xmm0
    6c61:	f3 0f 11 88 00 00 00 	movss  DWORD PTR [rax+0x0],xmm1
    6c68:	00 
    6c69:	f3 0f 10 a8 00 00 00 	movss  xmm5,DWORD PTR [rax+0x0]
    6c70:	00 
    6c71:	0f 2e ee             	ucomiss xmm5,xmm6
    6c74:	f3 0f 10 98 00 00 00 	movss  xmm3,DWORD PTR [rax+0x0]
    6c7b:	00 
    6c7c:	0f 28 e3             	movaps xmm4,xmm3
    6c7f:	f3 0f 59 e3          	mulss  xmm4,xmm3
    6c83:	76 07                	jbe    6c8c <s258+0x1d8>
    6c85:	0f 28 c4             	movaps xmm0,xmm4
    6c88:	f3 0f 58 c7          	addss  xmm0,xmm7
    6c8c:	0f 57 c9             	xorps  xmm1,xmm1
    6c8f:	f3 0f c2 cd 01       	cmpltss xmm1,xmm5
    6c94:	0f 28 e9             	movaps xmm5,xmm1
    6c97:	0f 55 ea             	andnps xmm5,xmm2
    6c9a:	0f 54 cc             	andps  xmm1,xmm4
    6c9d:	0f 56 cd             	orps   xmm1,xmm5
    6ca0:	f3 0f 10 90 00 00 00 	movss  xmm2,DWORD PTR [rax+0x0]
    6ca7:	00 
    6ca8:	f3 0f 59 d1          	mulss  xmm2,xmm1
    6cac:	f3 0f 58 da          	addss  xmm3,xmm2
    6cb0:	f3 0f 11 98 00 00 00 	movss  DWORD PTR [rax+0x0],xmm3
    6cb7:	00 
    6cb8:	f3 0f 10 90 00 00 00 	movss  xmm2,DWORD PTR [rax+0x0]
    6cbf:	00 
    6cc0:	f3 0f 59 d0          	mulss  xmm2,xmm0
    6cc4:	f3 0f 11 90 00 00 00 	movss  DWORD PTR [rax+0x0],xmm2
    6ccb:	00 
    6ccc:	f3 0f 10 a8 00 00 00 	movss  xmm5,DWORD PTR [rax+0x0]
    6cd3:	00 
    6cd4:	0f 2e ee             	ucomiss xmm5,xmm6
    6cd7:	f3 0f 10 98 00 00 00 	movss  xmm3,DWORD PTR [rax+0x0]
    6cde:	00 
    6cdf:	0f 28 e3             	movaps xmm4,xmm3
    6ce2:	f3 0f 59 e3          	mulss  xmm4,xmm3
    6ce6:	76 07                	jbe    6cef <s258+0x23b>
    6ce8:	0f 28 c4             	movaps xmm0,xmm4
    6ceb:	f3 0f 58 c7          	addss  xmm0,xmm7
    6cef:	0f 57 d2             	xorps  xmm2,xmm2
    6cf2:	f3 0f c2 d5 01       	cmpltss xmm2,xmm5
    6cf7:	0f 28 ea             	movaps xmm5,xmm2
    6cfa:	0f 55 e9             	andnps xmm5,xmm1
    6cfd:	0f 54 d4             	andps  xmm2,xmm4
    6d00:	0f 56 d5             	orps   xmm2,xmm5
    6d03:	f3 0f 10 88 00 00 00 	movss  xmm1,DWORD PTR [rax+0x0]
    6d0a:	00 
    6d0b:	f3 0f 59 ca          	mulss  xmm1,xmm2
    6d0f:	f3 0f 58 d9          	addss  xmm3,xmm1
    6d13:	f3 0f 11 98 00 00 00 	movss  DWORD PTR [rax+0x0],xmm3
    6d1a:	00 
    6d1b:	f3 0f 10 88 00 00 00 	movss  xmm1,DWORD PTR [rax+0x0]
    6d22:	00 
    6d23:	f3 0f 59 c8          	mulss  xmm1,xmm0
    6d27:	f3 0f 11 88 00 00 00 	movss  DWORD PTR [rax+0x0],xmm1
    6d2e:	00 
    6d2f:	f3 0f 10 a8 00 00 00 	movss  xmm5,DWORD PTR [rax+0x0]
    6d36:	00 
    6d37:	0f 2e ee             	ucomiss xmm5,xmm6
    6d3a:	f3 0f 10 98 00 00 00 	movss  xmm3,DWORD PTR [rax+0x0]
    6d41:	00 
    6d42:	0f 28 e3             	movaps xmm4,xmm3
    6d45:	f3 0f 59 e3          	mulss  xmm4,xmm3
    6d49:	76 07                	jbe    6d52 <s258+0x29e>
    6d4b:	0f 28 c4             	movaps xmm0,xmm4
    6d4e:	f3 0f 58 c7          	addss  xmm0,xmm7
    6d52:	0f 57 c9             	xorps  xmm1,xmm1
    6d55:	f3 0f c2 cd 01       	cmpltss xmm1,xmm5
    6d5a:	0f 28 e9             	movaps xmm5,xmm1
    6d5d:	0f 55 ea             	andnps xmm5,xmm2
    6d60:	0f 54 cc             	andps  xmm1,xmm4
    6d63:	0f 56 cd             	orps   xmm1,xmm5
    6d66:	f3 0f 10 90 00 00 00 	movss  xmm2,DWORD PTR [rax+0x0]
    6d6d:	00 
    6d6e:	f3 0f 59 d1          	mulss  xmm2,xmm1
    6d72:	f3 0f 58 da          	addss  xmm3,xmm2
    6d76:	f3 0f 11 98 00 00 00 	movss  DWORD PTR [rax+0x0],xmm3
    6d7d:	00 
    6d7e:	f3 0f 10 90 00 00 00 	movss  xmm2,DWORD PTR [rax+0x0]
    6d85:	00 
    6d86:	f3 0f 59 d0          	mulss  xmm2,xmm0
    6d8a:	f3 0f 11 90 00 00 00 	movss  DWORD PTR [rax+0x0],xmm2
    6d91:	00 
    6d92:	f3 0f 10 a8 00 00 00 	movss  xmm5,DWORD PTR [rax+0x0]
    6d99:	00 
    6d9a:	0f 2e ee             	ucomiss xmm5,xmm6
    6d9d:	f3 0f 10 98 00 00 00 	movss  xmm3,DWORD PTR [rax+0x0]
    6da4:	00 
    6da5:	0f 28 e3             	movaps xmm4,xmm3
    6da8:	f3 0f 59 e3          	mulss  xmm4,xmm3
    6dac:	76 07                	jbe    6db5 <s258+0x301>
    6dae:	0f 28 c4             	movaps xmm0,xmm4
    6db1:	f3 0f 58 c7          	addss  xmm0,xmm7
    6db5:	0f 57 d2             	xorps  xmm2,xmm2
    6db8:	f3 0f c2 d5 01       	cmpltss xmm2,xmm5
    6dbd:	0f 28 ea             	movaps xmm5,xmm2
    6dc0:	0f 55 e9             	andnps xmm5,xmm1
    6dc3:	0f 54 d4             	andps  xmm2,xmm4
    6dc6:	0f 56 d5             	orps   xmm2,xmm5
    6dc9:	0f 28 ca             	movaps xmm1,xmm2
    6dcc:	f3 0f 59 88 00 00 00 	mulss  xmm1,DWORD PTR [rax+0x0]
    6dd3:	00 
    6dd4:	f3 0f 58 d9          	addss  xmm3,xmm1
    6dd8:	f3 0f 11 98 00 00 00 	movss  DWORD PTR [rax+0x0],xmm3
    6ddf:	00 
    6de0:	f3 0f 59 80 00 00 00 	mulss  xmm0,DWORD PTR [rax+0x0]
    6de7:	00 
    6de8:	f3 0f 11 80 00 00 00 	movss  DWORD PTR [rax+0x0],xmm0
    6def:	00 
    6df0:	48 83 c0 20          	add    rax,0x20
    6df4:	0f 85 ec fc ff ff    	jne    6ae6 <s258+0x32>
    6dfa:	bf 00 00 00 00       	mov    edi,0x0
    6dff:	be 00 00 00 00       	mov    esi,0x0
    6e04:	ba 00 00 00 00       	mov    edx,0x0
    6e09:	b9 00 00 00 00       	mov    ecx,0x0
    6e0e:	41 b8 00 00 00 00    	mov    r8d,0x0
    6e14:	41 b9 00 00 00 00    	mov    r9d,0x0
    6e1a:	0f 57 c0             	xorps  xmm0,xmm0
    6e1d:	68 00 00 00 00       	push   0x0
    6e22:	68 00 00 00 00       	push   0x0
    6e27:	e8 00 00 00 00       	call   6e2c <s258+0x378>
    6e2c:	f3 0f 10 3d 00 00 00 	movss  xmm7,DWORD PTR [rip+0x0]        # 6e34 <s258+0x380>
    6e33:	00 
    6e34:	0f 57 f6             	xorps  xmm6,xmm6
    6e37:	48 83 c4 10          	add    rsp,0x10
    6e3b:	ff c3                	inc    ebx
    6e3d:	81 fb a0 86 01 00    	cmp    ebx,0x186a0
    6e43:	0f 85 93 fc ff ff    	jne    6adc <s258+0x28>
    6e49:	49 83 c6 10          	add    r14,0x10
    6e4d:	4c 89 f7             	mov    rdi,r14
    6e50:	31 f6                	xor    esi,esi
    6e52:	e8 00 00 00 00       	call   6e57 <s258+0x3a3>
    6e57:	bf 00 00 00 00       	mov    edi,0x0
    6e5c:	48 83 c4 08          	add    rsp,0x8
    6e60:	5b                   	pop    rbx
    6e61:	41 5e                	pop    r14
    6e63:	e9 00 00 00 00       	jmp    6e68 <s261>

0000000000006e68 <s261>:
    6e68:	41 56                	push   r14
    6e6a:	53                   	push   rbx
    6e6b:	50                   	push   rax
    6e6c:	49 89 fe             	mov    r14,rdi
    6e6f:	bf 00 00 00 00       	mov    edi,0x0
    6e74:	e8 00 00 00 00       	call   6e79 <s261+0x11>
    6e79:	31 db                	xor    ebx,ebx
    6e7b:	4c 89 f7             	mov    rdi,r14
    6e7e:	31 f6                	xor    esi,esi
    6e80:	e8 00 00 00 00       	call   6e85 <s261+0x1d>
    6e85:	48 c7 c0 20 0c fe ff 	mov    rax,0xfffffffffffe0c20
    6e8c:	f3 0f 10 05 00 00 00 	movss  xmm0,DWORD PTR [rip+0x0]        # 6e94 <s261+0x2c>
    6e93:	00 
    6e94:	f3 0f 10 88 00 00 00 	movss  xmm1,DWORD PTR [rax+0x0]
    6e9b:	00 
    6e9c:	f3 0f 58 88 00 00 00 	addss  xmm1,DWORD PTR [rax+0x0]
    6ea3:	00 
    6ea4:	f3 0f 58 c8          	addss  xmm1,xmm0
    6ea8:	f3 0f 11 88 00 00 00 	movss  DWORD PTR [rax+0x0],xmm1
    6eaf:	00 
    6eb0:	f3 0f 10 80 00 00 00 	movss  xmm0,DWORD PTR [rax+0x0]
    6eb7:	00 
    6eb8:	f3 0f 59 80 00 00 00 	mulss  xmm0,DWORD PTR [rax+0x0]
    6ebf:	00 
    6ec0:	f3 0f 11 80 00 00 00 	movss  DWORD PTR [rax+0x0],xmm0
    6ec7:	00 
    6ec8:	f3 0f 10 88 00 00 00 	movss  xmm1,DWORD PTR [rax+0x0]
    6ecf:	00 
    6ed0:	f3 0f 58 88 00 00 00 	addss  xmm1,DWORD PTR [rax+0x0]
    6ed7:	00 
    6ed8:	f3 0f 58 c8          	addss  xmm1,xmm0
    6edc:	f3 0f 10 80 00 00 00 	movss  xmm0,DWORD PTR [rax+0x0]
    6ee3:	00 
    6ee4:	f3 0f 59 80 00 00 00 	mulss  xmm0,DWORD PTR [rax+0x0]
    6eeb:	00 
    6eec:	f3 0f 11 88 00 00 00 	movss  DWORD PTR [rax+0x0],xmm1
    6ef3:	00 
    6ef4:	f3 0f 10 88 00 00 00 	movss  xmm1,DWORD PTR [rax+0x0]
    6efb:	00 
    6efc:	f3 0f 58 88 00 00 00 	addss  xmm1,DWORD PTR [rax+0x0]
    6f03:	00 
    6f04:	f3 0f 11 80 00 00 00 	movss  DWORD PTR [rax+0x0],xmm0
    6f0b:	00 
    6f0c:	f3 0f 58 c8          	addss  xmm1,xmm0
    6f10:	f3 0f 11 88 00 00 00 	movss  DWORD PTR [rax+0x0],xmm1
    6f17:	00 
    6f18:	f3 0f 10 80 00 00 00 	movss  xmm0,DWORD PTR [rax+0x0]
    6f1f:	00 
    6f20:	f3 0f 59 80 00 00 00 	mulss  xmm0,DWORD PTR [rax+0x0]
    6f27:	00 
    6f28:	f3 0f 11 80 00 00 00 	movss  DWORD PTR [rax+0x0],xmm0
    6f2f:	00 
    6f30:	f3 0f 10 88 00 00 00 	movss  xmm1,DWORD PTR [rax+0x0]
    6f37:	00 
    6f38:	f3 0f 58 88 00 00 00 	addss  xmm1,DWORD PTR [rax+0x0]
    6f3f:	00 
    6f40:	f3 0f 58 c8          	addss  xmm1,xmm0
    6f44:	f3 0f 11 88 00 00 00 	movss  DWORD PTR [rax+0x0],xmm1
    6f4b:	00 
    6f4c:	f3 0f 10 80 00 00 00 	movss  xmm0,DWORD PTR [rax+0x0]
    6f53:	00 
    6f54:	f3 0f 59 80 00 00 00 	mulss  xmm0,DWORD PTR [rax+0x0]
    6f5b:	00 
    6f5c:	f3 0f 11 80 00 00 00 	movss  DWORD PTR [rax+0x0],xmm0
    6f63:	00 
    6f64:	f3 0f 10 88 00 00 00 	movss  xmm1,DWORD PTR [rax+0x0]
    6f6b:	00 
    6f6c:	f3 0f 58 88 00 00 00 	addss  xmm1,DWORD PTR [rax+0x0]
    6f73:	00 
    6f74:	f3 0f 58 c8          	addss  xmm1,xmm0
    6f78:	f3 0f 11 88 00 00 00 	movss  DWORD PTR [rax+0x0],xmm1
    6f7f:	00 
    6f80:	f3 0f 10 80 00 00 00 	movss  xmm0,DWORD PTR [rax+0x0]
    6f87:	00 
    6f88:	f3 0f 59 80 00 00 00 	mulss  xmm0,DWORD PTR [rax+0x0]
    6f8f:	00 
    6f90:	f3 0f 11 80 00 00 00 	movss  DWORD PTR [rax+0x0],xmm0
    6f97:	00 
    6f98:	f3 0f 10 88 00 00 00 	movss  xmm1,DWORD PTR [rax+0x0]
    6f9f:	00 
    6fa0:	f3 0f 58 88 00 00 00 	addss  xmm1,DWORD PTR [rax+0x0]
    6fa7:	00 
    6fa8:	f3 0f 58 c8          	addss  xmm1,xmm0
    6fac:	f3 0f 10 80 00 00 00 	movss  xmm0,DWORD PTR [rax+0x0]
    6fb3:	00 
    6fb4:	f3 0f 59 80 00 00 00 	mulss  xmm0,DWORD PTR [rax+0x0]
    6fbb:	00 
    6fbc:	f3 0f 11 88 00 00 00 	movss  DWORD PTR [rax+0x0],xmm1
    6fc3:	00 
    6fc4:	f3 0f 10 88 00 00 00 	movss  xmm1,DWORD PTR [rax+0x0]
    6fcb:	00 
    6fcc:	f3 0f 58 88 00 00 00 	addss  xmm1,DWORD PTR [rax+0x0]
    6fd3:	00 
    6fd4:	f3 0f 11 80 00 00 00 	movss  DWORD PTR [rax+0x0],xmm0
    6fdb:	00 
    6fdc:	f3 0f 58 c8          	addss  xmm1,xmm0
    6fe0:	f3 0f 11 88 00 00 00 	movss  DWORD PTR [rax+0x0],xmm1
    6fe7:	00 
    6fe8:	f3 0f 10 80 00 00 00 	movss  xmm0,DWORD PTR [rax+0x0]
    6fef:	00 
    6ff0:	f3 0f 59 80 00 00 00 	mulss  xmm0,DWORD PTR [rax+0x0]
    6ff7:	00 
    6ff8:	f3 0f 11 80 00 00 00 	movss  DWORD PTR [rax+0x0],xmm0
    6fff:	00 
    7000:	48 85 c0             	test   rax,rax
    7003:	74 3d                	je     7042 <s261+0x1da>
    7005:	f3 0f 10 88 00 00 00 	movss  xmm1,DWORD PTR [rax+0x0]
    700c:	00 
    700d:	f3 0f 58 88 00 00 00 	addss  xmm1,DWORD PTR [rax+0x0]
    7014:	00 
    7015:	f3 0f 58 c1          	addss  xmm0,xmm1
    7019:	f3 0f 11 80 00 00 00 	movss  DWORD PTR [rax+0x0],xmm0
    7020:	00 
    7021:	f3 0f 10 80 00 00 00 	movss  xmm0,DWORD PTR [rax+0x0]
    7028:	00 
    7029:	f3 0f 59 80 00 00 00 	mulss  xmm0,DWORD PTR [rax+0x0]
    7030:	00 
    7031:	f3 0f 11 80 00 00 00 	movss  DWORD PTR [rax+0x0],xmm0
    7038:	00 
    7039:	48 83 c0 20          	add    rax,0x20
    703d:	e9 52 fe ff ff       	jmp    6e94 <s261+0x2c>
    7042:	bf 00 00 00 00       	mov    edi,0x0
    7047:	be 00 00 00 00       	mov    esi,0x0
    704c:	ba 00 00 00 00       	mov    edx,0x0
    7051:	b9 00 00 00 00       	mov    ecx,0x0
    7056:	41 b8 00 00 00 00    	mov    r8d,0x0
    705c:	41 b9 00 00 00 00    	mov    r9d,0x0
    7062:	0f 57 c0             	xorps  xmm0,xmm0
    7065:	68 00 00 00 00       	push   0x0
    706a:	68 00 00 00 00       	push   0x0
    706f:	e8 00 00 00 00       	call   7074 <s261+0x20c>
    7074:	48 83 c4 10          	add    rsp,0x10
    7078:	ff c3                	inc    ebx
    707a:	81 fb a0 86 01 00    	cmp    ebx,0x186a0
    7080:	0f 85 ff fd ff ff    	jne    6e85 <s261+0x1d>
    7086:	49 83 c6 10          	add    r14,0x10
    708a:	4c 89 f7             	mov    rdi,r14
    708d:	31 f6                	xor    esi,esi
    708f:	e8 00 00 00 00       	call   7094 <s261+0x22c>
    7094:	bf 00 00 00 00       	mov    edi,0x0
    7099:	48 83 c4 08          	add    rsp,0x8
    709d:	5b                   	pop    rbx
    709e:	41 5e                	pop    r14
    70a0:	e9 00 00 00 00       	jmp    70a5 <s271>

00000000000070a5 <s271>:
    70a5:	41 56                	push   r14
    70a7:	53                   	push   rbx
    70a8:	50                   	push   rax
    70a9:	49 89 fe             	mov    r14,rdi
    70ac:	bf 00 00 00 00       	mov    edi,0x0
    70b1:	e8 00 00 00 00       	call   70b6 <s271+0x11>
    70b6:	31 db                	xor    ebx,ebx
    70b8:	4c 89 f7             	mov    rdi,r14
    70bb:	31 f6                	xor    esi,esi
    70bd:	e8 00 00 00 00       	call   70c2 <s271+0x1d>
    70c2:	0f 57 c9             	xorps  xmm1,xmm1
    70c5:	48 c7 c0 00 0c fe ff 	mov    rax,0xfffffffffffe0c00
    70cc:	f3 0f 10 80 00 00 00 	movss  xmm0,DWORD PTR [rax+0x0]
    70d3:	00 
    70d4:	0f 2e c1             	ucomiss xmm0,xmm1
    70d7:	76 18                	jbe    70f1 <s271+0x4c>
    70d9:	f3 0f 59 80 00 00 00 	mulss  xmm0,DWORD PTR [rax+0x0]
    70e0:	00 
    70e1:	f3 0f 58 80 00 00 00 	addss  xmm0,DWORD PTR [rax+0x0]
    70e8:	00 
    70e9:	f3 0f 11 80 00 00 00 	movss  DWORD PTR [rax+0x0],xmm0
    70f0:	00 
    70f1:	f3 0f 10 80 00 00 00 	movss  xmm0,DWORD PTR [rax+0x0]
    70f8:	00 
    70f9:	0f 2e c1             	ucomiss xmm0,xmm1
    70fc:	76 18                	jbe    7116 <s271+0x71>
    70fe:	f3 0f 59 80 00 00 00 	mulss  xmm0,DWORD PTR [rax+0x0]
    7105:	00 
    7106:	f3 0f 58 80 00 00 00 	addss  xmm0,DWORD PTR [rax+0x0]
    710d:	00 
    710e:	f3 0f 11 80 00 00 00 	movss  DWORD PTR [rax+0x0],xmm0
    7115:	00 
    7116:	f3 0f 10 80 00 00 00 	movss  xmm0,DWORD PTR [rax+0x0]
    711d:	00 
    711e:	0f 2e c1             	ucomiss xmm0,xmm1
    7121:	76 18                	jbe    713b <s271+0x96>
    7123:	f3 0f 59 80 00 00 00 	mulss  xmm0,DWORD PTR [rax+0x0]
    712a:	00 
    712b:	f3 0f 58 80 00 00 00 	addss  xmm0,DWORD PTR [rax+0x0]
    7132:	00 
    7133:	f3 0f 11 80 00 00 00 	movss  DWORD PTR [rax+0x0],xmm0
    713a:	00 
    713b:	f3 0f 10 80 00 00 00 	movss  xmm0,DWORD PTR [rax+0x0]
    7142:	00 
    7143:	0f 2e c1             	ucomiss xmm0,xmm1
    7146:	76 18                	jbe    7160 <s271+0xbb>
    7148:	f3 0f 59 80 00 00 00 	mulss  xmm0,DWORD PTR [rax+0x0]
    714f:	00 
    7150:	f3 0f 58 80 00 00 00 	addss  xmm0,DWORD PTR [rax+0x0]
    7157:	00 
    7158:	f3 0f 11 80 00 00 00 	movss  DWORD PTR [rax+0x0],xmm0
    715f:	00 
    7160:	f3 0f 10 80 00 00 00 	movss  xmm0,DWORD PTR [rax+0x0]
    7167:	00 
    7168:	0f 2e c1             	ucomiss xmm0,xmm1
    716b:	76 18                	jbe    7185 <s271+0xe0>
    716d:	f3 0f 59 80 00 00 00 	mulss  xmm0,DWORD PTR [rax+0x0]
    7174:	00 
    7175:	f3 0f 58 80 00 00 00 	addss  xmm0,DWORD PTR [rax+0x0]
    717c:	00 
    717d:	f3 0f 11 80 00 00 00 	movss  DWORD PTR [rax+0x0],xmm0
    7184:	00 
    7185:	f3 0f 10 80 00 00 00 	movss  xmm0,DWORD PTR [rax+0x0]
    718c:	00 
    718d:	0f 2e c1             	ucomiss xmm0,xmm1
    7190:	76 18                	jbe    71aa <s271+0x105>
    7192:	f3 0f 59 80 00 00 00 	mulss  xmm0,DWORD PTR [rax+0x0]
    7199:	00 
    719a:	f3 0f 58 80 00 00 00 	addss  xmm0,DWORD PTR [rax+0x0]
    71a1:	00 
    71a2:	f3 0f 11 80 00 00 00 	movss  DWORD PTR [rax+0x0],xmm0
    71a9:	00 
    71aa:	f3 0f 10 80 00 00 00 	movss  xmm0,DWORD PTR [rax+0x0]
    71b1:	00 
    71b2:	0f 2e c1             	ucomiss xmm0,xmm1
    71b5:	76 18                	jbe    71cf <s271+0x12a>
    71b7:	f3 0f 59 80 00 00 00 	mulss  xmm0,DWORD PTR [rax+0x0]
    71be:	00 
    71bf:	f3 0f 58 80 00 00 00 	addss  xmm0,DWORD PTR [rax+0x0]
    71c6:	00 
    71c7:	f3 0f 11 80 00 00 00 	movss  DWORD PTR [rax+0x0],xmm0
    71ce:	00 
    71cf:	f3 0f 10 80 00 00 00 	movss  xmm0,DWORD PTR [rax+0x0]
    71d6:	00 
    71d7:	0f 2e c1             	ucomiss xmm0,xmm1
    71da:	76 18                	jbe    71f4 <s271+0x14f>
    71dc:	f3 0f 59 80 00 00 00 	mulss  xmm0,DWORD PTR [rax+0x0]
    71e3:	00 
    71e4:	f3 0f 58 80 00 00 00 	addss  xmm0,DWORD PTR [rax+0x0]
    71eb:	00 
    71ec:	f3 0f 11 80 00 00 00 	movss  DWORD PTR [rax+0x0],xmm0
    71f3:	00 
    71f4:	48 83 c0 20          	add    rax,0x20
    71f8:	0f 85 ce fe ff ff    	jne    70cc <s271+0x27>
    71fe:	bf 00 00 00 00       	mov    edi,0x0
    7203:	be 00 00 00 00       	mov    esi,0x0
    7208:	ba 00 00 00 00       	mov    edx,0x0
    720d:	b9 00 00 00 00       	mov    ecx,0x0
    7212:	41 b8 00 00 00 00    	mov    r8d,0x0
    7218:	41 b9 00 00 00 00    	mov    r9d,0x0
    721e:	0f 57 c0             	xorps  xmm0,xmm0
    7221:	68 00 00 00 00       	push   0x0
    7226:	68 00 00 00 00       	push   0x0
    722b:	e8 00 00 00 00       	call   7230 <s271+0x18b>
    7230:	0f 57 c9             	xorps  xmm1,xmm1
    7233:	48 83 c4 10          	add    rsp,0x10
    7237:	ff c3                	inc    ebx
    7239:	81 fb 80 1a 06 00    	cmp    ebx,0x61a80
    723f:	0f 85 80 fe ff ff    	jne    70c5 <s271+0x20>
    7245:	49 83 c6 10          	add    r14,0x10
    7249:	4c 89 f7             	mov    rdi,r14
    724c:	31 f6                	xor    esi,esi
    724e:	e8 00 00 00 00       	call   7253 <s271+0x1ae>
    7253:	bf 00 00 00 00       	mov    edi,0x0
    7258:	48 83 c4 08          	add    rsp,0x8
    725c:	5b                   	pop    rbx
    725d:	41 5e                	pop    r14
    725f:	e9 00 00 00 00       	jmp    7264 <s272>

0000000000007264 <s272>:
    7264:	41 56                	push   r14
    7266:	53                   	push   rbx
    7267:	50                   	push   rax
    7268:	49 89 fe             	mov    r14,rdi
    726b:	48 8b 47 20          	mov    rax,QWORD PTR [rdi+0x20]
    726f:	f3 0f 2a 00          	cvtsi2ss xmm0,DWORD PTR [rax]
    7273:	f3 0f 11 44 24 04    	movss  DWORD PTR [rsp+0x4],xmm0
    7279:	bf 00 00 00 00       	mov    edi,0x0
    727e:	e8 00 00 00 00       	call   7283 <s272+0x1f>
    7283:	31 db                	xor    ebx,ebx
    7285:	4c 89 f7             	mov    rdi,r14
    7288:	31 f6                	xor    esi,esi
    728a:	e8 00 00 00 00       	call   728f <s272+0x2b>
    728f:	48 c7 c0 00 0c fe ff 	mov    rax,0xfffffffffffe0c00
    7296:	f3 0f 10 54 24 04    	movss  xmm2,DWORD PTR [rsp+0x4]
    729c:	f3 0f 10 80 00 00 00 	movss  xmm0,DWORD PTR [rax+0x0]
    72a3:	00 
    72a4:	0f 2e c2             	ucomiss xmm0,xmm2
    72a7:	72 38                	jb     72e1 <s272+0x7d>
    72a9:	f3 0f 10 80 00 00 00 	movss  xmm0,DWORD PTR [rax+0x0]
    72b0:	00 
    72b1:	f3 0f 10 88 00 00 00 	movss  xmm1,DWORD PTR [rax+0x0]
    72b8:	00 
    72b9:	f3 0f 59 c8          	mulss  xmm1,xmm0
    72bd:	f3 0f 58 88 00 00 00 	addss  xmm1,DWORD PTR [rax+0x0]
    72c4:	00 
    72c5:	f3 0f 11 88 00 00 00 	movss  DWORD PTR [rax+0x0],xmm1
    72cc:	00 
    72cd:	f3 0f 59 c0          	mulss  xmm0,xmm0
    72d1:	f3 0f 58 80 00 00 00 	addss  xmm0,DWORD PTR [rax+0x0]
    72d8:	00 
    72d9:	f3 0f 11 80 00 00 00 	movss  DWORD PTR [rax+0x0],xmm0
    72e0:	00 
    72e1:	f3 0f 10 80 00 00 00 	movss  xmm0,DWORD PTR [rax+0x0]
    72e8:	00 
    72e9:	0f 2e c2             	ucomiss xmm0,xmm2
    72ec:	72 38                	jb     7326 <s272+0xc2>
    72ee:	f3 0f 10 80 00 00 00 	movss  xmm0,DWORD PTR [rax+0x0]
    72f5:	00 
    72f6:	f3 0f 10 88 00 00 00 	movss  xmm1,DWORD PTR [rax+0x0]
    72fd:	00 
    72fe:	f3 0f 59 c8          	mulss  xmm1,xmm0
    7302:	f3 0f 58 88 00 00 00 	addss  xmm1,DWORD PTR [rax+0x0]
    7309:	00 
    730a:	f3 0f 11 88 00 00 00 	movss  DWORD PTR [rax+0x0],xmm1
    7311:	00 
    7312:	f3 0f 59 c0          	mulss  xmm0,xmm0
    7316:	f3 0f 58 80 00 00 00 	addss  xmm0,DWORD PTR [rax+0x0]
    731d:	00 
    731e:	f3 0f 11 80 00 00 00 	movss  DWORD PTR [rax+0x0],xmm0
    7325:	00 
    7326:	f3 0f 10 80 00 00 00 	movss  xmm0,DWORD PTR [rax+0x0]
    732d:	00 
    732e:	0f 2e c2             	ucomiss xmm0,xmm2
    7331:	72 38                	jb     736b <s272+0x107>
    7333:	f3 0f 10 80 00 00 00 	movss  xmm0,DWORD PTR [rax+0x0]
    733a:	00 
    733b:	f3 0f 10 88 00 00 00 	movss  xmm1,DWORD PTR [rax+0x0]
    7342:	00 
    7343:	f3 0f 59 c8          	mulss  xmm1,xmm0
    7347:	f3 0f 58 88 00 00 00 	addss  xmm1,DWORD PTR [rax+0x0]
    734e:	00 
    734f:	f3 0f 11 88 00 00 00 	movss  DWORD PTR [rax+0x0],xmm1
    7356:	00 
    7357:	f3 0f 59 c0          	mulss  xmm0,xmm0
    735b:	f3 0f 58 80 00 00 00 	addss  xmm0,DWORD PTR [rax+0x0]
    7362:	00 
    7363:	f3 0f 11 80 00 00 00 	movss  DWORD PTR [rax+0x0],xmm0
    736a:	00 
    736b:	f3 0f 10 80 00 00 00 	movss  xmm0,DWORD PTR [rax+0x0]
    7372:	00 
    7373:	0f 2e c2             	ucomiss xmm0,xmm2
    7376:	72 38                	jb     73b0 <s272+0x14c>
    7378:	f3 0f 10 80 00 00 00 	movss  xmm0,DWORD PTR [rax+0x0]
    737f:	00 
    7380:	f3 0f 10 88 00 00 00 	movss  xmm1,DWORD PTR [rax+0x0]
    7387:	00 
    7388:	f3 0f 59 c8          	mulss  xmm1,xmm0
    738c:	f3 0f 58 88 00 00 00 	addss  xmm1,DWORD PTR [rax+0x0]
    7393:	00 
    7394:	f3 0f 11 88 00 00 00 	movss  DWORD PTR [rax+0x0],xmm1
    739b:	00 
    739c:	f3 0f 59 c0          	mulss  xmm0,xmm0
    73a0:	f3 0f 58 80 00 00 00 	addss  xmm0,DWORD PTR [rax+0x0]
    73a7:	00 
    73a8:	f3 0f 11 80 00 00 00 	movss  DWORD PTR [rax+0x0],xmm0
    73af:	00 
    73b0:	f3 0f 10 80 00 00 00 	movss  xmm0,DWORD PTR [rax+0x0]
    73b7:	00 
    73b8:	0f 2e c2             	ucomiss xmm0,xmm2
    73bb:	72 38                	jb     73f5 <s272+0x191>
    73bd:	f3 0f 10 80 00 00 00 	movss  xmm0,DWORD PTR [rax+0x0]
    73c4:	00 
    73c5:	f3 0f 10 88 00 00 00 	movss  xmm1,DWORD PTR [rax+0x0]
    73cc:	00 
    73cd:	f3 0f 59 c8          	mulss  xmm1,xmm0
    73d1:	f3 0f 58 88 00 00 00 	addss  xmm1,DWORD PTR [rax+0x0]
    73d8:	00 
    73d9:	f3 0f 11 88 00 00 00 	movss  DWORD PTR [rax+0x0],xmm1
    73e0:	00 
    73e1:	f3 0f 59 c0          	mulss  xmm0,xmm0
    73e5:	f3 0f 58 80 00 00 00 	addss  xmm0,DWORD PTR [rax+0x0]
    73ec:	00 
    73ed:	f3 0f 11 80 00 00 00 	movss  DWORD PTR [rax+0x0],xmm0
    73f4:	00 
    73f5:	f3 0f 10 80 00 00 00 	movss  xmm0,DWORD PTR [rax+0x0]
    73fc:	00 
    73fd:	0f 2e c2             	ucomiss xmm0,xmm2
    7400:	72 38                	jb     743a <s272+0x1d6>
    7402:	f3 0f 10 80 00 00 00 	movss  xmm0,DWORD PTR [rax+0x0]
    7409:	00 
    740a:	f3 0f 10 88 00 00 00 	movss  xmm1,DWORD PTR [rax+0x0]
    7411:	00 
    7412:	f3 0f 59 c8          	mulss  xmm1,xmm0
    7416:	f3 0f 58 88 00 00 00 	addss  xmm1,DWORD PTR [rax+0x0]
    741d:	00 
    741e:	f3 0f 11 88 00 00 00 	movss  DWORD PTR [rax+0x0],xmm1
    7425:	00 
    7426:	f3 0f 59 c0          	mulss  xmm0,xmm0
    742a:	f3 0f 58 80 00 00 00 	addss  xmm0,DWORD PTR [rax+0x0]
    7431:	00 
    7432:	f3 0f 11 80 00 00 00 	movss  DWORD PTR [rax+0x0],xmm0
    7439:	00 
    743a:	f3 0f 10 80 00 00 00 	movss  xmm0,DWORD PTR [rax+0x0]
    7441:	00 
    7442:	0f 2e c2             	ucomiss xmm0,xmm2
    7445:	72 38                	jb     747f <s272+0x21b>
    7447:	f3 0f 10 80 00 00 00 	movss  xmm0,DWORD PTR [rax+0x0]
    744e:	00 
    744f:	f3 0f 10 88 00 00 00 	movss  xmm1,DWORD PTR [rax+0x0]
    7456:	00 
    7457:	f3 0f 59 c8          	mulss  xmm1,xmm0
    745b:	f3 0f 58 88 00 00 00 	addss  xmm1,DWORD PTR [rax+0x0]
    7462:	00 
    7463:	f3 0f 11 88 00 00 00 	movss  DWORD PTR [rax+0x0],xmm1
    746a:	00 
    746b:	f3 0f 59 c0          	mulss  xmm0,xmm0
    746f:	f3 0f 58 80 00 00 00 	addss  xmm0,DWORD PTR [rax+0x0]
    7476:	00 
    7477:	f3 0f 11 80 00 00 00 	movss  DWORD PTR [rax+0x0],xmm0
    747e:	00 
    747f:	f3 0f 10 80 00 00 00 	movss  xmm0,DWORD PTR [rax+0x0]
    7486:	00 
    7487:	0f 2e c2             	ucomiss xmm0,xmm2
    748a:	72 38                	jb     74c4 <s272+0x260>
    748c:	f3 0f 10 80 00 00 00 	movss  xmm0,DWORD PTR [rax+0x0]
    7493:	00 
    7494:	f3 0f 10 88 00 00 00 	movss  xmm1,DWORD PTR [rax+0x0]
    749b:	00 
    749c:	f3 0f 59 c8          	mulss  xmm1,xmm0
    74a0:	f3 0f 58 88 00 00 00 	addss  xmm1,DWORD PTR [rax+0x0]
    74a7:	00 
    74a8:	f3 0f 11 88 00 00 00 	movss  DWORD PTR [rax+0x0],xmm1
    74af:	00 
    74b0:	f3 0f 59 c0          	mulss  xmm0,xmm0
    74b4:	f3 0f 58 80 00 00 00 	addss  xmm0,DWORD PTR [rax+0x0]
    74bb:	00 
    74bc:	f3 0f 11 80 00 00 00 	movss  DWORD PTR [rax+0x0],xmm0
    74c3:	00 
    74c4:	48 83 c0 20          	add    rax,0x20
    74c8:	0f 85 ce fd ff ff    	jne    729c <s272+0x38>
    74ce:	bf 00 00 00 00       	mov    edi,0x0
    74d3:	be 00 00 00 00       	mov    esi,0x0
    74d8:	ba 00 00 00 00       	mov    edx,0x0
    74dd:	b9 00 00 00 00       	mov    ecx,0x0
    74e2:	41 b8 00 00 00 00    	mov    r8d,0x0
    74e8:	41 b9 00 00 00 00    	mov    r9d,0x0
    74ee:	0f 57 c0             	xorps  xmm0,xmm0
    74f1:	68 00 00 00 00       	push   0x0
    74f6:	68 00 00 00 00       	push   0x0
    74fb:	e8 00 00 00 00       	call   7500 <s272+0x29c>
    7500:	48 83 c4 10          	add    rsp,0x10
    7504:	ff c3                	inc    ebx
    7506:	81 fb a0 86 01 00    	cmp    ebx,0x186a0
    750c:	0f 85 7d fd ff ff    	jne    728f <s272+0x2b>
    7512:	49 83 c6 10          	add    r14,0x10
    7516:	4c 89 f7             	mov    rdi,r14
    7519:	31 f6                	xor    esi,esi
    751b:	e8 00 00 00 00       	call   7520 <s272+0x2bc>
    7520:	bf 00 00 00 00       	mov    edi,0x0
    7525:	48 83 c4 08          	add    rsp,0x8
    7529:	5b                   	pop    rbx
    752a:	41 5e                	pop    r14
    752c:	e9 00 00 00 00       	jmp    7531 <s273>

0000000000007531 <s273>:
    7531:	41 56                	push   r14
    7533:	53                   	push   rbx
    7534:	50                   	push   rax
    7535:	49 89 fe             	mov    r14,rdi
    7538:	bf 00 00 00 00       	mov    edi,0x0
    753d:	e8 00 00 00 00       	call   7542 <s273+0x11>
    7542:	31 db                	xor    ebx,ebx
    7544:	4c 89 f7             	mov    rdi,r14
    7547:	31 f6                	xor    esi,esi
    7549:	e8 00 00 00 00       	call   754e <s273+0x1d>
    754e:	0f 57 db             	xorps  xmm3,xmm3
    7551:	48 c7 c0 00 0c fe ff 	mov    rax,0xfffffffffffe0c00
    7558:	f3 0f 10 80 00 00 00 	movss  xmm0,DWORD PTR [rax+0x0]
    755f:	00 
    7560:	f3 0f 10 90 00 00 00 	movss  xmm2,DWORD PTR [rax+0x0]
    7567:	00 
    7568:	f3 0f 59 d0          	mulss  xmm2,xmm0
    756c:	f3 0f 10 88 00 00 00 	movss  xmm1,DWORD PTR [rax+0x0]
    7573:	00 
    7574:	f3 0f 58 ca          	addss  xmm1,xmm2
    7578:	f3 0f 11 88 00 00 00 	movss  DWORD PTR [rax+0x0],xmm1
    757f:	00 
    7580:	0f 2e d9             	ucomiss xmm3,xmm1
    7583:	76 10                	jbe    7595 <s273+0x64>
    7585:	f3 0f 58 90 00 00 00 	addss  xmm2,DWORD PTR [rax+0x0]
    758c:	00 
    758d:	f3 0f 11 90 00 00 00 	movss  DWORD PTR [rax+0x0],xmm2
    7594:	00 
    7595:	f3 0f 59 c1          	mulss  xmm0,xmm1
    7599:	f3 0f 58 80 00 00 00 	addss  xmm0,DWORD PTR [rax+0x0]
    75a0:	00 
    75a1:	f3 0f 11 80 00 00 00 	movss  DWORD PTR [rax+0x0],xmm0
    75a8:	00 
    75a9:	f3 0f 10 80 00 00 00 	movss  xmm0,DWORD PTR [rax+0x0]
    75b0:	00 
    75b1:	f3 0f 10 90 00 00 00 	movss  xmm2,DWORD PTR [rax+0x0]
    75b8:	00 
    75b9:	f3 0f 59 d0          	mulss  xmm2,xmm0
    75bd:	f3 0f 10 88 00 00 00 	movss  xmm1,DWORD PTR [rax+0x0]
    75c4:	00 
    75c5:	f3 0f 58 ca          	addss  xmm1,xmm2
    75c9:	f3 0f 11 88 00 00 00 	movss  DWORD PTR [rax+0x0],xmm1
    75d0:	00 
    75d1:	0f 2e d9             	ucomiss xmm3,xmm1
    75d4:	76 10                	jbe    75e6 <s273+0xb5>
    75d6:	f3 0f 58 90 00 00 00 	addss  xmm2,DWORD PTR [rax+0x0]
    75dd:	00 
    75de:	f3 0f 11 90 00 00 00 	movss  DWORD PTR [rax+0x0],xmm2
    75e5:	00 
    75e6:	f3 0f 59 c1          	mulss  xmm0,xmm1
    75ea:	f3 0f 58 80 00 00 00 	addss  xmm0,DWORD PTR [rax+0x0]
    75f1:	00 
    75f2:	f3 0f 11 80 00 00 00 	movss  DWORD PTR [rax+0x0],xmm0
    75f9:	00 
    75fa:	f3 0f 10 80 00 00 00 	movss  xmm0,DWORD PTR [rax+0x0]
    7601:	00 
    7602:	f3 0f 10 90 00 00 00 	movss  xmm2,DWORD PTR [rax+0x0]
    7609:	00 
    760a:	f3 0f 59 d0          	mulss  xmm2,xmm0
    760e:	f3 0f 10 88 00 00 00 	movss  xmm1,DWORD PTR [rax+0x0]
    7615:	00 
    7616:	f3 0f 58 ca          	addss  xmm1,xmm2
    761a:	f3 0f 11 88 00 00 00 	movss  DWORD PTR [rax+0x0],xmm1
    7621:	00 
    7622:	0f 2e d9             	ucomiss xmm3,xmm1
    7625:	76 10                	jbe    7637 <s273+0x106>
    7627:	f3 0f 58 90 00 00 00 	addss  xmm2,DWORD PTR [rax+0x0]
    762e:	00 
    762f:	f3 0f 11 90 00 00 00 	movss  DWORD PTR [rax+0x0],xmm2
    7636:	00 
    7637:	f3 0f 59 c1          	mulss  xmm0,xmm1
    763b:	f3 0f 58 80 00 00 00 	addss  xmm0,DWORD PTR [rax+0x0]
    7642:	00 
    7643:	f3 0f 11 80 00 00 00 	movss  DWORD PTR [rax+0x0],xmm0
    764a:	00 
    764b:	f3 0f 10 80 00 00 00 	movss  xmm0,DWORD PTR [rax+0x0]
    7652:	00 
    7653:	f3 0f 10 90 00 00 00 	movss  xmm2,DWORD PTR [rax+0x0]
    765a:	00 
    765b:	f3 0f 59 d0          	mulss  xmm2,xmm0
    765f:	f3 0f 10 88 00 00 00 	movss  xmm1,DWORD PTR [rax+0x0]
    7666:	00 
    7667:	f3 0f 58 ca          	addss  xmm1,xmm2
    766b:	f3 0f 11 88 00 00 00 	movss  DWORD PTR [rax+0x0],xmm1
    7672:	00 
    7673:	0f 2e d9             	ucomiss xmm3,xmm1
    7676:	76 10                	jbe    7688 <s273+0x157>
    7678:	f3 0f 58 90 00 00 00 	addss  xmm2,DWORD PTR [rax+0x0]
    767f:	00 
    7680:	f3 0f 11 90 00 00 00 	movss  DWORD PTR [rax+0x0],xmm2
    7687:	00 
    7688:	f3 0f 59 c1          	mulss  xmm0,xmm1
    768c:	f3 0f 58 80 00 00 00 	addss  xmm0,DWORD PTR [rax+0x0]
    7693:	00 
    7694:	f3 0f 11 80 00 00 00 	movss  DWORD PTR [rax+0x0],xmm0
    769b:	00 
    769c:	f3 0f 10 80 00 00 00 	movss  xmm0,DWORD PTR [rax+0x0]
    76a3:	00 
    76a4:	f3 0f 10 90 00 00 00 	movss  xmm2,DWORD PTR [rax+0x0]
    76ab:	00 
    76ac:	f3 0f 59 d0          	mulss  xmm2,xmm0
    76b0:	f3 0f 10 88 00 00 00 	movss  xmm1,DWORD PTR [rax+0x0]
    76b7:	00 
    76b8:	f3 0f 58 ca          	addss  xmm1,xmm2
    76bc:	f3 0f 11 88 00 00 00 	movss  DWORD PTR [rax+0x0],xmm1
    76c3:	00 
    76c4:	0f 2e d9             	ucomiss xmm3,xmm1
    76c7:	76 10                	jbe    76d9 <s273+0x1a8>
    76c9:	f3 0f 58 90 00 00 00 	addss  xmm2,DWORD PTR [rax+0x0]
    76d0:	00 
    76d1:	f3 0f 11 90 00 00 00 	movss  DWORD PTR [rax+0x0],xmm2
    76d8:	00 
    76d9:	f3 0f 59 c1          	mulss  xmm0,xmm1
    76dd:	f3 0f 58 80 00 00 00 	addss  xmm0,DWORD PTR [rax+0x0]
    76e4:	00 
    76e5:	f3 0f 11 80 00 00 00 	movss  DWORD PTR [rax+0x0],xmm0
    76ec:	00 
    76ed:	f3 0f 10 80 00 00 00 	movss  xmm0,DWORD PTR [rax+0x0]
    76f4:	00 
    76f5:	f3 0f 10 90 00 00 00 	movss  xmm2,DWORD PTR [rax+0x0]
    76fc:	00 
    76fd:	f3 0f 59 d0          	mulss  xmm2,xmm0
    7701:	f3 0f 10 88 00 00 00 	movss  xmm1,DWORD PTR [rax+0x0]
    7708:	00 
    7709:	f3 0f 58 ca          	addss  xmm1,xmm2
    770d:	f3 0f 11 88 00 00 00 	movss  DWORD PTR [rax+0x0],xmm1
    7714:	00 
    7715:	0f 2e d9             	ucomiss xmm3,xmm1
    7718:	76 10                	jbe    772a <s273+0x1f9>
    771a:	f3 0f 58 90 00 00 00 	addss  xmm2,DWORD PTR [rax+0x0]
    7721:	00 
    7722:	f3 0f 11 90 00 00 00 	movss  DWORD PTR [rax+0x0],xmm2
    7729:	00 
    772a:	f3 0f 59 c1          	mulss  xmm0,xmm1
    772e:	f3 0f 58 80 00 00 00 	addss  xmm0,DWORD PTR [rax+0x0]
    7735:	00 
    7736:	f3 0f 11 80 00 00 00 	movss  DWORD PTR [rax+0x0],xmm0
    773d:	00 
    773e:	f3 0f 10 80 00 00 00 	movss  xmm0,DWORD PTR [rax+0x0]
    7745:	00 
    7746:	f3 0f 10 90 00 00 00 	movss  xmm2,DWORD PTR [rax+0x0]
    774d:	00 
    774e:	f3 0f 59 d0          	mulss  xmm2,xmm0
    7752:	f3 0f 10 88 00 00 00 	movss  xmm1,DWORD PTR [rax+0x0]
    7759:	00 
    775a:	f3 0f 58 ca          	addss  xmm1,xmm2
    775e:	f3 0f 11 88 00 00 00 	movss  DWORD PTR [rax+0x0],xmm1
    7765:	00 
    7766:	0f 2e d9             	ucomiss xmm3,xmm1
    7769:	76 10                	jbe    777b <s273+0x24a>
    776b:	f3 0f 58 90 00 00 00 	addss  xmm2,DWORD PTR [rax+0x0]
    7772:	00 
    7773:	f3 0f 11 90 00 00 00 	movss  DWORD PTR [rax+0x0],xmm2
    777a:	00 
    777b:	f3 0f 59 c1          	mulss  xmm0,xmm1
    777f:	f3 0f 58 80 00 00 00 	addss  xmm0,DWORD PTR [rax+0x0]
    7786:	00 
    7787:	f3 0f 11 80 00 00 00 	movss  DWORD PTR [rax+0x0],xmm0
    778e:	00 
    778f:	f3 0f 10 80 00 00 00 	movss  xmm0,DWORD PTR [rax+0x0]
    7796:	00 
    7797:	f3 0f 10 90 00 00 00 	movss  xmm2,DWORD PTR [rax+0x0]
    779e:	00 
    779f:	f3 0f 59 d0          	mulss  xmm2,xmm0
    77a3:	f3 0f 10 88 00 00 00 	movss  xmm1,DWORD PTR [rax+0x0]
    77aa:	00 
    77ab:	f3 0f 58 ca          	addss  xmm1,xmm2
    77af:	f3 0f 11 88 00 00 00 	movss  DWORD PTR [rax+0x0],xmm1
    77b6:	00 
    77b7:	0f 2e d9             	ucomiss xmm3,xmm1
    77ba:	76 10                	jbe    77cc <s273+0x29b>
    77bc:	f3 0f 58 90 00 00 00 	addss  xmm2,DWORD PTR [rax+0x0]
    77c3:	00 
    77c4:	f3 0f 11 90 00 00 00 	movss  DWORD PTR [rax+0x0],xmm2
    77cb:	00 
    77cc:	f3 0f 59 c1          	mulss  xmm0,xmm1
    77d0:	f3 0f 58 80 00 00 00 	addss  xmm0,DWORD PTR [rax+0x0]
    77d7:	00 
    77d8:	f3 0f 11 80 00 00 00 	movss  DWORD PTR [rax+0x0],xmm0
    77df:	00 
    77e0:	48 83 c0 20          	add    rax,0x20
    77e4:	0f 85 6e fd ff ff    	jne    7558 <s273+0x27>
    77ea:	bf 00 00 00 00       	mov    edi,0x0
    77ef:	be 00 00 00 00       	mov    esi,0x0
    77f4:	ba 00 00 00 00       	mov    edx,0x0
    77f9:	b9 00 00 00 00       	mov    ecx,0x0
    77fe:	41 b8 00 00 00 00    	mov    r8d,0x0
    7804:	41 b9 00 00 00 00    	mov    r9d,0x0
    780a:	0f 57 c0             	xorps  xmm0,xmm0
    780d:	68 00 00 00 00       	push   0x0
    7812:	68 00 00 00 00       	push   0x0
    7817:	e8 00 00 00 00       	call   781c <s273+0x2eb>
    781c:	0f 57 db             	xorps  xmm3,xmm3
    781f:	48 83 c4 10          	add    rsp,0x10
    7823:	ff c3                	inc    ebx
    7825:	81 fb a0 86 01 00    	cmp    ebx,0x186a0
    782b:	0f 85 20 fd ff ff    	jne    7551 <s273+0x20>
    7831:	49 83 c6 10          	add    r14,0x10
    7835:	4c 89 f7             	mov    rdi,r14
    7838:	31 f6                	xor    esi,esi
    783a:	e8 00 00 00 00       	call   783f <s273+0x30e>
    783f:	bf 00 00 00 00       	mov    edi,0x0
    7844:	48 83 c4 08          	add    rsp,0x8
    7848:	5b                   	pop    rbx
    7849:	41 5e                	pop    r14
    784b:	e9 00 00 00 00       	jmp    7850 <s274>

0000000000007850 <s274>:
    7850:	41 56                	push   r14
    7852:	53                   	push   rbx
    7853:	50                   	push   rax
    7854:	49 89 fe             	mov    r14,rdi
    7857:	bf 00 00 00 00       	mov    edi,0x0
    785c:	e8 00 00 00 00       	call   7861 <s274+0x11>
    7861:	31 db                	xor    ebx,ebx
    7863:	4c 89 f7             	mov    rdi,r14
    7866:	31 f6                	xor    esi,esi
    7868:	e8 00 00 00 00       	call   786d <s274+0x1d>
    786d:	0f 57 d2             	xorps  xmm2,xmm2
    7870:	48 c7 c0 00 0c fe ff 	mov    rax,0xfffffffffffe0c00
    7877:	f3 0f 10 80 00 00 00 	movss  xmm0,DWORD PTR [rax+0x0]
    787e:	00 
    787f:	f3 0f 59 80 00 00 00 	mulss  xmm0,DWORD PTR [rax+0x0]
    7886:	00 
    7887:	f3 0f 10 88 00 00 00 	movss  xmm1,DWORD PTR [rax+0x0]
    788e:	00 
    788f:	f3 0f 58 c8          	addss  xmm1,xmm0
    7893:	f3 0f 11 88 00 00 00 	movss  DWORD PTR [rax+0x0],xmm1
    789a:	00 
    789b:	0f 2e ca             	ucomiss xmm1,xmm2
    789e:	76 12                	jbe    78b2 <s274+0x62>
    78a0:	f3 0f 58 88 00 00 00 	addss  xmm1,DWORD PTR [rax+0x0]
    78a7:	00 
    78a8:	f3 0f 11 88 00 00 00 	movss  DWORD PTR [rax+0x0],xmm1
    78af:	00 
    78b0:	eb 08                	jmp    78ba <s274+0x6a>
    78b2:	f3 0f 11 80 00 00 00 	movss  DWORD PTR [rax+0x0],xmm0
    78b9:	00 
    78ba:	f3 0f 10 80 00 00 00 	movss  xmm0,DWORD PTR [rax+0x0]
    78c1:	00 
    78c2:	f3 0f 59 80 00 00 00 	mulss  xmm0,DWORD PTR [rax+0x0]
    78c9:	00 
    78ca:	f3 0f 10 88 00 00 00 	movss  xmm1,DWORD PTR [rax+0x0]
    78d1:	00 
    78d2:	f3 0f 58 c8          	addss  xmm1,xmm0
    78d6:	f3 0f 11 88 00 00 00 	movss  DWORD PTR [rax+0x0],xmm1
    78dd:	00 
    78de:	0f 2e ca             	ucomiss xmm1,xmm2
    78e1:	76 12                	jbe    78f5 <s274+0xa5>
    78e3:	f3 0f 58 88 00 00 00 	addss  xmm1,DWORD PTR [rax+0x0]
    78ea:	00 
    78eb:	f3 0f 11 88 00 00 00 	movss  DWORD PTR [rax+0x0],xmm1
    78f2:	00 
    78f3:	eb 08                	jmp    78fd <s274+0xad>
    78f5:	f3 0f 11 80 00 00 00 	movss  DWORD PTR [rax+0x0],xmm0
    78fc:	00 
    78fd:	f3 0f 10 80 00 00 00 	movss  xmm0,DWORD PTR [rax+0x0]
    7904:	00 
    7905:	f3 0f 59 80 00 00 00 	mulss  xmm0,DWORD PTR [rax+0x0]
    790c:	00 
    790d:	f3 0f 10 88 00 00 00 	movss  xmm1,DWORD PTR [rax+0x0]
    7914:	00 
    7915:	f3 0f 58 c8          	addss  xmm1,xmm0
    7919:	f3 0f 11 88 00 00 00 	movss  DWORD PTR [rax+0x0],xmm1
    7920:	00 
    7921:	0f 2e ca             	ucomiss xmm1,xmm2
    7924:	76 12                	jbe    7938 <s274+0xe8>
    7926:	f3 0f 58 88 00 00 00 	addss  xmm1,DWORD PTR [rax+0x0]
    792d:	00 
    792e:	f3 0f 11 88 00 00 00 	movss  DWORD PTR [rax+0x0],xmm1
    7935:	00 
    7936:	eb 08                	jmp    7940 <s274+0xf0>
    7938:	f3 0f 11 80 00 00 00 	movss  DWORD PTR [rax+0x0],xmm0
    793f:	00 
    7940:	f3 0f 10 80 00 00 00 	movss  xmm0,DWORD PTR [rax+0x0]
    7947:	00 
    7948:	f3 0f 59 80 00 00 00 	mulss  xmm0,DWORD PTR [rax+0x0]
    794f:	00 
    7950:	f3 0f 10 88 00 00 00 	movss  xmm1,DWORD PTR [rax+0x0]
    7957:	00 
    7958:	f3 0f 58 c8          	addss  xmm1,xmm0
    795c:	f3 0f 11 88 00 00 00 	movss  DWORD PTR [rax+0x0],xmm1
    7963:	00 
    7964:	0f 2e ca             	ucomiss xmm1,xmm2
    7967:	76 12                	jbe    797b <s274+0x12b>
    7969:	f3 0f 58 88 00 00 00 	addss  xmm1,DWORD PTR [rax+0x0]
    7970:	00 
    7971:	f3 0f 11 88 00 00 00 	movss  DWORD PTR [rax+0x0],xmm1
    7978:	00 
    7979:	eb 08                	jmp    7983 <s274+0x133>
    797b:	f3 0f 11 80 00 00 00 	movss  DWORD PTR [rax+0x0],xmm0
    7982:	00 
    7983:	f3 0f 10 80 00 00 00 	movss  xmm0,DWORD PTR [rax+0x0]
    798a:	00 
    798b:	f3 0f 59 80 00 00 00 	mulss  xmm0,DWORD PTR [rax+0x0]
    7992:	00 
    7993:	f3 0f 10 88 00 00 00 	movss  xmm1,DWORD PTR [rax+0x0]
    799a:	00 
    799b:	f3 0f 58 c8          	addss  xmm1,xmm0
    799f:	f3 0f 11 88 00 00 00 	movss  DWORD PTR [rax+0x0],xmm1
    79a6:	00 
    79a7:	0f 2e ca             	ucomiss xmm1,xmm2
    79aa:	76 12                	jbe    79be <s274+0x16e>
    79ac:	f3 0f 58 88 00 00 00 	addss  xmm1,DWORD PTR [rax+0x0]
    79b3:	00 
    79b4:	f3 0f 11 88 00 00 00 	movss  DWORD PTR [rax+0x0],xmm1
    79bb:	00 
    79bc:	eb 08                	jmp    79c6 <s274+0x176>
    79be:	f3 0f 11 80 00 00 00 	movss  DWORD PTR [rax+0x0],xmm0
    79c5:	00 
    79c6:	f3 0f 10 80 00 00 00 	movss  xmm0,DWORD PTR [rax+0x0]
    79cd:	00 
    79ce:	f3 0f 59 80 00 00 00 	mulss  xmm0,DWORD PTR [rax+0x0]
    79d5:	00 
    79d6:	f3 0f 10 88 00 00 00 	movss  xmm1,DWORD PTR [rax+0x0]
    79dd:	00 
    79de:	f3 0f 58 c8          	addss  xmm1,xmm0
    79e2:	f3 0f 11 88 00 00 00 	movss  DWORD PTR [rax+0x0],xmm1
    79e9:	00 
    79ea:	0f 2e ca             	ucomiss xmm1,xmm2
    79ed:	76 12                	jbe    7a01 <s274+0x1b1>
    79ef:	f3 0f 58 88 00 00 00 	addss  xmm1,DWORD PTR [rax+0x0]
    79f6:	00 
    79f7:	f3 0f 11 88 00 00 00 	movss  DWORD PTR [rax+0x0],xmm1
    79fe:	00 
    79ff:	eb 08                	jmp    7a09 <s274+0x1b9>
    7a01:	f3 0f 11 80 00 00 00 	movss  DWORD PTR [rax+0x0],xmm0
    7a08:	00 
    7a09:	f3 0f 10 80 00 00 00 	movss  xmm0,DWORD PTR [rax+0x0]
    7a10:	00 
    7a11:	f3 0f 59 80 00 00 00 	mulss  xmm0,DWORD PTR [rax+0x0]
    7a18:	00 
    7a19:	f3 0f 10 88 00 00 00 	movss  xmm1,DWORD PTR [rax+0x0]
    7a20:	00 
    7a21:	f3 0f 58 c8          	addss  xmm1,xmm0
    7a25:	f3 0f 11 88 00 00 00 	movss  DWORD PTR [rax+0x0],xmm1
    7a2c:	00 
    7a2d:	0f 2e ca             	ucomiss xmm1,xmm2
    7a30:	76 12                	jbe    7a44 <s274+0x1f4>
    7a32:	f3 0f 58 88 00 00 00 	addss  xmm1,DWORD PTR [rax+0x0]
    7a39:	00 
    7a3a:	f3 0f 11 88 00 00 00 	movss  DWORD PTR [rax+0x0],xmm1
    7a41:	00 
    7a42:	eb 08                	jmp    7a4c <s274+0x1fc>
    7a44:	f3 0f 11 80 00 00 00 	movss  DWORD PTR [rax+0x0],xmm0
    7a4b:	00 
    7a4c:	f3 0f 10 80 00 00 00 	movss  xmm0,DWORD PTR [rax+0x0]
    7a53:	00 
    7a54:	f3 0f 59 80 00 00 00 	mulss  xmm0,DWORD PTR [rax+0x0]
    7a5b:	00 
    7a5c:	f3 0f 10 88 00 00 00 	movss  xmm1,DWORD PTR [rax+0x0]
    7a63:	00 
    7a64:	f3 0f 58 c8          	addss  xmm1,xmm0
    7a68:	f3 0f 11 88 00 00 00 	movss  DWORD PTR [rax+0x0],xmm1
    7a6f:	00 
    7a70:	0f 2e ca             	ucomiss xmm1,xmm2
    7a73:	76 12                	jbe    7a87 <s274+0x237>
    7a75:	f3 0f 58 88 00 00 00 	addss  xmm1,DWORD PTR [rax+0x0]
    7a7c:	00 
    7a7d:	f3 0f 11 88 00 00 00 	movss  DWORD PTR [rax+0x0],xmm1
    7a84:	00 
    7a85:	eb 08                	jmp    7a8f <s274+0x23f>
    7a87:	f3 0f 11 80 00 00 00 	movss  DWORD PTR [rax+0x0],xmm0
    7a8e:	00 
    7a8f:	48 83 c0 20          	add    rax,0x20
    7a93:	0f 85 de fd ff ff    	jne    7877 <s274+0x27>
    7a99:	bf 00 00 00 00       	mov    edi,0x0
    7a9e:	be 00 00 00 00       	mov    esi,0x0
    7aa3:	ba 00 00 00 00       	mov    edx,0x0
    7aa8:	b9 00 00 00 00       	mov    ecx,0x0
    7aad:	41 b8 00 00 00 00    	mov    r8d,0x0
    7ab3:	41 b9 00 00 00 00    	mov    r9d,0x0
    7ab9:	0f 57 c0             	xorps  xmm0,xmm0
    7abc:	68 00 00 00 00       	push   0x0
    7ac1:	68 00 00 00 00       	push   0x0
    7ac6:	e8 00 00 00 00       	call   7acb <s274+0x27b>
    7acb:	0f 57 d2             	xorps  xmm2,xmm2
    7ace:	48 83 c4 10          	add    rsp,0x10
    7ad2:	ff c3                	inc    ebx
    7ad4:	81 fb a0 86 01 00    	cmp    ebx,0x186a0
    7ada:	0f 85 90 fd ff ff    	jne    7870 <s274+0x20>
    7ae0:	49 83 c6 10          	add    r14,0x10
    7ae4:	4c 89 f7             	mov    rdi,r14
    7ae7:	31 f6                	xor    esi,esi
    7ae9:	e8 00 00 00 00       	call   7aee <s274+0x29e>
    7aee:	bf 00 00 00 00       	mov    edi,0x0
    7af3:	48 83 c4 08          	add    rsp,0x8
    7af7:	5b                   	pop    rbx
    7af8:	41 5e                	pop    r14
    7afa:	e9 00 00 00 00       	jmp    7aff <s275>

0000000000007aff <s275>:
    7aff:	41 56                	push   r14
    7b01:	53                   	push   rbx
    7b02:	50                   	push   rax
    7b03:	49 89 fe             	mov    r14,rdi
    7b06:	bf 00 00 00 00       	mov    edi,0x0
    7b0b:	e8 00 00 00 00       	call   7b10 <s275+0x11>
    7b10:	31 db                	xor    ebx,ebx
    7b12:	4c 89 f7             	mov    rdi,r14
    7b15:	31 f6                	xor    esi,esi
    7b17:	e8 00 00 00 00       	call   7b1c <s275+0x1d>
    7b1c:	0f 57 db             	xorps  xmm3,xmm3
    7b1f:	b8 00 20 00 00       	mov    eax,0x2000
    7b24:	31 c9                	xor    ecx,ecx
    7b26:	f3 0f 10 04 8d 00 00 	movss  xmm0,DWORD PTR [rcx*4+0x0]
    7b2d:	00 00 
    7b2f:	0f 2e c3             	ucomiss xmm0,xmm3
    7b32:	0f 86 10 01 00 00    	jbe    7c48 <s275+0x149>
    7b38:	48 c7 c2 00 20 fc ff 	mov    rdx,0xfffffffffffc2000
    7b3f:	f3 0f 10 8c 10 00 00 	movss  xmm1,DWORD PTR [rax+rdx*1+0x0]
    7b46:	00 00 
    7b48:	f3 0f 59 8c 10 00 00 	mulss  xmm1,DWORD PTR [rax+rdx*1+0x0]
    7b4f:	00 00 
    7b51:	f3 0f 58 c8          	addss  xmm1,xmm0
    7b55:	f3 0f 11 8c 10 00 00 	movss  DWORD PTR [rax+rdx*1+0x0],xmm1
    7b5c:	00 00 
    7b5e:	f3 0f 10 84 10 00 00 	movss  xmm0,DWORD PTR [rax+rdx*1+0x0]
    7b65:	00 00 
    7b67:	f3 0f 59 84 10 00 00 	mulss  xmm0,DWORD PTR [rax+rdx*1+0x0]
    7b6e:	00 00 
    7b70:	f3 0f 58 c1          	addss  xmm0,xmm1
    7b74:	f3 0f 10 8c 10 00 00 	movss  xmm1,DWORD PTR [rax+rdx*1+0x0]
    7b7b:	00 00 
    7b7d:	f3 0f 59 8c 10 00 00 	mulss  xmm1,DWORD PTR [rax+rdx*1+0x0]
    7b84:	00 00 
    7b86:	f3 0f 11 84 10 00 00 	movss  DWORD PTR [rax+rdx*1+0x0],xmm0
    7b8d:	00 00 
    7b8f:	f3 0f 58 c8          	addss  xmm1,xmm0
    7b93:	f3 0f 11 8c 10 00 00 	movss  DWORD PTR [rax+rdx*1+0x0],xmm1
    7b9a:	00 00 
    7b9c:	f3 0f 10 84 10 00 00 	movss  xmm0,DWORD PTR [rax+rdx*1+0x0]
    7ba3:	00 00 
    7ba5:	f3 0f 59 84 10 00 00 	mulss  xmm0,DWORD PTR [rax+rdx*1+0x0]
    7bac:	00 00 
    7bae:	f3 0f 58 c1          	addss  xmm0,xmm1
    7bb2:	f3 0f 11 84 10 00 00 	movss  DWORD PTR [rax+rdx*1+0x0],xmm0
    7bb9:	00 00 
    7bbb:	f3 0f 10 8c 10 00 00 	movss  xmm1,DWORD PTR [rax+rdx*1+0x0]
    7bc2:	00 00 
    7bc4:	f3 0f 59 8c 10 00 00 	mulss  xmm1,DWORD PTR [rax+rdx*1+0x0]
    7bcb:	00 00 
    7bcd:	f3 0f 58 c8          	addss  xmm1,xmm0
    7bd1:	f3 0f 11 8c 10 00 00 	movss  DWORD PTR [rax+rdx*1+0x0],xmm1
    7bd8:	00 00 
    7bda:	f3 0f 10 94 10 00 00 	movss  xmm2,DWORD PTR [rax+rdx*1+0x0]
    7be1:	00 00 
    7be3:	f3 0f 59 94 10 00 00 	mulss  xmm2,DWORD PTR [rax+rdx*1+0x0]
    7bea:	00 00 
    7bec:	f3 0f 58 d1          	addss  xmm2,xmm1
    7bf0:	f3 0f 10 84 10 00 00 	movss  xmm0,DWORD PTR [rax+rdx*1+0x0]
    7bf7:	00 00 
    7bf9:	f3 0f 59 84 10 00 00 	mulss  xmm0,DWORD PTR [rax+rdx*1+0x0]
    7c00:	00 00 
    7c02:	f3 0f 11 94 10 00 00 	movss  DWORD PTR [rax+rdx*1+0x0],xmm2
    7c09:	00 00 
    7c0b:	f3 0f 58 c2          	addss  xmm0,xmm2
    7c0f:	f3 0f 11 84 10 00 00 	movss  DWORD PTR [rax+rdx*1+0x0],xmm0
    7c16:	00 00 
    7c18:	48 85 d2             	test   rdx,rdx
    7c1b:	74 2b                	je     7c48 <s275+0x149>
    7c1d:	f3 0f 10 8c 10 00 00 	movss  xmm1,DWORD PTR [rax+rdx*1+0x0]
    7c24:	00 00 
    7c26:	f3 0f 59 8c 10 00 00 	mulss  xmm1,DWORD PTR [rax+rdx*1+0x0]
    7c2d:	00 00 
    7c2f:	f3 0f 58 c1          	addss  xmm0,xmm1
    7c33:	f3 0f 11 84 10 00 00 	movss  DWORD PTR [rax+rdx*1+0x0],xmm0
    7c3a:	00 00 
    7c3c:	48 81 c2 00 20 00 00 	add    rdx,0x2000
    7c43:	e9 f7 fe ff ff       	jmp    7b3f <s275+0x40>
    7c48:	48 ff c1             	inc    rcx
    7c4b:	48 83 c0 04          	add    rax,0x4
    7c4f:	48 81 f9 00 01 00 00 	cmp    rcx,0x100
    7c56:	0f 85 ca fe ff ff    	jne    7b26 <s275+0x27>
    7c5c:	bf 00 00 00 00       	mov    edi,0x0
    7c61:	be 00 00 00 00       	mov    esi,0x0
    7c66:	ba 00 00 00 00       	mov    edx,0x0
    7c6b:	b9 00 00 00 00       	mov    ecx,0x0
    7c70:	41 b8 00 00 00 00    	mov    r8d,0x0
    7c76:	41 b9 00 00 00 00    	mov    r9d,0x0
    7c7c:	0f 57 c0             	xorps  xmm0,xmm0
    7c7f:	68 00 00 00 00       	push   0x0
    7c84:	68 00 00 00 00       	push   0x0
    7c89:	e8 00 00 00 00       	call   7c8e <s275+0x18f>
    7c8e:	0f 57 db             	xorps  xmm3,xmm3
    7c91:	48 83 c4 10          	add    rsp,0x10
    7c95:	ff c3                	inc    ebx
    7c97:	81 fb 3c 0f 00 00    	cmp    ebx,0xf3c
    7c9d:	0f 85 7c fe ff ff    	jne    7b1f <s275+0x20>
    7ca3:	49 83 c6 10          	add    r14,0x10
    7ca7:	4c 89 f7             	mov    rdi,r14
    7caa:	31 f6                	xor    esi,esi
    7cac:	e8 00 00 00 00       	call   7cb1 <s275+0x1b2>
    7cb1:	bf 00 00 00 00       	mov    edi,0x0
    7cb6:	48 83 c4 08          	add    rsp,0x8
    7cba:	5b                   	pop    rbx
    7cbb:	41 5e                	pop    r14
    7cbd:	e9 00 00 00 00       	jmp    7cc2 <s2275>

0000000000007cc2 <s2275>:
    7cc2:	41 56                	push   r14
    7cc4:	53                   	push   rbx
    7cc5:	50                   	push   rax
    7cc6:	49 89 fe             	mov    r14,rdi
    7cc9:	bf 00 00 00 00       	mov    edi,0x0
    7cce:	e8 00 00 00 00       	call   7cd3 <s2275+0x11>
    7cd3:	31 db                	xor    ebx,ebx
    7cd5:	4c 89 f7             	mov    rdi,r14
    7cd8:	31 f6                	xor    esi,esi
    7cda:	e8 00 00 00 00       	call   7cdf <s2275+0x1d>
    7cdf:	31 c0                	xor    eax,eax
    7ce1:	31 c9                	xor    ecx,ecx
    7ce3:	48 c7 c2 00 00 fc ff 	mov    rdx,0xfffffffffffc0000
    7cea:	f3 0f 10 84 10 00 00 	movss  xmm0,DWORD PTR [rax+rdx*1+0x0]
    7cf1:	00 00 
    7cf3:	f3 0f 59 84 10 00 00 	mulss  xmm0,DWORD PTR [rax+rdx*1+0x0]
    7cfa:	00 00 
    7cfc:	f3 0f 58 84 10 00 00 	addss  xmm0,DWORD PTR [rax+rdx*1+0x0]
    7d03:	00 00 
    7d05:	f3 0f 11 84 10 00 00 	movss  DWORD PTR [rax+rdx*1+0x0],xmm0
    7d0c:	00 00 
    7d0e:	48 81 c2 00 04 00 00 	add    rdx,0x400
    7d15:	75 d3                	jne    7cea <s2275+0x28>
    7d17:	f3 0f 10 04 8d 00 00 	movss  xmm0,DWORD PTR [rcx*4+0x0]
    7d1e:	00 00 
    7d20:	f3 0f 59 04 8d 00 00 	mulss  xmm0,DWORD PTR [rcx*4+0x0]
    7d27:	00 00 
    7d29:	f3 0f 58 04 8d 00 00 	addss  xmm0,DWORD PTR [rcx*4+0x0]
    7d30:	00 00 
    7d32:	f3 0f 11 04 8d 00 00 	movss  DWORD PTR [rcx*4+0x0],xmm0
    7d39:	00 00 
    7d3b:	48 ff c1             	inc    rcx
    7d3e:	48 83 c0 04          	add    rax,0x4
    7d42:	48 81 f9 00 01 00 00 	cmp    rcx,0x100
    7d49:	75 98                	jne    7ce3 <s2275+0x21>
    7d4b:	bf 00 00 00 00       	mov    edi,0x0
    7d50:	be 00 00 00 00       	mov    esi,0x0
    7d55:	ba 00 00 00 00       	mov    edx,0x0
    7d5a:	b9 00 00 00 00       	mov    ecx,0x0
    7d5f:	41 b8 00 00 00 00    	mov    r8d,0x0
    7d65:	41 b9 00 00 00 00    	mov    r9d,0x0
    7d6b:	0f 57 c0             	xorps  xmm0,xmm0
    7d6e:	68 00 00 00 00       	push   0x0
    7d73:	68 00 00 00 00       	push   0x0
    7d78:	e8 00 00 00 00       	call   7d7d <s2275+0xbb>
    7d7d:	48 83 c4 10          	add    rsp,0x10
    7d81:	ff c3                	inc    ebx
    7d83:	81 fb 58 98 00 00    	cmp    ebx,0x9858
    7d89:	0f 85 50 ff ff ff    	jne    7cdf <s2275+0x1d>
    7d8f:	49 83 c6 10          	add    r14,0x10
    7d93:	4c 89 f7             	mov    rdi,r14
    7d96:	31 f6                	xor    esi,esi
    7d98:	e8 00 00 00 00       	call   7d9d <s2275+0xdb>
    7d9d:	bf 00 00 00 00       	mov    edi,0x0
    7da2:	48 83 c4 08          	add    rsp,0x8
    7da6:	5b                   	pop    rbx
    7da7:	41 5e                	pop    r14
    7da9:	e9 00 00 00 00       	jmp    7dae <s276>

0000000000007dae <s276>:
    7dae:	41 57                	push   r15
    7db0:	41 56                	push   r14
    7db2:	41 54                	push   r12
    7db4:	53                   	push   rbx
    7db5:	50                   	push   rax
    7db6:	49 89 fe             	mov    r14,rdi
    7db9:	bf 00 00 00 00       	mov    edi,0x0
    7dbe:	e8 00 00 00 00       	call   7dc3 <s276+0x15>
    7dc3:	45 31 ff             	xor    r15d,r15d
    7dc6:	4c 89 f7             	mov    rdi,r14
    7dc9:	31 f6                	xor    esi,esi
    7dcb:	e8 00 00 00 00       	call   7dd0 <s276+0x22>
    7dd0:	41 bc 00 00 00 00    	mov    r12d,0x0
    7dd6:	b8 07 00 00 00       	mov    eax,0x7
    7ddb:	41 b8 00 00 00 00    	mov    r8d,0x0
    7de1:	31 db                	xor    ebx,ebx
    7de3:	48 8d 70 f9          	lea    rsi,[rax-0x7]
    7de7:	f3 0f 10 04 85 00 00 	movss  xmm0,DWORD PTR [rax*4+0x0]
    7dee:	00 00 
    7df0:	48 81 fe 7f 3e 00 00 	cmp    rsi,0x3e7f
    7df7:	0f 83 05 01 00 00    	jae    7f02 <s276+0x154>
    7dfd:	f3 0f 59 04 85 00 00 	mulss  xmm0,DWORD PTR [rax*4+0x0]
    7e04:	00 00 
    7e06:	f3 0f 58 04 85 00 00 	addss  xmm0,DWORD PTR [rax*4+0x0]
    7e0d:	00 00 
    7e0f:	f3 0f 11 04 85 00 00 	movss  DWORD PTR [rax*4+0x0],xmm0
    7e16:	00 00 
    7e18:	f3 0f 10 04 85 00 00 	movss  xmm0,DWORD PTR [rax*4+0x0]
    7e1f:	00 00 
    7e21:	f3 0f 59 04 85 00 00 	mulss  xmm0,DWORD PTR [rax*4+0x0]
    7e28:	00 00 
    7e2a:	f3 0f 58 04 85 00 00 	addss  xmm0,DWORD PTR [rax*4+0x0]
    7e31:	00 00 
    7e33:	f3 0f 11 04 85 00 00 	movss  DWORD PTR [rax*4+0x0],xmm0
    7e3a:	00 00 
    7e3c:	48 81 fe 7d 3e 00 00 	cmp    rsi,0x3e7d
    7e43:	0f 83 02 01 00 00    	jae    7f4b <s276+0x19d>
    7e49:	f3 0f 10 04 85 00 00 	movss  xmm0,DWORD PTR [rax*4+0x0]
    7e50:	00 00 
    7e52:	f3 0f 59 04 85 00 00 	mulss  xmm0,DWORD PTR [rax*4+0x0]
    7e59:	00 00 
    7e5b:	f3 0f 58 04 85 00 00 	addss  xmm0,DWORD PTR [rax*4+0x0]
    7e62:	00 00 
    7e64:	f3 0f 11 04 85 00 00 	movss  DWORD PTR [rax*4+0x0],xmm0
    7e6b:	00 00 
    7e6d:	f3 0f 10 04 85 00 00 	movss  xmm0,DWORD PTR [rax*4+0x0]
    7e74:	00 00 
    7e76:	f3 0f 59 04 85 00 00 	mulss  xmm0,DWORD PTR [rax*4+0x0]
    7e7d:	00 00 
    7e7f:	f3 0f 58 04 85 00 00 	addss  xmm0,DWORD PTR [rax*4+0x0]
    7e86:	00 00 
    7e88:	f3 0f 11 04 85 00 00 	movss  DWORD PTR [rax*4+0x0],xmm0
    7e8f:	00 00 
    7e91:	48 81 fe 7b 3e 00 00 	cmp    rsi,0x3e7b
    7e98:	0f 83 d8 01 00 00    	jae    8076 <s276+0x2c8>
    7e9e:	f3 0f 10 04 85 00 00 	movss  xmm0,DWORD PTR [rax*4+0x0]
    7ea5:	00 00 
    7ea7:	f3 0f 59 04 85 00 00 	mulss  xmm0,DWORD PTR [rax*4+0x0]
    7eae:	00 00 
    7eb0:	f3 0f 58 04 85 00 00 	addss  xmm0,DWORD PTR [rax*4+0x0]
    7eb7:	00 00 
    7eb9:	f3 0f 11 04 85 00 00 	movss  DWORD PTR [rax*4+0x0],xmm0
    7ec0:	00 00 
    7ec2:	48 8d 78 ff          	lea    rdi,[rax-0x1]
    7ec6:	f3 0f 10 04 85 00 00 	movss  xmm0,DWORD PTR [rax*4+0x0]
    7ecd:	00 00 
    7ecf:	f3 0f 59 04 85 00 00 	mulss  xmm0,DWORD PTR [rax*4+0x0]
    7ed6:	00 00 
    7ed8:	f3 0f 58 04 85 00 00 	addss  xmm0,DWORD PTR [rax*4+0x0]
    7edf:	00 00 
    7ee1:	f3 0f 11 04 85 00 00 	movss  DWORD PTR [rax*4+0x0],xmm0
    7ee8:	00 00 
    7eea:	48 89 c2             	mov    rdx,rax
    7eed:	4c 89 c1             	mov    rcx,r8
    7ef0:	48 81 fe 79 3e 00 00 	cmp    rsi,0x3e79
    7ef7:	0f 83 08 01 00 00    	jae    8005 <s276+0x257>
    7efd:	e9 0b 01 00 00       	jmp    800d <s276+0x25f>
    7f02:	f3 0f 59 04 85 00 00 	mulss  xmm0,DWORD PTR [rax*4+0x0]
    7f09:	00 00 
    7f0b:	f3 0f 58 04 85 00 00 	addss  xmm0,DWORD PTR [rax*4+0x0]
    7f12:	00 00 
    7f14:	f3 0f 11 04 85 00 00 	movss  DWORD PTR [rax*4+0x0],xmm0
    7f1b:	00 00 
    7f1d:	48 8d 50 fb          	lea    rdx,[rax-0x5]
    7f21:	f3 0f 10 04 85 00 00 	movss  xmm0,DWORD PTR [rax*4+0x0]
    7f28:	00 00 
    7f2a:	f3 0f 59 04 85 00 00 	mulss  xmm0,DWORD PTR [rax*4+0x0]
    7f31:	00 00 
    7f33:	f3 0f 58 04 85 00 00 	addss  xmm0,DWORD PTR [rax*4+0x0]
    7f3a:	00 00 
    7f3c:	f3 0f 11 04 85 00 00 	movss  DWORD PTR [rax*4+0x0],xmm0
    7f43:	00 00 
    7f45:	48 8d 70 fc          	lea    rsi,[rax-0x4]
    7f49:	eb 0e                	jmp    7f59 <s276+0x1ab>
    7f4b:	48 89 da             	mov    rdx,rbx
    7f4e:	48 83 ca 02          	or     rdx,0x2
    7f52:	48 89 de             	mov    rsi,rbx
    7f55:	48 83 ce 03          	or     rsi,0x3
    7f59:	f3 0f 10 04 95 00 00 	movss  xmm0,DWORD PTR [rdx*4+0x0]
    7f60:	00 00 
    7f62:	f3 0f 59 04 95 00 00 	mulss  xmm0,DWORD PTR [rdx*4+0x0]
    7f69:	00 00 
    7f6b:	f3 0f 58 04 95 00 00 	addss  xmm0,DWORD PTR [rdx*4+0x0]
    7f72:	00 00 
    7f74:	f3 0f 11 04 95 00 00 	movss  DWORD PTR [rdx*4+0x0],xmm0
    7f7b:	00 00 
    7f7d:	48 89 da             	mov    rdx,rbx
    7f80:	48 83 ca 04          	or     rdx,0x4
    7f84:	f3 0f 10 04 b5 00 00 	movss  xmm0,DWORD PTR [rsi*4+0x0]
    7f8b:	00 00 
    7f8d:	f3 0f 59 04 b5 00 00 	mulss  xmm0,DWORD PTR [rsi*4+0x0]
    7f94:	00 00 
    7f96:	f3 0f 58 04 b5 00 00 	addss  xmm0,DWORD PTR [rsi*4+0x0]
    7f9d:	00 00 
    7f9f:	f3 0f 11 04 b5 00 00 	movss  DWORD PTR [rsi*4+0x0],xmm0
    7fa6:	00 00 
    7fa8:	48 89 de             	mov    rsi,rbx
    7fab:	48 83 ce 05          	or     rsi,0x5
    7faf:	f3 0f 10 04 95 00 00 	movss  xmm0,DWORD PTR [rdx*4+0x0]
    7fb6:	00 00 
    7fb8:	f3 0f 59 04 95 00 00 	mulss  xmm0,DWORD PTR [rdx*4+0x0]
    7fbf:	00 00 
    7fc1:	f3 0f 58 04 95 00 00 	addss  xmm0,DWORD PTR [rdx*4+0x0]
    7fc8:	00 00 
    7fca:	f3 0f 11 04 95 00 00 	movss  DWORD PTR [rdx*4+0x0],xmm0
    7fd1:	00 00 
    7fd3:	48 89 df             	mov    rdi,rbx
    7fd6:	48 83 cf 06          	or     rdi,0x6
    7fda:	f3 0f 10 04 b5 00 00 	movss  xmm0,DWORD PTR [rsi*4+0x0]
    7fe1:	00 00 
    7fe3:	f3 0f 59 04 b5 00 00 	mulss  xmm0,DWORD PTR [rsi*4+0x0]
    7fea:	00 00 
    7fec:	f3 0f 58 04 b5 00 00 	addss  xmm0,DWORD PTR [rsi*4+0x0]
    7ff3:	00 00 
    7ff5:	f3 0f 11 04 b5 00 00 	movss  DWORD PTR [rsi*4+0x0],xmm0
    7ffc:	00 00 
    7ffe:	48 89 da             	mov    rdx,rbx
    8001:	48 83 ca 07          	or     rdx,0x7
    8005:	48 8d 0c bd 00 00 00 	lea    rcx,[rdi*4+0x0]
    800c:	00 
    800d:	f3 0f 10 04 bd 00 00 	movss  xmm0,DWORD PTR [rdi*4+0x0]
    8014:	00 00 
    8016:	f3 0f 59 01          	mulss  xmm0,DWORD PTR [rcx]
    801a:	f3 0f 58 04 bd 00 00 	addss  xmm0,DWORD PTR [rdi*4+0x0]
    8021:	00 00 
    8023:	f3 0f 11 04 bd 00 00 	movss  DWORD PTR [rdi*4+0x0],xmm0
    802a:	00 00 
    802c:	48 83 c3 08          	add    rbx,0x8
    8030:	48 81 fa 7f 3e 00 00 	cmp    rdx,0x3e7f
    8037:	f3 0f 10 04 95 00 00 	movss  xmm0,DWORD PTR [rdx*4+0x0]
    803e:	00 00 
    8040:	b9 00 00 00 00       	mov    ecx,0x0
    8045:	49 0f 42 cc          	cmovb  rcx,r12
    8049:	f3 0f 59 04 91       	mulss  xmm0,DWORD PTR [rcx+rdx*4]
    804e:	f3 0f 58 04 95 00 00 	addss  xmm0,DWORD PTR [rdx*4+0x0]
    8055:	00 00 
    8057:	f3 0f 11 04 95 00 00 	movss  DWORD PTR [rdx*4+0x0],xmm0
    805e:	00 00 
    8060:	48 83 c0 08          	add    rax,0x8
    8064:	49 83 c0 20          	add    r8,0x20
    8068:	48 3d 07 7d 00 00    	cmp    rax,0x7d07
    806e:	0f 85 6f fd ff ff    	jne    7de3 <s276+0x35>
    8074:	eb 0d                	jmp    8083 <s276+0x2d5>
    8076:	48 8d 50 fd          	lea    rdx,[rax-0x3]
    807a:	48 8d 70 fe          	lea    rsi,[rax-0x2]
    807e:	e9 2c ff ff ff       	jmp    7faf <s276+0x201>
    8083:	bf 00 00 00 00       	mov    edi,0x0
    8088:	be 00 00 00 00       	mov    esi,0x0
    808d:	ba 00 00 00 00       	mov    edx,0x0
    8092:	b9 00 00 00 00       	mov    ecx,0x0
    8097:	41 b8 00 00 00 00    	mov    r8d,0x0
    809d:	41 b9 00 00 00 00    	mov    r9d,0x0
    80a3:	0f 57 c0             	xorps  xmm0,xmm0
    80a6:	68 00 00 00 00       	push   0x0
    80ab:	68 00 00 00 00       	push   0x0
    80b0:	e8 00 00 00 00       	call   80b5 <s276+0x307>
    80b5:	48 83 c4 10          	add    rsp,0x10
    80b9:	41 ff c7             	inc    r15d
    80bc:	41 81 ff 80 1a 06 00 	cmp    r15d,0x61a80
    80c3:	0f 85 0d fd ff ff    	jne    7dd6 <s276+0x28>
    80c9:	49 83 c6 10          	add    r14,0x10
    80cd:	4c 89 f7             	mov    rdi,r14
    80d0:	31 f6                	xor    esi,esi
    80d2:	e8 00 00 00 00       	call   80d7 <s276+0x329>
    80d7:	bf 00 00 00 00       	mov    edi,0x0
    80dc:	48 83 c4 08          	add    rsp,0x8
    80e0:	5b                   	pop    rbx
    80e1:	41 5c                	pop    r12
    80e3:	41 5e                	pop    r14
    80e5:	41 5f                	pop    r15
    80e7:	e9 00 00 00 00       	jmp    80ec <s277>

00000000000080ec <s277>:
    80ec:	41 56                	push   r14
    80ee:	53                   	push   rbx
    80ef:	50                   	push   rax
    80f0:	49 89 fe             	mov    r14,rdi
    80f3:	bf 00 00 00 00       	mov    edi,0x0
    80f8:	e8 00 00 00 00       	call   80fd <s277+0x11>
    80fd:	31 db                	xor    ebx,ebx
    80ff:	4c 89 f7             	mov    rdi,r14
    8102:	31 f6                	xor    esi,esi
    8104:	e8 00 00 00 00       	call   8109 <s277+0x1d>
    8109:	0f 57 e4             	xorps  xmm4,xmm4
    810c:	31 c0                	xor    eax,eax
    810e:	f3 0f 10 04 85 00 00 	movss  xmm0,DWORD PTR [rax*4+0x0]
    8115:	00 00 
    8117:	0f 2e c4             	ucomiss xmm0,xmm4
    811a:	73 4a                	jae    8166 <s277+0x7a>
    811c:	f3 0f 10 0c 85 00 00 	movss  xmm1,DWORD PTR [rax*4+0x0]
    8123:	00 00 
    8125:	0f 2e cc             	ucomiss xmm1,xmm4
    8128:	f3 0f 10 0c 85 00 00 	movss  xmm1,DWORD PTR [rax*4+0x0]
    812f:	00 00 
    8131:	f3 0f 10 14 85 00 00 	movss  xmm2,DWORD PTR [rax*4+0x0]
    8138:	00 00 
    813a:	73 14                	jae    8150 <s277+0x64>
    813c:	0f 28 d9             	movaps xmm3,xmm1
    813f:	f3 0f 59 da          	mulss  xmm3,xmm2
    8143:	f3 0f 58 c3          	addss  xmm0,xmm3
    8147:	f3 0f 11 04 85 00 00 	movss  DWORD PTR [rax*4+0x0],xmm0
    814e:	00 00 
    8150:	f3 0f 59 14 85 00 00 	mulss  xmm2,DWORD PTR [rax*4+0x0]
    8157:	00 00 
    8159:	f3 0f 58 ca          	addss  xmm1,xmm2
    815d:	f3 0f 11 0c 85 00 00 	movss  DWORD PTR [rax*4+0x0],xmm1
    8164:	00 00 
    8166:	48 ff c0             	inc    rax
    8169:	f3 0f 10 04 85 00 00 	movss  xmm0,DWORD PTR [rax*4+0x0]
    8170:	00 00 
    8172:	0f 2e c4             	ucomiss xmm0,xmm4
    8175:	73 4a                	jae    81c1 <s277+0xd5>
    8177:	f3 0f 10 0c 85 00 00 	movss  xmm1,DWORD PTR [rax*4+0x0]
    817e:	00 00 
    8180:	0f 2e cc             	ucomiss xmm1,xmm4
    8183:	f3 0f 10 0c 85 00 00 	movss  xmm1,DWORD PTR [rax*4+0x0]
    818a:	00 00 
    818c:	f3 0f 10 14 85 00 00 	movss  xmm2,DWORD PTR [rax*4+0x0]
    8193:	00 00 
    8195:	73 14                	jae    81ab <s277+0xbf>
    8197:	0f 28 d9             	movaps xmm3,xmm1
    819a:	f3 0f 59 da          	mulss  xmm3,xmm2
    819e:	f3 0f 58 c3          	addss  xmm0,xmm3
    81a2:	f3 0f 11 04 85 00 00 	movss  DWORD PTR [rax*4+0x0],xmm0
    81a9:	00 00 
    81ab:	f3 0f 59 14 85 00 00 	mulss  xmm2,DWORD PTR [rax*4+0x0]
    81b2:	00 00 
    81b4:	f3 0f 58 ca          	addss  xmm1,xmm2
    81b8:	f3 0f 11 0c 85 00 00 	movss  DWORD PTR [rax*4+0x0],xmm1
    81bf:	00 00 
    81c1:	48 ff c0             	inc    rax
    81c4:	f3 0f 10 04 85 00 00 	movss  xmm0,DWORD PTR [rax*4+0x0]
    81cb:	00 00 
    81cd:	0f 2e c4             	ucomiss xmm0,xmm4
    81d0:	73 4a                	jae    821c <s277+0x130>
    81d2:	f3 0f 10 0c 85 00 00 	movss  xmm1,DWORD PTR [rax*4+0x0]
    81d9:	00 00 
    81db:	0f 2e cc             	ucomiss xmm1,xmm4
    81de:	f3 0f 10 0c 85 00 00 	movss  xmm1,DWORD PTR [rax*4+0x0]
    81e5:	00 00 
    81e7:	f3 0f 10 14 85 00 00 	movss  xmm2,DWORD PTR [rax*4+0x0]
    81ee:	00 00 
    81f0:	73 14                	jae    8206 <s277+0x11a>
    81f2:	0f 28 d9             	movaps xmm3,xmm1
    81f5:	f3 0f 59 da          	mulss  xmm3,xmm2
    81f9:	f3 0f 58 c3          	addss  xmm0,xmm3
    81fd:	f3 0f 11 04 85 00 00 	movss  DWORD PTR [rax*4+0x0],xmm0
    8204:	00 00 
    8206:	f3 0f 59 14 85 00 00 	mulss  xmm2,DWORD PTR [rax*4+0x0]
    820d:	00 00 
    820f:	f3 0f 58 ca          	addss  xmm1,xmm2
    8213:	f3 0f 11 0c 85 00 00 	movss  DWORD PTR [rax*4+0x0],xmm1
    821a:	00 00 
    821c:	48 ff c0             	inc    rax
    821f:	f3 0f 10 04 85 00 00 	movss  xmm0,DWORD PTR [rax*4+0x0]
    8226:	00 00 
    8228:	0f 2e c4             	ucomiss xmm0,xmm4
    822b:	73 4a                	jae    8277 <s277+0x18b>
    822d:	f3 0f 10 0c 85 00 00 	movss  xmm1,DWORD PTR [rax*4+0x0]
    8234:	00 00 
    8236:	0f 2e cc             	ucomiss xmm1,xmm4
    8239:	f3 0f 10 0c 85 00 00 	movss  xmm1,DWORD PTR [rax*4+0x0]
    8240:	00 00 
    8242:	f3 0f 10 14 85 00 00 	movss  xmm2,DWORD PTR [rax*4+0x0]
    8249:	00 00 
    824b:	73 14                	jae    8261 <s277+0x175>
    824d:	0f 28 d9             	movaps xmm3,xmm1
    8250:	f3 0f 59 da          	mulss  xmm3,xmm2
    8254:	f3 0f 58 c3          	addss  xmm0,xmm3
    8258:	f3 0f 11 04 85 00 00 	movss  DWORD PTR [rax*4+0x0],xmm0
    825f:	00 00 
    8261:	f3 0f 59 14 85 00 00 	mulss  xmm2,DWORD PTR [rax*4+0x0]
    8268:	00 00 
    826a:	f3 0f 58 ca          	addss  xmm1,xmm2
    826e:	f3 0f 11 0c 85 00 00 	movss  DWORD PTR [rax*4+0x0],xmm1
    8275:	00 00 
    8277:	48 ff c0             	inc    rax
    827a:	f3 0f 10 04 85 00 00 	movss  xmm0,DWORD PTR [rax*4+0x0]
    8281:	00 00 
    8283:	0f 2e c4             	ucomiss xmm0,xmm4
    8286:	73 4a                	jae    82d2 <s277+0x1e6>
    8288:	f3 0f 10 0c 85 00 00 	movss  xmm1,DWORD PTR [rax*4+0x0]
    828f:	00 00 
    8291:	0f 2e cc             	ucomiss xmm1,xmm4
    8294:	f3 0f 10 0c 85 00 00 	movss  xmm1,DWORD PTR [rax*4+0x0]
    829b:	00 00 
    829d:	f3 0f 10 14 85 00 00 	movss  xmm2,DWORD PTR [rax*4+0x0]
    82a4:	00 00 
    82a6:	73 14                	jae    82bc <s277+0x1d0>
    82a8:	0f 28 d9             	movaps xmm3,xmm1
    82ab:	f3 0f 59 da          	mulss  xmm3,xmm2
    82af:	f3 0f 58 c3          	addss  xmm0,xmm3
    82b3:	f3 0f 11 04 85 00 00 	movss  DWORD PTR [rax*4+0x0],xmm0
    82ba:	00 00 
    82bc:	f3 0f 59 14 85 00 00 	mulss  xmm2,DWORD PTR [rax*4+0x0]
    82c3:	00 00 
    82c5:	f3 0f 58 ca          	addss  xmm1,xmm2
    82c9:	f3 0f 11 0c 85 00 00 	movss  DWORD PTR [rax*4+0x0],xmm1
    82d0:	00 00 
    82d2:	48 ff c0             	inc    rax
    82d5:	f3 0f 10 04 85 00 00 	movss  xmm0,DWORD PTR [rax*4+0x0]
    82dc:	00 00 
    82de:	0f 2e c4             	ucomiss xmm0,xmm4
    82e1:	73 4a                	jae    832d <s277+0x241>
    82e3:	f3 0f 10 0c 85 00 00 	movss  xmm1,DWORD PTR [rax*4+0x0]
    82ea:	00 00 
    82ec:	0f 2e cc             	ucomiss xmm1,xmm4
    82ef:	f3 0f 10 0c 85 00 00 	movss  xmm1,DWORD PTR [rax*4+0x0]
    82f6:	00 00 
    82f8:	f3 0f 10 14 85 00 00 	movss  xmm2,DWORD PTR [rax*4+0x0]
    82ff:	00 00 
    8301:	73 14                	jae    8317 <s277+0x22b>
    8303:	0f 28 d9             	movaps xmm3,xmm1
    8306:	f3 0f 59 da          	mulss  xmm3,xmm2
    830a:	f3 0f 58 c3          	addss  xmm0,xmm3
    830e:	f3 0f 11 04 85 00 00 	movss  DWORD PTR [rax*4+0x0],xmm0
    8315:	00 00 
    8317:	f3 0f 59 14 85 00 00 	mulss  xmm2,DWORD PTR [rax*4+0x0]
    831e:	00 00 
    8320:	f3 0f 58 ca          	addss  xmm1,xmm2
    8324:	f3 0f 11 0c 85 00 00 	movss  DWORD PTR [rax*4+0x0],xmm1
    832b:	00 00 
    832d:	48 ff c0             	inc    rax
    8330:	f3 0f 10 04 85 00 00 	movss  xmm0,DWORD PTR [rax*4+0x0]
    8337:	00 00 
    8339:	0f 2e c4             	ucomiss xmm0,xmm4
    833c:	73 4a                	jae    8388 <s277+0x29c>
    833e:	f3 0f 10 0c 85 00 00 	movss  xmm1,DWORD PTR [rax*4+0x0]
    8345:	00 00 
    8347:	0f 2e cc             	ucomiss xmm1,xmm4
    834a:	f3 0f 10 0c 85 00 00 	movss  xmm1,DWORD PTR [rax*4+0x0]
    8351:	00 00 
    8353:	f3 0f 10 14 85 00 00 	movss  xmm2,DWORD PTR [rax*4+0x0]
    835a:	00 00 
    835c:	73 14                	jae    8372 <s277+0x286>
    835e:	0f 28 d9             	movaps xmm3,xmm1
    8361:	f3 0f 59 da          	mulss  xmm3,xmm2
    8365:	f3 0f 58 c3          	addss  xmm0,xmm3
    8369:	f3 0f 11 04 85 00 00 	movss  DWORD PTR [rax*4+0x0],xmm0
    8370:	00 00 
    8372:	f3 0f 59 14 85 00 00 	mulss  xmm2,DWORD PTR [rax*4+0x0]
    8379:	00 00 
    837b:	f3 0f 58 ca          	addss  xmm1,xmm2
    837f:	f3 0f 11 0c 85 00 00 	movss  DWORD PTR [rax*4+0x0],xmm1
    8386:	00 00 
    8388:	48 ff c0             	inc    rax
    838b:	48 3d ff 7c 00 00    	cmp    rax,0x7cff
    8391:	74 60                	je     83f3 <s277+0x307>
    8393:	f3 0f 10 04 85 00 00 	movss  xmm0,DWORD PTR [rax*4+0x0]
    839a:	00 00 
    839c:	0f 2e c4             	ucomiss xmm0,xmm4
    839f:	73 4a                	jae    83eb <s277+0x2ff>
    83a1:	f3 0f 10 0c 85 00 00 	movss  xmm1,DWORD PTR [rax*4+0x0]
    83a8:	00 00 
    83aa:	0f 2e cc             	ucomiss xmm1,xmm4
    83ad:	f3 0f 10 0c 85 00 00 	movss  xmm1,DWORD PTR [rax*4+0x0]
    83b4:	00 00 
    83b6:	f3 0f 10 14 85 00 00 	movss  xmm2,DWORD PTR [rax*4+0x0]
    83bd:	00 00 
    83bf:	73 14                	jae    83d5 <s277+0x2e9>
    83c1:	0f 28 d9             	movaps xmm3,xmm1
    83c4:	f3 0f 59 da          	mulss  xmm3,xmm2
    83c8:	f3 0f 58 c3          	addss  xmm0,xmm3
    83cc:	f3 0f 11 04 85 00 00 	movss  DWORD PTR [rax*4+0x0],xmm0
    83d3:	00 00 
    83d5:	f3 0f 59 14 85 00 00 	mulss  xmm2,DWORD PTR [rax*4+0x0]
    83dc:	00 00 
    83de:	f3 0f 58 ca          	addss  xmm1,xmm2
    83e2:	f3 0f 11 0c 85 00 00 	movss  DWORD PTR [rax*4+0x0],xmm1
    83e9:	00 00 
    83eb:	48 ff c0             	inc    rax
    83ee:	e9 1b fd ff ff       	jmp    810e <s277+0x22>
    83f3:	bf 00 00 00 00       	mov    edi,0x0
    83f8:	be 00 00 00 00       	mov    esi,0x0
    83fd:	ba 00 00 00 00       	mov    edx,0x0
    8402:	b9 00 00 00 00       	mov    ecx,0x0
    8407:	41 b8 00 00 00 00    	mov    r8d,0x0
    840d:	41 b9 00 00 00 00    	mov    r9d,0x0
    8413:	0f 57 c0             	xorps  xmm0,xmm0
    8416:	68 00 00 00 00       	push   0x0
    841b:	68 00 00 00 00       	push   0x0
    8420:	e8 00 00 00 00       	call   8425 <s277+0x339>
    8425:	0f 57 e4             	xorps  xmm4,xmm4
    8428:	48 83 c4 10          	add    rsp,0x10
    842c:	ff c3                	inc    ebx
    842e:	81 fb a0 86 01 00    	cmp    ebx,0x186a0
    8434:	0f 85 d2 fc ff ff    	jne    810c <s277+0x20>
    843a:	49 83 c6 10          	add    r14,0x10
    843e:	4c 89 f7             	mov    rdi,r14
    8441:	31 f6                	xor    esi,esi
    8443:	e8 00 00 00 00       	call   8448 <s277+0x35c>
    8448:	bf 00 00 00 00       	mov    edi,0x0
    844d:	48 83 c4 08          	add    rsp,0x8
    8451:	5b                   	pop    rbx
    8452:	41 5e                	pop    r14
    8454:	e9 00 00 00 00       	jmp    8459 <s278>

0000000000008459 <s278>:
    8459:	41 56                	push   r14
    845b:	53                   	push   rbx
    845c:	50                   	push   rax
    845d:	49 89 fe             	mov    r14,rdi
    8460:	bf 00 00 00 00       	mov    edi,0x0
    8465:	e8 00 00 00 00       	call   846a <s278+0x11>
    846a:	31 db                	xor    ebx,ebx
    846c:	4c 89 f7             	mov    rdi,r14
    846f:	31 f6                	xor    esi,esi
    8471:	e8 00 00 00 00       	call   8476 <s278+0x1d>
    8476:	0f 57 db             	xorps  xmm3,xmm3
    8479:	48 c7 c0 00 0c fe ff 	mov    rax,0xfffffffffffe0c00
    8480:	f3 0f 10 80 00 00 00 	movss  xmm0,DWORD PTR [rax+0x0]
    8487:	00 
    8488:	0f 2e c3             	ucomiss xmm0,xmm3
    848b:	76 2e                	jbe    84bb <s278+0x62>
    848d:	f3 0f 10 80 00 00 00 	movss  xmm0,DWORD PTR [rax+0x0]
    8494:	00 
    8495:	f3 0f 10 90 00 00 00 	movss  xmm2,DWORD PTR [rax+0x0]
    849c:	00 
    849d:	f3 0f 59 d0          	mulss  xmm2,xmm0
    84a1:	f3 0f 5c 90 00 00 00 	subss  xmm2,DWORD PTR [rax+0x0]
    84a8:	00 
    84a9:	f3 0f 11 90 00 00 00 	movss  DWORD PTR [rax+0x0],xmm2
    84b0:	00 
    84b1:	f3 0f 10 88 00 00 00 	movss  xmm1,DWORD PTR [rax+0x0]
    84b8:	00 
    84b9:	eb 2c                	jmp    84e7 <s278+0x8e>
    84bb:	f3 0f 10 80 00 00 00 	movss  xmm0,DWORD PTR [rax+0x0]
    84c2:	00 
    84c3:	f3 0f 10 88 00 00 00 	movss  xmm1,DWORD PTR [rax+0x0]
    84ca:	00 
    84cb:	f3 0f 59 c8          	mulss  xmm1,xmm0
    84cf:	f3 0f 5c 88 00 00 00 	subss  xmm1,DWORD PTR [rax+0x0]
    84d6:	00 
    84d7:	f3 0f 11 88 00 00 00 	movss  DWORD PTR [rax+0x0],xmm1
    84de:	00 
    84df:	f3 0f 10 90 00 00 00 	movss  xmm2,DWORD PTR [rax+0x0]
    84e6:	00 
    84e7:	f3 0f 59 c2          	mulss  xmm0,xmm2
    84eb:	f3 0f 58 c1          	addss  xmm0,xmm1
    84ef:	f3 0f 11 80 00 00 00 	movss  DWORD PTR [rax+0x0],xmm0
    84f6:	00 
    84f7:	f3 0f 10 80 00 00 00 	movss  xmm0,DWORD PTR [rax+0x0]
    84fe:	00 
    84ff:	0f 2e c3             	ucomiss xmm0,xmm3
    8502:	76 2e                	jbe    8532 <s278+0xd9>
    8504:	f3 0f 10 80 00 00 00 	movss  xmm0,DWORD PTR [rax+0x0]
    850b:	00 
    850c:	f3 0f 10 90 00 00 00 	movss  xmm2,DWORD PTR [rax+0x0]
    8513:	00 
    8514:	f3 0f 59 d0          	mulss  xmm2,xmm0
    8518:	f3 0f 5c 90 00 00 00 	subss  xmm2,DWORD PTR [rax+0x0]
    851f:	00 
    8520:	f3 0f 11 90 00 00 00 	movss  DWORD PTR [rax+0x0],xmm2
    8527:	00 
    8528:	f3 0f 10 88 00 00 00 	movss  xmm1,DWORD PTR [rax+0x0]
    852f:	00 
    8530:	eb 2c                	jmp    855e <s278+0x105>
    8532:	f3 0f 10 80 00 00 00 	movss  xmm0,DWORD PTR [rax+0x0]
    8539:	00 
    853a:	f3 0f 10 88 00 00 00 	movss  xmm1,DWORD PTR [rax+0x0]
    8541:	00 
    8542:	f3 0f 59 c8          	mulss  xmm1,xmm0
    8546:	f3 0f 5c 88 00 00 00 	subss  xmm1,DWORD PTR [rax+0x0]
    854d:	00 
    854e:	f3 0f 11 88 00 00 00 	movss  DWORD PTR [rax+0x0],xmm1
    8555:	00 
    8556:	f3 0f 10 90 00 00 00 	movss  xmm2,DWORD PTR [rax+0x0]
    855d:	00 
    855e:	f3 0f 59 c2          	mulss  xmm0,xmm2
    8562:	f3 0f 58 c1          	addss  xmm0,xmm1
    8566:	f3 0f 11 80 00 00 00 	movss  DWORD PTR [rax+0x0],xmm0
    856d:	00 
    856e:	f3 0f 10 80 00 00 00 	movss  xmm0,DWORD PTR [rax+0x0]
    8575:	00 
    8576:	0f 2e c3             	ucomiss xmm0,xmm3
    8579:	76 2e                	jbe    85a9 <s278+0x150>
    857b:	f3 0f 10 80 00 00 00 	movss  xmm0,DWORD PTR [rax+0x0]
    8582:	00 
    8583:	f3 0f 10 90 00 00 00 	movss  xmm2,DWORD PTR [rax+0x0]
    858a:	00 
    858b:	f3 0f 59 d0          	mulss  xmm2,xmm0
    858f:	f3 0f 5c 90 00 00 00 	subss  xmm2,DWORD PTR [rax+0x0]
    8596:	00 
    8597:	f3 0f 11 90 00 00 00 	movss  DWORD PTR [rax+0x0],xmm2
    859e:	00 
    859f:	f3 0f 10 88 00 00 00 	movss  xmm1,DWORD PTR [rax+0x0]
    85a6:	00 
    85a7:	eb 2c                	jmp    85d5 <s278+0x17c>
    85a9:	f3 0f 10 80 00 00 00 	movss  xmm0,DWORD PTR [rax+0x0]
    85b0:	00 
    85b1:	f3 0f 10 88 00 00 00 	movss  xmm1,DWORD PTR [rax+0x0]
    85b8:	00 
    85b9:	f3 0f 59 c8          	mulss  xmm1,xmm0
    85bd:	f3 0f 5c 88 00 00 00 	subss  xmm1,DWORD PTR [rax+0x0]
    85c4:	00 
    85c5:	f3 0f 11 88 00 00 00 	movss  DWORD PTR [rax+0x0],xmm1
    85cc:	00 
    85cd:	f3 0f 10 90 00 00 00 	movss  xmm2,DWORD PTR [rax+0x0]
    85d4:	00 
    85d5:	f3 0f 59 c2          	mulss  xmm0,xmm2
    85d9:	f3 0f 58 c1          	addss  xmm0,xmm1
    85dd:	f3 0f 11 80 00 00 00 	movss  DWORD PTR [rax+0x0],xmm0
    85e4:	00 
    85e5:	f3 0f 10 80 00 00 00 	movss  xmm0,DWORD PTR [rax+0x0]
    85ec:	00 
    85ed:	0f 2e c3             	ucomiss xmm0,xmm3
    85f0:	76 2e                	jbe    8620 <s278+0x1c7>
    85f2:	f3 0f 10 80 00 00 00 	movss  xmm0,DWORD PTR [rax+0x0]
    85f9:	00 
    85fa:	f3 0f 10 90 00 00 00 	movss  xmm2,DWORD PTR [rax+0x0]
    8601:	00 
    8602:	f3 0f 59 d0          	mulss  xmm2,xmm0
    8606:	f3 0f 5c 90 00 00 00 	subss  xmm2,DWORD PTR [rax+0x0]
    860d:	00 
    860e:	f3 0f 11 90 00 00 00 	movss  DWORD PTR [rax+0x0],xmm2
    8615:	00 
    8616:	f3 0f 10 88 00 00 00 	movss  xmm1,DWORD PTR [rax+0x0]
    861d:	00 
    861e:	eb 2c                	jmp    864c <s278+0x1f3>
    8620:	f3 0f 10 80 00 00 00 	movss  xmm0,DWORD PTR [rax+0x0]
    8627:	00 
    8628:	f3 0f 10 88 00 00 00 	movss  xmm1,DWORD PTR [rax+0x0]
    862f:	00 
    8630:	f3 0f 59 c8          	mulss  xmm1,xmm0
    8634:	f3 0f 5c 88 00 00 00 	subss  xmm1,DWORD PTR [rax+0x0]
    863b:	00 
    863c:	f3 0f 11 88 00 00 00 	movss  DWORD PTR [rax+0x0],xmm1
    8643:	00 
    8644:	f3 0f 10 90 00 00 00 	movss  xmm2,DWORD PTR [rax+0x0]
    864b:	00 
    864c:	f3 0f 59 c2          	mulss  xmm0,xmm2
    8650:	f3 0f 58 c1          	addss  xmm0,xmm1
    8654:	f3 0f 11 80 00 00 00 	movss  DWORD PTR [rax+0x0],xmm0
    865b:	00 
    865c:	f3 0f 10 80 00 00 00 	movss  xmm0,DWORD PTR [rax+0x0]
    8663:	00 
    8664:	0f 2e c3             	ucomiss xmm0,xmm3
    8667:	76 2e                	jbe    8697 <s278+0x23e>
    8669:	f3 0f 10 80 00 00 00 	movss  xmm0,DWORD PTR [rax+0x0]
    8670:	00 
    8671:	f3 0f 10 90 00 00 00 	movss  xmm2,DWORD PTR [rax+0x0]
    8678:	00 
    8679:	f3 0f 59 d0          	mulss  xmm2,xmm0
    867d:	f3 0f 5c 90 00 00 00 	subss  xmm2,DWORD PTR [rax+0x0]
    8684:	00 
    8685:	f3 0f 11 90 00 00 00 	movss  DWORD PTR [rax+0x0],xmm2
    868c:	00 
    868d:	f3 0f 10 88 00 00 00 	movss  xmm1,DWORD PTR [rax+0x0]
    8694:	00 
    8695:	eb 2c                	jmp    86c3 <s278+0x26a>
    8697:	f3 0f 10 80 00 00 00 	movss  xmm0,DWORD PTR [rax+0x0]
    869e:	00 
    869f:	f3 0f 10 88 00 00 00 	movss  xmm1,DWORD PTR [rax+0x0]
    86a6:	00 
    86a7:	f3 0f 59 c8          	mulss  xmm1,xmm0
    86ab:	f3 0f 5c 88 00 00 00 	subss  xmm1,DWORD PTR [rax+0x0]
    86b2:	00 
    86b3:	f3 0f 11 88 00 00 00 	movss  DWORD PTR [rax+0x0],xmm1
    86ba:	00 
    86bb:	f3 0f 10 90 00 00 00 	movss  xmm2,DWORD PTR [rax+0x0]
    86c2:	00 
    86c3:	f3 0f 59 c2          	mulss  xmm0,xmm2
    86c7:	f3 0f 58 c1          	addss  xmm0,xmm1
    86cb:	f3 0f 11 80 00 00 00 	movss  DWORD PTR [rax+0x0],xmm0
    86d2:	00 
    86d3:	f3 0f 10 80 00 00 00 	movss  xmm0,DWORD PTR [rax+0x0]
    86da:	00 
    86db:	0f 2e c3             	ucomiss xmm0,xmm3
    86de:	76 2e                	jbe    870e <s278+0x2b5>
    86e0:	f3 0f 10 80 00 00 00 	movss  xmm0,DWORD PTR [rax+0x0]
    86e7:	00 
    86e8:	f3 0f 10 90 00 00 00 	movss  xmm2,DWORD PTR [rax+0x0]
    86ef:	00 
    86f0:	f3 0f 59 d0          	mulss  xmm2,xmm0
    86f4:	f3 0f 5c 90 00 00 00 	subss  xmm2,DWORD PTR [rax+0x0]
    86fb:	00 
    86fc:	f3 0f 11 90 00 00 00 	movss  DWORD PTR [rax+0x0],xmm2
    8703:	00 
    8704:	f3 0f 10 88 00 00 00 	movss  xmm1,DWORD PTR [rax+0x0]
    870b:	00 
    870c:	eb 2c                	jmp    873a <s278+0x2e1>
    870e:	f3 0f 10 80 00 00 00 	movss  xmm0,DWORD PTR [rax+0x0]
    8715:	00 
    8716:	f3 0f 10 88 00 00 00 	movss  xmm1,DWORD PTR [rax+0x0]
    871d:	00 
    871e:	f3 0f 59 c8          	mulss  xmm1,xmm0
    8722:	f3 0f 5c 88 00 00 00 	subss  xmm1,DWORD PTR [rax+0x0]
    8729:	00 
    872a:	f3 0f 11 88 00 00 00 	movss  DWORD PTR [rax+0x0],xmm1
    8731:	00 
    8732:	f3 0f 10 90 00 00 00 	movss  xmm2,DWORD PTR [rax+0x0]
    8739:	00 
    873a:	f3 0f 59 c2          	mulss  xmm0,xmm2
    873e:	f3 0f 58 c1          	addss  xmm0,xmm1
    8742:	f3 0f 11 80 00 00 00 	movss  DWORD PTR [rax+0x0],xmm0
    8749:	00 
    874a:	f3 0f 10 80 00 00 00 	movss  xmm0,DWORD PTR [rax+0x0]
    8751:	00 
    8752:	0f 2e c3             	ucomiss xmm0,xmm3
    8755:	76 2e                	jbe    8785 <s278+0x32c>
    8757:	f3 0f 10 80 00 00 00 	movss  xmm0,DWORD PTR [rax+0x0]
    875e:	00 
    875f:	f3 0f 10 90 00 00 00 	movss  xmm2,DWORD PTR [rax+0x0]
    8766:	00 
    8767:	f3 0f 59 d0          	mulss  xmm2,xmm0
    876b:	f3 0f 5c 90 00 00 00 	subss  xmm2,DWORD PTR [rax+0x0]
    8772:	00 
    8773:	f3 0f 11 90 00 00 00 	movss  DWORD PTR [rax+0x0],xmm2
    877a:	00 
    877b:	f3 0f 10 88 00 00 00 	movss  xmm1,DWORD PTR [rax+0x0]
    8782:	00 
    8783:	eb 2c                	jmp    87b1 <s278+0x358>
    8785:	f3 0f 10 80 00 00 00 	movss  xmm0,DWORD PTR [rax+0x0]
    878c:	00 
    878d:	f3 0f 10 88 00 00 00 	movss  xmm1,DWORD PTR [rax+0x0]
    8794:	00 
    8795:	f3 0f 59 c8          	mulss  xmm1,xmm0
    8799:	f3 0f 5c 88 00 00 00 	subss  xmm1,DWORD PTR [rax+0x0]
    87a0:	00 
    87a1:	f3 0f 11 88 00 00 00 	movss  DWORD PTR [rax+0x0],xmm1
    87a8:	00 
    87a9:	f3 0f 10 90 00 00 00 	movss  xmm2,DWORD PTR [rax+0x0]
    87b0:	00 
    87b1:	f3 0f 59 c2          	mulss  xmm0,xmm2
    87b5:	f3 0f 58 c1          	addss  xmm0,xmm1
    87b9:	f3 0f 11 80 00 00 00 	movss  DWORD PTR [rax+0x0],xmm0
    87c0:	00 
    87c1:	f3 0f 10 80 00 00 00 	movss  xmm0,DWORD PTR [rax+0x0]
    87c8:	00 
    87c9:	0f 2e c3             	ucomiss xmm0,xmm3
    87cc:	76 2e                	jbe    87fc <s278+0x3a3>
    87ce:	f3 0f 10 80 00 00 00 	movss  xmm0,DWORD PTR [rax+0x0]
    87d5:	00 
    87d6:	f3 0f 10 90 00 00 00 	movss  xmm2,DWORD PTR [rax+0x0]
    87dd:	00 
    87de:	f3 0f 59 d0          	mulss  xmm2,xmm0
    87e2:	f3 0f 5c 90 00 00 00 	subss  xmm2,DWORD PTR [rax+0x0]
    87e9:	00 
    87ea:	f3 0f 11 90 00 00 00 	movss  DWORD PTR [rax+0x0],xmm2
    87f1:	00 
    87f2:	f3 0f 10 88 00 00 00 	movss  xmm1,DWORD PTR [rax+0x0]
    87f9:	00 
    87fa:	eb 2c                	jmp    8828 <s278+0x3cf>
    87fc:	f3 0f 10 80 00 00 00 	movss  xmm0,DWORD PTR [rax+0x0]
    8803:	00 
    8804:	f3 0f 10 88 00 00 00 	movss  xmm1,DWORD PTR [rax+0x0]
    880b:	00 
    880c:	f3 0f 59 c8          	mulss  xmm1,xmm0
    8810:	f3 0f 5c 88 00 00 00 	subss  xmm1,DWORD PTR [rax+0x0]
    8817:	00 
    8818:	f3 0f 11 88 00 00 00 	movss  DWORD PTR [rax+0x0],xmm1
    881f:	00 
    8820:	f3 0f 10 90 00 00 00 	movss  xmm2,DWORD PTR [rax+0x0]
    8827:	00 
    8828:	f3 0f 59 c2          	mulss  xmm0,xmm2
    882c:	f3 0f 58 c1          	addss  xmm0,xmm1
    8830:	f3 0f 11 80 00 00 00 	movss  DWORD PTR [rax+0x0],xmm0
    8837:	00 
    8838:	48 83 c0 20          	add    rax,0x20
    883c:	0f 85 3e fc ff ff    	jne    8480 <s278+0x27>
    8842:	bf 00 00 00 00       	mov    edi,0x0
    8847:	be 00 00 00 00       	mov    esi,0x0
    884c:	ba 00 00 00 00       	mov    edx,0x0
    8851:	b9 00 00 00 00       	mov    ecx,0x0
    8856:	41 b8 00 00 00 00    	mov    r8d,0x0
    885c:	41 b9 00 00 00 00    	mov    r9d,0x0
    8862:	0f 57 c0             	xorps  xmm0,xmm0
    8865:	68 00 00 00 00       	push   0x0
    886a:	68 00 00 00 00       	push   0x0
    886f:	e8 00 00 00 00       	call   8874 <s278+0x41b>
    8874:	0f 57 db             	xorps  xmm3,xmm3
    8877:	48 83 c4 10          	add    rsp,0x10
    887b:	ff c3                	inc    ebx
    887d:	81 fb a0 86 01 00    	cmp    ebx,0x186a0
    8883:	0f 85 f0 fb ff ff    	jne    8479 <s278+0x20>
    8889:	49 83 c6 10          	add    r14,0x10
    888d:	4c 89 f7             	mov    rdi,r14
    8890:	31 f6                	xor    esi,esi
    8892:	e8 00 00 00 00       	call   8897 <s278+0x43e>
    8897:	bf 00 00 00 00       	mov    edi,0x0
    889c:	48 83 c4 08          	add    rsp,0x8
    88a0:	5b                   	pop    rbx
    88a1:	41 5e                	pop    r14
    88a3:	e9 00 00 00 00       	jmp    88a8 <s279>

00000000000088a8 <s279>:
    88a8:	41 56                	push   r14
    88aa:	53                   	push   rbx
    88ab:	50                   	push   rax
    88ac:	49 89 fe             	mov    r14,rdi
    88af:	bf 00 00 00 00       	mov    edi,0x0
    88b4:	e8 00 00 00 00       	call   88b9 <s279+0x11>
    88b9:	31 db                	xor    ebx,ebx
    88bb:	4c 89 f7             	mov    rdi,r14
    88be:	31 f6                	xor    esi,esi
    88c0:	e8 00 00 00 00       	call   88c5 <s279+0x1d>
    88c5:	0f 57 db             	xorps  xmm3,xmm3
    88c8:	48 c7 c0 00 0c fe ff 	mov    rax,0xfffffffffffe0c00
    88cf:	f3 0f 10 90 00 00 00 	movss  xmm2,DWORD PTR [rax+0x0]
    88d6:	00 
    88d7:	0f 2e d3             	ucomiss xmm2,xmm3
    88da:	76 2e                	jbe    890a <s279+0x62>
    88dc:	f3 0f 10 90 00 00 00 	movss  xmm2,DWORD PTR [rax+0x0]
    88e3:	00 
    88e4:	f3 0f 59 d2          	mulss  xmm2,xmm2
    88e8:	f3 0f 5c 90 00 00 00 	subss  xmm2,DWORD PTR [rax+0x0]
    88ef:	00 
    88f0:	f3 0f 11 90 00 00 00 	movss  DWORD PTR [rax+0x0],xmm2
    88f7:	00 
    88f8:	f3 0f 10 88 00 00 00 	movss  xmm1,DWORD PTR [rax+0x0]
    88ff:	00 
    8900:	f3 0f 10 80 00 00 00 	movss  xmm0,DWORD PTR [rax+0x0]
    8907:	00 
    8908:	eb 4a                	jmp    8954 <s279+0xac>
    890a:	f3 0f 10 80 00 00 00 	movss  xmm0,DWORD PTR [rax+0x0]
    8911:	00 
    8912:	0f 28 c8             	movaps xmm1,xmm0
    8915:	f3 0f 59 c8          	mulss  xmm1,xmm0
    8919:	f3 0f 5c 88 00 00 00 	subss  xmm1,DWORD PTR [rax+0x0]
    8920:	00 
    8921:	f3 0f 11 88 00 00 00 	movss  DWORD PTR [rax+0x0],xmm1
    8928:	00 
    8929:	0f 2e d1             	ucomiss xmm2,xmm1
    892c:	73 1e                	jae    894c <s279+0xa4>
    892e:	f3 0f 10 90 00 00 00 	movss  xmm2,DWORD PTR [rax+0x0]
    8935:	00 
    8936:	f3 0f 59 d0          	mulss  xmm2,xmm0
    893a:	f3 0f 58 90 00 00 00 	addss  xmm2,DWORD PTR [rax+0x0]
    8941:	00 
    8942:	f3 0f 11 90 00 00 00 	movss  DWORD PTR [rax+0x0],xmm2
    8949:	00 
    894a:	eb 08                	jmp    8954 <s279+0xac>
    894c:	f3 0f 10 90 00 00 00 	movss  xmm2,DWORD PTR [rax+0x0]
    8953:	00 
    8954:	f3 0f 59 c2          	mulss  xmm0,xmm2
    8958:	f3 0f 58 c1          	addss  xmm0,xmm1
    895c:	f3 0f 11 80 00 00 00 	movss  DWORD PTR [rax+0x0],xmm0
    8963:	00 
    8964:	f3 0f 10 90 00 00 00 	movss  xmm2,DWORD PTR [rax+0x0]
    896b:	00 
    896c:	0f 2e d3             	ucomiss xmm2,xmm3
    896f:	76 2e                	jbe    899f <s279+0xf7>
    8971:	f3 0f 10 90 00 00 00 	movss  xmm2,DWORD PTR [rax+0x0]
    8978:	00 
    8979:	f3 0f 59 d2          	mulss  xmm2,xmm2
    897d:	f3 0f 5c 90 00 00 00 	subss  xmm2,DWORD PTR [rax+0x0]
    8984:	00 
    8985:	f3 0f 11 90 00 00 00 	movss  DWORD PTR [rax+0x0],xmm2
    898c:	00 
    898d:	f3 0f 10 88 00 00 00 	movss  xmm1,DWORD PTR [rax+0x0]
    8994:	00 
    8995:	f3 0f 10 80 00 00 00 	movss  xmm0,DWORD PTR [rax+0x0]
    899c:	00 
    899d:	eb 4a                	jmp    89e9 <s279+0x141>
    899f:	f3 0f 10 80 00 00 00 	movss  xmm0,DWORD PTR [rax+0x0]
    89a6:	00 
    89a7:	0f 28 c8             	movaps xmm1,xmm0
    89aa:	f3 0f 59 c8          	mulss  xmm1,xmm0
    89ae:	f3 0f 5c 88 00 00 00 	subss  xmm1,DWORD PTR [rax+0x0]
    89b5:	00 
    89b6:	f3 0f 11 88 00 00 00 	movss  DWORD PTR [rax+0x0],xmm1
    89bd:	00 
    89be:	0f 2e d1             	ucomiss xmm2,xmm1
    89c1:	73 1e                	jae    89e1 <s279+0x139>
    89c3:	f3 0f 10 90 00 00 00 	movss  xmm2,DWORD PTR [rax+0x0]
    89ca:	00 
    89cb:	f3 0f 59 d0          	mulss  xmm2,xmm0
    89cf:	f3 0f 58 90 00 00 00 	addss  xmm2,DWORD PTR [rax+0x0]
    89d6:	00 
    89d7:	f3 0f 11 90 00 00 00 	movss  DWORD PTR [rax+0x0],xmm2
    89de:	00 
    89df:	eb 08                	jmp    89e9 <s279+0x141>
    89e1:	f3 0f 10 90 00 00 00 	movss  xmm2,DWORD PTR [rax+0x0]
    89e8:	00 
    89e9:	f3 0f 59 c2          	mulss  xmm0,xmm2
    89ed:	f3 0f 58 c1          	addss  xmm0,xmm1
    89f1:	f3 0f 11 80 00 00 00 	movss  DWORD PTR [rax+0x0],xmm0
    89f8:	00 
    89f9:	f3 0f 10 90 00 00 00 	movss  xmm2,DWORD PTR [rax+0x0]
    8a00:	00 
    8a01:	0f 2e d3             	ucomiss xmm2,xmm3
    8a04:	76 2e                	jbe    8a34 <s279+0x18c>
    8a06:	f3 0f 10 90 00 00 00 	movss  xmm2,DWORD PTR [rax+0x0]
    8a0d:	00 
    8a0e:	f3 0f 59 d2          	mulss  xmm2,xmm2
    8a12:	f3 0f 5c 90 00 00 00 	subss  xmm2,DWORD PTR [rax+0x0]
    8a19:	00 
    8a1a:	f3 0f 11 90 00 00 00 	movss  DWORD PTR [rax+0x0],xmm2
    8a21:	00 
    8a22:	f3 0f 10 88 00 00 00 	movss  xmm1,DWORD PTR [rax+0x0]
    8a29:	00 
    8a2a:	f3 0f 10 80 00 00 00 	movss  xmm0,DWORD PTR [rax+0x0]
    8a31:	00 
    8a32:	eb 4a                	jmp    8a7e <s279+0x1d6>
    8a34:	f3 0f 10 80 00 00 00 	movss  xmm0,DWORD PTR [rax+0x0]
    8a3b:	00 
    8a3c:	0f 28 c8             	movaps xmm1,xmm0
    8a3f:	f3 0f 59 c8          	mulss  xmm1,xmm0
    8a43:	f3 0f 5c 88 00 00 00 	subss  xmm1,DWORD PTR [rax+0x0]
    8a4a:	00 
    8a4b:	f3 0f 11 88 00 00 00 	movss  DWORD PTR [rax+0x0],xmm1
    8a52:	00 
    8a53:	0f 2e d1             	ucomiss xmm2,xmm1
    8a56:	73 1e                	jae    8a76 <s279+0x1ce>
    8a58:	f3 0f 10 90 00 00 00 	movss  xmm2,DWORD PTR [rax+0x0]
    8a5f:	00 
    8a60:	f3 0f 59 d0          	mulss  xmm2,xmm0
    8a64:	f3 0f 58 90 00 00 00 	addss  xmm2,DWORD PTR [rax+0x0]
    8a6b:	00 
    8a6c:	f3 0f 11 90 00 00 00 	movss  DWORD PTR [rax+0x0],xmm2
    8a73:	00 
    8a74:	eb 08                	jmp    8a7e <s279+0x1d6>
    8a76:	f3 0f 10 90 00 00 00 	movss  xmm2,DWORD PTR [rax+0x0]
    8a7d:	00 
    8a7e:	f3 0f 59 c2          	mulss  xmm0,xmm2
    8a82:	f3 0f 58 c1          	addss  xmm0,xmm1
    8a86:	f3 0f 11 80 00 00 00 	movss  DWORD PTR [rax+0x0],xmm0
    8a8d:	00 
    8a8e:	f3 0f 10 90 00 00 00 	movss  xmm2,DWORD PTR [rax+0x0]
    8a95:	00 
    8a96:	0f 2e d3             	ucomiss xmm2,xmm3
    8a99:	76 2e                	jbe    8ac9 <s279+0x221>
    8a9b:	f3 0f 10 90 00 00 00 	movss  xmm2,DWORD PTR [rax+0x0]
    8aa2:	00 
    8aa3:	f3 0f 59 d2          	mulss  xmm2,xmm2
    8aa7:	f3 0f 5c 90 00 00 00 	subss  xmm2,DWORD PTR [rax+0x0]
    8aae:	00 
    8aaf:	f3 0f 11 90 00 00 00 	movss  DWORD PTR [rax+0x0],xmm2
    8ab6:	00 
    8ab7:	f3 0f 10 88 00 00 00 	movss  xmm1,DWORD PTR [rax+0x0]
    8abe:	00 
    8abf:	f3 0f 10 80 00 00 00 	movss  xmm0,DWORD PTR [rax+0x0]
    8ac6:	00 
    8ac7:	eb 4a                	jmp    8b13 <s279+0x26b>
    8ac9:	f3 0f 10 80 00 00 00 	movss  xmm0,DWORD PTR [rax+0x0]
    8ad0:	00 
    8ad1:	0f 28 c8             	movaps xmm1,xmm0
    8ad4:	f3 0f 59 c8          	mulss  xmm1,xmm0
    8ad8:	f3 0f 5c 88 00 00 00 	subss  xmm1,DWORD PTR [rax+0x0]
    8adf:	00 
    8ae0:	f3 0f 11 88 00 00 00 	movss  DWORD PTR [rax+0x0],xmm1
    8ae7:	00 
    8ae8:	0f 2e d1             	ucomiss xmm2,xmm1
    8aeb:	73 1e                	jae    8b0b <s279+0x263>
    8aed:	f3 0f 10 90 00 00 00 	movss  xmm2,DWORD PTR [rax+0x0]
    8af4:	00 
    8af5:	f3 0f 59 d0          	mulss  xmm2,xmm0
    8af9:	f3 0f 58 90 00 00 00 	addss  xmm2,DWORD PTR [rax+0x0]
    8b00:	00 
    8b01:	f3 0f 11 90 00 00 00 	movss  DWORD PTR [rax+0x0],xmm2
    8b08:	00 
    8b09:	eb 08                	jmp    8b13 <s279+0x26b>
    8b0b:	f3 0f 10 90 00 00 00 	movss  xmm2,DWORD PTR [rax+0x0]
    8b12:	00 
    8b13:	f3 0f 59 c2          	mulss  xmm0,xmm2
    8b17:	f3 0f 58 c1          	addss  xmm0,xmm1
    8b1b:	f3 0f 11 80 00 00 00 	movss  DWORD PTR [rax+0x0],xmm0
    8b22:	00 
    8b23:	f3 0f 10 90 00 00 00 	movss  xmm2,DWORD PTR [rax+0x0]
    8b2a:	00 
    8b2b:	0f 2e d3             	ucomiss xmm2,xmm3
    8b2e:	76 2e                	jbe    8b5e <s279+0x2b6>
    8b30:	f3 0f 10 90 00 00 00 	movss  xmm2,DWORD PTR [rax+0x0]
    8b37:	00 
    8b38:	f3 0f 59 d2          	mulss  xmm2,xmm2
    8b3c:	f3 0f 5c 90 00 00 00 	subss  xmm2,DWORD PTR [rax+0x0]
    8b43:	00 
    8b44:	f3 0f 11 90 00 00 00 	movss  DWORD PTR [rax+0x0],xmm2
    8b4b:	00 
    8b4c:	f3 0f 10 88 00 00 00 	movss  xmm1,DWORD PTR [rax+0x0]
    8b53:	00 
    8b54:	f3 0f 10 80 00 00 00 	movss  xmm0,DWORD PTR [rax+0x0]
    8b5b:	00 
    8b5c:	eb 4a                	jmp    8ba8 <s279+0x300>
    8b5e:	f3 0f 10 80 00 00 00 	movss  xmm0,DWORD PTR [rax+0x0]
    8b65:	00 
    8b66:	0f 28 c8             	movaps xmm1,xmm0
    8b69:	f3 0f 59 c8          	mulss  xmm1,xmm0
    8b6d:	f3 0f 5c 88 00 00 00 	subss  xmm1,DWORD PTR [rax+0x0]
    8b74:	00 
    8b75:	f3 0f 11 88 00 00 00 	movss  DWORD PTR [rax+0x0],xmm1
    8b7c:	00 
    8b7d:	0f 2e d1             	ucomiss xmm2,xmm1
    8b80:	73 1e                	jae    8ba0 <s279+0x2f8>
    8b82:	f3 0f 10 90 00 00 00 	movss  xmm2,DWORD PTR [rax+0x0]
    8b89:	00 
    8b8a:	f3 0f 59 d0          	mulss  xmm2,xmm0
    8b8e:	f3 0f 58 90 00 00 00 	addss  xmm2,DWORD PTR [rax+0x0]
    8b95:	00 
    8b96:	f3 0f 11 90 00 00 00 	movss  DWORD PTR [rax+0x0],xmm2
    8b9d:	00 
    8b9e:	eb 08                	jmp    8ba8 <s279+0x300>
    8ba0:	f3 0f 10 90 00 00 00 	movss  xmm2,DWORD PTR [rax+0x0]
    8ba7:	00 
    8ba8:	f3 0f 59 c2          	mulss  xmm0,xmm2
    8bac:	f3 0f 58 c1          	addss  xmm0,xmm1
    8bb0:	f3 0f 11 80 00 00 00 	movss  DWORD PTR [rax+0x0],xmm0
    8bb7:	00 
    8bb8:	f3 0f 10 90 00 00 00 	movss  xmm2,DWORD PTR [rax+0x0]
    8bbf:	00 
    8bc0:	0f 2e d3             	ucomiss xmm2,xmm3
    8bc3:	76 2e                	jbe    8bf3 <s279+0x34b>
    8bc5:	f3 0f 10 90 00 00 00 	movss  xmm2,DWORD PTR [rax+0x0]
    8bcc:	00 
    8bcd:	f3 0f 59 d2          	mulss  xmm2,xmm2
    8bd1:	f3 0f 5c 90 00 00 00 	subss  xmm2,DWORD PTR [rax+0x0]
    8bd8:	00 
    8bd9:	f3 0f 11 90 00 00 00 	movss  DWORD PTR [rax+0x0],xmm2
    8be0:	00 
    8be1:	f3 0f 10 88 00 00 00 	movss  xmm1,DWORD PTR [rax+0x0]
    8be8:	00 
    8be9:	f3 0f 10 80 00 00 00 	movss  xmm0,DWORD PTR [rax+0x0]
    8bf0:	00 
    8bf1:	eb 4a                	jmp    8c3d <s279+0x395>
    8bf3:	f3 0f 10 80 00 00 00 	movss  xmm0,DWORD PTR [rax+0x0]
    8bfa:	00 
    8bfb:	0f 28 c8             	movaps xmm1,xmm0
    8bfe:	f3 0f 59 c8          	mulss  xmm1,xmm0
    8c02:	f3 0f 5c 88 00 00 00 	subss  xmm1,DWORD PTR [rax+0x0]
    8c09:	00 
    8c0a:	f3 0f 11 88 00 00 00 	movss  DWORD PTR [rax+0x0],xmm1
    8c11:	00 
    8c12:	0f 2e d1             	ucomiss xmm2,xmm1
    8c15:	73 1e                	jae    8c35 <s279+0x38d>
    8c17:	f3 0f 10 90 00 00 00 	movss  xmm2,DWORD PTR [rax+0x0]
    8c1e:	00 
    8c1f:	f3 0f 59 d0          	mulss  xmm2,xmm0
    8c23:	f3 0f 58 90 00 00 00 	addss  xmm2,DWORD PTR [rax+0x0]
    8c2a:	00 
    8c2b:	f3 0f 11 90 00 00 00 	movss  DWORD PTR [rax+0x0],xmm2
    8c32:	00 
    8c33:	eb 08                	jmp    8c3d <s279+0x395>
    8c35:	f3 0f 10 90 00 00 00 	movss  xmm2,DWORD PTR [rax+0x0]
    8c3c:	00 
    8c3d:	f3 0f 59 c2          	mulss  xmm0,xmm2
    8c41:	f3 0f 58 c1          	addss  xmm0,xmm1
    8c45:	f3 0f 11 80 00 00 00 	movss  DWORD PTR [rax+0x0],xmm0
    8c4c:	00 
    8c4d:	f3 0f 10 90 00 00 00 	movss  xmm2,DWORD PTR [rax+0x0]
    8c54:	00 
    8c55:	0f 2e d3             	ucomiss xmm2,xmm3
    8c58:	76 2e                	jbe    8c88 <s279+0x3e0>
    8c5a:	f3 0f 10 90 00 00 00 	movss  xmm2,DWORD PTR [rax+0x0]
    8c61:	00 
    8c62:	f3 0f 59 d2          	mulss  xmm2,xmm2
    8c66:	f3 0f 5c 90 00 00 00 	subss  xmm2,DWORD PTR [rax+0x0]
    8c6d:	00 
    8c6e:	f3 0f 11 90 00 00 00 	movss  DWORD PTR [rax+0x0],xmm2
    8c75:	00 
    8c76:	f3 0f 10 88 00 00 00 	movss  xmm1,DWORD PTR [rax+0x0]
    8c7d:	00 
    8c7e:	f3 0f 10 80 00 00 00 	movss  xmm0,DWORD PTR [rax+0x0]
    8c85:	00 
    8c86:	eb 4a                	jmp    8cd2 <s279+0x42a>
    8c88:	f3 0f 10 80 00 00 00 	movss  xmm0,DWORD PTR [rax+0x0]
    8c8f:	00 
    8c90:	0f 28 c8             	movaps xmm1,xmm0
    8c93:	f3 0f 59 c8          	mulss  xmm1,xmm0
    8c97:	f3 0f 5c 88 00 00 00 	subss  xmm1,DWORD PTR [rax+0x0]
    8c9e:	00 
    8c9f:	f3 0f 11 88 00 00 00 	movss  DWORD PTR [rax+0x0],xmm1
    8ca6:	00 
    8ca7:	0f 2e d1             	ucomiss xmm2,xmm1
    8caa:	73 1e                	jae    8cca <s279+0x422>
    8cac:	f3 0f 10 90 00 00 00 	movss  xmm2,DWORD PTR [rax+0x0]
    8cb3:	00 
    8cb4:	f3 0f 59 d0          	mulss  xmm2,xmm0
    8cb8:	f3 0f 58 90 00 00 00 	addss  xmm2,DWORD PTR [rax+0x0]
    8cbf:	00 
    8cc0:	f3 0f 11 90 00 00 00 	movss  DWORD PTR [rax+0x0],xmm2
    8cc7:	00 
    8cc8:	eb 08                	jmp    8cd2 <s279+0x42a>
    8cca:	f3 0f 10 90 00 00 00 	movss  xmm2,DWORD PTR [rax+0x0]
    8cd1:	00 
    8cd2:	f3 0f 59 c2          	mulss  xmm0,xmm2
    8cd6:	f3 0f 58 c1          	addss  xmm0,xmm1
    8cda:	f3 0f 11 80 00 00 00 	movss  DWORD PTR [rax+0x0],xmm0
    8ce1:	00 
    8ce2:	f3 0f 10 90 00 00 00 	movss  xmm2,DWORD PTR [rax+0x0]
    8ce9:	00 
    8cea:	0f 2e d3             	ucomiss xmm2,xmm3
    8ced:	76 2e                	jbe    8d1d <s279+0x475>
    8cef:	f3 0f 10 90 00 00 00 	movss  xmm2,DWORD PTR [rax+0x0]
    8cf6:	00 
    8cf7:	f3 0f 59 d2          	mulss  xmm2,xmm2
    8cfb:	f3 0f 5c 90 00 00 00 	subss  xmm2,DWORD PTR [rax+0x0]
    8d02:	00 
    8d03:	f3 0f 11 90 00 00 00 	movss  DWORD PTR [rax+0x0],xmm2
    8d0a:	00 
    8d0b:	f3 0f 10 88 00 00 00 	movss  xmm1,DWORD PTR [rax+0x0]
    8d12:	00 
    8d13:	f3 0f 10 80 00 00 00 	movss  xmm0,DWORD PTR [rax+0x0]
    8d1a:	00 
    8d1b:	eb 4a                	jmp    8d67 <s279+0x4bf>
    8d1d:	f3 0f 10 80 00 00 00 	movss  xmm0,DWORD PTR [rax+0x0]
    8d24:	00 
    8d25:	0f 28 c8             	movaps xmm1,xmm0
    8d28:	f3 0f 59 c8          	mulss  xmm1,xmm0
    8d2c:	f3 0f 5c 88 00 00 00 	subss  xmm1,DWORD PTR [rax+0x0]
    8d33:	00 
    8d34:	f3 0f 11 88 00 00 00 	movss  DWORD PTR [rax+0x0],xmm1
    8d3b:	00 
    8d3c:	0f 2e d1             	ucomiss xmm2,xmm1
    8d3f:	73 1e                	jae    8d5f <s279+0x4b7>
    8d41:	f3 0f 10 90 00 00 00 	movss  xmm2,DWORD PTR [rax+0x0]
    8d48:	00 
    8d49:	f3 0f 59 d0          	mulss  xmm2,xmm0
    8d4d:	f3 0f 58 90 00 00 00 	addss  xmm2,DWORD PTR [rax+0x0]
    8d54:	00 
    8d55:	f3 0f 11 90 00 00 00 	movss  DWORD PTR [rax+0x0],xmm2
    8d5c:	00 
    8d5d:	eb 08                	jmp    8d67 <s279+0x4bf>
    8d5f:	f3 0f 10 90 00 00 00 	movss  xmm2,DWORD PTR [rax+0x0]
    8d66:	00 
    8d67:	f3 0f 59 c2          	mulss  xmm0,xmm2
    8d6b:	f3 0f 58 c1          	addss  xmm0,xmm1
    8d6f:	f3 0f 11 80 00 00 00 	movss  DWORD PTR [rax+0x0],xmm0
    8d76:	00 
    8d77:	48 83 c0 20          	add    rax,0x20
    8d7b:	0f 85 4e fb ff ff    	jne    88cf <s279+0x27>
    8d81:	bf 00 00 00 00       	mov    edi,0x0
    8d86:	be 00 00 00 00       	mov    esi,0x0
    8d8b:	ba 00 00 00 00       	mov    edx,0x0
    8d90:	b9 00 00 00 00       	mov    ecx,0x0
    8d95:	41 b8 00 00 00 00    	mov    r8d,0x0
    8d9b:	41 b9 00 00 00 00    	mov    r9d,0x0
    8da1:	0f 57 c0             	xorps  xmm0,xmm0
    8da4:	68 00 00 00 00       	push   0x0
    8da9:	68 00 00 00 00       	push   0x0
    8dae:	e8 00 00 00 00       	call   8db3 <s279+0x50b>
    8db3:	0f 57 db             	xorps  xmm3,xmm3
    8db6:	48 83 c4 10          	add    rsp,0x10
    8dba:	ff c3                	inc    ebx
    8dbc:	81 fb 50 c3 00 00    	cmp    ebx,0xc350
    8dc2:	0f 85 00 fb ff ff    	jne    88c8 <s279+0x20>
    8dc8:	49 83 c6 10          	add    r14,0x10
    8dcc:	4c 89 f7             	mov    rdi,r14
    8dcf:	31 f6                	xor    esi,esi
    8dd1:	e8 00 00 00 00       	call   8dd6 <s279+0x52e>
    8dd6:	bf 00 00 00 00       	mov    edi,0x0
    8ddb:	48 83 c4 08          	add    rsp,0x8
    8ddf:	5b                   	pop    rbx
    8de0:	41 5e                	pop    r14
    8de2:	e9 00 00 00 00       	jmp    8de7 <s1279>

0000000000008de7 <s1279>:
    8de7:	41 56                	push   r14
    8de9:	53                   	push   rbx
    8dea:	50                   	push   rax
    8deb:	49 89 fe             	mov    r14,rdi
    8dee:	bf 00 00 00 00       	mov    edi,0x0
    8df3:	e8 00 00 00 00       	call   8df8 <s1279+0x11>
    8df8:	31 db                	xor    ebx,ebx
    8dfa:	4c 89 f7             	mov    rdi,r14
    8dfd:	31 f6                	xor    esi,esi
    8dff:	e8 00 00 00 00       	call   8e04 <s1279+0x1d>
    8e04:	0f 57 d2             	xorps  xmm2,xmm2
    8e07:	48 c7 c0 00 0c fe ff 	mov    rax,0xfffffffffffe0c00
    8e0e:	f3 0f 10 80 00 00 00 	movss  xmm0,DWORD PTR [rax+0x0]
    8e15:	00 
    8e16:	0f 2e d0             	ucomiss xmm2,xmm0
    8e19:	76 2d                	jbe    8e48 <s1279+0x61>
    8e1b:	f3 0f 10 88 00 00 00 	movss  xmm1,DWORD PTR [rax+0x0]
    8e22:	00 
    8e23:	0f 2e c8             	ucomiss xmm1,xmm0
    8e26:	76 20                	jbe    8e48 <s1279+0x61>
    8e28:	f3 0f 10 80 00 00 00 	movss  xmm0,DWORD PTR [rax+0x0]
    8e2f:	00 
    8e30:	f3 0f 59 80 00 00 00 	mulss  xmm0,DWORD PTR [rax+0x0]
    8e37:	00 
    8e38:	f3 0f 58 80 00 00 00 	addss  xmm0,DWORD PTR [rax+0x0]
    8e3f:	00 
    8e40:	f3 0f 11 80 00 00 00 	movss  DWORD PTR [rax+0x0],xmm0
    8e47:	00 
    8e48:	f3 0f 10 80 00 00 00 	movss  xmm0,DWORD PTR [rax+0x0]
    8e4f:	00 
    8e50:	0f 2e d0             	ucomiss xmm2,xmm0
    8e53:	76 2d                	jbe    8e82 <s1279+0x9b>
    8e55:	f3 0f 10 88 00 00 00 	movss  xmm1,DWORD PTR [rax+0x0]
    8e5c:	00 
    8e5d:	0f 2e c8             	ucomiss xmm1,xmm0
    8e60:	76 20                	jbe    8e82 <s1279+0x9b>
    8e62:	f3 0f 10 80 00 00 00 	movss  xmm0,DWORD PTR [rax+0x0]
    8e69:	00 
    8e6a:	f3 0f 59 80 00 00 00 	mulss  xmm0,DWORD PTR [rax+0x0]
    8e71:	00 
    8e72:	f3 0f 58 80 00 00 00 	addss  xmm0,DWORD PTR [rax+0x0]
    8e79:	00 
    8e7a:	f3 0f 11 80 00 00 00 	movss  DWORD PTR [rax+0x0],xmm0
    8e81:	00 
    8e82:	f3 0f 10 80 00 00 00 	movss  xmm0,DWORD PTR [rax+0x0]
    8e89:	00 
    8e8a:	0f 2e d0             	ucomiss xmm2,xmm0
    8e8d:	76 2d                	jbe    8ebc <s1279+0xd5>
    8e8f:	f3 0f 10 88 00 00 00 	movss  xmm1,DWORD PTR [rax+0x0]
    8e96:	00 
    8e97:	0f 2e c8             	ucomiss xmm1,xmm0
    8e9a:	76 20                	jbe    8ebc <s1279+0xd5>
    8e9c:	f3 0f 10 80 00 00 00 	movss  xmm0,DWORD PTR [rax+0x0]
    8ea3:	00 
    8ea4:	f3 0f 59 80 00 00 00 	mulss  xmm0,DWORD PTR [rax+0x0]
    8eab:	00 
    8eac:	f3 0f 58 80 00 00 00 	addss  xmm0,DWORD PTR [rax+0x0]
    8eb3:	00 
    8eb4:	f3 0f 11 80 00 00 00 	movss  DWORD PTR [rax+0x0],xmm0
    8ebb:	00 
    8ebc:	f3 0f 10 80 00 00 00 	movss  xmm0,DWORD PTR [rax+0x0]
    8ec3:	00 
    8ec4:	0f 2e d0             	ucomiss xmm2,xmm0
    8ec7:	76 2d                	jbe    8ef6 <s1279+0x10f>
    8ec9:	f3 0f 10 88 00 00 00 	movss  xmm1,DWORD PTR [rax+0x0]
    8ed0:	00 
    8ed1:	0f 2e c8             	ucomiss xmm1,xmm0
    8ed4:	76 20                	jbe    8ef6 <s1279+0x10f>
    8ed6:	f3 0f 10 80 00 00 00 	movss  xmm0,DWORD PTR [rax+0x0]
    8edd:	00 
    8ede:	f3 0f 59 80 00 00 00 	mulss  xmm0,DWORD PTR [rax+0x0]
    8ee5:	00 
    8ee6:	f3 0f 58 80 00 00 00 	addss  xmm0,DWORD PTR [rax+0x0]
    8eed:	00 
    8eee:	f3 0f 11 80 00 00 00 	movss  DWORD PTR [rax+0x0],xmm0
    8ef5:	00 
    8ef6:	f3 0f 10 80 00 00 00 	movss  xmm0,DWORD PTR [rax+0x0]
    8efd:	00 
    8efe:	0f 2e d0             	ucomiss xmm2,xmm0
    8f01:	76 2d                	jbe    8f30 <s1279+0x149>
    8f03:	f3 0f 10 88 00 00 00 	movss  xmm1,DWORD PTR [rax+0x0]
    8f0a:	00 
    8f0b:	0f 2e c8             	ucomiss xmm1,xmm0
    8f0e:	76 20                	jbe    8f30 <s1279+0x149>
    8f10:	f3 0f 10 80 00 00 00 	movss  xmm0,DWORD PTR [rax+0x0]
    8f17:	00 
    8f18:	f3 0f 59 80 00 00 00 	mulss  xmm0,DWORD PTR [rax+0x0]
    8f1f:	00 
    8f20:	f3 0f 58 80 00 00 00 	addss  xmm0,DWORD PTR [rax+0x0]
    8f27:	00 
    8f28:	f3 0f 11 80 00 00 00 	movss  DWORD PTR [rax+0x0],xmm0
    8f2f:	00 
    8f30:	f3 0f 10 80 00 00 00 	movss  xmm0,DWORD PTR [rax+0x0]
    8f37:	00 
    8f38:	0f 2e d0             	ucomiss xmm2,xmm0
    8f3b:	76 2d                	jbe    8f6a <s1279+0x183>
    8f3d:	f3 0f 10 88 00 00 00 	movss  xmm1,DWORD PTR [rax+0x0]
    8f44:	00 
    8f45:	0f 2e c8             	ucomiss xmm1,xmm0
    8f48:	76 20                	jbe    8f6a <s1279+0x183>
    8f4a:	f3 0f 10 80 00 00 00 	movss  xmm0,DWORD PTR [rax+0x0]
    8f51:	00 
    8f52:	f3 0f 59 80 00 00 00 	mulss  xmm0,DWORD PTR [rax+0x0]
    8f59:	00 
    8f5a:	f3 0f 58 80 00 00 00 	addss  xmm0,DWORD PTR [rax+0x0]
    8f61:	00 
    8f62:	f3 0f 11 80 00 00 00 	movss  DWORD PTR [rax+0x0],xmm0
    8f69:	00 
    8f6a:	f3 0f 10 80 00 00 00 	movss  xmm0,DWORD PTR [rax+0x0]
    8f71:	00 
    8f72:	0f 2e d0             	ucomiss xmm2,xmm0
    8f75:	76 2d                	jbe    8fa4 <s1279+0x1bd>
    8f77:	f3 0f 10 88 00 00 00 	movss  xmm1,DWORD PTR [rax+0x0]
    8f7e:	00 
    8f7f:	0f 2e c8             	ucomiss xmm1,xmm0
    8f82:	76 20                	jbe    8fa4 <s1279+0x1bd>
    8f84:	f3 0f 10 80 00 00 00 	movss  xmm0,DWORD PTR [rax+0x0]
    8f8b:	00 
    8f8c:	f3 0f 59 80 00 00 00 	mulss  xmm0,DWORD PTR [rax+0x0]
    8f93:	00 
    8f94:	f3 0f 58 80 00 00 00 	addss  xmm0,DWORD PTR [rax+0x0]
    8f9b:	00 
    8f9c:	f3 0f 11 80 00 00 00 	movss  DWORD PTR [rax+0x0],xmm0
    8fa3:	00 
    8fa4:	f3 0f 10 80 00 00 00 	movss  xmm0,DWORD PTR [rax+0x0]
    8fab:	00 
    8fac:	0f 2e d0             	ucomiss xmm2,xmm0
    8faf:	76 2d                	jbe    8fde <s1279+0x1f7>
    8fb1:	f3 0f 10 88 00 00 00 	movss  xmm1,DWORD PTR [rax+0x0]
    8fb8:	00 
    8fb9:	0f 2e c8             	ucomiss xmm1,xmm0
    8fbc:	76 20                	jbe    8fde <s1279+0x1f7>
    8fbe:	f3 0f 10 80 00 00 00 	movss  xmm0,DWORD PTR [rax+0x0]
    8fc5:	00 
    8fc6:	f3 0f 59 80 00 00 00 	mulss  xmm0,DWORD PTR [rax+0x0]
    8fcd:	00 
    8fce:	f3 0f 58 80 00 00 00 	addss  xmm0,DWORD PTR [rax+0x0]
    8fd5:	00 
    8fd6:	f3 0f 11 80 00 00 00 	movss  DWORD PTR [rax+0x0],xmm0
    8fdd:	00 
    8fde:	48 83 c0 20          	add    rax,0x20
    8fe2:	0f 85 26 fe ff ff    	jne    8e0e <s1279+0x27>
    8fe8:	bf 00 00 00 00       	mov    edi,0x0
    8fed:	be 00 00 00 00       	mov    esi,0x0
    8ff2:	ba 00 00 00 00       	mov    edx,0x0
    8ff7:	b9 00 00 00 00       	mov    ecx,0x0
    8ffc:	41 b8 00 00 00 00    	mov    r8d,0x0
    9002:	41 b9 00 00 00 00    	mov    r9d,0x0
    9008:	0f 57 c0             	xorps  xmm0,xmm0
    900b:	68 00 00 00 00       	push   0x0
    9010:	68 00 00 00 00       	push   0x0
    9015:	e8 00 00 00 00       	call   901a <s1279+0x233>
    901a:	0f 57 d2             	xorps  xmm2,xmm2
    901d:	48 83 c4 10          	add    rsp,0x10
    9021:	ff c3                	inc    ebx
    9023:	81 fb a0 86 01 00    	cmp    ebx,0x186a0
    9029:	0f 85 d8 fd ff ff    	jne    8e07 <s1279+0x20>
    902f:	49 83 c6 10          	add    r14,0x10
    9033:	4c 89 f7             	mov    rdi,r14
    9036:	31 f6                	xor    esi,esi
    9038:	e8 00 00 00 00       	call   903d <s1279+0x256>
    903d:	bf 00 00 00 00       	mov    edi,0x0
    9042:	48 83 c4 08          	add    rsp,0x8
    9046:	5b                   	pop    rbx
    9047:	41 5e                	pop    r14
    9049:	e9 00 00 00 00       	jmp    904e <s2710>

000000000000904e <s2710>:
    904e:	55                   	push   rbp
    904f:	41 56                	push   r14
    9051:	53                   	push   rbx
    9052:	49 89 fe             	mov    r14,rdi
    9055:	48 8b 47 20          	mov    rax,QWORD PTR [rdi+0x20]
    9059:	8b 28                	mov    ebp,DWORD PTR [rax]
    905b:	bf 00 00 00 00       	mov    edi,0x0
    9060:	e8 00 00 00 00       	call   9065 <s2710+0x17>
    9065:	31 db                	xor    ebx,ebx
    9067:	4c 89 f7             	mov    rdi,r14
    906a:	31 f6                	xor    esi,esi
    906c:	e8 00 00 00 00       	call   9071 <s2710+0x23>
    9071:	48 c7 c0 00 0c fe ff 	mov    rax,0xfffffffffffe0c00
    9078:	f3 0f 10 80 00 00 00 	movss  xmm0,DWORD PTR [rax+0x0]
    907f:	00 
    9080:	f3 0f 10 88 00 00 00 	movss  xmm1,DWORD PTR [rax+0x0]
    9087:	00 
    9088:	0f 2e c1             	ucomiss xmm0,xmm1
    908b:	76 2e                	jbe    90bb <s2710+0x6d>
    908d:	f3 0f 10 90 00 00 00 	movss  xmm2,DWORD PTR [rax+0x0]
    9094:	00 
    9095:	f3 0f 59 ca          	mulss  xmm1,xmm2
    9099:	f3 0f 58 c1          	addss  xmm0,xmm1
    909d:	f3 0f 11 80 00 00 00 	movss  DWORD PTR [rax+0x0],xmm0
    90a4:	00 
    90a5:	f3 0f 59 d2          	mulss  xmm2,xmm2
    90a9:	f3 0f 58 90 00 00 00 	addss  xmm2,DWORD PTR [rax+0x0]
    90b0:	00 
    90b1:	f3 0f 11 90 00 00 00 	movss  DWORD PTR [rax+0x0],xmm2
    90b8:	00 
    90b9:	eb 49                	jmp    9104 <s2710+0xb6>
    90bb:	f3 0f 10 88 00 00 00 	movss  xmm1,DWORD PTR [rax+0x0]
    90c2:	00 
    90c3:	f3 0f 59 c9          	mulss  xmm1,xmm1
    90c7:	0f 28 d0             	movaps xmm2,xmm0
    90ca:	f3 0f 58 d1          	addss  xmm2,xmm1
    90ce:	f3 0f 11 90 00 00 00 	movss  DWORD PTR [rax+0x0],xmm2
    90d5:	00 
    90d6:	85 ed                	test   ebp,ebp
    90d8:	7e 1a                	jle    90f4 <s2710+0xa6>
    90da:	f3 0f 10 88 00 00 00 	movss  xmm1,DWORD PTR [rax+0x0]
    90e1:	00 
    90e2:	f3 0f 59 c9          	mulss  xmm1,xmm1
    90e6:	f3 0f 58 c1          	addss  xmm0,xmm1
    90ea:	f3 0f 11 80 00 00 00 	movss  DWORD PTR [rax+0x0],xmm0
    90f1:	00 
    90f2:	eb 10                	jmp    9104 <s2710+0xb6>
    90f4:	f3 0f 58 88 00 00 00 	addss  xmm1,DWORD PTR [rax+0x0]
    90fb:	00 
    90fc:	f3 0f 11 88 00 00 00 	movss  DWORD PTR [rax+0x0],xmm1
    9103:	00 
    9104:	f3 0f 10 80 00 00 00 	movss  xmm0,DWORD PTR [rax+0x0]
    910b:	00 
    910c:	f3 0f 10 88 00 00 00 	movss  xmm1,DWORD PTR [rax+0x0]
    9113:	00 
    9114:	0f 2e c1             	ucomiss xmm0,xmm1
    9117:	76 2e                	jbe    9147 <s2710+0xf9>
    9119:	f3 0f 10 90 00 00 00 	movss  xmm2,DWORD PTR [rax+0x0]
    9120:	00 
    9121:	f3 0f 59 ca          	mulss  xmm1,xmm2
    9125:	f3 0f 58 c1          	addss  xmm0,xmm1
    9129:	f3 0f 11 80 00 00 00 	movss  DWORD PTR [rax+0x0],xmm0
    9130:	00 
    9131:	f3 0f 59 d2          	mulss  xmm2,xmm2
    9135:	f3 0f 58 90 00 00 00 	addss  xmm2,DWORD PTR [rax+0x0]
    913c:	00 
    913d:	f3 0f 11 90 00 00 00 	movss  DWORD PTR [rax+0x0],xmm2
    9144:	00 
    9145:	eb 49                	jmp    9190 <s2710+0x142>
    9147:	f3 0f 10 88 00 00 00 	movss  xmm1,DWORD PTR [rax+0x0]
    914e:	00 
    914f:	f3 0f 59 c9          	mulss  xmm1,xmm1
    9153:	0f 28 d0             	movaps xmm2,xmm0
    9156:	f3 0f 58 d1          	addss  xmm2,xmm1
    915a:	f3 0f 11 90 00 00 00 	movss  DWORD PTR [rax+0x0],xmm2
    9161:	00 
    9162:	85 ed                	test   ebp,ebp
    9164:	7e 1a                	jle    9180 <s2710+0x132>
    9166:	f3 0f 10 88 00 00 00 	movss  xmm1,DWORD PTR [rax+0x0]
    916d:	00 
    916e:	f3 0f 59 c9          	mulss  xmm1,xmm1
    9172:	f3 0f 58 c1          	addss  xmm0,xmm1
    9176:	f3 0f 11 80 00 00 00 	movss  DWORD PTR [rax+0x0],xmm0
    917d:	00 
    917e:	eb 10                	jmp    9190 <s2710+0x142>
    9180:	f3 0f 58 88 00 00 00 	addss  xmm1,DWORD PTR [rax+0x0]
    9187:	00 
    9188:	f3 0f 11 88 00 00 00 	movss  DWORD PTR [rax+0x0],xmm1
    918f:	00 
    9190:	f3 0f 10 80 00 00 00 	movss  xmm0,DWORD PTR [rax+0x0]
    9197:	00 
    9198:	f3 0f 10 88 00 00 00 	movss  xmm1,DWORD PTR [rax+0x0]
    919f:	00 
    91a0:	0f 2e c1             	ucomiss xmm0,xmm1
    91a3:	76 2e                	jbe    91d3 <s2710+0x185>
    91a5:	f3 0f 10 90 00 00 00 	movss  xmm2,DWORD PTR [rax+0x0]
    91ac:	00 
    91ad:	f3 0f 59 ca          	mulss  xmm1,xmm2
    91b1:	f3 0f 58 c1          	addss  xmm0,xmm1
    91b5:	f3 0f 11 80 00 00 00 	movss  DWORD PTR [rax+0x0],xmm0
    91bc:	00 
    91bd:	f3 0f 59 d2          	mulss  xmm2,xmm2
    91c1:	f3 0f 58 90 00 00 00 	addss  xmm2,DWORD PTR [rax+0x0]
    91c8:	00 
    91c9:	f3 0f 11 90 00 00 00 	movss  DWORD PTR [rax+0x0],xmm2
    91d0:	00 
    91d1:	eb 49                	jmp    921c <s2710+0x1ce>
    91d3:	f3 0f 10 88 00 00 00 	movss  xmm1,DWORD PTR [rax+0x0]
    91da:	00 
    91db:	f3 0f 59 c9          	mulss  xmm1,xmm1
    91df:	0f 28 d0             	movaps xmm2,xmm0
    91e2:	f3 0f 58 d1          	addss  xmm2,xmm1
    91e6:	f3 0f 11 90 00 00 00 	movss  DWORD PTR [rax+0x0],xmm2
    91ed:	00 
    91ee:	85 ed                	test   ebp,ebp
    91f0:	7e 1a                	jle    920c <s2710+0x1be>
    91f2:	f3 0f 10 88 00 00 00 	movss  xmm1,DWORD PTR [rax+0x0]
    91f9:	00 
    91fa:	f3 0f 59 c9          	mulss  xmm1,xmm1
    91fe:	f3 0f 58 c1          	addss  xmm0,xmm1
    9202:	f3 0f 11 80 00 00 00 	movss  DWORD PTR [rax+0x0],xmm0
    9209:	00 
    920a:	eb 10                	jmp    921c <s2710+0x1ce>
    920c:	f3 0f 58 88 00 00 00 	addss  xmm1,DWORD PTR [rax+0x0]
    9213:	00 
    9214:	f3 0f 11 88 00 00 00 	movss  DWORD PTR [rax+0x0],xmm1
    921b:	00 
    921c:	f3 0f 10 80 00 00 00 	movss  xmm0,DWORD PTR [rax+0x0]
    9223:	00 
    9224:	f3 0f 10 88 00 00 00 	movss  xmm1,DWORD PTR [rax+0x0]
    922b:	00 
    922c:	0f 2e c1             	ucomiss xmm0,xmm1
    922f:	76 2e                	jbe    925f <s2710+0x211>
    9231:	f3 0f 10 90 00 00 00 	movss  xmm2,DWORD PTR [rax+0x0]
    9238:	00 
    9239:	f3 0f 59 ca          	mulss  xmm1,xmm2
    923d:	f3 0f 58 c1          	addss  xmm0,xmm1
    9241:	f3 0f 11 80 00 00 00 	movss  DWORD PTR [rax+0x0],xmm0
    9248:	00 
    9249:	f3 0f 59 d2          	mulss  xmm2,xmm2
    924d:	f3 0f 58 90 00 00 00 	addss  xmm2,DWORD PTR [rax+0x0]
    9254:	00 
    9255:	f3 0f 11 90 00 00 00 	movss  DWORD PTR [rax+0x0],xmm2
    925c:	00 
    925d:	eb 49                	jmp    92a8 <s2710+0x25a>
    925f:	f3 0f 10 88 00 00 00 	movss  xmm1,DWORD PTR [rax+0x0]
    9266:	00 
    9267:	f3 0f 59 c9          	mulss  xmm1,xmm1
    926b:	0f 28 d0             	movaps xmm2,xmm0
    926e:	f3 0f 58 d1          	addss  xmm2,xmm1
    9272:	f3 0f 11 90 00 00 00 	movss  DWORD PTR [rax+0x0],xmm2
    9279:	00 
    927a:	85 ed                	test   ebp,ebp
    927c:	7e 1a                	jle    9298 <s2710+0x24a>
    927e:	f3 0f 10 88 00 00 00 	movss  xmm1,DWORD PTR [rax+0x0]
    9285:	00 
    9286:	f3 0f 59 c9          	mulss  xmm1,xmm1
    928a:	f3 0f 58 c1          	addss  xmm0,xmm1
    928e:	f3 0f 11 80 00 00 00 	movss  DWORD PTR [rax+0x0],xmm0
    9295:	00 
    9296:	eb 10                	jmp    92a8 <s2710+0x25a>
    9298:	f3 0f 58 88 00 00 00 	addss  xmm1,DWORD PTR [rax+0x0]
    929f:	00 
    92a0:	f3 0f 11 88 00 00 00 	movss  DWORD PTR [rax+0x0],xmm1
    92a7:	00 
    92a8:	f3 0f 10 80 00 00 00 	movss  xmm0,DWORD PTR [rax+0x0]
    92af:	00 
    92b0:	f3 0f 10 88 00 00 00 	movss  xmm1,DWORD PTR [rax+0x0]
    92b7:	00 
    92b8:	0f 2e c1             	ucomiss xmm0,xmm1
    92bb:	76 2e                	jbe    92eb <s2710+0x29d>
    92bd:	f3 0f 10 90 00 00 00 	movss  xmm2,DWORD PTR [rax+0x0]
    92c4:	00 
    92c5:	f3 0f 59 ca          	mulss  xmm1,xmm2
    92c9:	f3 0f 58 c1          	addss  xmm0,xmm1
    92cd:	f3 0f 11 80 00 00 00 	movss  DWORD PTR [rax+0x0],xmm0
    92d4:	00 
    92d5:	f3 0f 59 d2          	mulss  xmm2,xmm2
    92d9:	f3 0f 58 90 00 00 00 	addss  xmm2,DWORD PTR [rax+0x0]
    92e0:	00 
    92e1:	f3 0f 11 90 00 00 00 	movss  DWORD PTR [rax+0x0],xmm2
    92e8:	00 
    92e9:	eb 49                	jmp    9334 <s2710+0x2e6>
    92eb:	f3 0f 10 88 00 00 00 	movss  xmm1,DWORD PTR [rax+0x0]
    92f2:	00 
    92f3:	f3 0f 59 c9          	mulss  xmm1,xmm1
    92f7:	0f 28 d0             	movaps xmm2,xmm0
    92fa:	f3 0f 58 d1          	addss  xmm2,xmm1
    92fe:	f3 0f 11 90 00 00 00 	movss  DWORD PTR [rax+0x0],xmm2
    9305:	00 
    9306:	85 ed                	test   ebp,ebp
    9308:	7e 1a                	jle    9324 <s2710+0x2d6>
    930a:	f3 0f 10 88 00 00 00 	movss  xmm1,DWORD PTR [rax+0x0]
    9311:	00 
    9312:	f3 0f 59 c9          	mulss  xmm1,xmm1
    9316:	f3 0f 58 c1          	addss  xmm0,xmm1
    931a:	f3 0f 11 80 00 00 00 	movss  DWORD PTR [rax+0x0],xmm0
    9321:	00 
    9322:	eb 10                	jmp    9334 <s2710+0x2e6>
    9324:	f3 0f 58 88 00 00 00 	addss  xmm1,DWORD PTR [rax+0x0]
    932b:	00 
    932c:	f3 0f 11 88 00 00 00 	movss  DWORD PTR [rax+0x0],xmm1
    9333:	00 
    9334:	f3 0f 10 80 00 00 00 	movss  xmm0,DWORD PTR [rax+0x0]
    933b:	00 
    933c:	f3 0f 10 88 00 00 00 	movss  xmm1,DWORD PTR [rax+0x0]
    9343:	00 
    9344:	0f 2e c1             	ucomiss xmm0,xmm1
    9347:	76 2e                	jbe    9377 <s2710+0x329>
    9349:	f3 0f 10 90 00 00 00 	movss  xmm2,DWORD PTR [rax+0x0]
    9350:	00 
    9351:	f3 0f 59 ca          	mulss  xmm1,xmm2
    9355:	f3 0f 58 c1          	addss  xmm0,xmm1
    9359:	f3 0f 11 80 00 00 00 	movss  DWORD PTR [rax+0x0],xmm0
    9360:	00 
    9361:	f3 0f 59 d2          	mulss  xmm2,xmm2
    9365:	f3 0f 58 90 00 00 00 	addss  xmm2,DWORD PTR [rax+0x0]
    936c:	00 
    936d:	f3 0f 11 90 00 00 00 	movss  DWORD PTR [rax+0x0],xmm2
    9374:	00 
    9375:	eb 49                	jmp    93c0 <s2710+0x372>
    9377:	f3 0f 10 88 00 00 00 	movss  xmm1,DWORD PTR [rax+0x0]
    937e:	00 
    937f:	f3 0f 59 c9          	mulss  xmm1,xmm1
    9383:	0f 28 d0             	movaps xmm2,xmm0
    9386:	f3 0f 58 d1          	addss  xmm2,xmm1
    938a:	f3 0f 11 90 00 00 00 	movss  DWORD PTR [rax+0x0],xmm2
    9391:	00 
    9392:	85 ed                	test   ebp,ebp
    9394:	7e 1a                	jle    93b0 <s2710+0x362>
    9396:	f3 0f 10 88 00 00 00 	movss  xmm1,DWORD PTR [rax+0x0]
    939d:	00 
    939e:	f3 0f 59 c9          	mulss  xmm1,xmm1
    93a2:	f3 0f 58 c1          	addss  xmm0,xmm1
    93a6:	f3 0f 11 80 00 00 00 	movss  DWORD PTR [rax+0x0],xmm0
    93ad:	00 
    93ae:	eb 10                	jmp    93c0 <s2710+0x372>
    93b0:	f3 0f 58 88 00 00 00 	addss  xmm1,DWORD PTR [rax+0x0]
    93b7:	00 
    93b8:	f3 0f 11 88 00 00 00 	movss  DWORD PTR [rax+0x0],xmm1
    93bf:	00 
    93c0:	f3 0f 10 80 00 00 00 	movss  xmm0,DWORD PTR [rax+0x0]
    93c7:	00 
    93c8:	f3 0f 10 88 00 00 00 	movss  xmm1,DWORD PTR [rax+0x0]
    93cf:	00 
    93d0:	0f 2e c1             	ucomiss xmm0,xmm1
    93d3:	76 2e                	jbe    9403 <s2710+0x3b5>
    93d5:	f3 0f 10 90 00 00 00 	movss  xmm2,DWORD PTR [rax+0x0]
    93dc:	00 
    93dd:	f3 0f 59 ca          	mulss  xmm1,xmm2
    93e1:	f3 0f 58 c1          	addss  xmm0,xmm1
    93e5:	f3 0f 11 80 00 00 00 	movss  DWORD PTR [rax+0x0],xmm0
    93ec:	00 
    93ed:	f3 0f 59 d2          	mulss  xmm2,xmm2
    93f1:	f3 0f 58 90 00 00 00 	addss  xmm2,DWORD PTR [rax+0x0]
    93f8:	00 
    93f9:	f3 0f 11 90 00 00 00 	movss  DWORD PTR [rax+0x0],xmm2
    9400:	00 
    9401:	eb 49                	jmp    944c <s2710+0x3fe>
    9403:	f3 0f 10 88 00 00 00 	movss  xmm1,DWORD PTR [rax+0x0]
    940a:	00 
    940b:	f3 0f 59 c9          	mulss  xmm1,xmm1
    940f:	0f 28 d0             	movaps xmm2,xmm0
    9412:	f3 0f 58 d1          	addss  xmm2,xmm1
    9416:	f3 0f 11 90 00 00 00 	movss  DWORD PTR [rax+0x0],xmm2
    941d:	00 
    941e:	85 ed                	test   ebp,ebp
    9420:	7e 1a                	jle    943c <s2710+0x3ee>
    9422:	f3 0f 10 88 00 00 00 	movss  xmm1,DWORD PTR [rax+0x0]
    9429:	00 
    942a:	f3 0f 59 c9          	mulss  xmm1,xmm1
    942e:	f3 0f 58 c1          	addss  xmm0,xmm1
    9432:	f3 0f 11 80 00 00 00 	movss  DWORD PTR [rax+0x0],xmm0
    9439:	00 
    943a:	eb 10                	jmp    944c <s2710+0x3fe>
    943c:	f3 0f 58 88 00 00 00 	addss  xmm1,DWORD PTR [rax+0x0]
    9443:	00 
    9444:	f3 0f 11 88 00 00 00 	movss  DWORD PTR [rax+0x0],xmm1
    944b:	00 
    944c:	f3 0f 10 80 00 00 00 	movss  xmm0,DWORD PTR [rax+0x0]
    9453:	00 
    9454:	f3 0f 10 88 00 00 00 	movss  xmm1,DWORD PTR [rax+0x0]
    945b:	00 
    945c:	0f 2e c1             	ucomiss xmm0,xmm1
    945f:	76 2e                	jbe    948f <s2710+0x441>
    9461:	f3 0f 10 90 00 00 00 	movss  xmm2,DWORD PTR [rax+0x0]
    9468:	00 
    9469:	f3 0f 59 ca          	mulss  xmm1,xmm2
    946d:	f3 0f 58 c1          	addss  xmm0,xmm1
    9471:	f3 0f 11 80 00 00 00 	movss  DWORD PTR [rax+0x0],xmm0
    9478:	00 
    9479:	f3 0f 59 d2          	mulss  xmm2,xmm2
    947d:	f3 0f 58 90 00 00 00 	addss  xmm2,DWORD PTR [rax+0x0]
    9484:	00 
    9485:	f3 0f 11 90 00 00 00 	movss  DWORD PTR [rax+0x0],xmm2
    948c:	00 
    948d:	eb 49                	jmp    94d8 <s2710+0x48a>
    948f:	f3 0f 10 88 00 00 00 	movss  xmm1,DWORD PTR [rax+0x0]
    9496:	00 
    9497:	f3 0f 59 c9          	mulss  xmm1,xmm1
    949b:	0f 28 d0             	movaps xmm2,xmm0
    949e:	f3 0f 58 d1          	addss  xmm2,xmm1
    94a2:	f3 0f 11 90 00 00 00 	movss  DWORD PTR [rax+0x0],xmm2
    94a9:	00 
    94aa:	85 ed                	test   ebp,ebp
    94ac:	7e 1a                	jle    94c8 <s2710+0x47a>
    94ae:	f3 0f 10 88 00 00 00 	movss  xmm1,DWORD PTR [rax+0x0]
    94b5:	00 
    94b6:	f3 0f 59 c9          	mulss  xmm1,xmm1
    94ba:	f3 0f 58 c1          	addss  xmm0,xmm1
    94be:	f3 0f 11 80 00 00 00 	movss  DWORD PTR [rax+0x0],xmm0
    94c5:	00 
    94c6:	eb 10                	jmp    94d8 <s2710+0x48a>
    94c8:	f3 0f 58 88 00 00 00 	addss  xmm1,DWORD PTR [rax+0x0]
    94cf:	00 
    94d0:	f3 0f 11 88 00 00 00 	movss  DWORD PTR [rax+0x0],xmm1
    94d7:	00 
    94d8:	48 83 c0 20          	add    rax,0x20
    94dc:	0f 85 96 fb ff ff    	jne    9078 <s2710+0x2a>
    94e2:	bf 00 00 00 00       	mov    edi,0x0
    94e7:	be 00 00 00 00       	mov    esi,0x0
    94ec:	ba 00 00 00 00       	mov    edx,0x0
    94f1:	b9 00 00 00 00       	mov    ecx,0x0
    94f6:	41 b8 00 00 00 00    	mov    r8d,0x0
    94fc:	41 b9 00 00 00 00    	mov    r9d,0x0
    9502:	0f 57 c0             	xorps  xmm0,xmm0
    9505:	68 00 00 00 00       	push   0x0
    950a:	68 00 00 00 00       	push   0x0
    950f:	e8 00 00 00 00       	call   9514 <s2710+0x4c6>
    9514:	48 83 c4 10          	add    rsp,0x10
    9518:	ff c3                	inc    ebx
    951a:	81 fb 50 c3 00 00    	cmp    ebx,0xc350
    9520:	0f 85 4b fb ff ff    	jne    9071 <s2710+0x23>
    9526:	49 83 c6 10          	add    r14,0x10
    952a:	4c 89 f7             	mov    rdi,r14
    952d:	31 f6                	xor    esi,esi
    952f:	e8 00 00 00 00       	call   9534 <s2710+0x4e6>
    9534:	bf 00 00 00 00       	mov    edi,0x0
    9539:	5b                   	pop    rbx
    953a:	41 5e                	pop    r14
    953c:	5d                   	pop    rbp
    953d:	e9 00 00 00 00       	jmp    9542 <s2711>

0000000000009542 <s2711>:
    9542:	41 56                	push   r14
    9544:	53                   	push   rbx
    9545:	50                   	push   rax
    9546:	49 89 fe             	mov    r14,rdi
    9549:	bf 00 00 00 00       	mov    edi,0x0
    954e:	e8 00 00 00 00       	call   9553 <s2711+0x11>
    9553:	31 db                	xor    ebx,ebx
    9555:	4c 89 f7             	mov    rdi,r14
    9558:	31 f6                	xor    esi,esi
    955a:	e8 00 00 00 00       	call   955f <s2711+0x1d>
    955f:	0f 57 c9             	xorps  xmm1,xmm1
    9562:	48 c7 c0 00 0c fe ff 	mov    rax,0xfffffffffffe0c00
    9569:	f3 0f 10 80 00 00 00 	movss  xmm0,DWORD PTR [rax+0x0]
    9570:	00 
    9571:	0f 2e c1             	ucomiss xmm0,xmm1
    9574:	75 02                	jne    9578 <s2711+0x36>
    9576:	7b 18                	jnp    9590 <s2711+0x4e>
    9578:	f3 0f 59 80 00 00 00 	mulss  xmm0,DWORD PTR [rax+0x0]
    957f:	00 
    9580:	f3 0f 58 80 00 00 00 	addss  xmm0,DWORD PTR [rax+0x0]
    9587:	00 
    9588:	f3 0f 11 80 00 00 00 	movss  DWORD PTR [rax+0x0],xmm0
    958f:	00 
    9590:	f3 0f 10 80 00 00 00 	movss  xmm0,DWORD PTR [rax+0x0]
    9597:	00 
    9598:	0f 2e c1             	ucomiss xmm0,xmm1
    959b:	75 02                	jne    959f <s2711+0x5d>
    959d:	7b 18                	jnp    95b7 <s2711+0x75>
    959f:	f3 0f 59 80 00 00 00 	mulss  xmm0,DWORD PTR [rax+0x0]
    95a6:	00 
    95a7:	f3 0f 58 80 00 00 00 	addss  xmm0,DWORD PTR [rax+0x0]
    95ae:	00 
    95af:	f3 0f 11 80 00 00 00 	movss  DWORD PTR [rax+0x0],xmm0
    95b6:	00 
    95b7:	f3 0f 10 80 00 00 00 	movss  xmm0,DWORD PTR [rax+0x0]
    95be:	00 
    95bf:	0f 2e c1             	ucomiss xmm0,xmm1
    95c2:	75 02                	jne    95c6 <s2711+0x84>
    95c4:	7b 18                	jnp    95de <s2711+0x9c>
    95c6:	f3 0f 59 80 00 00 00 	mulss  xmm0,DWORD PTR [rax+0x0]
    95cd:	00 
    95ce:	f3 0f 58 80 00 00 00 	addss  xmm0,DWORD PTR [rax+0x0]
    95d5:	00 
    95d6:	f3 0f 11 80 00 00 00 	movss  DWORD PTR [rax+0x0],xmm0
    95dd:	00 
    95de:	f3 0f 10 80 00 00 00 	movss  xmm0,DWORD PTR [rax+0x0]
    95e5:	00 
    95e6:	0f 2e c1             	ucomiss xmm0,xmm1
    95e9:	75 02                	jne    95ed <s2711+0xab>
    95eb:	7b 18                	jnp    9605 <s2711+0xc3>
    95ed:	f3 0f 59 80 00 00 00 	mulss  xmm0,DWORD PTR [rax+0x0]
    95f4:	00 
    95f5:	f3 0f 58 80 00 00 00 	addss  xmm0,DWORD PTR [rax+0x0]
    95fc:	00 
    95fd:	f3 0f 11 80 00 00 00 	movss  DWORD PTR [rax+0x0],xmm0
    9604:	00 
    9605:	f3 0f 10 80 00 00 00 	movss  xmm0,DWORD PTR [rax+0x0]
    960c:	00 
    960d:	0f 2e c1             	ucomiss xmm0,xmm1
    9610:	75 02                	jne    9614 <s2711+0xd2>
    9612:	7b 18                	jnp    962c <s2711+0xea>
    9614:	f3 0f 59 80 00 00 00 	mulss  xmm0,DWORD PTR [rax+0x0]
    961b:	00 
    961c:	f3 0f 58 80 00 00 00 	addss  xmm0,DWORD PTR [rax+0x0]
    9623:	00 
    9624:	f3 0f 11 80 00 00 00 	movss  DWORD PTR [rax+0x0],xmm0
    962b:	00 
    962c:	f3 0f 10 80 00 00 00 	movss  xmm0,DWORD PTR [rax+0x0]
    9633:	00 
    9634:	0f 2e c1             	ucomiss xmm0,xmm1
    9637:	75 02                	jne    963b <s2711+0xf9>
    9639:	7b 18                	jnp    9653 <s2711+0x111>
    963b:	f3 0f 59 80 00 00 00 	mulss  xmm0,DWORD PTR [rax+0x0]
    9642:	00 
    9643:	f3 0f 58 80 00 00 00 	addss  xmm0,DWORD PTR [rax+0x0]
    964a:	00 
    964b:	f3 0f 11 80 00 00 00 	movss  DWORD PTR [rax+0x0],xmm0
    9652:	00 
    9653:	f3 0f 10 80 00 00 00 	movss  xmm0,DWORD PTR [rax+0x0]
    965a:	00 
    965b:	0f 2e c1             	ucomiss xmm0,xmm1
    965e:	75 02                	jne    9662 <s2711+0x120>
    9660:	7b 18                	jnp    967a <s2711+0x138>
    9662:	f3 0f 59 80 00 00 00 	mulss  xmm0,DWORD PTR [rax+0x0]
    9669:	00 
    966a:	f3 0f 58 80 00 00 00 	addss  xmm0,DWORD PTR [rax+0x0]
    9671:	00 
    9672:	f3 0f 11 80 00 00 00 	movss  DWORD PTR [rax+0x0],xmm0
    9679:	00 
    967a:	f3 0f 10 80 00 00 00 	movss  xmm0,DWORD PTR [rax+0x0]
    9681:	00 
    9682:	0f 2e c1             	ucomiss xmm0,xmm1
    9685:	75 02                	jne    9689 <s2711+0x147>
    9687:	7b 18                	jnp    96a1 <s2711+0x15f>
    9689:	f3 0f 59 80 00 00 00 	mulss  xmm0,DWORD PTR [rax+0x0]
    9690:	00 
    9691:	f3 0f 58 80 00 00 00 	addss  xmm0,DWORD PTR [rax+0x0]
    9698:	00 
    9699:	f3 0f 11 80 00 00 00 	movss  DWORD PTR [rax+0x0],xmm0
    96a0:	00 
    96a1:	48 83 c0 20          	add    rax,0x20
    96a5:	0f 85 be fe ff ff    	jne    9569 <s2711+0x27>
    96ab:	bf 00 00 00 00       	mov    edi,0x0
    96b0:	be 00 00 00 00       	mov    esi,0x0
    96b5:	ba 00 00 00 00       	mov    edx,0x0
    96ba:	b9 00 00 00 00       	mov    ecx,0x0
    96bf:	41 b8 00 00 00 00    	mov    r8d,0x0
    96c5:	41 b9 00 00 00 00    	mov    r9d,0x0
    96cb:	0f 57 c0             	xorps  xmm0,xmm0
    96ce:	68 00 00 00 00       	push   0x0
    96d3:	68 00 00 00 00       	push   0x0
    96d8:	e8 00 00 00 00       	call   96dd <s2711+0x19b>
    96dd:	0f 57 c9             	xorps  xmm1,xmm1
    96e0:	48 83 c4 10          	add    rsp,0x10
    96e4:	ff c3                	inc    ebx
    96e6:	81 fb 80 1a 06 00    	cmp    ebx,0x61a80
    96ec:	0f 85 70 fe ff ff    	jne    9562 <s2711+0x20>
    96f2:	49 83 c6 10          	add    r14,0x10
    96f6:	4c 89 f7             	mov    rdi,r14
    96f9:	31 f6                	xor    esi,esi
    96fb:	e8 00 00 00 00       	call   9700 <s2711+0x1be>
    9700:	bf 00 00 00 00       	mov    edi,0x0
    9705:	48 83 c4 08          	add    rsp,0x8
    9709:	5b                   	pop    rbx
    970a:	41 5e                	pop    r14
    970c:	e9 00 00 00 00       	jmp    9711 <s2712>

0000000000009711 <s2712>:
    9711:	41 56                	push   r14
    9713:	53                   	push   rbx
    9714:	50                   	push   rax
    9715:	49 89 fe             	mov    r14,rdi
    9718:	bf 00 00 00 00       	mov    edi,0x0
    971d:	e8 00 00 00 00       	call   9722 <s2712+0x11>
    9722:	31 db                	xor    ebx,ebx
    9724:	4c 89 f7             	mov    rdi,r14
    9727:	31 f6                	xor    esi,esi
    9729:	e8 00 00 00 00       	call   972e <s2712+0x1d>
    972e:	48 c7 c0 00 0c fe ff 	mov    rax,0xfffffffffffe0c00
    9735:	f3 0f 10 80 00 00 00 	movss  xmm0,DWORD PTR [rax+0x0]
    973c:	00 
    973d:	f3 0f 10 88 00 00 00 	movss  xmm1,DWORD PTR [rax+0x0]
    9744:	00 
    9745:	0f 2e c1             	ucomiss xmm0,xmm1
    9748:	76 14                	jbe    975e <s2712+0x4d>
    974a:	f3 0f 59 88 00 00 00 	mulss  xmm1,DWORD PTR [rax+0x0]
    9751:	00 
    9752:	f3 0f 58 c1          	addss  xmm0,xmm1
    9756:	f3 0f 11 80 00 00 00 	movss  DWORD PTR [rax+0x0],xmm0
    975d:	00 
    975e:	f3 0f 10 80 00 00 00 	movss  xmm0,DWORD PTR [rax+0x0]
    9765:	00 
    9766:	f3 0f 10 88 00 00 00 	movss  xmm1,DWORD PTR [rax+0x0]
    976d:	00 
    976e:	0f 2e c1             	ucomiss xmm0,xmm1
    9771:	76 14                	jbe    9787 <s2712+0x76>
    9773:	f3 0f 59 88 00 00 00 	mulss  xmm1,DWORD PTR [rax+0x0]
    977a:	00 
    977b:	f3 0f 58 c1          	addss  xmm0,xmm1
    977f:	f3 0f 11 80 00 00 00 	movss  DWORD PTR [rax+0x0],xmm0
    9786:	00 
    9787:	f3 0f 10 80 00 00 00 	movss  xmm0,DWORD PTR [rax+0x0]
    978e:	00 
    978f:	f3 0f 10 88 00 00 00 	movss  xmm1,DWORD PTR [rax+0x0]
    9796:	00 
    9797:	0f 2e c1             	ucomiss xmm0,xmm1
    979a:	76 14                	jbe    97b0 <s2712+0x9f>
    979c:	f3 0f 59 88 00 00 00 	mulss  xmm1,DWORD PTR [rax+0x0]
    97a3:	00 
    97a4:	f3 0f 58 c1          	addss  xmm0,xmm1
    97a8:	f3 0f 11 80 00 00 00 	movss  DWORD PTR [rax+0x0],xmm0
    97af:	00 
    97b0:	f3 0f 10 80 00 00 00 	movss  xmm0,DWORD PTR [rax+0x0]
    97b7:	00 
    97b8:	f3 0f 10 88 00 00 00 	movss  xmm1,DWORD PTR [rax+0x0]
    97bf:	00 
    97c0:	0f 2e c1             	ucomiss xmm0,xmm1
    97c3:	76 14                	jbe    97d9 <s2712+0xc8>
    97c5:	f3 0f 59 88 00 00 00 	mulss  xmm1,DWORD PTR [rax+0x0]
    97cc:	00 
    97cd:	f3 0f 58 c1          	addss  xmm0,xmm1
    97d1:	f3 0f 11 80 00 00 00 	movss  DWORD PTR [rax+0x0],xmm0
    97d8:	00 
    97d9:	f3 0f 10 80 00 00 00 	movss  xmm0,DWORD PTR [rax+0x0]
    97e0:	00 
    97e1:	f3 0f 10 88 00 00 00 	movss  xmm1,DWORD PTR [rax+0x0]
    97e8:	00 
    97e9:	0f 2e c1             	ucomiss xmm0,xmm1
    97ec:	76 14                	jbe    9802 <s2712+0xf1>
    97ee:	f3 0f 59 88 00 00 00 	mulss  xmm1,DWORD PTR [rax+0x0]
    97f5:	00 
    97f6:	f3 0f 58 c1          	addss  xmm0,xmm1
    97fa:	f3 0f 11 80 00 00 00 	movss  DWORD PTR [rax+0x0],xmm0
    9801:	00 
    9802:	f3 0f 10 80 00 00 00 	movss  xmm0,DWORD PTR [rax+0x0]
    9809:	00 
    980a:	f3 0f 10 88 00 00 00 	movss  xmm1,DWORD PTR [rax+0x0]
    9811:	00 
    9812:	0f 2e c1             	ucomiss xmm0,xmm1
    9815:	76 14                	jbe    982b <s2712+0x11a>
    9817:	f3 0f 59 88 00 00 00 	mulss  xmm1,DWORD PTR [rax+0x0]
    981e:	00 
    981f:	f3 0f 58 c1          	addss  xmm0,xmm1
    9823:	f3 0f 11 80 00 00 00 	movss  DWORD PTR [rax+0x0],xmm0
    982a:	00 
    982b:	f3 0f 10 80 00 00 00 	movss  xmm0,DWORD PTR [rax+0x0]
    9832:	00 
    9833:	f3 0f 10 88 00 00 00 	movss  xmm1,DWORD PTR [rax+0x0]
    983a:	00 
    983b:	0f 2e c1             	ucomiss xmm0,xmm1
    983e:	76 14                	jbe    9854 <s2712+0x143>
    9840:	f3 0f 59 88 00 00 00 	mulss  xmm1,DWORD PTR [rax+0x0]
    9847:	00 
    9848:	f3 0f 58 c1          	addss  xmm0,xmm1
    984c:	f3 0f 11 80 00 00 00 	movss  DWORD PTR [rax+0x0],xmm0
    9853:	00 
    9854:	f3 0f 10 80 00 00 00 	movss  xmm0,DWORD PTR [rax+0x0]
    985b:	00 
    985c:	f3 0f 10 88 00 00 00 	movss  xmm1,DWORD PTR [rax+0x0]
    9863:	00 
    9864:	0f 2e c1             	ucomiss xmm0,xmm1
    9867:	76 14                	jbe    987d <s2712+0x16c>
    9869:	f3 0f 59 88 00 00 00 	mulss  xmm1,DWORD PTR [rax+0x0]
    9870:	00 
    9871:	f3 0f 58 c1          	addss  xmm0,xmm1
    9875:	f3 0f 11 80 00 00 00 	movss  DWORD PTR [rax+0x0],xmm0
    987c:	00 
    987d:	48 83 c0 20          	add    rax,0x20
    9881:	0f 85 ae fe ff ff    	jne    9735 <s2712+0x24>
    9887:	bf 00 00 00 00       	mov    edi,0x0
    988c:	be 00 00 00 00       	mov    esi,0x0
    9891:	ba 00 00 00 00       	mov    edx,0x0
    9896:	b9 00 00 00 00       	mov    ecx,0x0
    989b:	41 b8 00 00 00 00    	mov    r8d,0x0
    98a1:	41 b9 00 00 00 00    	mov    r9d,0x0
    98a7:	0f 57 c0             	xorps  xmm0,xmm0
    98aa:	68 00 00 00 00       	push   0x0
    98af:	68 00 00 00 00       	push   0x0
    98b4:	e8 00 00 00 00       	call   98b9 <s2712+0x1a8>
    98b9:	48 83 c4 10          	add    rsp,0x10
    98bd:	ff c3                	inc    ebx
    98bf:	81 fb 80 1a 06 00    	cmp    ebx,0x61a80
    98c5:	0f 85 63 fe ff ff    	jne    972e <s2712+0x1d>
    98cb:	49 83 c6 10          	add    r14,0x10
    98cf:	4c 89 f7             	mov    rdi,r14
    98d2:	31 f6                	xor    esi,esi
    98d4:	e8 00 00 00 00       	call   98d9 <s2712+0x1c8>
    98d9:	bf 00 00 00 00       	mov    edi,0x0
    98de:	48 83 c4 08          	add    rsp,0x8
    98e2:	5b                   	pop    rbx
    98e3:	41 5e                	pop    r14
    98e5:	e9 00 00 00 00       	jmp    98ea <s281>

00000000000098ea <s281>:
    98ea:	41 56                	push   r14
    98ec:	53                   	push   rbx
    98ed:	50                   	push   rax
    98ee:	49 89 fe             	mov    r14,rdi
    98f1:	bf 00 00 00 00       	mov    edi,0x0
    98f6:	e8 00 00 00 00       	call   98fb <s281+0x11>
    98fb:	31 db                	xor    ebx,ebx
    98fd:	4c 89 f7             	mov    rdi,r14
    9900:	31 f6                	xor    esi,esi
    9902:	e8 00 00 00 00       	call   9907 <s281+0x1d>
    9907:	f3 0f 10 15 00 00 00 	movss  xmm2,DWORD PTR [rip+0x0]        # 990f <s281+0x25>
    990e:	00 
    990f:	48 c7 c0 00 0c fe ff 	mov    rax,0xfffffffffffe0c00
    9916:	b9 00 00 00 00       	mov    ecx,0x0
    991b:	f3 0f 10 80 00 00 00 	movss  xmm0,DWORD PTR [rax+0x0]
    9922:	00 
    9923:	f3 0f 59 80 00 00 00 	mulss  xmm0,DWORD PTR [rax+0x0]
    992a:	00 
    992b:	f3 0f 58 01          	addss  xmm0,DWORD PTR [rcx]
    992f:	f3 0f 11 80 00 00 00 	movss  DWORD PTR [rax+0x0],xmm0
    9936:	00 
    9937:	f3 0f 58 c2          	addss  xmm0,xmm2
    993b:	f3 0f 10 88 00 00 00 	movss  xmm1,DWORD PTR [rax+0x0]
    9942:	00 
    9943:	f3 0f 59 88 00 00 00 	mulss  xmm1,DWORD PTR [rax+0x0]
    994a:	00 
    994b:	f3 0f 11 80 00 00 00 	movss  DWORD PTR [rax+0x0],xmm0
    9952:	00 
    9953:	f3 0f 58 49 fc       	addss  xmm1,DWORD PTR [rcx-0x4]
    9958:	f3 0f 11 88 00 00 00 	movss  DWORD PTR [rax+0x0],xmm1
    995f:	00 
    9960:	f3 0f 58 ca          	addss  xmm1,xmm2
    9964:	f3 0f 10 80 00 00 00 	movss  xmm0,DWORD PTR [rax+0x0]
    996b:	00 
    996c:	f3 0f 59 80 00 00 00 	mulss  xmm0,DWORD PTR [rax+0x0]
    9973:	00 
    9974:	f3 0f 11 88 00 00 00 	movss  DWORD PTR [rax+0x0],xmm1
    997b:	00 
    997c:	f3 0f 58 41 f8       	addss  xmm0,DWORD PTR [rcx-0x8]
    9981:	f3 0f 11 80 00 00 00 	movss  DWORD PTR [rax+0x0],xmm0
    9988:	00 
    9989:	f3 0f 58 c2          	addss  xmm0,xmm2
    998d:	f3 0f 10 88 00 00 00 	movss  xmm1,DWORD PTR [rax+0x0]
    9994:	00 
    9995:	f3 0f 59 88 00 00 00 	mulss  xmm1,DWORD PTR [rax+0x0]
    999c:	00 
    999d:	f3 0f 11 80 00 00 00 	movss  DWORD PTR [rax+0x0],xmm0
    99a4:	00 
    99a5:	f3 0f 58 49 f4       	addss  xmm1,DWORD PTR [rcx-0xc]
    99aa:	f3 0f 11 88 00 00 00 	movss  DWORD PTR [rax+0x0],xmm1
    99b1:	00 
    99b2:	f3 0f 58 ca          	addss  xmm1,xmm2
    99b6:	f3 0f 10 80 00 00 00 	movss  xmm0,DWORD PTR [rax+0x0]
    99bd:	00 
    99be:	f3 0f 59 80 00 00 00 	mulss  xmm0,DWORD PTR [rax+0x0]
    99c5:	00 
    99c6:	f3 0f 11 88 00 00 00 	movss  DWORD PTR [rax+0x0],xmm1
    99cd:	00 
    99ce:	f3 0f 58 41 f0       	addss  xmm0,DWORD PTR [rcx-0x10]
    99d3:	f3 0f 11 80 00 00 00 	movss  DWORD PTR [rax+0x0],xmm0
    99da:	00 
    99db:	f3 0f 58 c2          	addss  xmm0,xmm2
    99df:	f3 0f 10 88 00 00 00 	movss  xmm1,DWORD PTR [rax+0x0]
    99e6:	00 
    99e7:	f3 0f 59 88 00 00 00 	mulss  xmm1,DWORD PTR [rax+0x0]
    99ee:	00 
    99ef:	f3 0f 11 80 00 00 00 	movss  DWORD PTR [rax+0x0],xmm0
    99f6:	00 
    99f7:	f3 0f 58 49 ec       	addss  xmm1,DWORD PTR [rcx-0x14]
    99fc:	f3 0f 11 88 00 00 00 	movss  DWORD PTR [rax+0x0],xmm1
    9a03:	00 
    9a04:	f3 0f 58 ca          	addss  xmm1,xmm2
    9a08:	f3 0f 10 80 00 00 00 	movss  xmm0,DWORD PTR [rax+0x0]
    9a0f:	00 
    9a10:	f3 0f 59 80 00 00 00 	mulss  xmm0,DWORD PTR [rax+0x0]
    9a17:	00 
    9a18:	f3 0f 11 88 00 00 00 	movss  DWORD PTR [rax+0x0],xmm1
    9a1f:	00 
    9a20:	f3 0f 58 41 e8       	addss  xmm0,DWORD PTR [rcx-0x18]
    9a25:	f3 0f 11 80 00 00 00 	movss  DWORD PTR [rax+0x0],xmm0
    9a2c:	00 
    9a2d:	f3 0f 58 c2          	addss  xmm0,xmm2
    9a31:	f3 0f 10 88 00 00 00 	movss  xmm1,DWORD PTR [rax+0x0]
    9a38:	00 
    9a39:	f3 0f 59 88 00 00 00 	mulss  xmm1,DWORD PTR [rax+0x0]
    9a40:	00 
    9a41:	f3 0f 11 80 00 00 00 	movss  DWORD PTR [rax+0x0],xmm0
    9a48:	00 
    9a49:	f3 0f 58 49 e4       	addss  xmm1,DWORD PTR [rcx-0x1c]
    9a4e:	f3 0f 11 88 00 00 00 	movss  DWORD PTR [rax+0x0],xmm1
    9a55:	00 
    9a56:	f3 0f 58 ca          	addss  xmm1,xmm2
    9a5a:	f3 0f 11 88 00 00 00 	movss  DWORD PTR [rax+0x0],xmm1
    9a61:	00 
    9a62:	48 83 c1 e0          	add    rcx,0xffffffffffffffe0
    9a66:	48 83 c0 20          	add    rax,0x20
    9a6a:	0f 85 ab fe ff ff    	jne    991b <s281+0x31>
    9a70:	bf 00 00 00 00       	mov    edi,0x0
    9a75:	be 00 00 00 00       	mov    esi,0x0
    9a7a:	ba 00 00 00 00       	mov    edx,0x0
    9a7f:	b9 00 00 00 00       	mov    ecx,0x0
    9a84:	41 b8 00 00 00 00    	mov    r8d,0x0
    9a8a:	41 b9 00 00 00 00    	mov    r9d,0x0
    9a90:	0f 57 c0             	xorps  xmm0,xmm0
    9a93:	68 00 00 00 00       	push   0x0
    9a98:	68 00 00 00 00       	push   0x0
    9a9d:	e8 00 00 00 00       	call   9aa2 <s281+0x1b8>
    9aa2:	f3 0f 10 15 00 00 00 	movss  xmm2,DWORD PTR [rip+0x0]        # 9aaa <s281+0x1c0>
    9aa9:	00 
    9aaa:	48 83 c4 10          	add    rsp,0x10
    9aae:	ff c3                	inc    ebx
    9ab0:	81 fb a0 86 01 00    	cmp    ebx,0x186a0
    9ab6:	0f 85 53 fe ff ff    	jne    990f <s281+0x25>
    9abc:	49 83 c6 10          	add    r14,0x10
    9ac0:	4c 89 f7             	mov    rdi,r14
    9ac3:	31 f6                	xor    esi,esi
    9ac5:	e8 00 00 00 00       	call   9aca <s281+0x1e0>
    9aca:	bf 00 00 00 00       	mov    edi,0x0
    9acf:	48 83 c4 08          	add    rsp,0x8
    9ad3:	5b                   	pop    rbx
    9ad4:	41 5e                	pop    r14
    9ad6:	e9 00 00 00 00       	jmp    9adb <s1281>

0000000000009adb <s1281>:
    9adb:	41 56                	push   r14
    9add:	53                   	push   rbx
    9ade:	50                   	push   rax
    9adf:	49 89 fe             	mov    r14,rdi
    9ae2:	bf 00 00 00 00       	mov    edi,0x0
    9ae7:	e8 00 00 00 00       	call   9aec <s1281+0x11>
    9aec:	31 db                	xor    ebx,ebx
    9aee:	4c 89 f7             	mov    rdi,r14
    9af1:	31 f6                	xor    esi,esi
    9af3:	e8 00 00 00 00       	call   9af8 <s1281+0x1d>
    9af8:	f3 0f 10 15 00 00 00 	movss  xmm2,DWORD PTR [rip+0x0]        # 9b00 <s1281+0x25>
    9aff:	00 
    9b00:	48 c7 c0 00 0c fe ff 	mov    rax,0xfffffffffffe0c00
    9b07:	f3 0f 10 80 00 00 00 	movss  xmm0,DWORD PTR [rax+0x0]
    9b0e:	00 
    9b0f:	f3 0f 59 80 00 00 00 	mulss  xmm0,DWORD PTR [rax+0x0]
    9b16:	00 
    9b17:	f3 0f 10 88 00 00 00 	movss  xmm1,DWORD PTR [rax+0x0]
    9b1e:	00 
    9b1f:	f3 0f 59 88 00 00 00 	mulss  xmm1,DWORD PTR [rax+0x0]
    9b26:	00 
    9b27:	f3 0f 58 c8          	addss  xmm1,xmm0
    9b2b:	f3 0f 58 88 00 00 00 	addss  xmm1,DWORD PTR [rax+0x0]
    9b32:	00 
    9b33:	f3 0f 11 88 00 00 00 	movss  DWORD PTR [rax+0x0],xmm1
    9b3a:	00 
    9b3b:	f3 0f 58 ca          	addss  xmm1,xmm2
    9b3f:	f3 0f 11 88 00 00 00 	movss  DWORD PTR [rax+0x0],xmm1
    9b46:	00 
    9b47:	48 83 c0 04          	add    rax,0x4
    9b4b:	75 ba                	jne    9b07 <s1281+0x2c>
    9b4d:	bf 00 00 00 00       	mov    edi,0x0
    9b52:	be 00 00 00 00       	mov    esi,0x0
    9b57:	ba 00 00 00 00       	mov    edx,0x0
    9b5c:	b9 00 00 00 00       	mov    ecx,0x0
    9b61:	41 b8 00 00 00 00    	mov    r8d,0x0
    9b67:	41 b9 00 00 00 00    	mov    r9d,0x0
    9b6d:	0f 57 c0             	xorps  xmm0,xmm0
    9b70:	68 00 00 00 00       	push   0x0
    9b75:	68 00 00 00 00       	push   0x0
    9b7a:	e8 00 00 00 00       	call   9b7f <s1281+0xa4>
    9b7f:	f3 0f 10 15 00 00 00 	movss  xmm2,DWORD PTR [rip+0x0]        # 9b87 <s1281+0xac>
    9b86:	00 
    9b87:	48 83 c4 10          	add    rsp,0x10
    9b8b:	ff c3                	inc    ebx
    9b8d:	81 fb 80 1a 06 00    	cmp    ebx,0x61a80
    9b93:	0f 85 67 ff ff ff    	jne    9b00 <s1281+0x25>
    9b99:	49 83 c6 10          	add    r14,0x10
    9b9d:	4c 89 f7             	mov    rdi,r14
    9ba0:	31 f6                	xor    esi,esi
    9ba2:	e8 00 00 00 00       	call   9ba7 <s1281+0xcc>
    9ba7:	bf 00 00 00 00       	mov    edi,0x0
    9bac:	48 83 c4 08          	add    rsp,0x8
    9bb0:	5b                   	pop    rbx
    9bb1:	41 5e                	pop    r14
    9bb3:	e9 00 00 00 00       	jmp    9bb8 <s291>

0000000000009bb8 <s291>:
    9bb8:	41 56                	push   r14
    9bba:	53                   	push   rbx
    9bbb:	50                   	push   rax
    9bbc:	49 89 fe             	mov    r14,rdi
    9bbf:	bf 00 00 00 00       	mov    edi,0x0
    9bc4:	e8 00 00 00 00       	call   9bc9 <s291+0x11>
    9bc9:	31 db                	xor    ebx,ebx
    9bcb:	4c 89 f7             	mov    rdi,r14
    9bce:	31 f6                	xor    esi,esi
    9bd0:	e8 00 00 00 00       	call   9bd5 <s291+0x1d>
    9bd5:	f3 0f 10 15 00 00 00 	movss  xmm2,DWORD PTR [rip+0x0]        # 9bdd <s291+0x25>
    9bdc:	00 
    9bdd:	48 c7 c0 00 0c fe ff 	mov    rax,0xfffffffffffe0c00
    9be4:	f3 0f 10 05 00 00 00 	movss  xmm0,DWORD PTR [rip+0x0]        # 9bec <s291+0x34>
    9beb:	00 
    9bec:	f3 0f 10 88 00 00 00 	movss  xmm1,DWORD PTR [rax+0x0]
    9bf3:	00 
    9bf4:	f3 0f 58 c1          	addss  xmm0,xmm1
    9bf8:	f3 0f 59 c2          	mulss  xmm0,xmm2
    9bfc:	f3 0f 11 80 00 00 00 	movss  DWORD PTR [rax+0x0],xmm0
    9c03:	00 
    9c04:	f3 0f 10 80 00 00 00 	movss  xmm0,DWORD PTR [rax+0x0]
    9c0b:	00 
    9c0c:	f3 0f 58 c8          	addss  xmm1,xmm0
    9c10:	f3 0f 59 ca          	mulss  xmm1,xmm2
    9c14:	f3 0f 11 88 00 00 00 	movss  DWORD PTR [rax+0x0],xmm1
    9c1b:	00 
    9c1c:	f3 0f 10 88 00 00 00 	movss  xmm1,DWORD PTR [rax+0x0]
    9c23:	00 
    9c24:	f3 0f 58 c1          	addss  xmm0,xmm1
    9c28:	f3 0f 59 c2          	mulss  xmm0,xmm2
    9c2c:	f3 0f 11 80 00 00 00 	movss  DWORD PTR [rax+0x0],xmm0
    9c33:	00 
    9c34:	f3 0f 10 80 00 00 00 	movss  xmm0,DWORD PTR [rax+0x0]
    9c3b:	00 
    9c3c:	f3 0f 58 c8          	addss  xmm1,xmm0
    9c40:	f3 0f 59 ca          	mulss  xmm1,xmm2
    9c44:	f3 0f 11 88 00 00 00 	movss  DWORD PTR [rax+0x0],xmm1
    9c4b:	00 
    9c4c:	f3 0f 10 88 00 00 00 	movss  xmm1,DWORD PTR [rax+0x0]
    9c53:	00 
    9c54:	f3 0f 58 c1          	addss  xmm0,xmm1
    9c58:	f3 0f 59 c2          	mulss  xmm0,xmm2
    9c5c:	f3 0f 11 80 00 00 00 	movss  DWORD PTR [rax+0x0],xmm0
    9c63:	00 
    9c64:	f3 0f 10 80 00 00 00 	movss  xmm0,DWORD PTR [rax+0x0]
    9c6b:	00 
    9c6c:	f3 0f 58 c8          	addss  xmm1,xmm0
    9c70:	f3 0f 59 ca          	mulss  xmm1,xmm2
    9c74:	f3 0f 11 88 00 00 00 	movss  DWORD PTR [rax+0x0],xmm1
    9c7b:	00 
    9c7c:	f3 0f 10 88 00 00 00 	movss  xmm1,DWORD PTR [rax+0x0]
    9c83:	00 
    9c84:	f3 0f 58 c1          	addss  xmm0,xmm1
    9c88:	f3 0f 59 c2          	mulss  xmm0,xmm2
    9c8c:	f3 0f 11 80 00 00 00 	movss  DWORD PTR [rax+0x0],xmm0
    9c93:	00 
    9c94:	f3 0f 10 80 00 00 00 	movss  xmm0,DWORD PTR [rax+0x0]
    9c9b:	00 
    9c9c:	f3 0f 58 c8          	addss  xmm1,xmm0
    9ca0:	f3 0f 59 ca          	mulss  xmm1,xmm2
    9ca4:	f3 0f 11 88 00 00 00 	movss  DWORD PTR [rax+0x0],xmm1
    9cab:	00 
    9cac:	48 83 c0 20          	add    rax,0x20
    9cb0:	0f 85 36 ff ff ff    	jne    9bec <s291+0x34>
    9cb6:	bf 00 00 00 00       	mov    edi,0x0
    9cbb:	be 00 00 00 00       	mov    esi,0x0
    9cc0:	ba 00 00 00 00       	mov    edx,0x0
    9cc5:	b9 00 00 00 00       	mov    ecx,0x0
    9cca:	41 b8 00 00 00 00    	mov    r8d,0x0
    9cd0:	41 b9 00 00 00 00    	mov    r9d,0x0
    9cd6:	0f 57 c0             	xorps  xmm0,xmm0
    9cd9:	68 00 00 00 00       	push   0x0
    9cde:	68 00 00 00 00       	push   0x0
    9ce3:	e8 00 00 00 00       	call   9ce8 <s291+0x130>
    9ce8:	f3 0f 10 15 00 00 00 	movss  xmm2,DWORD PTR [rip+0x0]        # 9cf0 <s291+0x138>
    9cef:	00 
    9cf0:	48 83 c4 10          	add    rsp,0x10
    9cf4:	ff c3                	inc    ebx
    9cf6:	81 fb 40 0d 03 00    	cmp    ebx,0x30d40
    9cfc:	0f 85 db fe ff ff    	jne    9bdd <s291+0x25>
    9d02:	49 83 c6 10          	add    r14,0x10
    9d06:	4c 89 f7             	mov    rdi,r14
    9d09:	31 f6                	xor    esi,esi
    9d0b:	e8 00 00 00 00       	call   9d10 <s291+0x158>
    9d10:	bf 00 00 00 00       	mov    edi,0x0
    9d15:	48 83 c4 08          	add    rsp,0x8
    9d19:	5b                   	pop    rbx
    9d1a:	41 5e                	pop    r14
    9d1c:	e9 00 00 00 00       	jmp    9d21 <s292>

0000000000009d21 <s292>:
    9d21:	41 56                	push   r14
    9d23:	53                   	push   rbx
    9d24:	50                   	push   rax
    9d25:	49 89 fe             	mov    r14,rdi
    9d28:	bf 00 00 00 00       	mov    edi,0x0
    9d2d:	e8 00 00 00 00       	call   9d32 <s292+0x11>
    9d32:	31 db                	xor    ebx,ebx
    9d34:	4c 89 f7             	mov    rdi,r14
    9d37:	31 f6                	xor    esi,esi
    9d39:	e8 00 00 00 00       	call   9d3e <s292+0x1d>
    9d3e:	f3 44 0f 10 15 00 00 	movss  xmm10,DWORD PTR [rip+0x0]        # 9d47 <s292+0x26>
    9d45:	00 00 
    9d47:	f3 44 0f 10 0d 00 00 	movss  xmm9,DWORD PTR [rip+0x0]        # 9d50 <s292+0x2f>
    9d4e:	00 00 
    9d50:	48 c7 c0 00 0c fe ff 	mov    rax,0xfffffffffffe0c00
    9d57:	f3 0f 10 0d 00 00 00 	movss  xmm1,DWORD PTR [rip+0x0]        # 9d5f <s292+0x3e>
    9d5e:	00 
    9d5f:	f3 44 0f 10 80 00 00 	movss  xmm8,DWORD PTR [rax+0x0]
    9d66:	00 00 
    9d68:	f3 0f 10 98 00 00 00 	movss  xmm3,DWORD PTR [rax+0x0]
    9d6f:	00 
    9d70:	f3 0f 10 a0 00 00 00 	movss  xmm4,DWORD PTR [rax+0x0]
    9d77:	00 
    9d78:	f3 0f 10 a8 00 00 00 	movss  xmm5,DWORD PTR [rax+0x0]
    9d7f:	00 
    9d80:	f3 0f 10 b0 00 00 00 	movss  xmm6,DWORD PTR [rax+0x0]
    9d87:	00 
    9d88:	0f 28 fe             	movaps xmm7,xmm6
    9d8b:	f3 0f 58 fd          	addss  xmm7,xmm5
    9d8f:	f3 0f 10 80 00 00 00 	movss  xmm0,DWORD PTR [rax+0x0]
    9d96:	00 
    9d97:	0f 28 d0             	movaps xmm2,xmm0
    9d9a:	f3 0f 58 d6          	addss  xmm2,xmm6
    9d9e:	f3 0f 58 d5          	addss  xmm2,xmm5
    9da2:	f3 0f 58 ec          	addss  xmm5,xmm4
    9da6:	f3 0f 58 fc          	addss  xmm7,xmm4
    9daa:	f3 0f 58 e3          	addss  xmm4,xmm3
    9dae:	f3 0f 58 eb          	addss  xmm5,xmm3
    9db2:	f3 41 0f 58 d8       	addss  xmm3,xmm8
    9db7:	f3 41 0f 58 e0       	addss  xmm4,xmm8
    9dbc:	f3 44 0f 58 c1       	addss  xmm8,xmm1
    9dc1:	f3 45 0f 58 c1       	addss  xmm8,xmm9
    9dc6:	f3 45 0f 59 c2       	mulss  xmm8,xmm10
    9dcb:	f3 44 0f 11 80 00 00 	movss  DWORD PTR [rax+0x0],xmm8
    9dd2:	00 00 
    9dd4:	f3 0f 58 d9          	addss  xmm3,xmm1
    9dd8:	f3 41 0f 59 da       	mulss  xmm3,xmm10
    9ddd:	f3 0f 11 98 00 00 00 	movss  DWORD PTR [rax+0x0],xmm3
    9de4:	00 
    9de5:	f3 41 0f 59 e2       	mulss  xmm4,xmm10
    9dea:	f3 0f 11 a0 00 00 00 	movss  DWORD PTR [rax+0x0],xmm4
    9df1:	00 
    9df2:	f3 41 0f 59 ea       	mulss  xmm5,xmm10
    9df7:	f3 0f 11 a8 00 00 00 	movss  DWORD PTR [rax+0x0],xmm5
    9dfe:	00 
    9dff:	f3 41 0f 59 fa       	mulss  xmm7,xmm10
    9e04:	f3 0f 11 b8 00 00 00 	movss  DWORD PTR [rax+0x0],xmm7
    9e0b:	00 
    9e0c:	f3 41 0f 59 d2       	mulss  xmm2,xmm10
    9e11:	f3 0f 11 90 00 00 00 	movss  DWORD PTR [rax+0x0],xmm2
    9e18:	00 
    9e19:	f3 44 0f 10 88 00 00 	movss  xmm9,DWORD PTR [rax+0x0]
    9e20:	00 00 
    9e22:	41 0f 28 c9          	movaps xmm1,xmm9
    9e26:	f3 0f 58 c8          	addss  xmm1,xmm0
    9e2a:	f3 0f 58 ce          	addss  xmm1,xmm6
    9e2e:	f3 41 0f 59 ca       	mulss  xmm1,xmm10
    9e33:	f3 0f 11 88 00 00 00 	movss  DWORD PTR [rax+0x0],xmm1
    9e3a:	00 
    9e3b:	f3 0f 10 88 00 00 00 	movss  xmm1,DWORD PTR [rax+0x0]
    9e42:	00 
    9e43:	0f 28 d1             	movaps xmm2,xmm1
    9e46:	f3 41 0f 58 d1       	addss  xmm2,xmm9
    9e4b:	f3 0f 58 d0          	addss  xmm2,xmm0
    9e4f:	f3 41 0f 59 d2       	mulss  xmm2,xmm10
    9e54:	f3 0f 11 90 00 00 00 	movss  DWORD PTR [rax+0x0],xmm2
    9e5b:	00 
    9e5c:	48 83 c0 20          	add    rax,0x20
    9e60:	0f 85 f9 fe ff ff    	jne    9d5f <s292+0x3e>
    9e66:	bf 00 00 00 00       	mov    edi,0x0
    9e6b:	be 00 00 00 00       	mov    esi,0x0
    9e70:	ba 00 00 00 00       	mov    edx,0x0
    9e75:	b9 00 00 00 00       	mov    ecx,0x0
    9e7a:	41 b8 00 00 00 00    	mov    r8d,0x0
    9e80:	41 b9 00 00 00 00    	mov    r9d,0x0
    9e86:	0f 57 c0             	xorps  xmm0,xmm0
    9e89:	68 00 00 00 00       	push   0x0
    9e8e:	68 00 00 00 00       	push   0x0
    9e93:	e8 00 00 00 00       	call   9e98 <s292+0x177>
    9e98:	f3 44 0f 10 15 00 00 	movss  xmm10,DWORD PTR [rip+0x0]        # 9ea1 <s292+0x180>
    9e9f:	00 00 
    9ea1:	48 83 c4 10          	add    rsp,0x10
    9ea5:	ff c3                	inc    ebx
    9ea7:	81 fb a0 86 01 00    	cmp    ebx,0x186a0
    9ead:	0f 85 94 fe ff ff    	jne    9d47 <s292+0x26>
    9eb3:	49 83 c6 10          	add    r14,0x10
    9eb7:	4c 89 f7             	mov    rdi,r14
    9eba:	31 f6                	xor    esi,esi
    9ebc:	e8 00 00 00 00       	call   9ec1 <s292+0x1a0>
    9ec1:	bf 00 00 00 00       	mov    edi,0x0
    9ec6:	48 83 c4 08          	add    rsp,0x8
    9eca:	5b                   	pop    rbx
    9ecb:	41 5e                	pop    r14
    9ecd:	e9 00 00 00 00       	jmp    9ed2 <s293>

0000000000009ed2 <s293>:
    9ed2:	41 56                	push   r14
    9ed4:	53                   	push   rbx
    9ed5:	50                   	push   rax
    9ed6:	49 89 fe             	mov    r14,rdi
    9ed9:	bf 00 00 00 00       	mov    edi,0x0
    9ede:	e8 00 00 00 00       	call   9ee3 <s293+0x11>
    9ee3:	31 db                	xor    ebx,ebx
    9ee5:	4c 89 f7             	mov    rdi,r14
    9ee8:	31 f6                	xor    esi,esi
    9eea:	e8 00 00 00 00       	call   9eef <s293+0x1d>
    9eef:	48 c7 c0 00 0c fe ff 	mov    rax,0xfffffffffffe0c00
    9ef6:	f3 0f 10 05 00 00 00 	movss  xmm0,DWORD PTR [rip+0x0]        # 9efe <s293+0x2c>
    9efd:	00 
    9efe:	f3 0f 11 80 00 00 00 	movss  DWORD PTR [rax+0x0],xmm0
    9f05:	00 
    9f06:	f3 0f 10 05 00 00 00 	movss  xmm0,DWORD PTR [rip+0x0]        # 9f0e <s293+0x3c>
    9f0d:	00 
    9f0e:	f3 0f 11 80 00 00 00 	movss  DWORD PTR [rax+0x0],xmm0
    9f15:	00 
    9f16:	f3 0f 11 80 00 00 00 	movss  DWORD PTR [rax+0x0],xmm0
    9f1d:	00 
    9f1e:	f3 0f 11 80 00 00 00 	movss  DWORD PTR [rax+0x0],xmm0
    9f25:	00 
    9f26:	f3 0f 11 80 00 00 00 	movss  DWORD PTR [rax+0x0],xmm0
    9f2d:	00 
    9f2e:	f3 0f 11 80 00 00 00 	movss  DWORD PTR [rax+0x0],xmm0
    9f35:	00 
    9f36:	f3 0f 11 80 00 00 00 	movss  DWORD PTR [rax+0x0],xmm0
    9f3d:	00 
    9f3e:	f3 0f 11 80 00 00 00 	movss  DWORD PTR [rax+0x0],xmm0
    9f45:	00 
    9f46:	48 83 c0 20          	add    rax,0x20
    9f4a:	75 b2                	jne    9efe <s293+0x2c>
    9f4c:	bf 00 00 00 00       	mov    edi,0x0
    9f51:	be 00 00 00 00       	mov    esi,0x0
    9f56:	ba 00 00 00 00       	mov    edx,0x0
    9f5b:	b9 00 00 00 00       	mov    ecx,0x0
    9f60:	41 b8 00 00 00 00    	mov    r8d,0x0
    9f66:	41 b9 00 00 00 00    	mov    r9d,0x0
    9f6c:	0f 57 c0             	xorps  xmm0,xmm0
    9f6f:	68 00 00 00 00       	push   0x0
    9f74:	68 00 00 00 00       	push   0x0
    9f79:	e8 00 00 00 00       	call   9f7e <s293+0xac>
    9f7e:	48 83 c4 10          	add    rsp,0x10
    9f82:	ff c3                	inc    ebx
    9f84:	81 fb 80 1a 06 00    	cmp    ebx,0x61a80
    9f8a:	0f 85 5f ff ff ff    	jne    9eef <s293+0x1d>
    9f90:	49 83 c6 10          	add    r14,0x10
    9f94:	4c 89 f7             	mov    rdi,r14
    9f97:	31 f6                	xor    esi,esi
    9f99:	e8 00 00 00 00       	call   9f9e <s293+0xcc>
    9f9e:	bf 00 00 00 00       	mov    edi,0x0
    9fa3:	48 83 c4 08          	add    rsp,0x8
    9fa7:	5b                   	pop    rbx
    9fa8:	41 5e                	pop    r14
    9faa:	e9 00 00 00 00       	jmp    9faf <s2101>

0000000000009faf <s2101>:
    9faf:	41 56                	push   r14
    9fb1:	53                   	push   rbx
    9fb2:	50                   	push   rax
    9fb3:	49 89 fe             	mov    r14,rdi
    9fb6:	bf 00 00 00 00       	mov    edi,0x0
    9fbb:	e8 00 00 00 00       	call   9fc0 <s2101+0x11>
    9fc0:	31 db                	xor    ebx,ebx
    9fc2:	4c 89 f7             	mov    rdi,r14
    9fc5:	31 f6                	xor    esi,esi
    9fc7:	e8 00 00 00 00       	call   9fcc <s2101+0x1d>
    9fcc:	48 c7 c0 00 fc fb ff 	mov    rax,0xfffffffffffbfc00
    9fd3:	f3 0f 10 80 00 00 00 	movss  xmm0,DWORD PTR [rax+0x0]
    9fda:	00 
    9fdb:	f3 0f 59 80 00 00 00 	mulss  xmm0,DWORD PTR [rax+0x0]
    9fe2:	00 
    9fe3:	f3 0f 58 80 00 00 00 	addss  xmm0,DWORD PTR [rax+0x0]
    9fea:	00 
    9feb:	f3 0f 11 80 00 00 00 	movss  DWORD PTR [rax+0x0],xmm0
    9ff2:	00 
    9ff3:	48 05 04 04 00 00    	add    rax,0x404
    9ff9:	75 d8                	jne    9fd3 <s2101+0x24>
    9ffb:	bf 00 00 00 00       	mov    edi,0x0
    a000:	be 00 00 00 00       	mov    esi,0x0
    a005:	ba 00 00 00 00       	mov    edx,0x0
    a00a:	b9 00 00 00 00       	mov    ecx,0x0
    a00f:	41 b8 00 00 00 00    	mov    r8d,0x0
    a015:	41 b9 00 00 00 00    	mov    r9d,0x0
    a01b:	0f 57 c0             	xorps  xmm0,xmm0
    a01e:	68 00 00 00 00       	push   0x0
    a023:	68 00 00 00 00       	push   0x0
    a028:	e8 00 00 00 00       	call   a02d <s2101+0x7e>
    a02d:	48 83 c4 10          	add    rsp,0x10
    a031:	ff c3                	inc    ebx
    a033:	81 fb 40 42 0f 00    	cmp    ebx,0xf4240
    a039:	75 91                	jne    9fcc <s2101+0x1d>
    a03b:	49 83 c6 10          	add    r14,0x10
    a03f:	4c 89 f7             	mov    rdi,r14
    a042:	31 f6                	xor    esi,esi
    a044:	e8 00 00 00 00       	call   a049 <s2101+0x9a>
    a049:	bf 00 00 00 00       	mov    edi,0x0
    a04e:	48 83 c4 08          	add    rsp,0x8
    a052:	5b                   	pop    rbx
    a053:	41 5e                	pop    r14
    a055:	e9 00 00 00 00       	jmp    a05a <s2102>

000000000000a05a <s2102>:
    a05a:	41 56                	push   r14
    a05c:	53                   	push   rbx
    a05d:	50                   	push   rax
    a05e:	49 89 fe             	mov    r14,rdi
    a061:	bf 00 00 00 00       	mov    edi,0x0
    a066:	e8 00 00 00 00       	call   a06b <s2102+0x11>
    a06b:	31 db                	xor    ebx,ebx
    a06d:	4c 89 f7             	mov    rdi,r14
    a070:	31 f6                	xor    esi,esi
    a072:	e8 00 00 00 00       	call   a077 <s2102+0x1d>
    a077:	b8 00 00 00 00       	mov    eax,0x0
    a07c:	31 c9                	xor    ecx,ecx
    a07e:	31 d2                	xor    edx,edx
    a080:	c7 04 10 00 00 00 00 	mov    DWORD PTR [rax+rdx*1],0x0
    a087:	48 81 c2 00 04 00 00 	add    rdx,0x400
    a08e:	48 81 fa 00 00 04 00 	cmp    rdx,0x40000
    a095:	75 e9                	jne    a080 <s2102+0x26>
    a097:	48 89 ca             	mov    rdx,rcx
    a09a:	48 c1 e2 0a          	shl    rdx,0xa
    a09e:	c7 84 8a 00 00 00 00 	mov    DWORD PTR [rdx+rcx*4+0x0],0x3f800000
    a0a5:	00 00 80 3f 
    a0a9:	48 ff c1             	inc    rcx
    a0ac:	48 83 c0 04          	add    rax,0x4
    a0b0:	48 81 f9 00 01 00 00 	cmp    rcx,0x100
    a0b7:	75 c5                	jne    a07e <s2102+0x24>
    a0b9:	bf 00 00 00 00       	mov    edi,0x0
    a0be:	be 00 00 00 00       	mov    esi,0x0
    a0c3:	ba 00 00 00 00       	mov    edx,0x0
    a0c8:	b9 00 00 00 00       	mov    ecx,0x0
    a0cd:	41 b8 00 00 00 00    	mov    r8d,0x0
    a0d3:	41 b9 00 00 00 00    	mov    r9d,0x0
    a0d9:	0f 57 c0             	xorps  xmm0,xmm0
    a0dc:	68 00 00 00 00       	push   0x0
    a0e1:	68 00 00 00 00       	push   0x0
    a0e6:	e8 00 00 00 00       	call   a0eb <s2102+0x91>
    a0eb:	48 83 c4 10          	add    rsp,0x10
    a0ef:	ff c3                	inc    ebx
    a0f1:	81 fb 58 98 00 00    	cmp    ebx,0x9858
    a0f7:	0f 85 7a ff ff ff    	jne    a077 <s2102+0x1d>
    a0fd:	49 83 c6 10          	add    r14,0x10
    a101:	4c 89 f7             	mov    rdi,r14
    a104:	31 f6                	xor    esi,esi
    a106:	e8 00 00 00 00       	call   a10b <s2102+0xb1>
    a10b:	bf 00 00 00 00       	mov    edi,0x0
    a110:	48 83 c4 08          	add    rsp,0x8
    a114:	5b                   	pop    rbx
    a115:	41 5e                	pop    r14
    a117:	e9 00 00 00 00       	jmp    a11c <s2111>

000000000000a11c <s2111>:
    a11c:	41 56                	push   r14
    a11e:	53                   	push   rbx
    a11f:	50                   	push   rax
    a120:	49 89 fe             	mov    r14,rdi
    a123:	bf 00 00 00 00       	mov    edi,0x0
    a128:	e8 00 00 00 00       	call   a12d <s2111+0x11>
    a12d:	31 db                	xor    ebx,ebx
    a12f:	4c 89 f7             	mov    rdi,r14
    a132:	31 f6                	xor    esi,esi
    a134:	e8 00 00 00 00       	call   a139 <s2111+0x1d>
    a139:	f2 0f 10 0d 00 00 00 	movsd  xmm1,QWORD PTR [rip+0x0]        # a141 <s2111+0x25>
    a140:	00 
    a141:	b8 01 00 00 00       	mov    eax,0x1
    a146:	b9 00 00 00 00       	mov    ecx,0x0
    a14b:	48 89 c2             	mov    rdx,rax
    a14e:	48 c1 e2 0a          	shl    rdx,0xa
    a152:	f3 0f 10 82 00 00 00 	movss  xmm0,DWORD PTR [rdx+0x0]
    a159:	00 
    a15a:	31 d2                	xor    edx,edx
    a15c:	f3 0f 58 84 91 e4 fb 	addss  xmm0,DWORD PTR [rcx+rdx*4-0x41c]
    a163:	ff ff 
    a165:	f3 0f 5a c0          	cvtss2sd xmm0,xmm0
    a169:	f2 0f 5e c1          	divsd  xmm0,xmm1
    a16d:	f2 0f 5a c0          	cvtsd2ss xmm0,xmm0
    a171:	f3 0f 11 44 91 e4    	movss  DWORD PTR [rcx+rdx*4-0x1c],xmm0
    a177:	f3 0f 58 84 91 e8 fb 	addss  xmm0,DWORD PTR [rcx+rdx*4-0x418]
    a17e:	ff ff 
    a180:	f3 0f 5a c0          	cvtss2sd xmm0,xmm0
    a184:	f2 0f 5e c1          	divsd  xmm0,xmm1
    a188:	f2 0f 5a c0          	cvtsd2ss xmm0,xmm0
    a18c:	f3 0f 11 44 91 e8    	movss  DWORD PTR [rcx+rdx*4-0x18],xmm0
    a192:	f3 0f 58 84 91 ec fb 	addss  xmm0,DWORD PTR [rcx+rdx*4-0x414]
    a199:	ff ff 
    a19b:	f3 0f 5a c0          	cvtss2sd xmm0,xmm0
    a19f:	f2 0f 5e c1          	divsd  xmm0,xmm1
    a1a3:	f2 0f 5a c0          	cvtsd2ss xmm0,xmm0
    a1a7:	f3 0f 11 44 91 ec    	movss  DWORD PTR [rcx+rdx*4-0x14],xmm0
    a1ad:	f3 0f 58 84 91 f0 fb 	addss  xmm0,DWORD PTR [rcx+rdx*4-0x410]
    a1b4:	ff ff 
    a1b6:	f3 0f 5a c0          	cvtss2sd xmm0,xmm0
    a1ba:	f2 0f 5e c1          	divsd  xmm0,xmm1
    a1be:	f2 0f 5a c0          	cvtsd2ss xmm0,xmm0
    a1c2:	f3 0f 11 44 91 f0    	movss  DWORD PTR [rcx+rdx*4-0x10],xmm0
    a1c8:	f3 0f 58 84 91 f4 fb 	addss  xmm0,DWORD PTR [rcx+rdx*4-0x40c]
    a1cf:	ff ff 
    a1d1:	f3 0f 5a c0          	cvtss2sd xmm0,xmm0
    a1d5:	f2 0f 5e c1          	divsd  xmm0,xmm1
    a1d9:	f2 0f 5a c0          	cvtsd2ss xmm0,xmm0
    a1dd:	f3 0f 11 44 91 f4    	movss  DWORD PTR [rcx+rdx*4-0xc],xmm0
    a1e3:	f3 0f 58 84 91 f8 fb 	addss  xmm0,DWORD PTR [rcx+rdx*4-0x408]
    a1ea:	ff ff 
    a1ec:	f3 0f 5a c0          	cvtss2sd xmm0,xmm0
    a1f0:	f2 0f 5e c1          	divsd  xmm0,xmm1
    a1f4:	f2 0f 5a c0          	cvtsd2ss xmm0,xmm0
    a1f8:	f3 0f 11 44 91 f8    	movss  DWORD PTR [rcx+rdx*4-0x8],xmm0
    a1fe:	f3 0f 58 84 91 fc fb 	addss  xmm0,DWORD PTR [rcx+rdx*4-0x404]
    a205:	ff ff 
    a207:	f3 0f 5a c0          	cvtss2sd xmm0,xmm0
    a20b:	f2 0f 5e c1          	divsd  xmm0,xmm1
    a20f:	f2 0f 5a c0          	cvtsd2ss xmm0,xmm0
    a213:	f3 0f 11 44 91 fc    	movss  DWORD PTR [rcx+rdx*4-0x4],xmm0
    a219:	48 81 fa f8 00 00 00 	cmp    rdx,0xf8
    a220:	74 23                	je     a245 <s2111+0x129>
    a222:	f3 0f 58 84 91 00 fc 	addss  xmm0,DWORD PTR [rcx+rdx*4-0x400]
    a229:	ff ff 
    a22b:	f3 0f 5a c0          	cvtss2sd xmm0,xmm0
    a22f:	f2 0f 5e c1          	divsd  xmm0,xmm1
    a233:	f2 0f 5a c0          	cvtsd2ss xmm0,xmm0
    a237:	f3 0f 11 04 91       	movss  DWORD PTR [rcx+rdx*4],xmm0
    a23c:	48 83 c2 08          	add    rdx,0x8
    a240:	e9 17 ff ff ff       	jmp    a15c <s2111+0x40>
    a245:	48 ff c0             	inc    rax
    a248:	48 81 c1 00 04 00 00 	add    rcx,0x400
    a24f:	48 3d 00 01 00 00    	cmp    rax,0x100
    a255:	0f 85 f0 fe ff ff    	jne    a14b <s2111+0x2f>
    a25b:	bf 00 00 00 00       	mov    edi,0x0
    a260:	be 00 00 00 00       	mov    esi,0x0
    a265:	ba 00 00 00 00       	mov    edx,0x0
    a26a:	b9 00 00 00 00       	mov    ecx,0x0
    a26f:	41 b8 00 00 00 00    	mov    r8d,0x0
    a275:	41 b9 00 00 00 00    	mov    r9d,0x0
    a27b:	0f 57 c0             	xorps  xmm0,xmm0
    a27e:	68 00 00 00 00       	push   0x0
    a283:	68 00 00 00 00       	push   0x0
    a288:	e8 00 00 00 00       	call   a28d <s2111+0x171>
    a28d:	f2 0f 10 0d 00 00 00 	movsd  xmm1,QWORD PTR [rip+0x0]        # a295 <s2111+0x179>
    a294:	00 
    a295:	48 83 c4 10          	add    rsp,0x10
    a299:	ff c3                	inc    ebx
    a29b:	81 fb 58 98 00 00    	cmp    ebx,0x9858
    a2a1:	0f 85 9a fe ff ff    	jne    a141 <s2111+0x25>
    a2a7:	49 83 c6 10          	add    r14,0x10
    a2ab:	4c 89 f7             	mov    rdi,r14
    a2ae:	31 f6                	xor    esi,esi
    a2b0:	e8 00 00 00 00       	call   a2b5 <s2111+0x199>
    a2b5:	bf 00 00 00 00       	mov    edi,0x0
    a2ba:	48 83 c4 08          	add    rsp,0x8
    a2be:	5b                   	pop    rbx
    a2bf:	41 5e                	pop    r14
    a2c1:	e9 00 00 00 00       	jmp    a2c6 <s311>

000000000000a2c6 <s311>:
    a2c6:	41 56                	push   r14
    a2c8:	53                   	push   rbx
    a2c9:	50                   	push   rax
    a2ca:	49 89 fe             	mov    r14,rdi
    a2cd:	bf 00 00 00 00       	mov    edi,0x0
    a2d2:	e8 00 00 00 00       	call   a2d7 <s311+0x11>
    a2d7:	31 db                	xor    ebx,ebx
    a2d9:	4c 89 f7             	mov    rdi,r14
    a2dc:	31 f6                	xor    esi,esi
    a2de:	e8 00 00 00 00       	call   a2e3 <s311+0x1d>
    a2e3:	0f 57 c0             	xorps  xmm0,xmm0
    a2e6:	48 c7 c0 00 0c fe ff 	mov    rax,0xfffffffffffe0c00
    a2ed:	f3 0f 58 80 00 00 00 	addss  xmm0,DWORD PTR [rax+0x0]
    a2f4:	00 
    a2f5:	48 83 c0 04          	add    rax,0x4
    a2f9:	75 f2                	jne    a2ed <s311+0x27>
    a2fb:	bf 00 00 00 00       	mov    edi,0x0
    a300:	be 00 00 00 00       	mov    esi,0x0
    a305:	ba 00 00 00 00       	mov    edx,0x0
    a30a:	b9 00 00 00 00       	mov    ecx,0x0
    a30f:	41 b8 00 00 00 00    	mov    r8d,0x0
    a315:	41 b9 00 00 00 00    	mov    r9d,0x0
    a31b:	68 00 00 00 00       	push   0x0
    a320:	68 00 00 00 00       	push   0x0
    a325:	e8 00 00 00 00       	call   a32a <s311+0x64>
    a32a:	48 83 c4 10          	add    rsp,0x10
    a32e:	ff c3                	inc    ebx
    a330:	81 fb 40 42 0f 00    	cmp    ebx,0xf4240
    a336:	75 ab                	jne    a2e3 <s311+0x1d>
    a338:	49 83 c6 10          	add    r14,0x10
    a33c:	4c 89 f7             	mov    rdi,r14
    a33f:	31 f6                	xor    esi,esi
    a341:	e8 00 00 00 00       	call   a346 <s311+0x80>
    a346:	bf 00 00 00 00       	mov    edi,0x0
    a34b:	48 83 c4 08          	add    rsp,0x8
    a34f:	5b                   	pop    rbx
    a350:	41 5e                	pop    r14
    a352:	e9 00 00 00 00       	jmp    a357 <test>

000000000000a357 <test>:
    a357:	0f 57 c0             	xorps  xmm0,xmm0
    a35a:	31 c0                	xor    eax,eax
    a35c:	f3 0f 58 04 87       	addss  xmm0,DWORD PTR [rdi+rax*4]
    a361:	48 ff c0             	inc    rax
    a364:	48 83 f8 04          	cmp    rax,0x4
    a368:	75 f2                	jne    a35c <test+0x5>
    a36a:	c3                   	ret    

000000000000a36b <s31111>:
    a36b:	41 56                	push   r14
    a36d:	53                   	push   rbx
    a36e:	50                   	push   rax
    a36f:	49 89 fe             	mov    r14,rdi
    a372:	bf 00 00 00 00       	mov    edi,0x0
    a377:	e8 00 00 00 00       	call   a37c <s31111+0x11>
    a37c:	31 db                	xor    ebx,ebx
    a37e:	4c 89 f7             	mov    rdi,r14
    a381:	31 f6                	xor    esi,esi
    a383:	e8 00 00 00 00       	call   a388 <s31111+0x1d>
    a388:	0f 57 c0             	xorps  xmm0,xmm0
    a38b:	48 c7 c0 f0 ff ff ff 	mov    rax,0xfffffffffffffff0
    a392:	f3 0f 58 80 00 00 00 	addss  xmm0,DWORD PTR [rax+0x0]
    a399:	00 
    a39a:	48 83 c0 04          	add    rax,0x4
    a39e:	75 f2                	jne    a392 <s31111+0x27>
    a3a0:	0f 57 db             	xorps  xmm3,xmm3
    a3a3:	48 c7 c0 f0 ff ff ff 	mov    rax,0xfffffffffffffff0
    a3aa:	f3 0f 58 98 00 00 00 	addss  xmm3,DWORD PTR [rax+0x0]
    a3b1:	00 
    a3b2:	48 83 c0 04          	add    rax,0x4
    a3b6:	75 f2                	jne    a3aa <s31111+0x3f>
    a3b8:	0f 57 d2             	xorps  xmm2,xmm2
    a3bb:	48 c7 c0 f0 ff ff ff 	mov    rax,0xfffffffffffffff0
    a3c2:	f3 0f 58 90 00 00 00 	addss  xmm2,DWORD PTR [rax+0x0]
    a3c9:	00 
    a3ca:	48 83 c0 04          	add    rax,0x4
    a3ce:	75 f2                	jne    a3c2 <s31111+0x57>
    a3d0:	0f 57 c9             	xorps  xmm1,xmm1
    a3d3:	f3 0f 58 c1          	addss  xmm0,xmm1
    a3d7:	48 c7 c0 f0 ff ff ff 	mov    rax,0xfffffffffffffff0
    a3de:	f3 0f 58 88 00 00 00 	addss  xmm1,DWORD PTR [rax+0x0]
    a3e5:	00 
    a3e6:	48 83 c0 04          	add    rax,0x4
    a3ea:	75 f2                	jne    a3de <s31111+0x73>
    a3ec:	f3 0f 58 c3          	addss  xmm0,xmm3
    a3f0:	0f 57 db             	xorps  xmm3,xmm3
    a3f3:	48 c7 c0 f0 ff ff ff 	mov    rax,0xfffffffffffffff0
    a3fa:	f3 0f 58 98 00 00 00 	addss  xmm3,DWORD PTR [rax+0x0]
    a401:	00 
    a402:	48 83 c0 04          	add    rax,0x4
    a406:	75 f2                	jne    a3fa <s31111+0x8f>
    a408:	f3 0f 58 c2          	addss  xmm0,xmm2
    a40c:	0f 57 d2             	xorps  xmm2,xmm2
    a40f:	48 c7 c0 f0 ff ff ff 	mov    rax,0xfffffffffffffff0
    a416:	f3 0f 58 90 00 00 00 	addss  xmm2,DWORD PTR [rax+0x0]
    a41d:	00 
    a41e:	48 83 c0 04          	add    rax,0x4
    a422:	75 f2                	jne    a416 <s31111+0xab>
    a424:	f3 0f 58 c1          	addss  xmm0,xmm1
    a428:	0f 57 c9             	xorps  xmm1,xmm1
    a42b:	48 c7 c0 f0 ff ff ff 	mov    rax,0xfffffffffffffff0
    a432:	f3 0f 58 88 00 00 00 	addss  xmm1,DWORD PTR [rax+0x0]
    a439:	00 
    a43a:	48 83 c0 04          	add    rax,0x4
    a43e:	75 f2                	jne    a432 <s31111+0xc7>
    a440:	f3 0f 58 c3          	addss  xmm0,xmm3
    a444:	0f 57 db             	xorps  xmm3,xmm3
    a447:	48 c7 c0 f0 ff ff ff 	mov    rax,0xfffffffffffffff0
    a44e:	f3 0f 58 98 00 00 00 	addss  xmm3,DWORD PTR [rax+0x0]
    a455:	00 
    a456:	48 83 c0 04          	add    rax,0x4
    a45a:	75 f2                	jne    a44e <s31111+0xe3>
    a45c:	f3 0f 58 c2          	addss  xmm0,xmm2
    a460:	f3 0f 58 c1          	addss  xmm0,xmm1
    a464:	f3 0f 58 c3          	addss  xmm0,xmm3
    a468:	bf 00 00 00 00       	mov    edi,0x0
    a46d:	be 00 00 00 00       	mov    esi,0x0
    a472:	ba 00 00 00 00       	mov    edx,0x0
    a477:	b9 00 00 00 00       	mov    ecx,0x0
    a47c:	41 b8 00 00 00 00    	mov    r8d,0x0
    a482:	41 b9 00 00 00 00    	mov    r9d,0x0
    a488:	68 00 00 00 00       	push   0x0
    a48d:	68 00 00 00 00       	push   0x0
    a492:	e8 00 00 00 00       	call   a497 <s31111+0x12c>
    a497:	48 83 c4 10          	add    rsp,0x10
    a49b:	ff c3                	inc    ebx
    a49d:	81 fb 00 c2 eb 0b    	cmp    ebx,0xbebc200
    a4a3:	0f 85 df fe ff ff    	jne    a388 <s31111+0x1d>
    a4a9:	49 83 c6 10          	add    r14,0x10
    a4ad:	4c 89 f7             	mov    rdi,r14
    a4b0:	31 f6                	xor    esi,esi
    a4b2:	e8 00 00 00 00       	call   a4b7 <s31111+0x14c>
    a4b7:	bf 00 00 00 00       	mov    edi,0x0
    a4bc:	48 83 c4 08          	add    rsp,0x8
    a4c0:	5b                   	pop    rbx
    a4c1:	41 5e                	pop    r14
    a4c3:	e9 00 00 00 00       	jmp    a4c8 <s312>

000000000000a4c8 <s312>:
    a4c8:	41 56                	push   r14
    a4ca:	53                   	push   rbx
    a4cb:	50                   	push   rax
    a4cc:	49 89 fe             	mov    r14,rdi
    a4cf:	bf 00 00 00 00       	mov    edi,0x0
    a4d4:	e8 00 00 00 00       	call   a4d9 <s312+0x11>
    a4d9:	31 db                	xor    ebx,ebx
    a4db:	4c 89 f7             	mov    rdi,r14
    a4de:	31 f6                	xor    esi,esi
    a4e0:	e8 00 00 00 00       	call   a4e5 <s312+0x1d>
    a4e5:	48 c7 c0 00 0c fe ff 	mov    rax,0xfffffffffffe0c00
    a4ec:	f3 0f 10 05 00 00 00 	movss  xmm0,DWORD PTR [rip+0x0]        # a4f4 <s312+0x2c>
    a4f3:	00 
    a4f4:	f3 0f 59 80 00 00 00 	mulss  xmm0,DWORD PTR [rax+0x0]
    a4fb:	00 
    a4fc:	48 83 c0 04          	add    rax,0x4
    a500:	75 f2                	jne    a4f4 <s312+0x2c>
    a502:	bf 00 00 00 00       	mov    edi,0x0
    a507:	be 00 00 00 00       	mov    esi,0x0
    a50c:	ba 00 00 00 00       	mov    edx,0x0
    a511:	b9 00 00 00 00       	mov    ecx,0x0
    a516:	41 b8 00 00 00 00    	mov    r8d,0x0
    a51c:	41 b9 00 00 00 00    	mov    r9d,0x0
    a522:	f3 0f 11 44 24 04    	movss  DWORD PTR [rsp+0x4],xmm0
    a528:	68 00 00 00 00       	push   0x0
    a52d:	68 00 00 00 00       	push   0x0
    a532:	e8 00 00 00 00       	call   a537 <s312+0x6f>
    a537:	48 83 c4 10          	add    rsp,0x10
    a53b:	ff c3                	inc    ebx
    a53d:	81 fb 40 42 0f 00    	cmp    ebx,0xf4240
    a543:	75 a0                	jne    a4e5 <s312+0x1d>
    a545:	49 83 c6 10          	add    r14,0x10
    a549:	4c 89 f7             	mov    rdi,r14
    a54c:	31 f6                	xor    esi,esi
    a54e:	e8 00 00 00 00       	call   a553 <s312+0x8b>
    a553:	f3 0f 10 44 24 04    	movss  xmm0,DWORD PTR [rsp+0x4]
    a559:	48 83 c4 08          	add    rsp,0x8
    a55d:	5b                   	pop    rbx
    a55e:	41 5e                	pop    r14
    a560:	c3                   	ret    

000000000000a561 <s313>:
    a561:	41 56                	push   r14
    a563:	53                   	push   rbx
    a564:	50                   	push   rax
    a565:	49 89 fe             	mov    r14,rdi
    a568:	bf 00 00 00 00       	mov    edi,0x0
    a56d:	e8 00 00 00 00       	call   a572 <s313+0x11>
    a572:	31 db                	xor    ebx,ebx
    a574:	4c 89 f7             	mov    rdi,r14
    a577:	31 f6                	xor    esi,esi
    a579:	e8 00 00 00 00       	call   a57e <s313+0x1d>
    a57e:	0f 57 c0             	xorps  xmm0,xmm0
    a581:	48 c7 c0 00 0c fe ff 	mov    rax,0xfffffffffffe0c00
    a588:	f3 0f 10 88 00 00 00 	movss  xmm1,DWORD PTR [rax+0x0]
    a58f:	00 
    a590:	f3 0f 59 88 00 00 00 	mulss  xmm1,DWORD PTR [rax+0x0]
    a597:	00 
    a598:	f3 0f 58 c1          	addss  xmm0,xmm1
    a59c:	48 83 c0 04          	add    rax,0x4
    a5a0:	75 e6                	jne    a588 <s313+0x27>
    a5a2:	bf 00 00 00 00       	mov    edi,0x0
    a5a7:	be 00 00 00 00       	mov    esi,0x0
    a5ac:	ba 00 00 00 00       	mov    edx,0x0
    a5b1:	b9 00 00 00 00       	mov    ecx,0x0
    a5b6:	41 b8 00 00 00 00    	mov    r8d,0x0
    a5bc:	41 b9 00 00 00 00    	mov    r9d,0x0
    a5c2:	f3 0f 11 44 24 04    	movss  DWORD PTR [rsp+0x4],xmm0
    a5c8:	68 00 00 00 00       	push   0x0
    a5cd:	68 00 00 00 00       	push   0x0
    a5d2:	e8 00 00 00 00       	call   a5d7 <s313+0x76>
    a5d7:	48 83 c4 10          	add    rsp,0x10
    a5db:	ff c3                	inc    ebx
    a5dd:	81 fb 20 a1 07 00    	cmp    ebx,0x7a120
    a5e3:	75 99                	jne    a57e <s313+0x1d>
    a5e5:	49 83 c6 10          	add    r14,0x10
    a5e9:	4c 89 f7             	mov    rdi,r14
    a5ec:	31 f6                	xor    esi,esi
    a5ee:	e8 00 00 00 00       	call   a5f3 <s313+0x92>
    a5f3:	f3 0f 10 44 24 04    	movss  xmm0,DWORD PTR [rsp+0x4]
    a5f9:	48 83 c4 08          	add    rsp,0x8
    a5fd:	5b                   	pop    rbx
    a5fe:	41 5e                	pop    r14
    a600:	c3                   	ret    

000000000000a601 <s314>:
    a601:	41 56                	push   r14
    a603:	53                   	push   rbx
    a604:	50                   	push   rax
    a605:	49 89 fe             	mov    r14,rdi
    a608:	bf 00 00 00 00       	mov    edi,0x0
    a60d:	e8 00 00 00 00       	call   a612 <s314+0x11>
    a612:	31 db                	xor    ebx,ebx
    a614:	4c 89 f7             	mov    rdi,r14
    a617:	31 f6                	xor    esi,esi
    a619:	e8 00 00 00 00       	call   a61e <s314+0x1d>
    a61e:	48 c7 c0 20 0c fe ff 	mov    rax,0xfffffffffffe0c20
    a625:	f3 0f 10 15 00 00 00 	movss  xmm2,DWORD PTR [rip+0x0]        # a62d <s314+0x2c>
    a62c:	00 
    a62d:	0f 28 c2             	movaps xmm0,xmm2
    a630:	f3 0f 5f d0          	maxss  xmm2,xmm0
    a634:	f3 0f 10 88 00 00 00 	movss  xmm1,DWORD PTR [rax+0x0]
    a63b:	00 
    a63c:	f3 0f 5f ca          	maxss  xmm1,xmm2
    a640:	f3 0f 10 80 00 00 00 	movss  xmm0,DWORD PTR [rax+0x0]
    a647:	00 
    a648:	f3 0f 5f c1          	maxss  xmm0,xmm1
    a64c:	f3 0f 10 88 00 00 00 	movss  xmm1,DWORD PTR [rax+0x0]
    a653:	00 
    a654:	f3 0f 5f c8          	maxss  xmm1,xmm0
    a658:	f3 0f 10 80 00 00 00 	movss  xmm0,DWORD PTR [rax+0x0]
    a65f:	00 
    a660:	f3 0f 5f c1          	maxss  xmm0,xmm1
    a664:	f3 0f 10 88 00 00 00 	movss  xmm1,DWORD PTR [rax+0x0]
    a66b:	00 
    a66c:	f3 0f 5f c8          	maxss  xmm1,xmm0
    a670:	f3 0f 10 90 00 00 00 	movss  xmm2,DWORD PTR [rax+0x0]
    a677:	00 
    a678:	f3 0f 5f d1          	maxss  xmm2,xmm1
    a67c:	f3 0f 10 80 00 00 00 	movss  xmm0,DWORD PTR [rax+0x0]
    a683:	00 
    a684:	f3 0f 5f c2          	maxss  xmm0,xmm2
    a688:	48 85 c0             	test   rax,rax
    a68b:	74 0e                	je     a69b <s314+0x9a>
    a68d:	f3 0f 10 90 00 00 00 	movss  xmm2,DWORD PTR [rax+0x0]
    a694:	00 
    a695:	48 83 c0 20          	add    rax,0x20
    a699:	eb 95                	jmp    a630 <s314+0x2f>
    a69b:	bf 00 00 00 00       	mov    edi,0x0
    a6a0:	be 00 00 00 00       	mov    esi,0x0
    a6a5:	ba 00 00 00 00       	mov    edx,0x0
    a6aa:	b9 00 00 00 00       	mov    ecx,0x0
    a6af:	41 b8 00 00 00 00    	mov    r8d,0x0
    a6b5:	41 b9 00 00 00 00    	mov    r9d,0x0
    a6bb:	68 00 00 00 00       	push   0x0
    a6c0:	68 00 00 00 00       	push   0x0
    a6c5:	f3 0f 11 44 24 14    	movss  DWORD PTR [rsp+0x14],xmm0
    a6cb:	e8 00 00 00 00       	call   a6d0 <s314+0xcf>
    a6d0:	48 83 c4 10          	add    rsp,0x10
    a6d4:	ff c3                	inc    ebx
    a6d6:	81 fb 20 a1 07 00    	cmp    ebx,0x7a120
    a6dc:	0f 85 3c ff ff ff    	jne    a61e <s314+0x1d>
    a6e2:	49 83 c6 10          	add    r14,0x10
    a6e6:	4c 89 f7             	mov    rdi,r14
    a6e9:	31 f6                	xor    esi,esi
    a6eb:	e8 00 00 00 00       	call   a6f0 <s314+0xef>
    a6f0:	f3 0f 10 44 24 04    	movss  xmm0,DWORD PTR [rsp+0x4]
    a6f6:	48 83 c4 08          	add    rsp,0x8
    a6fa:	5b                   	pop    rbx
    a6fb:	41 5e                	pop    r14
    a6fd:	c3                   	ret    

000000000000a6fe <s315>:
    a6fe:	41 56                	push   r14
    a700:	53                   	push   rbx
    a701:	50                   	push   rax
    a702:	49 89 fe             	mov    r14,rdi
    a705:	bf 00 00 00 00       	mov    edi,0x0
    a70a:	e8 00 00 00 00       	call   a70f <s315+0x11>
    a70f:	31 db                	xor    ebx,ebx
    a711:	4c 89 f7             	mov    rdi,r14
    a714:	31 f6                	xor    esi,esi
    a716:	e8 00 00 00 00       	call   a71b <s315+0x1d>
    a71b:	48 c7 c0 00 0c fe ff 	mov    rax,0xfffffffffffe0c00
    a722:	89 d9                	mov    ecx,ebx
    a724:	48 69 c9 d3 4d 62 10 	imul   rcx,rcx,0x10624dd3
    a72b:	48 c1 e9 2b          	shr    rcx,0x2b
    a72f:	69 c9 00 7d 00 00    	imul   ecx,ecx,0x7d00
    a735:	89 da                	mov    edx,ebx
    a737:	29 ca                	sub    edx,ecx
    a739:	0f 57 c0             	xorps  xmm0,xmm0
    a73c:	f3 0f 2a c2          	cvtsi2ss xmm0,edx
    a740:	f3 0f 11 80 00 00 00 	movss  DWORD PTR [rax+0x0],xmm0
    a747:	00 
    a748:	83 c3 07             	add    ebx,0x7
    a74b:	48 83 c0 04          	add    rax,0x4
    a74f:	75 d1                	jne    a722 <s315+0x24>
    a751:	31 db                	xor    ebx,ebx
    a753:	f3 0f 10 15 00 00 00 	movss  xmm2,DWORD PTR [rip+0x0]        # a75b <s315+0x5d>
    a75a:	00 
    a75b:	31 c0                	xor    eax,eax
    a75d:	31 c9                	xor    ecx,ecx
    a75f:	0f 28 c2             	movaps xmm0,xmm2
    a762:	0f 2e d0             	ucomiss xmm2,xmm0
    a765:	0f 47 c8             	cmova  ecx,eax
    a768:	f3 0f 5f d0          	maxss  xmm2,xmm0
    a76c:	f3 0f 10 0c 85 00 00 	movss  xmm1,DWORD PTR [rax*4+0x0]
    a773:	00 00 
    a775:	0f 2e ca             	ucomiss xmm1,xmm2
    a778:	8d 50 01             	lea    edx,[rax+0x1]
    a77b:	0f 46 d1             	cmovbe edx,ecx
    a77e:	f3 0f 5f ca          	maxss  xmm1,xmm2
    a782:	f3 0f 10 04 85 00 00 	movss  xmm0,DWORD PTR [rax*4+0x0]
    a789:	00 00 
    a78b:	0f 2e c1             	ucomiss xmm0,xmm1
    a78e:	8d 48 02             	lea    ecx,[rax+0x2]
    a791:	0f 46 ca             	cmovbe ecx,edx
    a794:	f3 0f 5f c1          	maxss  xmm0,xmm1
    a798:	f3 0f 10 0c 85 00 00 	movss  xmm1,DWORD PTR [rax*4+0x0]
    a79f:	00 00 
    a7a1:	0f 2e c8             	ucomiss xmm1,xmm0
    a7a4:	8d 50 03             	lea    edx,[rax+0x3]
    a7a7:	0f 46 d1             	cmovbe edx,ecx
    a7aa:	f3 0f 5f c8          	maxss  xmm1,xmm0
    a7ae:	f3 0f 10 04 85 00 00 	movss  xmm0,DWORD PTR [rax*4+0x0]
    a7b5:	00 00 
    a7b7:	0f 2e c1             	ucomiss xmm0,xmm1
    a7ba:	8d 48 04             	lea    ecx,[rax+0x4]
    a7bd:	0f 46 ca             	cmovbe ecx,edx
    a7c0:	f3 0f 5f c1          	maxss  xmm0,xmm1
    a7c4:	f3 0f 10 0c 85 00 00 	movss  xmm1,DWORD PTR [rax*4+0x0]
    a7cb:	00 00 
    a7cd:	0f 2e c8             	ucomiss xmm1,xmm0
    a7d0:	8d 50 05             	lea    edx,[rax+0x5]
    a7d3:	0f 46 d1             	cmovbe edx,ecx
    a7d6:	f3 0f 5f c8          	maxss  xmm1,xmm0
    a7da:	f3 0f 10 14 85 00 00 	movss  xmm2,DWORD PTR [rax*4+0x0]
    a7e1:	00 00 
    a7e3:	0f 2e d1             	ucomiss xmm2,xmm1
    a7e6:	8d 70 06             	lea    esi,[rax+0x6]
    a7e9:	0f 46 f2             	cmovbe esi,edx
    a7ec:	f3 0f 5f d1          	maxss  xmm2,xmm1
    a7f0:	f3 0f 10 04 85 00 00 	movss  xmm0,DWORD PTR [rax*4+0x0]
    a7f7:	00 00 
    a7f9:	0f 2e c2             	ucomiss xmm0,xmm2
    a7fc:	8d 48 07             	lea    ecx,[rax+0x7]
    a7ff:	0f 46 ce             	cmovbe ecx,esi
    a802:	f3 0f 5f c2          	maxss  xmm0,xmm2
    a806:	48 8d 50 08          	lea    rdx,[rax+0x8]
    a80a:	48 81 fa 00 7d 00 00 	cmp    rdx,0x7d00
    a811:	74 11                	je     a824 <s315+0x126>
    a813:	f3 0f 10 14 85 00 00 	movss  xmm2,DWORD PTR [rax*4+0x0]
    a81a:	00 00 
    a81c:	48 89 d0             	mov    rax,rdx
    a81f:	e9 3e ff ff ff       	jmp    a762 <s315+0x64>
    a824:	0f 57 c9             	xorps  xmm1,xmm1
    a827:	f3 0f 2a c9          	cvtsi2ss xmm1,ecx
    a82b:	f3 0f 58 c1          	addss  xmm0,xmm1
    a82f:	f3 0f 11 44 24 04    	movss  DWORD PTR [rsp+0x4],xmm0
    a835:	bf 00 00 00 00       	mov    edi,0x0
    a83a:	be 00 00 00 00       	mov    esi,0x0
    a83f:	ba 00 00 00 00       	mov    edx,0x0
    a844:	b9 00 00 00 00       	mov    ecx,0x0
    a849:	41 b8 00 00 00 00    	mov    r8d,0x0
    a84f:	41 b9 00 00 00 00    	mov    r9d,0x0
    a855:	68 00 00 00 00       	push   0x0
    a85a:	68 00 00 00 00       	push   0x0
    a85f:	e8 00 00 00 00       	call   a864 <s315+0x166>
    a864:	48 83 c4 10          	add    rsp,0x10
    a868:	ff c3                	inc    ebx
    a86a:	81 fb a0 86 01 00    	cmp    ebx,0x186a0
    a870:	0f 85 dd fe ff ff    	jne    a753 <s315+0x55>
    a876:	49 83 c6 10          	add    r14,0x10
    a87a:	4c 89 f7             	mov    rdi,r14
    a87d:	31 f6                	xor    esi,esi
    a87f:	e8 00 00 00 00       	call   a884 <s315+0x186>
    a884:	f3 0f 10 44 24 04    	movss  xmm0,DWORD PTR [rsp+0x4]
    a88a:	f3 0f 58 05 00 00 00 	addss  xmm0,DWORD PTR [rip+0x0]        # a892 <s315+0x194>
    a891:	00 
    a892:	48 83 c4 08          	add    rsp,0x8
    a896:	5b                   	pop    rbx
    a897:	41 5e                	pop    r14
    a899:	c3                   	ret    

000000000000a89a <s316>:
    a89a:	41 56                	push   r14
    a89c:	53                   	push   rbx
    a89d:	50                   	push   rax
    a89e:	49 89 fe             	mov    r14,rdi
    a8a1:	bf 00 00 00 00       	mov    edi,0x0
    a8a6:	e8 00 00 00 00       	call   a8ab <s316+0x11>
    a8ab:	31 db                	xor    ebx,ebx
    a8ad:	4c 89 f7             	mov    rdi,r14
    a8b0:	31 f6                	xor    esi,esi
    a8b2:	e8 00 00 00 00       	call   a8b7 <s316+0x1d>
    a8b7:	48 c7 c0 20 0c fe ff 	mov    rax,0xfffffffffffe0c20
    a8be:	f3 0f 10 15 00 00 00 	movss  xmm2,DWORD PTR [rip+0x0]        # a8c6 <s316+0x2c>
    a8c5:	00 
    a8c6:	f3 0f 10 88 00 00 00 	movss  xmm1,DWORD PTR [rax+0x0]
    a8cd:	00 
    a8ce:	f3 0f 5d ca          	minss  xmm1,xmm2
    a8d2:	f3 0f 10 80 00 00 00 	movss  xmm0,DWORD PTR [rax+0x0]
    a8d9:	00 
    a8da:	f3 0f 5d c1          	minss  xmm0,xmm1
    a8de:	f3 0f 10 88 00 00 00 	movss  xmm1,DWORD PTR [rax+0x0]
    a8e5:	00 
    a8e6:	f3 0f 5d c8          	minss  xmm1,xmm0
    a8ea:	f3 0f 10 80 00 00 00 	movss  xmm0,DWORD PTR [rax+0x0]
    a8f1:	00 
    a8f2:	f3 0f 5d c1          	minss  xmm0,xmm1
    a8f6:	f3 0f 10 88 00 00 00 	movss  xmm1,DWORD PTR [rax+0x0]
    a8fd:	00 
    a8fe:	f3 0f 5d c8          	minss  xmm1,xmm0
    a902:	f3 0f 10 90 00 00 00 	movss  xmm2,DWORD PTR [rax+0x0]
    a909:	00 
    a90a:	f3 0f 5d d1          	minss  xmm2,xmm1
    a90e:	f3 0f 10 80 00 00 00 	movss  xmm0,DWORD PTR [rax+0x0]
    a915:	00 
    a916:	f3 0f 5d c2          	minss  xmm0,xmm2
    a91a:	48 85 c0             	test   rax,rax
    a91d:	74 12                	je     a931 <s316+0x97>
    a91f:	f3 0f 10 90 00 00 00 	movss  xmm2,DWORD PTR [rax+0x0]
    a926:	00 
    a927:	f3 0f 5d d0          	minss  xmm2,xmm0
    a92b:	48 83 c0 20          	add    rax,0x20
    a92f:	eb 95                	jmp    a8c6 <s316+0x2c>
    a931:	bf 00 00 00 00       	mov    edi,0x0
    a936:	be 00 00 00 00       	mov    esi,0x0
    a93b:	ba 00 00 00 00       	mov    edx,0x0
    a940:	b9 00 00 00 00       	mov    ecx,0x0
    a945:	41 b8 00 00 00 00    	mov    r8d,0x0
    a94b:	41 b9 00 00 00 00    	mov    r9d,0x0
    a951:	f3 0f 11 44 24 04    	movss  DWORD PTR [rsp+0x4],xmm0
    a957:	68 00 00 00 00       	push   0x0
    a95c:	68 00 00 00 00       	push   0x0
    a961:	e8 00 00 00 00       	call   a966 <s316+0xcc>
    a966:	48 83 c4 10          	add    rsp,0x10
    a96a:	ff c3                	inc    ebx
    a96c:	81 fb 20 a1 07 00    	cmp    ebx,0x7a120
    a972:	0f 85 3f ff ff ff    	jne    a8b7 <s316+0x1d>
    a978:	49 83 c6 10          	add    r14,0x10
    a97c:	4c 89 f7             	mov    rdi,r14
    a97f:	31 f6                	xor    esi,esi
    a981:	e8 00 00 00 00       	call   a986 <s316+0xec>
    a986:	f3 0f 10 44 24 04    	movss  xmm0,DWORD PTR [rsp+0x4]
    a98c:	48 83 c4 08          	add    rsp,0x8
    a990:	5b                   	pop    rbx
    a991:	41 5e                	pop    r14
    a993:	c3                   	ret    

000000000000a994 <s317>:
    a994:	41 56                	push   r14
    a996:	53                   	push   rbx
    a997:	50                   	push   rax
    a998:	49 89 fe             	mov    r14,rdi
    a99b:	bf 00 00 00 00       	mov    edi,0x0
    a9a0:	e8 00 00 00 00       	call   a9a5 <s317+0x11>
    a9a5:	31 db                	xor    ebx,ebx
    a9a7:	4c 89 f7             	mov    rdi,r14
    a9aa:	31 f6                	xor    esi,esi
    a9ac:	e8 00 00 00 00       	call   a9b1 <s317+0x1d>
    a9b1:	f3 0f 10 0d 00 00 00 	movss  xmm1,DWORD PTR [rip+0x0]        # a9b9 <s317+0x25>
    a9b8:	00 
    a9b9:	b8 80 3e 00 00       	mov    eax,0x3e80
    a9be:	f3 0f 10 05 00 00 00 	movss  xmm0,DWORD PTR [rip+0x0]        # a9c6 <s317+0x32>
    a9c5:	00 
    a9c6:	f3 0f 59 c1          	mulss  xmm0,xmm1
    a9ca:	f3 0f 59 c1          	mulss  xmm0,xmm1
    a9ce:	f3 0f 59 c1          	mulss  xmm0,xmm1
    a9d2:	f3 0f 59 c1          	mulss  xmm0,xmm1
    a9d6:	f3 0f 59 c1          	mulss  xmm0,xmm1
    a9da:	f3 0f 59 c1          	mulss  xmm0,xmm1
    a9de:	f3 0f 59 c1          	mulss  xmm0,xmm1
    a9e2:	f3 0f 59 c1          	mulss  xmm0,xmm1
    a9e6:	83 c0 f8             	add    eax,0xfffffff8
    a9e9:	75 db                	jne    a9c6 <s317+0x32>
    a9eb:	bf 00 00 00 00       	mov    edi,0x0
    a9f0:	be 00 00 00 00       	mov    esi,0x0
    a9f5:	ba 00 00 00 00       	mov    edx,0x0
    a9fa:	b9 00 00 00 00       	mov    ecx,0x0
    a9ff:	41 b8 00 00 00 00    	mov    r8d,0x0
    aa05:	41 b9 00 00 00 00    	mov    r9d,0x0
    aa0b:	f3 0f 11 44 24 04    	movss  DWORD PTR [rsp+0x4],xmm0
    aa11:	68 00 00 00 00       	push   0x0
    aa16:	68 00 00 00 00       	push   0x0
    aa1b:	e8 00 00 00 00       	call   aa20 <s317+0x8c>
    aa20:	f3 0f 10 0d 00 00 00 	movss  xmm1,DWORD PTR [rip+0x0]        # aa28 <s317+0x94>
    aa27:	00 
    aa28:	48 83 c4 10          	add    rsp,0x10
    aa2c:	ff c3                	inc    ebx
    aa2e:	81 fb 20 a1 07 00    	cmp    ebx,0x7a120
    aa34:	75 83                	jne    a9b9 <s317+0x25>
    aa36:	49 83 c6 10          	add    r14,0x10
    aa3a:	4c 89 f7             	mov    rdi,r14
    aa3d:	31 f6                	xor    esi,esi
    aa3f:	e8 00 00 00 00       	call   aa44 <s317+0xb0>
    aa44:	f3 0f 10 44 24 04    	movss  xmm0,DWORD PTR [rsp+0x4]
    aa4a:	48 83 c4 08          	add    rsp,0x8
    aa4e:	5b                   	pop    rbx
    aa4f:	41 5e                	pop    r14
    aa51:	c3                   	ret    

000000000000aa52 <s318>:
    aa52:	55                   	push   rbp
    aa53:	41 57                	push   r15
    aa55:	41 56                	push   r14
    aa57:	41 55                	push   r13
    aa59:	41 54                	push   r12
    aa5b:	53                   	push   rbx
    aa5c:	48 83 ec 18          	sub    rsp,0x18
    aa60:	49 89 fe             	mov    r14,rdi
    aa63:	48 8b 47 20          	mov    rax,QWORD PTR [rdi+0x20]
    aa67:	4c 63 28             	movsxd r13,DWORD PTR [rax]
    aa6a:	bf 00 00 00 00       	mov    edi,0x0
    aa6f:	e8 00 00 00 00       	call   aa74 <s318+0x22>
    aa74:	45 31 ff             	xor    r15d,r15d
    aa77:	4c 89 f7             	mov    rdi,r14
    aa7a:	31 f6                	xor    esi,esi
    aa7c:	e8 00 00 00 00       	call   aa81 <s318+0x2f>
    aa81:	4e 8d 24 ad 00 00 00 	lea    r12,[r13*4+0x0]
    aa88:	00 
    aa89:	4c 89 eb             	mov    rbx,r13
    aa8c:	48 c1 e3 05          	shl    rbx,0x5
    aa90:	4a 8d 2c ad 00 00 00 	lea    rbp,[r13*4+0x0]
    aa97:	00 
    aa98:	0f 28 1d 00 00 00 00 	movaps xmm3,XMMWORD PTR [rip+0x0]        # aa9f <s318+0x4d>
    aa9f:	f3 0f 10 25 00 00 00 	movss  xmm4,DWORD PTR [rip+0x0]        # aaa7 <s318+0x55>
    aaa6:	00 
    aaa7:	0f 54 e3             	andps  xmm4,xmm3
    aaaa:	b8 01 00 00 00       	mov    eax,0x1
    aaaf:	4c 89 e1             	mov    rcx,r12
    aab2:	31 ff                	xor    edi,edi
    aab4:	f3 0f 10 09          	movss  xmm1,DWORD PTR [rcx]
    aab8:	0f 54 cb             	andps  xmm1,xmm3
    aabb:	0f 2e e1             	ucomiss xmm4,xmm1
    aabe:	0f 42 f8             	cmovb  edi,eax
    aac1:	0f 28 d1             	movaps xmm2,xmm1
    aac4:	f3 0f c2 d4 06       	cmpnless xmm2,xmm4
    aac9:	0f 54 ca             	andps  xmm1,xmm2
    aacc:	0f 55 d4             	andnps xmm2,xmm4
    aacf:	0f 56 d1             	orps   xmm2,xmm1
    aad2:	48 8d 34 29          	lea    rsi,[rcx+rbp*1]
    aad6:	f3 0f 10 0c 29       	movss  xmm1,DWORD PTR [rcx+rbp*1]
    aadb:	0f 54 cb             	andps  xmm1,xmm3
    aade:	8d 50 01             	lea    edx,[rax+0x1]
    aae1:	0f 2e d1             	ucomiss xmm2,xmm1
    aae4:	0f 43 d7             	cmovae edx,edi
    aae7:	72 03                	jb     aaec <s318+0x9a>
    aae9:	0f 28 ca             	movaps xmm1,xmm2
    aaec:	f3 0f 10 44 35 00    	movss  xmm0,DWORD PTR [rbp+rsi*1+0x0]
    aaf2:	48 01 ee             	add    rsi,rbp
    aaf5:	0f 54 c3             	andps  xmm0,xmm3
    aaf8:	8d 78 02             	lea    edi,[rax+0x2]
    aafb:	0f 2e c8             	ucomiss xmm1,xmm0
    aafe:	0f 42 d7             	cmovb  edx,edi
    ab01:	72 03                	jb     ab06 <s318+0xb4>
    ab03:	0f 28 c1             	movaps xmm0,xmm1
    ab06:	f3 0f 10 4c 35 00    	movss  xmm1,DWORD PTR [rbp+rsi*1+0x0]
    ab0c:	48 01 ee             	add    rsi,rbp
    ab0f:	0f 54 cb             	andps  xmm1,xmm3
    ab12:	8d 78 03             	lea    edi,[rax+0x3]
    ab15:	0f 2e c1             	ucomiss xmm0,xmm1
    ab18:	0f 42 d7             	cmovb  edx,edi
    ab1b:	72 03                	jb     ab20 <s318+0xce>
    ab1d:	0f 28 c8             	movaps xmm1,xmm0
    ab20:	f3 0f 10 44 35 00    	movss  xmm0,DWORD PTR [rbp+rsi*1+0x0]
    ab26:	48 01 ee             	add    rsi,rbp
    ab29:	0f 54 c3             	andps  xmm0,xmm3
    ab2c:	8d 78 04             	lea    edi,[rax+0x4]
    ab2f:	0f 2e c8             	ucomiss xmm1,xmm0
    ab32:	0f 42 d7             	cmovb  edx,edi
    ab35:	72 03                	jb     ab3a <s318+0xe8>
    ab37:	0f 28 c1             	movaps xmm0,xmm1
    ab3a:	f3 0f 10 4c 35 00    	movss  xmm1,DWORD PTR [rbp+rsi*1+0x0]
    ab40:	48 01 ee             	add    rsi,rbp
    ab43:	0f 54 cb             	andps  xmm1,xmm3
    ab46:	8d 78 05             	lea    edi,[rax+0x5]
    ab49:	0f 2e c1             	ucomiss xmm0,xmm1
    ab4c:	0f 42 d7             	cmovb  edx,edi
    ab4f:	72 03                	jb     ab54 <s318+0x102>
    ab51:	0f 28 c8             	movaps xmm1,xmm0
    ab54:	f3 0f 10 44 35 00    	movss  xmm0,DWORD PTR [rbp+rsi*1+0x0]
    ab5a:	0f 54 c3             	andps  xmm0,xmm3
    ab5d:	8d 78 06             	lea    edi,[rax+0x6]
    ab60:	0f 2e c8             	ucomiss xmm1,xmm0
    ab63:	0f 42 d7             	cmovb  edx,edi
    ab66:	72 03                	jb     ab6b <s318+0x119>
    ab68:	0f 28 c1             	movaps xmm0,xmm1
    ab6b:	83 c0 07             	add    eax,0x7
    ab6e:	3d 00 7d 00 00       	cmp    eax,0x7d00
    ab73:	74 2f                	je     aba4 <s318+0x152>
    ab75:	48 01 ee             	add    rsi,rbp
    ab78:	f3 42 0f 10 0c ae    	movss  xmm1,DWORD PTR [rsi+r13*4]
    ab7e:	0f 54 cb             	andps  xmm1,xmm3
    ab81:	0f 2e c1             	ucomiss xmm0,xmm1
    ab84:	0f 42 d0             	cmovb  edx,eax
    ab87:	0f 28 e1             	movaps xmm4,xmm1
    ab8a:	f3 0f c2 e0 06       	cmpnless xmm4,xmm0
    ab8f:	0f 54 cc             	andps  xmm1,xmm4
    ab92:	0f 55 e0             	andnps xmm4,xmm0
    ab95:	0f 56 e1             	orps   xmm4,xmm1
    ab98:	48 01 d9             	add    rcx,rbx
    ab9b:	ff c0                	inc    eax
    ab9d:	89 d7                	mov    edi,edx
    ab9f:	e9 10 ff ff ff       	jmp    aab4 <s318+0x62>
    aba4:	0f 57 c9             	xorps  xmm1,xmm1
    aba7:	f3 0f 2a ca          	cvtsi2ss xmm1,edx
    abab:	f3 0f 58 c1          	addss  xmm0,xmm1
    abaf:	0f 29 04 24          	movaps XMMWORD PTR [rsp],xmm0
    abb3:	bf 00 00 00 00       	mov    edi,0x0
    abb8:	be 00 00 00 00       	mov    esi,0x0
    abbd:	ba 00 00 00 00       	mov    edx,0x0
    abc2:	b9 00 00 00 00       	mov    ecx,0x0
    abc7:	41 b8 00 00 00 00    	mov    r8d,0x0
    abcd:	41 b9 00 00 00 00    	mov    r9d,0x0
    abd3:	68 00 00 00 00       	push   0x0
    abd8:	68 00 00 00 00       	push   0x0
    abdd:	e8 00 00 00 00       	call   abe2 <s318+0x190>
    abe2:	0f 28 1d 00 00 00 00 	movaps xmm3,XMMWORD PTR [rip+0x0]        # abe9 <s318+0x197>
    abe9:	48 83 c4 10          	add    rsp,0x10
    abed:	41 ff c7             	inc    r15d
    abf0:	41 81 ff 50 c3 00 00 	cmp    r15d,0xc350
    abf7:	0f 85 a2 fe ff ff    	jne    aa9f <s318+0x4d>
    abfd:	49 83 c6 10          	add    r14,0x10
    ac01:	4c 89 f7             	mov    rdi,r14
    ac04:	31 f6                	xor    esi,esi
    ac06:	e8 00 00 00 00       	call   ac0b <s318+0x1b9>
    ac0b:	0f 28 04 24          	movaps xmm0,XMMWORD PTR [rsp]
    ac0f:	f3 0f 58 05 00 00 00 	addss  xmm0,DWORD PTR [rip+0x0]        # ac17 <s318+0x1c5>
    ac16:	00 
    ac17:	48 83 c4 18          	add    rsp,0x18
    ac1b:	5b                   	pop    rbx
    ac1c:	41 5c                	pop    r12
    ac1e:	41 5d                	pop    r13
    ac20:	41 5e                	pop    r14
    ac22:	41 5f                	pop    r15
    ac24:	5d                   	pop    rbp
    ac25:	c3                   	ret    

000000000000ac26 <s319>:
    ac26:	41 56                	push   r14
    ac28:	53                   	push   rbx
    ac29:	50                   	push   rax
    ac2a:	49 89 fe             	mov    r14,rdi
    ac2d:	bf 00 00 00 00       	mov    edi,0x0
    ac32:	e8 00 00 00 00       	call   ac37 <s319+0x11>
    ac37:	31 db                	xor    ebx,ebx
    ac39:	4c 89 f7             	mov    rdi,r14
    ac3c:	31 f6                	xor    esi,esi
    ac3e:	e8 00 00 00 00       	call   ac43 <s319+0x1d>
    ac43:	0f 57 c0             	xorps  xmm0,xmm0
    ac46:	48 c7 c0 00 0c fe ff 	mov    rax,0xfffffffffffe0c00
    ac4d:	f3 0f 10 90 00 00 00 	movss  xmm2,DWORD PTR [rax+0x0]
    ac54:	00 
    ac55:	f3 0f 10 88 00 00 00 	movss  xmm1,DWORD PTR [rax+0x0]
    ac5c:	00 
    ac5d:	f3 0f 58 ca          	addss  xmm1,xmm2
    ac61:	f3 0f 11 88 00 00 00 	movss  DWORD PTR [rax+0x0],xmm1
    ac68:	00 
    ac69:	f3 0f 58 90 00 00 00 	addss  xmm2,DWORD PTR [rax+0x0]
    ac70:	00 
    ac71:	f3 0f 58 c8          	addss  xmm1,xmm0
    ac75:	f3 0f 11 90 00 00 00 	movss  DWORD PTR [rax+0x0],xmm2
    ac7c:	00 
    ac7d:	0f 28 c2             	movaps xmm0,xmm2
    ac80:	f3 0f 58 c1          	addss  xmm0,xmm1
    ac84:	48 83 c0 04          	add    rax,0x4
    ac88:	75 c3                	jne    ac4d <s319+0x27>
    ac8a:	bf 00 00 00 00       	mov    edi,0x0
    ac8f:	be 00 00 00 00       	mov    esi,0x0
    ac94:	ba 00 00 00 00       	mov    edx,0x0
    ac99:	b9 00 00 00 00       	mov    ecx,0x0
    ac9e:	41 b8 00 00 00 00    	mov    r8d,0x0
    aca4:	41 b9 00 00 00 00    	mov    r9d,0x0
    acaa:	f3 0f 11 44 24 04    	movss  DWORD PTR [rsp+0x4],xmm0
    acb0:	68 00 00 00 00       	push   0x0
    acb5:	68 00 00 00 00       	push   0x0
    acba:	e8 00 00 00 00       	call   acbf <s319+0x99>
    acbf:	48 83 c4 10          	add    rsp,0x10
    acc3:	ff c3                	inc    ebx
    acc5:	81 fb 40 0d 03 00    	cmp    ebx,0x30d40
    accb:	0f 85 72 ff ff ff    	jne    ac43 <s319+0x1d>
    acd1:	49 83 c6 10          	add    r14,0x10
    acd5:	4c 89 f7             	mov    rdi,r14
    acd8:	31 f6                	xor    esi,esi
    acda:	e8 00 00 00 00       	call   acdf <s319+0xb9>
    acdf:	f3 0f 10 44 24 04    	movss  xmm0,DWORD PTR [rsp+0x4]
    ace5:	48 83 c4 08          	add    rsp,0x8
    ace9:	5b                   	pop    rbx
    acea:	41 5e                	pop    r14
    acec:	c3                   	ret    

000000000000aced <s3110>:
    aced:	41 57                	push   r15
    acef:	41 56                	push   r14
    acf1:	53                   	push   rbx
    acf2:	48 83 ec 10          	sub    rsp,0x10
    acf6:	49 89 fe             	mov    r14,rdi
    acf9:	bf 00 00 00 00       	mov    edi,0x0
    acfe:	e8 00 00 00 00       	call   ad03 <s3110+0x16>
    ad03:	45 31 ff             	xor    r15d,r15d
    ad06:	4c 89 f7             	mov    rdi,r14
    ad09:	31 f6                	xor    esi,esi
    ad0b:	e8 00 00 00 00       	call   ad10 <s3110+0x23>
    ad10:	b8 00 00 00 00       	mov    eax,0x0
    ad15:	f3 0f 10 25 00 00 00 	movss  xmm4,DWORD PTR [rip+0x0]        # ad1d <s3110+0x30>
    ad1c:	00 
    ad1d:	31 c9                	xor    ecx,ecx
    ad1f:	31 d2                	xor    edx,edx
    ad21:	31 db                	xor    ebx,ebx
    ad23:	31 f6                	xor    esi,esi
    ad25:	44 0f 28 dc          	movaps xmm11,xmm4
    ad29:	f3 44 0f 10 44 b0 e4 	movss  xmm8,DWORD PTR [rax+rsi*4-0x1c]
    ad30:	45 0f 2e c3          	ucomiss xmm8,xmm11
    ad34:	89 f7                	mov    edi,esi
    ad36:	77 02                	ja     ad3a <s3110+0x4d>
    ad38:	89 df                	mov    edi,ebx
    ad3a:	f3 44 0f 10 4c b0 e8 	movss  xmm9,DWORD PTR [rax+rsi*4-0x18]
    ad41:	45 0f 28 e8          	movaps xmm13,xmm8
    ad45:	f3 45 0f 5f eb       	maxss  xmm13,xmm11
    ad4a:	45 0f 2e cd          	ucomiss xmm9,xmm13
    ad4e:	76 03                	jbe    ad53 <s3110+0x66>
    ad50:	8d 7e 01             	lea    edi,[rsi+0x1]
    ad53:	45 0f 28 f9          	movaps xmm15,xmm9
    ad57:	f3 45 0f 5f fd       	maxss  xmm15,xmm13
    ad5c:	f3 44 0f 10 54 b0 ec 	movss  xmm10,DWORD PTR [rax+rsi*4-0x14]
    ad63:	45 0f 2e d7          	ucomiss xmm10,xmm15
    ad67:	76 03                	jbe    ad6c <s3110+0x7f>
    ad69:	8d 7e 02             	lea    edi,[rsi+0x2]
    ad6c:	41 0f 28 f2          	movaps xmm6,xmm10
    ad70:	f3 41 0f 5f f7       	maxss  xmm6,xmm15
    ad75:	f3 44 0f 10 64 b0 f0 	movss  xmm12,DWORD PTR [rax+rsi*4-0x10]
    ad7c:	44 0f 2e e6          	ucomiss xmm12,xmm6
    ad80:	76 03                	jbe    ad85 <s3110+0x98>
    ad82:	8d 7e 03             	lea    edi,[rsi+0x3]
    ad85:	41 0f 28 fc          	movaps xmm7,xmm12
    ad89:	f3 0f 5f fe          	maxss  xmm7,xmm6
    ad8d:	f3 44 0f 10 74 b0 f4 	movss  xmm14,DWORD PTR [rax+rsi*4-0xc]
    ad94:	44 0f 2e f7          	ucomiss xmm14,xmm7
    ad98:	76 03                	jbe    ad9d <s3110+0xb0>
    ad9a:	8d 7e 04             	lea    edi,[rsi+0x4]
    ad9d:	41 0f 28 d6          	movaps xmm2,xmm14
    ada1:	f3 0f 5f d7          	maxss  xmm2,xmm7
    ada5:	f3 0f 10 5c b0 f8    	movss  xmm3,DWORD PTR [rax+rsi*4-0x8]
    adab:	0f 2e da             	ucomiss xmm3,xmm2
    adae:	76 03                	jbe    adb3 <s3110+0xc6>
    adb0:	8d 7e 05             	lea    edi,[rsi+0x5]
    adb3:	0f 28 c3             	movaps xmm0,xmm3
    adb6:	f3 0f 5f c2          	maxss  xmm0,xmm2
    adba:	f3 0f 10 4c b0 fc    	movss  xmm1,DWORD PTR [rax+rsi*4-0x4]
    adc0:	0f 2e c8             	ucomiss xmm1,xmm0
    adc3:	76 03                	jbe    adc8 <s3110+0xdb>
    adc5:	8d 7e 06             	lea    edi,[rsi+0x6]
    adc8:	0f 28 e9             	movaps xmm5,xmm1
    adcb:	f3 0f 5f e8          	maxss  xmm5,xmm0
    adcf:	f3 0f 10 24 b0       	movss  xmm4,DWORD PTR [rax+rsi*4]
    add4:	0f 2e e5             	ucomiss xmm4,xmm5
    add7:	77 04                	ja     addd <s3110+0xf0>
    add9:	89 fb                	mov    ebx,edi
    addb:	eb 05                	jmp    ade2 <s3110+0xf5>
    addd:	8d 5e 07             	lea    ebx,[rsi+0x7]
    ade0:	89 ca                	mov    edx,ecx
    ade2:	0f 2e c8             	ucomiss xmm1,xmm0
    ade5:	89 cf                	mov    edi,ecx
    ade7:	77 02                	ja     adeb <s3110+0xfe>
    ade9:	89 d7                	mov    edi,edx
    adeb:	0f 2e da             	ucomiss xmm3,xmm2
    adee:	0f 47 f9             	cmova  edi,ecx
    adf1:	44 0f 2e f7          	ucomiss xmm14,xmm7
    adf5:	0f 47 f9             	cmova  edi,ecx
    adf8:	44 0f 2e e6          	ucomiss xmm12,xmm6
    adfc:	0f 47 f9             	cmova  edi,ecx
    adff:	45 0f 2e d7          	ucomiss xmm10,xmm15
    ae03:	0f 47 f9             	cmova  edi,ecx
    ae06:	45 0f 2e cd          	ucomiss xmm9,xmm13
    ae0a:	0f 47 f9             	cmova  edi,ecx
    ae0d:	45 0f 2e c3          	ucomiss xmm8,xmm11
    ae11:	89 fa                	mov    edx,edi
    ae13:	0f 47 d1             	cmova  edx,ecx
    ae16:	f3 0f 5f e5          	maxss  xmm4,xmm5
    ae1a:	48 83 c6 08          	add    rsi,0x8
    ae1e:	44 0f 28 dc          	movaps xmm11,xmm4
    ae22:	48 81 fe 00 01 00 00 	cmp    rsi,0x100
    ae29:	0f 85 fa fe ff ff    	jne    ad29 <s3110+0x3c>
    ae2f:	48 ff c1             	inc    rcx
    ae32:	48 05 00 04 00 00    	add    rax,0x400
    ae38:	48 81 f9 00 01 00 00 	cmp    rcx,0x100
    ae3f:	0f 85 de fe ff ff    	jne    ad23 <s3110+0x36>
    ae45:	0f 57 c0             	xorps  xmm0,xmm0
    ae48:	f3 0f 2a c2          	cvtsi2ss xmm0,edx
    ae4c:	f3 0f 58 e0          	addss  xmm4,xmm0
    ae50:	f3 0f 11 64 24 08    	movss  DWORD PTR [rsp+0x8],xmm4
    ae56:	0f 57 c9             	xorps  xmm1,xmm1
    ae59:	f3 0f 2a cb          	cvtsi2ss xmm1,ebx
    ae5d:	0f 28 c4             	movaps xmm0,xmm4
    ae60:	f3 0f 11 4c 24 0c    	movss  DWORD PTR [rsp+0xc],xmm1
    ae66:	f3 0f 58 c1          	addss  xmm0,xmm1
    ae6a:	bf 00 00 00 00       	mov    edi,0x0
    ae6f:	be 00 00 00 00       	mov    esi,0x0
    ae74:	ba 00 00 00 00       	mov    edx,0x0
    ae79:	b9 00 00 00 00       	mov    ecx,0x0
    ae7e:	41 b8 00 00 00 00    	mov    r8d,0x0
    ae84:	41 b9 00 00 00 00    	mov    r9d,0x0
    ae8a:	68 00 00 00 00       	push   0x0
    ae8f:	68 00 00 00 00       	push   0x0
    ae94:	e8 00 00 00 00       	call   ae99 <s3110+0x1ac>
    ae99:	48 83 c4 10          	add    rsp,0x10
    ae9d:	41 ff c7             	inc    r15d
    aea0:	41 81 ff 58 98 00 00 	cmp    r15d,0x9858
    aea7:	0f 85 63 fe ff ff    	jne    ad10 <s3110+0x23>
    aead:	49 83 c6 10          	add    r14,0x10
    aeb1:	4c 89 f7             	mov    rdi,r14
    aeb4:	31 f6                	xor    esi,esi
    aeb6:	e8 00 00 00 00       	call   aebb <s3110+0x1ce>
    aebb:	f3 0f 10 0d 00 00 00 	movss  xmm1,DWORD PTR [rip+0x0]        # aec3 <s3110+0x1d6>
    aec2:	00 
    aec3:	f3 0f 10 44 24 08    	movss  xmm0,DWORD PTR [rsp+0x8]
    aec9:	f3 0f 58 c1          	addss  xmm0,xmm1
    aecd:	f3 0f 58 44 24 0c    	addss  xmm0,DWORD PTR [rsp+0xc]
    aed3:	f3 0f 58 c1          	addss  xmm0,xmm1
    aed7:	48 83 c4 10          	add    rsp,0x10
    aedb:	5b                   	pop    rbx
    aedc:	41 5e                	pop    r14
    aede:	41 5f                	pop    r15
    aee0:	c3                   	ret    

000000000000aee1 <s13110>:
    aee1:	41 57                	push   r15
    aee3:	41 56                	push   r14
    aee5:	53                   	push   rbx
    aee6:	48 83 ec 10          	sub    rsp,0x10
    aeea:	49 89 fe             	mov    r14,rdi
    aeed:	bf 00 00 00 00       	mov    edi,0x0
    aef2:	e8 00 00 00 00       	call   aef7 <s13110+0x16>
    aef7:	45 31 ff             	xor    r15d,r15d
    aefa:	4c 89 f7             	mov    rdi,r14
    aefd:	31 f6                	xor    esi,esi
    aeff:	e8 00 00 00 00       	call   af04 <s13110+0x23>
    af04:	b8 00 00 00 00       	mov    eax,0x0
    af09:	f3 0f 10 25 00 00 00 	movss  xmm4,DWORD PTR [rip+0x0]        # af11 <s13110+0x30>
    af10:	00 
    af11:	31 c9                	xor    ecx,ecx
    af13:	31 d2                	xor    edx,edx
    af15:	31 db                	xor    ebx,ebx
    af17:	31 f6                	xor    esi,esi
    af19:	44 0f 28 dc          	movaps xmm11,xmm4
    af1d:	f3 44 0f 10 44 b0 e4 	movss  xmm8,DWORD PTR [rax+rsi*4-0x1c]
    af24:	45 0f 2e c3          	ucomiss xmm8,xmm11
    af28:	89 f7                	mov    edi,esi
    af2a:	77 02                	ja     af2e <s13110+0x4d>
    af2c:	89 df                	mov    edi,ebx
    af2e:	f3 44 0f 10 4c b0 e8 	movss  xmm9,DWORD PTR [rax+rsi*4-0x18]
    af35:	45 0f 28 e8          	movaps xmm13,xmm8
    af39:	f3 45 0f 5f eb       	maxss  xmm13,xmm11
    af3e:	45 0f 2e cd          	ucomiss xmm9,xmm13
    af42:	76 03                	jbe    af47 <s13110+0x66>
    af44:	8d 7e 01             	lea    edi,[rsi+0x1]
    af47:	45 0f 28 f9          	movaps xmm15,xmm9
    af4b:	f3 45 0f 5f fd       	maxss  xmm15,xmm13
    af50:	f3 44 0f 10 54 b0 ec 	movss  xmm10,DWORD PTR [rax+rsi*4-0x14]
    af57:	45 0f 2e d7          	ucomiss xmm10,xmm15
    af5b:	76 03                	jbe    af60 <s13110+0x7f>
    af5d:	8d 7e 02             	lea    edi,[rsi+0x2]
    af60:	41 0f 28 f2          	movaps xmm6,xmm10
    af64:	f3 41 0f 5f f7       	maxss  xmm6,xmm15
    af69:	f3 44 0f 10 64 b0 f0 	movss  xmm12,DWORD PTR [rax+rsi*4-0x10]
    af70:	44 0f 2e e6          	ucomiss xmm12,xmm6
    af74:	76 03                	jbe    af79 <s13110+0x98>
    af76:	8d 7e 03             	lea    edi,[rsi+0x3]
    af79:	41 0f 28 fc          	movaps xmm7,xmm12
    af7d:	f3 0f 5f fe          	maxss  xmm7,xmm6
    af81:	f3 44 0f 10 74 b0 f4 	movss  xmm14,DWORD PTR [rax+rsi*4-0xc]
    af88:	44 0f 2e f7          	ucomiss xmm14,xmm7
    af8c:	76 03                	jbe    af91 <s13110+0xb0>
    af8e:	8d 7e 04             	lea    edi,[rsi+0x4]
    af91:	41 0f 28 d6          	movaps xmm2,xmm14
    af95:	f3 0f 5f d7          	maxss  xmm2,xmm7
    af99:	f3 0f 10 5c b0 f8    	movss  xmm3,DWORD PTR [rax+rsi*4-0x8]
    af9f:	0f 2e da             	ucomiss xmm3,xmm2
    afa2:	76 03                	jbe    afa7 <s13110+0xc6>
    afa4:	8d 7e 05             	lea    edi,[rsi+0x5]
    afa7:	0f 28 c3             	movaps xmm0,xmm3
    afaa:	f3 0f 5f c2          	maxss  xmm0,xmm2
    afae:	f3 0f 10 4c b0 fc    	movss  xmm1,DWORD PTR [rax+rsi*4-0x4]
    afb4:	0f 2e c8             	ucomiss xmm1,xmm0
    afb7:	76 03                	jbe    afbc <s13110+0xdb>
    afb9:	8d 7e 06             	lea    edi,[rsi+0x6]
    afbc:	0f 28 e9             	movaps xmm5,xmm1
    afbf:	f3 0f 5f e8          	maxss  xmm5,xmm0
    afc3:	f3 0f 10 24 b0       	movss  xmm4,DWORD PTR [rax+rsi*4]
    afc8:	0f 2e e5             	ucomiss xmm4,xmm5
    afcb:	77 04                	ja     afd1 <s13110+0xf0>
    afcd:	89 fb                	mov    ebx,edi
    afcf:	eb 05                	jmp    afd6 <s13110+0xf5>
    afd1:	8d 5e 07             	lea    ebx,[rsi+0x7]
    afd4:	89 ca                	mov    edx,ecx
    afd6:	0f 2e c8             	ucomiss xmm1,xmm0
    afd9:	89 cf                	mov    edi,ecx
    afdb:	77 02                	ja     afdf <s13110+0xfe>
    afdd:	89 d7                	mov    edi,edx
    afdf:	0f 2e da             	ucomiss xmm3,xmm2
    afe2:	0f 47 f9             	cmova  edi,ecx
    afe5:	44 0f 2e f7          	ucomiss xmm14,xmm7
    afe9:	0f 47 f9             	cmova  edi,ecx
    afec:	44 0f 2e e6          	ucomiss xmm12,xmm6
    aff0:	0f 47 f9             	cmova  edi,ecx
    aff3:	45 0f 2e d7          	ucomiss xmm10,xmm15
    aff7:	0f 47 f9             	cmova  edi,ecx
    affa:	45 0f 2e cd          	ucomiss xmm9,xmm13
    affe:	0f 47 f9             	cmova  edi,ecx
    b001:	45 0f 2e c3          	ucomiss xmm8,xmm11
    b005:	89 fa                	mov    edx,edi
    b007:	0f 47 d1             	cmova  edx,ecx
    b00a:	f3 0f 5f e5          	maxss  xmm4,xmm5
    b00e:	48 83 c6 08          	add    rsi,0x8
    b012:	44 0f 28 dc          	movaps xmm11,xmm4
    b016:	48 81 fe 00 01 00 00 	cmp    rsi,0x100
    b01d:	0f 85 fa fe ff ff    	jne    af1d <s13110+0x3c>
    b023:	48 ff c1             	inc    rcx
    b026:	48 05 00 04 00 00    	add    rax,0x400
    b02c:	48 81 f9 00 01 00 00 	cmp    rcx,0x100
    b033:	0f 85 de fe ff ff    	jne    af17 <s13110+0x36>
    b039:	0f 57 c0             	xorps  xmm0,xmm0
    b03c:	f3 0f 2a c2          	cvtsi2ss xmm0,edx
    b040:	f3 0f 58 e0          	addss  xmm4,xmm0
    b044:	f3 0f 11 64 24 08    	movss  DWORD PTR [rsp+0x8],xmm4
    b04a:	0f 57 c9             	xorps  xmm1,xmm1
    b04d:	f3 0f 2a cb          	cvtsi2ss xmm1,ebx
    b051:	0f 28 c4             	movaps xmm0,xmm4
    b054:	f3 0f 11 4c 24 0c    	movss  DWORD PTR [rsp+0xc],xmm1
    b05a:	f3 0f 58 c1          	addss  xmm0,xmm1
    b05e:	bf 00 00 00 00       	mov    edi,0x0
    b063:	be 00 00 00 00       	mov    esi,0x0
    b068:	ba 00 00 00 00       	mov    edx,0x0
    b06d:	b9 00 00 00 00       	mov    ecx,0x0
    b072:	41 b8 00 00 00 00    	mov    r8d,0x0
    b078:	41 b9 00 00 00 00    	mov    r9d,0x0
    b07e:	68 00 00 00 00       	push   0x0
    b083:	68 00 00 00 00       	push   0x0
    b088:	e8 00 00 00 00       	call   b08d <s13110+0x1ac>
    b08d:	48 83 c4 10          	add    rsp,0x10
    b091:	41 ff c7             	inc    r15d
    b094:	41 81 ff 58 98 00 00 	cmp    r15d,0x9858
    b09b:	0f 85 63 fe ff ff    	jne    af04 <s13110+0x23>
    b0a1:	49 83 c6 10          	add    r14,0x10
    b0a5:	4c 89 f7             	mov    rdi,r14
    b0a8:	31 f6                	xor    esi,esi
    b0aa:	e8 00 00 00 00       	call   b0af <s13110+0x1ce>
    b0af:	f3 0f 10 0d 00 00 00 	movss  xmm1,DWORD PTR [rip+0x0]        # b0b7 <s13110+0x1d6>
    b0b6:	00 
    b0b7:	f3 0f 10 44 24 08    	movss  xmm0,DWORD PTR [rsp+0x8]
    b0bd:	f3 0f 58 c1          	addss  xmm0,xmm1
    b0c1:	f3 0f 58 44 24 0c    	addss  xmm0,DWORD PTR [rsp+0xc]
    b0c7:	f3 0f 58 c1          	addss  xmm0,xmm1
    b0cb:	48 83 c4 10          	add    rsp,0x10
    b0cf:	5b                   	pop    rbx
    b0d0:	41 5e                	pop    r14
    b0d2:	41 5f                	pop    r15
    b0d4:	c3                   	ret    

000000000000b0d5 <s3111>:
    b0d5:	41 56                	push   r14
    b0d7:	53                   	push   rbx
    b0d8:	48 83 ec 18          	sub    rsp,0x18
    b0dc:	49 89 fe             	mov    r14,rdi
    b0df:	bf 00 00 00 00       	mov    edi,0x0
    b0e4:	e8 00 00 00 00       	call   b0e9 <s3111+0x14>
    b0e9:	31 db                	xor    ebx,ebx
    b0eb:	4c 89 f7             	mov    rdi,r14
    b0ee:	31 f6                	xor    esi,esi
    b0f0:	e8 00 00 00 00       	call   b0f5 <s3111+0x20>
    b0f5:	48 c7 c0 00 0c fe ff 	mov    rax,0xfffffffffffe0c00
    b0fc:	0f 57 c0             	xorps  xmm0,xmm0
    b0ff:	f3 0f 10 98 00 00 00 	movss  xmm3,DWORD PTR [rax+0x0]
    b106:	00 
    b107:	0f 28 c8             	movaps xmm1,xmm0
    b10a:	f3 0f 58 cb          	addss  xmm1,xmm3
    b10e:	0f 57 d2             	xorps  xmm2,xmm2
    b111:	f3 0f c2 d3 01       	cmpltss xmm2,xmm3
    b116:	0f 54 ca             	andps  xmm1,xmm2
    b119:	0f 55 d0             	andnps xmm2,xmm0
    b11c:	0f 56 d1             	orps   xmm2,xmm1
    b11f:	f3 0f 10 80 00 00 00 	movss  xmm0,DWORD PTR [rax+0x0]
    b126:	00 
    b127:	0f 57 c9             	xorps  xmm1,xmm1
    b12a:	f3 0f c2 c8 01       	cmpltss xmm1,xmm0
    b12f:	0f 28 d9             	movaps xmm3,xmm1
    b132:	0f 55 da             	andnps xmm3,xmm2
    b135:	f3 0f 58 d0          	addss  xmm2,xmm0
    b139:	0f 54 ca             	andps  xmm1,xmm2
    b13c:	0f 56 cb             	orps   xmm1,xmm3
    b13f:	f3 0f 10 80 00 00 00 	movss  xmm0,DWORD PTR [rax+0x0]
    b146:	00 
    b147:	0f 57 d2             	xorps  xmm2,xmm2
    b14a:	f3 0f c2 d0 01       	cmpltss xmm2,xmm0
    b14f:	0f 28 da             	movaps xmm3,xmm2
    b152:	0f 55 d9             	andnps xmm3,xmm1
    b155:	f3 0f 58 c8          	addss  xmm1,xmm0
    b159:	0f 54 d1             	andps  xmm2,xmm1
    b15c:	0f 56 d3             	orps   xmm2,xmm3
    b15f:	f3 0f 10 80 00 00 00 	movss  xmm0,DWORD PTR [rax+0x0]
    b166:	00 
    b167:	0f 57 c9             	xorps  xmm1,xmm1
    b16a:	f3 0f c2 c8 01       	cmpltss xmm1,xmm0
    b16f:	0f 28 d9             	movaps xmm3,xmm1
    b172:	0f 55 da             	andnps xmm3,xmm2
    b175:	f3 0f 58 d0          	addss  xmm2,xmm0
    b179:	0f 54 ca             	andps  xmm1,xmm2
    b17c:	0f 56 cb             	orps   xmm1,xmm3
    b17f:	f3 0f 10 80 00 00 00 	movss  xmm0,DWORD PTR [rax+0x0]
    b186:	00 
    b187:	0f 57 d2             	xorps  xmm2,xmm2
    b18a:	f3 0f c2 d0 01       	cmpltss xmm2,xmm0
    b18f:	0f 28 da             	movaps xmm3,xmm2
    b192:	0f 55 d9             	andnps xmm3,xmm1
    b195:	f3 0f 58 c8          	addss  xmm1,xmm0
    b199:	0f 54 d1             	andps  xmm2,xmm1
    b19c:	0f 56 d3             	orps   xmm2,xmm3
    b19f:	f3 0f 10 80 00 00 00 	movss  xmm0,DWORD PTR [rax+0x0]
    b1a6:	00 
    b1a7:	0f 57 c9             	xorps  xmm1,xmm1
    b1aa:	f3 0f c2 c8 01       	cmpltss xmm1,xmm0
    b1af:	0f 28 d9             	movaps xmm3,xmm1
    b1b2:	0f 55 da             	andnps xmm3,xmm2
    b1b5:	f3 0f 58 d0          	addss  xmm2,xmm0
    b1b9:	0f 54 ca             	andps  xmm1,xmm2
    b1bc:	0f 56 cb             	orps   xmm1,xmm3
    b1bf:	f3 0f 10 80 00 00 00 	movss  xmm0,DWORD PTR [rax+0x0]
    b1c6:	00 
    b1c7:	0f 57 d2             	xorps  xmm2,xmm2
    b1ca:	f3 0f c2 d0 01       	cmpltss xmm2,xmm0
    b1cf:	0f 28 da             	movaps xmm3,xmm2
    b1d2:	0f 55 d9             	andnps xmm3,xmm1
    b1d5:	f3 0f 58 c8          	addss  xmm1,xmm0
    b1d9:	0f 54 d1             	andps  xmm2,xmm1
    b1dc:	0f 56 d3             	orps   xmm2,xmm3
    b1df:	f3 0f 10 98 00 00 00 	movss  xmm3,DWORD PTR [rax+0x0]
    b1e6:	00 
    b1e7:	0f 57 c0             	xorps  xmm0,xmm0
    b1ea:	f3 0f c2 c3 01       	cmpltss xmm0,xmm3
    b1ef:	0f 28 c8             	movaps xmm1,xmm0
    b1f2:	0f 55 ca             	andnps xmm1,xmm2
    b1f5:	f3 0f 58 d3          	addss  xmm2,xmm3
    b1f9:	0f 54 c2             	andps  xmm0,xmm2
    b1fc:	0f 56 c1             	orps   xmm0,xmm1
    b1ff:	48 83 c0 20          	add    rax,0x20
    b203:	0f 85 f6 fe ff ff    	jne    b0ff <s3111+0x2a>
    b209:	bf 00 00 00 00       	mov    edi,0x0
    b20e:	be 00 00 00 00       	mov    esi,0x0
    b213:	ba 00 00 00 00       	mov    edx,0x0
    b218:	b9 00 00 00 00       	mov    ecx,0x0
    b21d:	41 b8 00 00 00 00    	mov    r8d,0x0
    b223:	41 b9 00 00 00 00    	mov    r9d,0x0
    b229:	0f 29 04 24          	movaps XMMWORD PTR [rsp],xmm0
    b22d:	68 00 00 00 00       	push   0x0
    b232:	68 00 00 00 00       	push   0x0
    b237:	e8 00 00 00 00       	call   b23c <s3111+0x167>
    b23c:	48 83 c4 10          	add    rsp,0x10
    b240:	ff c3                	inc    ebx
    b242:	81 fb 50 c3 00 00    	cmp    ebx,0xc350
    b248:	0f 85 a7 fe ff ff    	jne    b0f5 <s3111+0x20>
    b24e:	49 83 c6 10          	add    r14,0x10
    b252:	4c 89 f7             	mov    rdi,r14
    b255:	31 f6                	xor    esi,esi
    b257:	e8 00 00 00 00       	call   b25c <s3111+0x187>
    b25c:	0f 28 04 24          	movaps xmm0,XMMWORD PTR [rsp]
    b260:	48 83 c4 18          	add    rsp,0x18
    b264:	5b                   	pop    rbx
    b265:	41 5e                	pop    r14
    b267:	c3                   	ret    

000000000000b268 <s3112>:
    b268:	41 56                	push   r14
    b26a:	53                   	push   rbx
    b26b:	50                   	push   rax
    b26c:	49 89 fe             	mov    r14,rdi
    b26f:	bf 00 00 00 00       	mov    edi,0x0
    b274:	e8 00 00 00 00       	call   b279 <s3112+0x11>
    b279:	31 db                	xor    ebx,ebx
    b27b:	4c 89 f7             	mov    rdi,r14
    b27e:	31 f6                	xor    esi,esi
    b280:	e8 00 00 00 00       	call   b285 <s3112+0x1d>
    b285:	0f 57 c0             	xorps  xmm0,xmm0
    b288:	48 c7 c0 00 0c fe ff 	mov    rax,0xfffffffffffe0c00
    b28f:	f3 0f 58 80 00 00 00 	addss  xmm0,DWORD PTR [rax+0x0]
    b296:	00 
    b297:	f3 0f 11 80 00 00 00 	movss  DWORD PTR [rax+0x0],xmm0
    b29e:	00 
    b29f:	f3 0f 58 80 00 00 00 	addss  xmm0,DWORD PTR [rax+0x0]
    b2a6:	00 
    b2a7:	f3 0f 11 80 00 00 00 	movss  DWORD PTR [rax+0x0],xmm0
    b2ae:	00 
    b2af:	f3 0f 58 80 00 00 00 	addss  xmm0,DWORD PTR [rax+0x0]
    b2b6:	00 
    b2b7:	f3 0f 11 80 00 00 00 	movss  DWORD PTR [rax+0x0],xmm0
    b2be:	00 
    b2bf:	f3 0f 58 80 00 00 00 	addss  xmm0,DWORD PTR [rax+0x0]
    b2c6:	00 
    b2c7:	f3 0f 11 80 00 00 00 	movss  DWORD PTR [rax+0x0],xmm0
    b2ce:	00 
    b2cf:	f3 0f 58 80 00 00 00 	addss  xmm0,DWORD PTR [rax+0x0]
    b2d6:	00 
    b2d7:	f3 0f 11 80 00 00 00 	movss  DWORD PTR [rax+0x0],xmm0
    b2de:	00 
    b2df:	f3 0f 58 80 00 00 00 	addss  xmm0,DWORD PTR [rax+0x0]
    b2e6:	00 
    b2e7:	f3 0f 11 80 00 00 00 	movss  DWORD PTR [rax+0x0],xmm0
    b2ee:	00 
    b2ef:	f3 0f 58 80 00 00 00 	addss  xmm0,DWORD PTR [rax+0x0]
    b2f6:	00 
    b2f7:	f3 0f 11 80 00 00 00 	movss  DWORD PTR [rax+0x0],xmm0
    b2fe:	00 
    b2ff:	f3 0f 58 80 00 00 00 	addss  xmm0,DWORD PTR [rax+0x0]
    b306:	00 
    b307:	f3 0f 11 80 00 00 00 	movss  DWORD PTR [rax+0x0],xmm0
    b30e:	00 
    b30f:	48 83 c0 20          	add    rax,0x20
    b313:	0f 85 76 ff ff ff    	jne    b28f <s3112+0x27>
    b319:	bf 00 00 00 00       	mov    edi,0x0
    b31e:	be 00 00 00 00       	mov    esi,0x0
    b323:	ba 00 00 00 00       	mov    edx,0x0
    b328:	b9 00 00 00 00       	mov    ecx,0x0
    b32d:	41 b8 00 00 00 00    	mov    r8d,0x0
    b333:	41 b9 00 00 00 00    	mov    r9d,0x0
    b339:	f3 0f 11 44 24 04    	movss  DWORD PTR [rsp+0x4],xmm0
    b33f:	68 00 00 00 00       	push   0x0
    b344:	68 00 00 00 00       	push   0x0
    b349:	e8 00 00 00 00       	call   b34e <s3112+0xe6>
    b34e:	48 83 c4 10          	add    rsp,0x10
    b352:	ff c3                	inc    ebx
    b354:	81 fb a0 86 01 00    	cmp    ebx,0x186a0
    b35a:	0f 85 25 ff ff ff    	jne    b285 <s3112+0x1d>
    b360:	49 83 c6 10          	add    r14,0x10
    b364:	4c 89 f7             	mov    rdi,r14
    b367:	31 f6                	xor    esi,esi
    b369:	e8 00 00 00 00       	call   b36e <s3112+0x106>
    b36e:	f3 0f 10 44 24 04    	movss  xmm0,DWORD PTR [rsp+0x4]
    b374:	48 83 c4 08          	add    rsp,0x8
    b378:	5b                   	pop    rbx
    b379:	41 5e                	pop    r14
    b37b:	c3                   	ret    

000000000000b37c <s3113>:
    b37c:	41 56                	push   r14
    b37e:	53                   	push   rbx
    b37f:	48 83 ec 18          	sub    rsp,0x18
    b383:	49 89 fe             	mov    r14,rdi
    b386:	bf 00 00 00 00       	mov    edi,0x0
    b38b:	e8 00 00 00 00       	call   b390 <s3113+0x14>
    b390:	31 db                	xor    ebx,ebx
    b392:	4c 89 f7             	mov    rdi,r14
    b395:	31 f6                	xor    esi,esi
    b397:	e8 00 00 00 00       	call   b39c <s3113+0x20>
    b39c:	0f 28 15 00 00 00 00 	movaps xmm2,XMMWORD PTR [rip+0x0]        # b3a3 <s3113+0x27>
    b3a3:	f3 0f 10 1d 00 00 00 	movss  xmm3,DWORD PTR [rip+0x0]        # b3ab <s3113+0x2f>
    b3aa:	00 
    b3ab:	0f 28 c3             	movaps xmm0,xmm3
    b3ae:	0f 54 c2             	andps  xmm0,xmm2
    b3b1:	48 c7 c0 20 0c fe ff 	mov    rax,0xfffffffffffe0c20
    b3b8:	0f 54 da             	andps  xmm3,xmm2
    b3bb:	f3 0f 5f d8          	maxss  xmm3,xmm0
    b3bf:	f3 0f 10 88 00 00 00 	movss  xmm1,DWORD PTR [rax+0x0]
    b3c6:	00 
    b3c7:	0f 54 ca             	andps  xmm1,xmm2
    b3ca:	f3 0f 5f cb          	maxss  xmm1,xmm3
    b3ce:	f3 0f 10 80 00 00 00 	movss  xmm0,DWORD PTR [rax+0x0]
    b3d5:	00 
    b3d6:	0f 54 c2             	andps  xmm0,xmm2
    b3d9:	f3 0f 5f c1          	maxss  xmm0,xmm1
    b3dd:	f3 0f 10 88 00 00 00 	movss  xmm1,DWORD PTR [rax+0x0]
    b3e4:	00 
    b3e5:	0f 54 ca             	andps  xmm1,xmm2
    b3e8:	f3 0f 5f c8          	maxss  xmm1,xmm0
    b3ec:	f3 0f 10 80 00 00 00 	movss  xmm0,DWORD PTR [rax+0x0]
    b3f3:	00 
    b3f4:	0f 54 c2             	andps  xmm0,xmm2
    b3f7:	f3 0f 5f c1          	maxss  xmm0,xmm1
    b3fb:	f3 0f 10 88 00 00 00 	movss  xmm1,DWORD PTR [rax+0x0]
    b402:	00 
    b403:	0f 54 ca             	andps  xmm1,xmm2
    b406:	f3 0f 5f c8          	maxss  xmm1,xmm0
    b40a:	f3 0f 10 98 00 00 00 	movss  xmm3,DWORD PTR [rax+0x0]
    b411:	00 
    b412:	0f 54 da             	andps  xmm3,xmm2
    b415:	f3 0f 5f d9          	maxss  xmm3,xmm1
    b419:	f3 0f 10 80 00 00 00 	movss  xmm0,DWORD PTR [rax+0x0]
    b420:	00 
    b421:	0f 54 c2             	andps  xmm0,xmm2
    b424:	f3 0f 5f c3          	maxss  xmm0,xmm3
    b428:	48 85 c0             	test   rax,rax
    b42b:	74 11                	je     b43e <s3113+0xc2>
    b42d:	f3 0f 10 98 00 00 00 	movss  xmm3,DWORD PTR [rax+0x0]
    b434:	00 
    b435:	48 83 c0 20          	add    rax,0x20
    b439:	e9 7a ff ff ff       	jmp    b3b8 <s3113+0x3c>
    b43e:	bf 00 00 00 00       	mov    edi,0x0
    b443:	be 00 00 00 00       	mov    esi,0x0
    b448:	ba 00 00 00 00       	mov    edx,0x0
    b44d:	b9 00 00 00 00       	mov    ecx,0x0
    b452:	41 b8 00 00 00 00    	mov    r8d,0x0
    b458:	41 b9 00 00 00 00    	mov    r9d,0x0
    b45e:	68 00 00 00 00       	push   0x0
    b463:	68 00 00 00 00       	push   0x0
    b468:	0f 29 44 24 10       	movaps XMMWORD PTR [rsp+0x10],xmm0
    b46d:	e8 00 00 00 00       	call   b472 <s3113+0xf6>
    b472:	0f 28 15 00 00 00 00 	movaps xmm2,XMMWORD PTR [rip+0x0]        # b479 <s3113+0xfd>
    b479:	48 83 c4 10          	add    rsp,0x10
    b47d:	ff c3                	inc    ebx
    b47f:	81 fb 80 1a 06 00    	cmp    ebx,0x61a80
    b485:	0f 85 18 ff ff ff    	jne    b3a3 <s3113+0x27>
    b48b:	49 83 c6 10          	add    r14,0x10
    b48f:	4c 89 f7             	mov    rdi,r14
    b492:	31 f6                	xor    esi,esi
    b494:	e8 00 00 00 00       	call   b499 <s3113+0x11d>
    b499:	0f 28 04 24          	movaps xmm0,XMMWORD PTR [rsp]
    b49d:	48 83 c4 18          	add    rsp,0x18
    b4a1:	5b                   	pop    rbx
    b4a2:	41 5e                	pop    r14
    b4a4:	c3                   	ret    

000000000000b4a5 <s321>:
    b4a5:	41 56                	push   r14
    b4a7:	53                   	push   rbx
    b4a8:	50                   	push   rax
    b4a9:	49 89 fe             	mov    r14,rdi
    b4ac:	bf 00 00 00 00       	mov    edi,0x0
    b4b1:	e8 00 00 00 00       	call   b4b6 <s321+0x11>
    b4b6:	31 db                	xor    ebx,ebx
    b4b8:	4c 89 f7             	mov    rdi,r14
    b4bb:	31 f6                	xor    esi,esi
    b4bd:	e8 00 00 00 00       	call   b4c2 <s321+0x1d>
    b4c2:	48 c7 c0 20 0c fe ff 	mov    rax,0xfffffffffffe0c20
    b4c9:	f3 0f 10 05 00 00 00 	movss  xmm0,DWORD PTR [rip+0x0]        # b4d1 <s321+0x2c>
    b4d0:	00 
    b4d1:	f3 0f 59 80 00 00 00 	mulss  xmm0,DWORD PTR [rax+0x0]
    b4d8:	00 
    b4d9:	f3 0f 58 80 00 00 00 	addss  xmm0,DWORD PTR [rax+0x0]
    b4e0:	00 
    b4e1:	f3 0f 11 80 00 00 00 	movss  DWORD PTR [rax+0x0],xmm0
    b4e8:	00 
    b4e9:	f3 0f 59 80 00 00 00 	mulss  xmm0,DWORD PTR [rax+0x0]
    b4f0:	00 
    b4f1:	f3 0f 58 80 00 00 00 	addss  xmm0,DWORD PTR [rax+0x0]
    b4f8:	00 
    b4f9:	f3 0f 11 80 00 00 00 	movss  DWORD PTR [rax+0x0],xmm0
    b500:	00 
    b501:	f3 0f 59 80 00 00 00 	mulss  xmm0,DWORD PTR [rax+0x0]
    b508:	00 
    b509:	f3 0f 58 80 00 00 00 	addss  xmm0,DWORD PTR [rax+0x0]
    b510:	00 
    b511:	f3 0f 11 80 00 00 00 	movss  DWORD PTR [rax+0x0],xmm0
    b518:	00 
    b519:	f3 0f 59 80 00 00 00 	mulss  xmm0,DWORD PTR [rax+0x0]
    b520:	00 
    b521:	f3 0f 58 80 00 00 00 	addss  xmm0,DWORD PTR [rax+0x0]
    b528:	00 
    b529:	f3 0f 11 80 00 00 00 	movss  DWORD PTR [rax+0x0],xmm0
    b530:	00 
    b531:	f3 0f 59 80 00 00 00 	mulss  xmm0,DWORD PTR [rax+0x0]
    b538:	00 
    b539:	f3 0f 58 80 00 00 00 	addss  xmm0,DWORD PTR [rax+0x0]
    b540:	00 
    b541:	f3 0f 11 80 00 00 00 	movss  DWORD PTR [rax+0x0],xmm0
    b548:	00 
    b549:	f3 0f 59 80 00 00 00 	mulss  xmm0,DWORD PTR [rax+0x0]
    b550:	00 
    b551:	f3 0f 58 80 00 00 00 	addss  xmm0,DWORD PTR [rax+0x0]
    b558:	00 
    b559:	f3 0f 11 80 00 00 00 	movss  DWORD PTR [rax+0x0],xmm0
    b560:	00 
    b561:	f3 0f 59 80 00 00 00 	mulss  xmm0,DWORD PTR [rax+0x0]
    b568:	00 
    b569:	f3 0f 58 80 00 00 00 	addss  xmm0,DWORD PTR [rax+0x0]
    b570:	00 
    b571:	f3 0f 11 80 00 00 00 	movss  DWORD PTR [rax+0x0],xmm0
    b578:	00 
    b579:	48 85 c0             	test   rax,rax
    b57c:	74 21                	je     b59f <s321+0xfa>
    b57e:	f3 0f 59 80 00 00 00 	mulss  xmm0,DWORD PTR [rax+0x0]
    b585:	00 
    b586:	f3 0f 58 80 00 00 00 	addss  xmm0,DWORD PTR [rax+0x0]
    b58d:	00 
    b58e:	f3 0f 11 80 00 00 00 	movss  DWORD PTR [rax+0x0],xmm0
    b595:	00 
    b596:	48 83 c0 20          	add    rax,0x20
    b59a:	e9 32 ff ff ff       	jmp    b4d1 <s321+0x2c>
    b59f:	bf 00 00 00 00       	mov    edi,0x0
    b5a4:	be 00 00 00 00       	mov    esi,0x0
    b5a9:	ba 00 00 00 00       	mov    edx,0x0
    b5ae:	b9 00 00 00 00       	mov    ecx,0x0
    b5b3:	41 b8 00 00 00 00    	mov    r8d,0x0
    b5b9:	41 b9 00 00 00 00    	mov    r9d,0x0
    b5bf:	0f 57 c0             	xorps  xmm0,xmm0
    b5c2:	68 00 00 00 00       	push   0x0
    b5c7:	68 00 00 00 00       	push   0x0
    b5cc:	e8 00 00 00 00       	call   b5d1 <s321+0x12c>
    b5d1:	48 83 c4 10          	add    rsp,0x10
    b5d5:	ff c3                	inc    ebx
    b5d7:	81 fb a0 86 01 00    	cmp    ebx,0x186a0
    b5dd:	0f 85 df fe ff ff    	jne    b4c2 <s321+0x1d>
    b5e3:	49 83 c6 10          	add    r14,0x10
    b5e7:	4c 89 f7             	mov    rdi,r14
    b5ea:	31 f6                	xor    esi,esi
    b5ec:	e8 00 00 00 00       	call   b5f1 <s321+0x14c>
    b5f1:	bf 00 00 00 00       	mov    edi,0x0
    b5f6:	48 83 c4 08          	add    rsp,0x8
    b5fa:	5b                   	pop    rbx
    b5fb:	41 5e                	pop    r14
    b5fd:	e9 00 00 00 00       	jmp    b602 <s322>

000000000000b602 <s322>:
    b602:	41 56                	push   r14
    b604:	53                   	push   rbx
    b605:	50                   	push   rax
    b606:	49 89 fe             	mov    r14,rdi
    b609:	bf 00 00 00 00       	mov    edi,0x0
    b60e:	e8 00 00 00 00       	call   b613 <s322+0x11>
    b613:	31 db                	xor    ebx,ebx
    b615:	4c 89 f7             	mov    rdi,r14
    b618:	31 f6                	xor    esi,esi
    b61a:	e8 00 00 00 00       	call   b61f <s322+0x1d>
    b61f:	f3 0f 10 05 00 00 00 	movss  xmm0,DWORD PTR [rip+0x0]        # b627 <s322+0x25>
    b626:	00 
    b627:	48 c7 c0 20 0c fe ff 	mov    rax,0xfffffffffffe0c20
    b62e:	f3 0f 10 0d 00 00 00 	movss  xmm1,DWORD PTR [rip+0x0]        # b636 <s322+0x34>
    b635:	00 
    b636:	f3 0f 10 90 00 00 00 	movss  xmm2,DWORD PTR [rax+0x0]
    b63d:	00 
    b63e:	f3 0f 59 d0          	mulss  xmm2,xmm0
    b642:	f3 0f 58 90 00 00 00 	addss  xmm2,DWORD PTR [rax+0x0]
    b649:	00 
    b64a:	f3 0f 59 88 00 00 00 	mulss  xmm1,DWORD PTR [rax+0x0]
    b651:	00 
    b652:	f3 0f 58 ca          	addss  xmm1,xmm2
    b656:	f3 0f 11 88 00 00 00 	movss  DWORD PTR [rax+0x0],xmm1
    b65d:	00 
    b65e:	f3 0f 10 90 00 00 00 	movss  xmm2,DWORD PTR [rax+0x0]
    b665:	00 
    b666:	f3 0f 59 d1          	mulss  xmm2,xmm1
    b66a:	f3 0f 58 90 00 00 00 	addss  xmm2,DWORD PTR [rax+0x0]
    b671:	00 
    b672:	f3 0f 59 80 00 00 00 	mulss  xmm0,DWORD PTR [rax+0x0]
    b679:	00 
    b67a:	f3 0f 58 c2          	addss  xmm0,xmm2
    b67e:	f3 0f 11 80 00 00 00 	movss  DWORD PTR [rax+0x0],xmm0
    b685:	00 
    b686:	f3 0f 10 90 00 00 00 	movss  xmm2,DWORD PTR [rax+0x0]
    b68d:	00 
    b68e:	f3 0f 59 d0          	mulss  xmm2,xmm0
    b692:	f3 0f 58 90 00 00 00 	addss  xmm2,DWORD PTR [rax+0x0]
    b699:	00 
    b69a:	f3 0f 59 88 00 00 00 	mulss  xmm1,DWORD PTR [rax+0x0]
    b6a1:	00 
    b6a2:	f3 0f 58 ca          	addss  xmm1,xmm2
    b6a6:	f3 0f 11 88 00 00 00 	movss  DWORD PTR [rax+0x0],xmm1
    b6ad:	00 
    b6ae:	f3 0f 10 90 00 00 00 	movss  xmm2,DWORD PTR [rax+0x0]
    b6b5:	00 
    b6b6:	f3 0f 59 d1          	mulss  xmm2,xmm1
    b6ba:	f3 0f 58 90 00 00 00 	addss  xmm2,DWORD PTR [rax+0x0]
    b6c1:	00 
    b6c2:	f3 0f 59 80 00 00 00 	mulss  xmm0,DWORD PTR [rax+0x0]
    b6c9:	00 
    b6ca:	f3 0f 58 c2          	addss  xmm0,xmm2
    b6ce:	f3 0f 11 80 00 00 00 	movss  DWORD PTR [rax+0x0],xmm0
    b6d5:	00 
    b6d6:	f3 0f 10 90 00 00 00 	movss  xmm2,DWORD PTR [rax+0x0]
    b6dd:	00 
    b6de:	f3 0f 59 d0          	mulss  xmm2,xmm0
    b6e2:	f3 0f 58 90 00 00 00 	addss  xmm2,DWORD PTR [rax+0x0]
    b6e9:	00 
    b6ea:	f3 0f 59 88 00 00 00 	mulss  xmm1,DWORD PTR [rax+0x0]
    b6f1:	00 
    b6f2:	f3 0f 58 ca          	addss  xmm1,xmm2
    b6f6:	f3 0f 11 88 00 00 00 	movss  DWORD PTR [rax+0x0],xmm1
    b6fd:	00 
    b6fe:	f3 0f 10 90 00 00 00 	movss  xmm2,DWORD PTR [rax+0x0]
    b705:	00 
    b706:	f3 0f 59 d1          	mulss  xmm2,xmm1
    b70a:	f3 0f 58 90 00 00 00 	addss  xmm2,DWORD PTR [rax+0x0]
    b711:	00 
    b712:	f3 0f 59 80 00 00 00 	mulss  xmm0,DWORD PTR [rax+0x0]
    b719:	00 
    b71a:	f3 0f 58 c2          	addss  xmm0,xmm2
    b71e:	f3 0f 11 80 00 00 00 	movss  DWORD PTR [rax+0x0],xmm0
    b725:	00 
    b726:	48 85 c0             	test   rax,rax
    b729:	74 59                	je     b784 <s322+0x182>
    b72b:	f3 0f 10 90 00 00 00 	movss  xmm2,DWORD PTR [rax+0x0]
    b732:	00 
    b733:	f3 0f 59 d0          	mulss  xmm2,xmm0
    b737:	f3 0f 58 90 00 00 00 	addss  xmm2,DWORD PTR [rax+0x0]
    b73e:	00 
    b73f:	f3 0f 59 88 00 00 00 	mulss  xmm1,DWORD PTR [rax+0x0]
    b746:	00 
    b747:	f3 0f 58 ca          	addss  xmm1,xmm2
    b74b:	f3 0f 11 88 00 00 00 	movss  DWORD PTR [rax+0x0],xmm1
    b752:	00 
    b753:	f3 0f 10 90 00 00 00 	movss  xmm2,DWORD PTR [rax+0x0]
    b75a:	00 
    b75b:	f3 0f 59 d1          	mulss  xmm2,xmm1
    b75f:	f3 0f 58 90 00 00 00 	addss  xmm2,DWORD PTR [rax+0x0]
    b766:	00 
    b767:	f3 0f 59 80 00 00 00 	mulss  xmm0,DWORD PTR [rax+0x0]
    b76e:	00 
    b76f:	f3 0f 58 c2          	addss  xmm0,xmm2
    b773:	f3 0f 11 80 00 00 00 	movss  DWORD PTR [rax+0x0],xmm0
    b77a:	00 
    b77b:	48 83 c0 20          	add    rax,0x20
    b77f:	e9 b2 fe ff ff       	jmp    b636 <s322+0x34>
    b784:	bf 00 00 00 00       	mov    edi,0x0
    b789:	be 00 00 00 00       	mov    esi,0x0
    b78e:	ba 00 00 00 00       	mov    edx,0x0
    b793:	b9 00 00 00 00       	mov    ecx,0x0
    b798:	41 b8 00 00 00 00    	mov    r8d,0x0
    b79e:	41 b9 00 00 00 00    	mov    r9d,0x0
    b7a4:	0f 57 c0             	xorps  xmm0,xmm0
    b7a7:	68 00 00 00 00       	push   0x0
    b7ac:	68 00 00 00 00       	push   0x0
    b7b1:	e8 00 00 00 00       	call   b7b6 <s322+0x1b4>
    b7b6:	48 83 c4 10          	add    rsp,0x10
    b7ba:	ff c3                	inc    ebx
    b7bc:	81 fb 50 c3 00 00    	cmp    ebx,0xc350
    b7c2:	0f 85 57 fe ff ff    	jne    b61f <s322+0x1d>
    b7c8:	49 83 c6 10          	add    r14,0x10
    b7cc:	4c 89 f7             	mov    rdi,r14
    b7cf:	31 f6                	xor    esi,esi
    b7d1:	e8 00 00 00 00       	call   b7d6 <s322+0x1d4>
    b7d6:	bf 00 00 00 00       	mov    edi,0x0
    b7db:	48 83 c4 08          	add    rsp,0x8
    b7df:	5b                   	pop    rbx
    b7e0:	41 5e                	pop    r14
    b7e2:	e9 00 00 00 00       	jmp    b7e7 <s323>

000000000000b7e7 <s323>:
    b7e7:	41 56                	push   r14
    b7e9:	53                   	push   rbx
    b7ea:	50                   	push   rax
    b7eb:	49 89 fe             	mov    r14,rdi
    b7ee:	bf 00 00 00 00       	mov    edi,0x0
    b7f3:	e8 00 00 00 00       	call   b7f8 <s323+0x11>
    b7f8:	31 db                	xor    ebx,ebx
    b7fa:	4c 89 f7             	mov    rdi,r14
    b7fd:	31 f6                	xor    esi,esi
    b7ff:	e8 00 00 00 00       	call   b804 <s323+0x1d>
    b804:	f3 0f 10 05 00 00 00 	movss  xmm0,DWORD PTR [rip+0x0]        # b80c <s323+0x25>
    b80b:	00 
    b80c:	31 c0                	xor    eax,eax
    b80e:	f3 0f 10 88 00 00 00 	movss  xmm1,DWORD PTR [rax+0x0]
    b815:	00 
    b816:	f3 0f 10 90 00 00 00 	movss  xmm2,DWORD PTR [rax+0x0]
    b81d:	00 
    b81e:	f3 0f 59 d1          	mulss  xmm2,xmm1
    b822:	f3 0f 58 d0          	addss  xmm2,xmm0
    b826:	f3 0f 11 90 00 00 00 	movss  DWORD PTR [rax+0x0],xmm2
    b82d:	00 
    b82e:	f3 0f 59 88 00 00 00 	mulss  xmm1,DWORD PTR [rax+0x0]
    b835:	00 
    b836:	f3 0f 58 ca          	addss  xmm1,xmm2
    b83a:	f3 0f 11 88 00 00 00 	movss  DWORD PTR [rax+0x0],xmm1
    b841:	00 
    b842:	f3 0f 10 80 00 00 00 	movss  xmm0,DWORD PTR [rax+0x0]
    b849:	00 
    b84a:	f3 0f 10 90 00 00 00 	movss  xmm2,DWORD PTR [rax+0x0]
    b851:	00 
    b852:	f3 0f 59 d0          	mulss  xmm2,xmm0
    b856:	f3 0f 58 d1          	addss  xmm2,xmm1
    b85a:	f3 0f 11 90 00 00 00 	movss  DWORD PTR [rax+0x0],xmm2
    b861:	00 
    b862:	f3 0f 59 80 00 00 00 	mulss  xmm0,DWORD PTR [rax+0x0]
    b869:	00 
    b86a:	f3 0f 58 c2          	addss  xmm0,xmm2
    b86e:	f3 0f 11 80 00 00 00 	movss  DWORD PTR [rax+0x0],xmm0
    b875:	00 
    b876:	f3 0f 10 88 00 00 00 	movss  xmm1,DWORD PTR [rax+0x0]
    b87d:	00 
    b87e:	f3 0f 10 90 00 00 00 	movss  xmm2,DWORD PTR [rax+0x0]
    b885:	00 
    b886:	f3 0f 59 d1          	mulss  xmm2,xmm1
    b88a:	f3 0f 58 d0          	addss  xmm2,xmm0
    b88e:	f3 0f 59 88 00 00 00 	mulss  xmm1,DWORD PTR [rax+0x0]
    b895:	00 
    b896:	f3 0f 11 90 00 00 00 	movss  DWORD PTR [rax+0x0],xmm2
    b89d:	00 
    b89e:	f3 0f 58 ca          	addss  xmm1,xmm2
    b8a2:	f3 0f 11 88 00 00 00 	movss  DWORD PTR [rax+0x0],xmm1
    b8a9:	00 
    b8aa:	f3 0f 10 80 00 00 00 	movss  xmm0,DWORD PTR [rax+0x0]
    b8b1:	00 
    b8b2:	f3 0f 10 90 00 00 00 	movss  xmm2,DWORD PTR [rax+0x0]
    b8b9:	00 
    b8ba:	f3 0f 59 d0          	mulss  xmm2,xmm0
    b8be:	f3 0f 58 d1          	addss  xmm2,xmm1
    b8c2:	f3 0f 11 90 00 00 00 	movss  DWORD PTR [rax+0x0],xmm2
    b8c9:	00 
    b8ca:	f3 0f 59 80 00 00 00 	mulss  xmm0,DWORD PTR [rax+0x0]
    b8d1:	00 
    b8d2:	f3 0f 58 c2          	addss  xmm0,xmm2
    b8d6:	f3 0f 11 80 00 00 00 	movss  DWORD PTR [rax+0x0],xmm0
    b8dd:	00 
    b8de:	f3 0f 10 88 00 00 00 	movss  xmm1,DWORD PTR [rax+0x0]
    b8e5:	00 
    b8e6:	f3 0f 10 90 00 00 00 	movss  xmm2,DWORD PTR [rax+0x0]
    b8ed:	00 
    b8ee:	f3 0f 59 d1          	mulss  xmm2,xmm1
    b8f2:	f3 0f 58 d0          	addss  xmm2,xmm0
    b8f6:	f3 0f 11 90 00 00 00 	movss  DWORD PTR [rax+0x0],xmm2
    b8fd:	00 
    b8fe:	f3 0f 59 88 00 00 00 	mulss  xmm1,DWORD PTR [rax+0x0]
    b905:	00 
    b906:	f3 0f 58 ca          	addss  xmm1,xmm2
    b90a:	f3 0f 11 88 00 00 00 	movss  DWORD PTR [rax+0x0],xmm1
    b911:	00 
    b912:	f3 0f 10 80 00 00 00 	movss  xmm0,DWORD PTR [rax+0x0]
    b919:	00 
    b91a:	f3 0f 10 90 00 00 00 	movss  xmm2,DWORD PTR [rax+0x0]
    b921:	00 
    b922:	f3 0f 59 d0          	mulss  xmm2,xmm0
    b926:	f3 0f 58 d1          	addss  xmm2,xmm1
    b92a:	f3 0f 11 90 00 00 00 	movss  DWORD PTR [rax+0x0],xmm2
    b931:	00 
    b932:	f3 0f 59 80 00 00 00 	mulss  xmm0,DWORD PTR [rax+0x0]
    b939:	00 
    b93a:	f3 0f 58 c2          	addss  xmm0,xmm2
    b93e:	f3 0f 11 80 00 00 00 	movss  DWORD PTR [rax+0x0],xmm0
    b945:	00 
    b946:	f3 0f 10 88 00 00 00 	movss  xmm1,DWORD PTR [rax+0x0]
    b94d:	00 
    b94e:	f3 0f 10 90 00 00 00 	movss  xmm2,DWORD PTR [rax+0x0]
    b955:	00 
    b956:	f3 0f 59 d1          	mulss  xmm2,xmm1
    b95a:	f3 0f 58 d0          	addss  xmm2,xmm0
    b95e:	f3 0f 59 88 00 00 00 	mulss  xmm1,DWORD PTR [rax+0x0]
    b965:	00 
    b966:	f3 0f 11 90 00 00 00 	movss  DWORD PTR [rax+0x0],xmm2
    b96d:	00 
    b96e:	f3 0f 58 ca          	addss  xmm1,xmm2
    b972:	f3 0f 11 88 00 00 00 	movss  DWORD PTR [rax+0x0],xmm1
    b979:	00 
    b97a:	48 3d e0 f3 01 00    	cmp    rax,0x1f3e0
    b980:	74 3d                	je     b9bf <s323+0x1d8>
    b982:	f3 0f 10 80 00 00 00 	movss  xmm0,DWORD PTR [rax+0x0]
    b989:	00 
    b98a:	f3 0f 10 90 00 00 00 	movss  xmm2,DWORD PTR [rax+0x0]
    b991:	00 
    b992:	f3 0f 59 d0          	mulss  xmm2,xmm0
    b996:	f3 0f 58 ca          	addss  xmm1,xmm2
    b99a:	f3 0f 59 80 00 00 00 	mulss  xmm0,DWORD PTR [rax+0x0]
    b9a1:	00 
    b9a2:	f3 0f 11 88 00 00 00 	movss  DWORD PTR [rax+0x0],xmm1
    b9a9:	00 
    b9aa:	f3 0f 58 c1          	addss  xmm0,xmm1
    b9ae:	f3 0f 11 80 00 00 00 	movss  DWORD PTR [rax+0x0],xmm0
    b9b5:	00 
    b9b6:	48 83 c0 20          	add    rax,0x20
    b9ba:	e9 4f fe ff ff       	jmp    b80e <s323+0x27>
    b9bf:	bf 00 00 00 00       	mov    edi,0x0
    b9c4:	be 00 00 00 00       	mov    esi,0x0
    b9c9:	ba 00 00 00 00       	mov    edx,0x0
    b9ce:	b9 00 00 00 00       	mov    ecx,0x0
    b9d3:	41 b8 00 00 00 00    	mov    r8d,0x0
    b9d9:	41 b9 00 00 00 00    	mov    r9d,0x0
    b9df:	0f 57 c0             	xorps  xmm0,xmm0
    b9e2:	68 00 00 00 00       	push   0x0
    b9e7:	68 00 00 00 00       	push   0x0
    b9ec:	e8 00 00 00 00       	call   b9f1 <s323+0x20a>
    b9f1:	48 83 c4 10          	add    rsp,0x10
    b9f5:	ff c3                	inc    ebx
    b9f7:	81 fb 50 c3 00 00    	cmp    ebx,0xc350
    b9fd:	0f 85 01 fe ff ff    	jne    b804 <s323+0x1d>
    ba03:	49 83 c6 10          	add    r14,0x10
    ba07:	4c 89 f7             	mov    rdi,r14
    ba0a:	31 f6                	xor    esi,esi
    ba0c:	e8 00 00 00 00       	call   ba11 <s323+0x22a>
    ba11:	bf 00 00 00 00       	mov    edi,0x0
    ba16:	48 83 c4 08          	add    rsp,0x8
    ba1a:	5b                   	pop    rbx
    ba1b:	41 5e                	pop    r14
    ba1d:	e9 00 00 00 00       	jmp    ba22 <s331>

000000000000ba22 <s331>:
    ba22:	55                   	push   rbp
    ba23:	41 56                	push   r14
    ba25:	53                   	push   rbx
    ba26:	49 89 fe             	mov    r14,rdi
    ba29:	bf 00 00 00 00       	mov    edi,0x0
    ba2e:	e8 00 00 00 00       	call   ba33 <s331+0x11>
    ba33:	31 db                	xor    ebx,ebx
    ba35:	4c 89 f7             	mov    rdi,r14
    ba38:	31 f6                	xor    esi,esi
    ba3a:	e8 00 00 00 00       	call   ba3f <s331+0x1d>
    ba3f:	0f 57 c0             	xorps  xmm0,xmm0
    ba42:	bd ff ff ff ff       	mov    ebp,0xffffffff
    ba47:	31 c0                	xor    eax,eax
    ba49:	0f 2e 04 85 00 00 00 	ucomiss xmm0,DWORD PTR [rax*4+0x0]
    ba50:	00 
    ba51:	0f 47 e8             	cmova  ebp,eax
    ba54:	0f 2e 04 85 00 00 00 	ucomiss xmm0,DWORD PTR [rax*4+0x0]
    ba5b:	00 
    ba5c:	8d 48 01             	lea    ecx,[rax+0x1]
    ba5f:	0f 46 cd             	cmovbe ecx,ebp
    ba62:	0f 2e 04 85 00 00 00 	ucomiss xmm0,DWORD PTR [rax*4+0x0]
    ba69:	00 
    ba6a:	8d 50 02             	lea    edx,[rax+0x2]
    ba6d:	0f 46 d1             	cmovbe edx,ecx
    ba70:	0f 2e 04 85 00 00 00 	ucomiss xmm0,DWORD PTR [rax*4+0x0]
    ba77:	00 
    ba78:	8d 48 03             	lea    ecx,[rax+0x3]
    ba7b:	0f 46 ca             	cmovbe ecx,edx
    ba7e:	0f 2e 04 85 00 00 00 	ucomiss xmm0,DWORD PTR [rax*4+0x0]
    ba85:	00 
    ba86:	8d 50 04             	lea    edx,[rax+0x4]
    ba89:	0f 46 d1             	cmovbe edx,ecx
    ba8c:	0f 2e 04 85 00 00 00 	ucomiss xmm0,DWORD PTR [rax*4+0x0]
    ba93:	00 
    ba94:	8d 48 05             	lea    ecx,[rax+0x5]
    ba97:	0f 46 ca             	cmovbe ecx,edx
    ba9a:	0f 2e 04 85 00 00 00 	ucomiss xmm0,DWORD PTR [rax*4+0x0]
    baa1:	00 
    baa2:	8d 50 06             	lea    edx,[rax+0x6]
    baa5:	0f 46 d1             	cmovbe edx,ecx
    baa8:	0f 2e 04 85 00 00 00 	ucomiss xmm0,DWORD PTR [rax*4+0x0]
    baaf:	00 
    bab0:	8d 68 07             	lea    ebp,[rax+0x7]
    bab3:	0f 46 ea             	cmovbe ebp,edx
    bab6:	48 83 c0 08          	add    rax,0x8
    baba:	48 3d 00 7d 00 00    	cmp    rax,0x7d00
    bac0:	75 87                	jne    ba49 <s331+0x27>
    bac2:	0f 57 c0             	xorps  xmm0,xmm0
    bac5:	f3 0f 2a c5          	cvtsi2ss xmm0,ebp
    bac9:	bf 00 00 00 00       	mov    edi,0x0
    bace:	be 00 00 00 00       	mov    esi,0x0
    bad3:	ba 00 00 00 00       	mov    edx,0x0
    bad8:	b9 00 00 00 00       	mov    ecx,0x0
    badd:	41 b8 00 00 00 00    	mov    r8d,0x0
    bae3:	41 b9 00 00 00 00    	mov    r9d,0x0
    bae9:	68 00 00 00 00       	push   0x0
    baee:	68 00 00 00 00       	push   0x0
    baf3:	e8 00 00 00 00       	call   baf8 <s331+0xd6>
    baf8:	0f 57 c0             	xorps  xmm0,xmm0
    bafb:	48 83 c4 10          	add    rsp,0x10
    baff:	ff c3                	inc    ebx
    bb01:	81 fb a0 86 01 00    	cmp    ebx,0x186a0
    bb07:	0f 85 35 ff ff ff    	jne    ba42 <s331+0x20>
    bb0d:	49 83 c6 10          	add    r14,0x10
    bb11:	4c 89 f7             	mov    rdi,r14
    bb14:	31 f6                	xor    esi,esi
    bb16:	e8 00 00 00 00       	call   bb1b <s331+0xf9>
    bb1b:	ff c5                	inc    ebp
    bb1d:	0f 57 c0             	xorps  xmm0,xmm0
    bb20:	f3 0f 2a c5          	cvtsi2ss xmm0,ebp
    bb24:	5b                   	pop    rbx
    bb25:	41 5e                	pop    r14
    bb27:	5d                   	pop    rbp
    bb28:	c3                   	ret    

000000000000bb29 <s332>:
    bb29:	41 56                	push   r14
    bb2b:	53                   	push   rbx
    bb2c:	50                   	push   rax
    bb2d:	49 89 fe             	mov    r14,rdi
    bb30:	48 8b 47 20          	mov    rax,QWORD PTR [rdi+0x20]
    bb34:	f3 0f 2a 00          	cvtsi2ss xmm0,DWORD PTR [rax]
    bb38:	f3 0f 11 44 24 04    	movss  DWORD PTR [rsp+0x4],xmm0
    bb3e:	bf 00 00 00 00       	mov    edi,0x0
    bb43:	e8 00 00 00 00       	call   bb48 <s332+0x1f>
    bb48:	31 db                	xor    ebx,ebx
    bb4a:	4c 89 f7             	mov    rdi,r14
    bb4d:	31 f6                	xor    esi,esi
    bb4f:	e8 00 00 00 00       	call   bb54 <s332+0x2b>
    bb54:	48 c7 c0 00 83 ff ff 	mov    rax,0xffffffffffff8300
    bb5b:	f3 0f 10 44 24 04    	movss  xmm0,DWORD PTR [rsp+0x4]
    bb61:	f3 0f 10 0c 85 00 00 	movss  xmm1,DWORD PTR [rax*4+0x0]
    bb68:	00 00 
    bb6a:	0f 2e c8             	ucomiss xmm1,xmm0
    bb6d:	77 77                	ja     bbe6 <s332+0xbd>
    bb6f:	f3 0f 10 0c 85 00 00 	movss  xmm1,DWORD PTR [rax*4+0x0]
    bb76:	00 00 
    bb78:	0f 2e c8             	ucomiss xmm1,xmm0
    bb7b:	77 70                	ja     bbed <s332+0xc4>
    bb7d:	f3 0f 10 0c 85 00 00 	movss  xmm1,DWORD PTR [rax*4+0x0]
    bb84:	00 00 
    bb86:	0f 2e c8             	ucomiss xmm1,xmm0
    bb89:	77 69                	ja     bbf4 <s332+0xcb>
    bb8b:	f3 0f 10 0c 85 00 00 	movss  xmm1,DWORD PTR [rax*4+0x0]
    bb92:	00 00 
    bb94:	0f 2e c8             	ucomiss xmm1,xmm0
    bb97:	77 62                	ja     bbfb <s332+0xd2>
    bb99:	f3 0f 10 0c 85 00 00 	movss  xmm1,DWORD PTR [rax*4+0x0]
    bba0:	00 00 
    bba2:	0f 2e c8             	ucomiss xmm1,xmm0
    bba5:	77 5b                	ja     bc02 <s332+0xd9>
    bba7:	f3 0f 10 0c 85 00 00 	movss  xmm1,DWORD PTR [rax*4+0x0]
    bbae:	00 00 
    bbb0:	0f 2e c8             	ucomiss xmm1,xmm0
    bbb3:	77 54                	ja     bc09 <s332+0xe0>
    bbb5:	f3 0f 10 0c 85 00 00 	movss  xmm1,DWORD PTR [rax*4+0x0]
    bbbc:	00 00 
    bbbe:	0f 2e c8             	ucomiss xmm1,xmm0
    bbc1:	77 4d                	ja     bc10 <s332+0xe7>
    bbc3:	f3 0f 10 0c 85 00 00 	movss  xmm1,DWORD PTR [rax*4+0x0]
    bbca:	00 00 
    bbcc:	0f 2e c8             	ucomiss xmm1,xmm0
    bbcf:	77 46                	ja     bc17 <s332+0xee>
    bbd1:	48 83 c0 08          	add    rax,0x8
    bbd5:	75 8a                	jne    bb61 <s332+0x38>
    bbd7:	b8 fe ff ff ff       	mov    eax,0xfffffffe
    bbdc:	f3 0f 10 0d 00 00 00 	movss  xmm1,DWORD PTR [rip+0x0]        # bbe4 <s332+0xbb>
    bbe3:	00 
    bbe4:	eb 36                	jmp    bc1c <s332+0xf3>
    bbe6:	05 00 7d 00 00       	add    eax,0x7d00
    bbeb:	eb 2f                	jmp    bc1c <s332+0xf3>
    bbed:	05 01 7d 00 00       	add    eax,0x7d01
    bbf2:	eb 28                	jmp    bc1c <s332+0xf3>
    bbf4:	05 02 7d 00 00       	add    eax,0x7d02
    bbf9:	eb 21                	jmp    bc1c <s332+0xf3>
    bbfb:	05 03 7d 00 00       	add    eax,0x7d03
    bc00:	eb 1a                	jmp    bc1c <s332+0xf3>
    bc02:	05 04 7d 00 00       	add    eax,0x7d04
    bc07:	eb 13                	jmp    bc1c <s332+0xf3>
    bc09:	05 05 7d 00 00       	add    eax,0x7d05
    bc0e:	eb 0c                	jmp    bc1c <s332+0xf3>
    bc10:	05 06 7d 00 00       	add    eax,0x7d06
    bc15:	eb 05                	jmp    bc1c <s332+0xf3>
    bc17:	05 07 7d 00 00       	add    eax,0x7d07
    bc1c:	f3 0f 11 0c 24       	movss  DWORD PTR [rsp],xmm1
    bc21:	0f 57 c0             	xorps  xmm0,xmm0
    bc24:	f3 0f 2a c0          	cvtsi2ss xmm0,eax
    bc28:	f3 0f 58 c1          	addss  xmm0,xmm1
    bc2c:	bf 00 00 00 00       	mov    edi,0x0
    bc31:	be 00 00 00 00       	mov    esi,0x0
    bc36:	ba 00 00 00 00       	mov    edx,0x0
    bc3b:	b9 00 00 00 00       	mov    ecx,0x0
    bc40:	41 b8 00 00 00 00    	mov    r8d,0x0
    bc46:	41 b9 00 00 00 00    	mov    r9d,0x0
    bc4c:	68 00 00 00 00       	push   0x0
    bc51:	68 00 00 00 00       	push   0x0
    bc56:	e8 00 00 00 00       	call   bc5b <s332+0x132>
    bc5b:	48 83 c4 10          	add    rsp,0x10
    bc5f:	ff c3                	inc    ebx
    bc61:	81 fb a0 86 01 00    	cmp    ebx,0x186a0
    bc67:	0f 85 e7 fe ff ff    	jne    bb54 <s332+0x2b>
    bc6d:	49 83 c6 10          	add    r14,0x10
    bc71:	4c 89 f7             	mov    rdi,r14
    bc74:	31 f6                	xor    esi,esi
    bc76:	e8 00 00 00 00       	call   bc7b <s332+0x152>
    bc7b:	f3 0f 10 04 24       	movss  xmm0,DWORD PTR [rsp]
    bc80:	48 83 c4 08          	add    rsp,0x8
    bc84:	5b                   	pop    rbx
    bc85:	41 5e                	pop    r14
    bc87:	c3                   	ret    

000000000000bc88 <s341>:
    bc88:	41 56                	push   r14
    bc8a:	53                   	push   rbx
    bc8b:	50                   	push   rax
    bc8c:	49 89 fe             	mov    r14,rdi
    bc8f:	bf 00 00 00 00       	mov    edi,0x0
    bc94:	e8 00 00 00 00       	call   bc99 <s341+0x11>
    bc99:	31 db                	xor    ebx,ebx
    bc9b:	4c 89 f7             	mov    rdi,r14
    bc9e:	31 f6                	xor    esi,esi
    bca0:	e8 00 00 00 00       	call   bca5 <s341+0x1d>
    bca5:	0f 57 c9             	xorps  xmm1,xmm1
    bca8:	b8 ff ff ff ff       	mov    eax,0xffffffff
    bcad:	48 c7 c1 00 0c fe ff 	mov    rcx,0xfffffffffffe0c00
    bcb4:	f3 0f 10 81 00 00 00 	movss  xmm0,DWORD PTR [rcx+0x0]
    bcbb:	00 
    bcbc:	0f 2e c1             	ucomiss xmm0,xmm1
    bcbf:	76 0e                	jbe    bccf <s341+0x47>
    bcc1:	48 63 d0             	movsxd rdx,eax
    bcc4:	ff c0                	inc    eax
    bcc6:	f3 0f 11 04 95 00 00 	movss  DWORD PTR [rdx*4+0x0],xmm0
    bccd:	00 00 
    bccf:	f3 0f 10 81 00 00 00 	movss  xmm0,DWORD PTR [rcx+0x0]
    bcd6:	00 
    bcd7:	0f 2e c1             	ucomiss xmm0,xmm1
    bcda:	76 0e                	jbe    bcea <s341+0x62>
    bcdc:	48 63 d0             	movsxd rdx,eax
    bcdf:	ff c0                	inc    eax
    bce1:	f3 0f 11 04 95 00 00 	movss  DWORD PTR [rdx*4+0x0],xmm0
    bce8:	00 00 
    bcea:	f3 0f 10 81 00 00 00 	movss  xmm0,DWORD PTR [rcx+0x0]
    bcf1:	00 
    bcf2:	0f 2e c1             	ucomiss xmm0,xmm1
    bcf5:	76 0e                	jbe    bd05 <s341+0x7d>
    bcf7:	48 63 d0             	movsxd rdx,eax
    bcfa:	ff c0                	inc    eax
    bcfc:	f3 0f 11 04 95 00 00 	movss  DWORD PTR [rdx*4+0x0],xmm0
    bd03:	00 00 
    bd05:	f3 0f 10 81 00 00 00 	movss  xmm0,DWORD PTR [rcx+0x0]
    bd0c:	00 
    bd0d:	0f 2e c1             	ucomiss xmm0,xmm1
    bd10:	76 0e                	jbe    bd20 <s341+0x98>
    bd12:	48 63 d0             	movsxd rdx,eax
    bd15:	ff c0                	inc    eax
    bd17:	f3 0f 11 04 95 00 00 	movss  DWORD PTR [rdx*4+0x0],xmm0
    bd1e:	00 00 
    bd20:	f3 0f 10 81 00 00 00 	movss  xmm0,DWORD PTR [rcx+0x0]
    bd27:	00 
    bd28:	0f 2e c1             	ucomiss xmm0,xmm1
    bd2b:	76 0e                	jbe    bd3b <s341+0xb3>
    bd2d:	48 63 d0             	movsxd rdx,eax
    bd30:	ff c0                	inc    eax
    bd32:	f3 0f 11 04 95 00 00 	movss  DWORD PTR [rdx*4+0x0],xmm0
    bd39:	00 00 
    bd3b:	f3 0f 10 81 00 00 00 	movss  xmm0,DWORD PTR [rcx+0x0]
    bd42:	00 
    bd43:	0f 2e c1             	ucomiss xmm0,xmm1
    bd46:	76 0e                	jbe    bd56 <s341+0xce>
    bd48:	48 63 d0             	movsxd rdx,eax
    bd4b:	ff c0                	inc    eax
    bd4d:	f3 0f 11 04 95 00 00 	movss  DWORD PTR [rdx*4+0x0],xmm0
    bd54:	00 00 
    bd56:	f3 0f 10 81 00 00 00 	movss  xmm0,DWORD PTR [rcx+0x0]
    bd5d:	00 
    bd5e:	0f 2e c1             	ucomiss xmm0,xmm1
    bd61:	76 0e                	jbe    bd71 <s341+0xe9>
    bd63:	48 63 d0             	movsxd rdx,eax
    bd66:	ff c0                	inc    eax
    bd68:	f3 0f 11 04 95 00 00 	movss  DWORD PTR [rdx*4+0x0],xmm0
    bd6f:	00 00 
    bd71:	f3 0f 10 81 00 00 00 	movss  xmm0,DWORD PTR [rcx+0x0]
    bd78:	00 
    bd79:	0f 2e c1             	ucomiss xmm0,xmm1
    bd7c:	76 0e                	jbe    bd8c <s341+0x104>
    bd7e:	48 63 d0             	movsxd rdx,eax
    bd81:	ff c0                	inc    eax
    bd83:	f3 0f 11 04 95 00 00 	movss  DWORD PTR [rdx*4+0x0],xmm0
    bd8a:	00 00 
    bd8c:	48 83 c1 20          	add    rcx,0x20
    bd90:	0f 85 1e ff ff ff    	jne    bcb4 <s341+0x2c>
    bd96:	bf 00 00 00 00       	mov    edi,0x0
    bd9b:	be 00 00 00 00       	mov    esi,0x0
    bda0:	ba 00 00 00 00       	mov    edx,0x0
    bda5:	b9 00 00 00 00       	mov    ecx,0x0
    bdaa:	41 b8 00 00 00 00    	mov    r8d,0x0
    bdb0:	41 b9 00 00 00 00    	mov    r9d,0x0
    bdb6:	0f 57 c0             	xorps  xmm0,xmm0
    bdb9:	68 00 00 00 00       	push   0x0
    bdbe:	68 00 00 00 00       	push   0x0
    bdc3:	e8 00 00 00 00       	call   bdc8 <s341+0x140>
    bdc8:	0f 57 c9             	xorps  xmm1,xmm1
    bdcb:	48 83 c4 10          	add    rsp,0x10
    bdcf:	ff c3                	inc    ebx
    bdd1:	81 fb a0 86 01 00    	cmp    ebx,0x186a0
    bdd7:	0f 85 cb fe ff ff    	jne    bca8 <s341+0x20>
    bddd:	49 83 c6 10          	add    r14,0x10
    bde1:	4c 89 f7             	mov    rdi,r14
    bde4:	31 f6                	xor    esi,esi
    bde6:	e8 00 00 00 00       	call   bdeb <s341+0x163>
    bdeb:	bf 00 00 00 00       	mov    edi,0x0
    bdf0:	48 83 c4 08          	add    rsp,0x8
    bdf4:	5b                   	pop    rbx
    bdf5:	41 5e                	pop    r14
    bdf7:	e9 00 00 00 00       	jmp    bdfc <s342>

000000000000bdfc <s342>:
    bdfc:	41 56                	push   r14
    bdfe:	53                   	push   rbx
    bdff:	50                   	push   rax
    be00:	49 89 fe             	mov    r14,rdi
    be03:	bf 00 00 00 00       	mov    edi,0x0
    be08:	e8 00 00 00 00       	call   be0d <s342+0x11>
    be0d:	31 db                	xor    ebx,ebx
    be0f:	4c 89 f7             	mov    rdi,r14
    be12:	31 f6                	xor    esi,esi
    be14:	e8 00 00 00 00       	call   be19 <s342+0x1d>
    be19:	0f 57 c9             	xorps  xmm1,xmm1
    be1c:	b8 ff ff ff ff       	mov    eax,0xffffffff
    be21:	48 c7 c1 00 0c fe ff 	mov    rcx,0xfffffffffffe0c00
    be28:	f3 0f 10 81 00 00 00 	movss  xmm0,DWORD PTR [rcx+0x0]
    be2f:	00 
    be30:	0f 2e c1             	ucomiss xmm0,xmm1
    be33:	76 16                	jbe    be4b <s342+0x4f>
    be35:	48 63 d0             	movsxd rdx,eax
    be38:	ff c0                	inc    eax
    be3a:	f3 0f 10 04 95 00 00 	movss  xmm0,DWORD PTR [rdx*4+0x0]
    be41:	00 00 
    be43:	f3 0f 11 81 00 00 00 	movss  DWORD PTR [rcx+0x0],xmm0
    be4a:	00 
    be4b:	f3 0f 10 81 00 00 00 	movss  xmm0,DWORD PTR [rcx+0x0]
    be52:	00 
    be53:	0f 2e c1             	ucomiss xmm0,xmm1
    be56:	76 16                	jbe    be6e <s342+0x72>
    be58:	48 63 d0             	movsxd rdx,eax
    be5b:	ff c0                	inc    eax
    be5d:	f3 0f 10 04 95 00 00 	movss  xmm0,DWORD PTR [rdx*4+0x0]
    be64:	00 00 
    be66:	f3 0f 11 81 00 00 00 	movss  DWORD PTR [rcx+0x0],xmm0
    be6d:	00 
    be6e:	f3 0f 10 81 00 00 00 	movss  xmm0,DWORD PTR [rcx+0x0]
    be75:	00 
    be76:	0f 2e c1             	ucomiss xmm0,xmm1
    be79:	76 16                	jbe    be91 <s342+0x95>
    be7b:	48 63 d0             	movsxd rdx,eax
    be7e:	ff c0                	inc    eax
    be80:	f3 0f 10 04 95 00 00 	movss  xmm0,DWORD PTR [rdx*4+0x0]
    be87:	00 00 
    be89:	f3 0f 11 81 00 00 00 	movss  DWORD PTR [rcx+0x0],xmm0
    be90:	00 
    be91:	f3 0f 10 81 00 00 00 	movss  xmm0,DWORD PTR [rcx+0x0]
    be98:	00 
    be99:	0f 2e c1             	ucomiss xmm0,xmm1
    be9c:	76 16                	jbe    beb4 <s342+0xb8>
    be9e:	48 63 d0             	movsxd rdx,eax
    bea1:	ff c0                	inc    eax
    bea3:	f3 0f 10 04 95 00 00 	movss  xmm0,DWORD PTR [rdx*4+0x0]
    beaa:	00 00 
    beac:	f3 0f 11 81 00 00 00 	movss  DWORD PTR [rcx+0x0],xmm0
    beb3:	00 
    beb4:	f3 0f 10 81 00 00 00 	movss  xmm0,DWORD PTR [rcx+0x0]
    bebb:	00 
    bebc:	0f 2e c1             	ucomiss xmm0,xmm1
    bebf:	76 16                	jbe    bed7 <s342+0xdb>
    bec1:	48 63 d0             	movsxd rdx,eax
    bec4:	ff c0                	inc    eax
    bec6:	f3 0f 10 04 95 00 00 	movss  xmm0,DWORD PTR [rdx*4+0x0]
    becd:	00 00 
    becf:	f3 0f 11 81 00 00 00 	movss  DWORD PTR [rcx+0x0],xmm0
    bed6:	00 
    bed7:	f3 0f 10 81 00 00 00 	movss  xmm0,DWORD PTR [rcx+0x0]
    bede:	00 
    bedf:	0f 2e c1             	ucomiss xmm0,xmm1
    bee2:	76 16                	jbe    befa <s342+0xfe>
    bee4:	48 63 d0             	movsxd rdx,eax
    bee7:	ff c0                	inc    eax
    bee9:	f3 0f 10 04 95 00 00 	movss  xmm0,DWORD PTR [rdx*4+0x0]
    bef0:	00 00 
    bef2:	f3 0f 11 81 00 00 00 	movss  DWORD PTR [rcx+0x0],xmm0
    bef9:	00 
    befa:	f3 0f 10 81 00 00 00 	movss  xmm0,DWORD PTR [rcx+0x0]
    bf01:	00 
    bf02:	0f 2e c1             	ucomiss xmm0,xmm1
    bf05:	76 16                	jbe    bf1d <s342+0x121>
    bf07:	48 63 d0             	movsxd rdx,eax
    bf0a:	ff c0                	inc    eax
    bf0c:	f3 0f 10 04 95 00 00 	movss  xmm0,DWORD PTR [rdx*4+0x0]
    bf13:	00 00 
    bf15:	f3 0f 11 81 00 00 00 	movss  DWORD PTR [rcx+0x0],xmm0
    bf1c:	00 
    bf1d:	f3 0f 10 81 00 00 00 	movss  xmm0,DWORD PTR [rcx+0x0]
    bf24:	00 
    bf25:	0f 2e c1             	ucomiss xmm0,xmm1
    bf28:	76 16                	jbe    bf40 <s342+0x144>
    bf2a:	48 63 d0             	movsxd rdx,eax
    bf2d:	ff c0                	inc    eax
    bf2f:	f3 0f 10 04 95 00 00 	movss  xmm0,DWORD PTR [rdx*4+0x0]
    bf36:	00 00 
    bf38:	f3 0f 11 81 00 00 00 	movss  DWORD PTR [rcx+0x0],xmm0
    bf3f:	00 
    bf40:	48 83 c1 20          	add    rcx,0x20
    bf44:	0f 85 de fe ff ff    	jne    be28 <s342+0x2c>
    bf4a:	bf 00 00 00 00       	mov    edi,0x0
    bf4f:	be 00 00 00 00       	mov    esi,0x0
    bf54:	ba 00 00 00 00       	mov    edx,0x0
    bf59:	b9 00 00 00 00       	mov    ecx,0x0
    bf5e:	41 b8 00 00 00 00    	mov    r8d,0x0
    bf64:	41 b9 00 00 00 00    	mov    r9d,0x0
    bf6a:	0f 57 c0             	xorps  xmm0,xmm0
    bf6d:	68 00 00 00 00       	push   0x0
    bf72:	68 00 00 00 00       	push   0x0
    bf77:	e8 00 00 00 00       	call   bf7c <s342+0x180>
    bf7c:	0f 57 c9             	xorps  xmm1,xmm1
    bf7f:	48 83 c4 10          	add    rsp,0x10
    bf83:	ff c3                	inc    ebx
    bf85:	81 fb a0 86 01 00    	cmp    ebx,0x186a0
    bf8b:	0f 85 8b fe ff ff    	jne    be1c <s342+0x20>
    bf91:	49 83 c6 10          	add    r14,0x10
    bf95:	4c 89 f7             	mov    rdi,r14
    bf98:	31 f6                	xor    esi,esi
    bf9a:	e8 00 00 00 00       	call   bf9f <s342+0x1a3>
    bf9f:	bf 00 00 00 00       	mov    edi,0x0
    bfa4:	48 83 c4 08          	add    rsp,0x8
    bfa8:	5b                   	pop    rbx
    bfa9:	41 5e                	pop    r14
    bfab:	e9 00 00 00 00       	jmp    bfb0 <s343>

000000000000bfb0 <s343>:
    bfb0:	41 56                	push   r14
    bfb2:	53                   	push   rbx
    bfb3:	50                   	push   rax
    bfb4:	49 89 fe             	mov    r14,rdi
    bfb7:	bf 00 00 00 00       	mov    edi,0x0
    bfbc:	e8 00 00 00 00       	call   bfc1 <s343+0x11>
    bfc1:	31 db                	xor    ebx,ebx
    bfc3:	4c 89 f7             	mov    rdi,r14
    bfc6:	31 f6                	xor    esi,esi
    bfc8:	e8 00 00 00 00       	call   bfcd <s343+0x1d>
    bfcd:	0f 57 c9             	xorps  xmm1,xmm1
    bfd0:	b8 ff ff ff ff       	mov    eax,0xffffffff
    bfd5:	b9 00 1c 00 00       	mov    ecx,0x1c00
    bfda:	31 d2                	xor    edx,edx
    bfdc:	48 c7 c6 00 00 fc ff 	mov    rsi,0xfffffffffffc0000
    bfe3:	f3 0f 10 84 31 00 00 	movss  xmm0,DWORD PTR [rcx+rsi*1+0x0]
    bfea:	00 00 
    bfec:	0f 2e c1             	ucomiss xmm0,xmm1
    bfef:	76 17                	jbe    c008 <s343+0x58>
    bff1:	f3 0f 10 84 31 00 00 	movss  xmm0,DWORD PTR [rcx+rsi*1+0x0]
    bff8:	00 00 
    bffa:	48 63 f8             	movsxd rdi,eax
    bffd:	ff c0                	inc    eax
    bfff:	f3 0f 11 04 bd 00 00 	movss  DWORD PTR [rdi*4+0x0],xmm0
    c006:	00 00 
    c008:	f3 0f 10 84 31 00 00 	movss  xmm0,DWORD PTR [rcx+rsi*1+0x0]
    c00f:	00 00 
    c011:	0f 2e c1             	ucomiss xmm0,xmm1
    c014:	76 17                	jbe    c02d <s343+0x7d>
    c016:	f3 0f 10 84 31 00 00 	movss  xmm0,DWORD PTR [rcx+rsi*1+0x0]
    c01d:	00 00 
    c01f:	48 63 f8             	movsxd rdi,eax
    c022:	ff c0                	inc    eax
    c024:	f3 0f 11 04 bd 00 00 	movss  DWORD PTR [rdi*4+0x0],xmm0
    c02b:	00 00 
    c02d:	f3 0f 10 84 31 00 00 	movss  xmm0,DWORD PTR [rcx+rsi*1+0x0]
    c034:	00 00 
    c036:	0f 2e c1             	ucomiss xmm0,xmm1
    c039:	76 17                	jbe    c052 <s343+0xa2>
    c03b:	f3 0f 10 84 31 00 00 	movss  xmm0,DWORD PTR [rcx+rsi*1+0x0]
    c042:	00 00 
    c044:	48 63 f8             	movsxd rdi,eax
    c047:	ff c0                	inc    eax
    c049:	f3 0f 11 04 bd 00 00 	movss  DWORD PTR [rdi*4+0x0],xmm0
    c050:	00 00 
    c052:	f3 0f 10 84 31 00 00 	movss  xmm0,DWORD PTR [rcx+rsi*1+0x0]
    c059:	00 00 
    c05b:	0f 2e c1             	ucomiss xmm0,xmm1
    c05e:	76 17                	jbe    c077 <s343+0xc7>
    c060:	f3 0f 10 84 31 00 00 	movss  xmm0,DWORD PTR [rcx+rsi*1+0x0]
    c067:	00 00 
    c069:	48 63 f8             	movsxd rdi,eax
    c06c:	ff c0                	inc    eax
    c06e:	f3 0f 11 04 bd 00 00 	movss  DWORD PTR [rdi*4+0x0],xmm0
    c075:	00 00 
    c077:	f3 0f 10 84 31 00 00 	movss  xmm0,DWORD PTR [rcx+rsi*1+0x0]
    c07e:	00 00 
    c080:	0f 2e c1             	ucomiss xmm0,xmm1
    c083:	76 17                	jbe    c09c <s343+0xec>
    c085:	f3 0f 10 84 31 00 00 	movss  xmm0,DWORD PTR [rcx+rsi*1+0x0]
    c08c:	00 00 
    c08e:	48 63 f8             	movsxd rdi,eax
    c091:	ff c0                	inc    eax
    c093:	f3 0f 11 04 bd 00 00 	movss  DWORD PTR [rdi*4+0x0],xmm0
    c09a:	00 00 
    c09c:	f3 0f 10 84 31 00 00 	movss  xmm0,DWORD PTR [rcx+rsi*1+0x0]
    c0a3:	00 00 
    c0a5:	0f 2e c1             	ucomiss xmm0,xmm1
    c0a8:	76 17                	jbe    c0c1 <s343+0x111>
    c0aa:	f3 0f 10 84 31 00 00 	movss  xmm0,DWORD PTR [rcx+rsi*1+0x0]
    c0b1:	00 00 
    c0b3:	48 63 f8             	movsxd rdi,eax
    c0b6:	ff c0                	inc    eax
    c0b8:	f3 0f 11 04 bd 00 00 	movss  DWORD PTR [rdi*4+0x0],xmm0
    c0bf:	00 00 
    c0c1:	f3 0f 10 84 31 00 00 	movss  xmm0,DWORD PTR [rcx+rsi*1+0x0]
    c0c8:	00 00 
    c0ca:	0f 2e c1             	ucomiss xmm0,xmm1
    c0cd:	76 17                	jbe    c0e6 <s343+0x136>
    c0cf:	f3 0f 10 84 31 00 00 	movss  xmm0,DWORD PTR [rcx+rsi*1+0x0]
    c0d6:	00 00 
    c0d8:	48 63 f8             	movsxd rdi,eax
    c0db:	ff c0                	inc    eax
    c0dd:	f3 0f 11 04 bd 00 00 	movss  DWORD PTR [rdi*4+0x0],xmm0
    c0e4:	00 00 
    c0e6:	f3 0f 10 84 31 00 00 	movss  xmm0,DWORD PTR [rcx+rsi*1+0x0]
    c0ed:	00 00 
    c0ef:	0f 2e c1             	ucomiss xmm0,xmm1
    c0f2:	76 17                	jbe    c10b <s343+0x15b>
    c0f4:	f3 0f 10 84 31 00 00 	movss  xmm0,DWORD PTR [rcx+rsi*1+0x0]
    c0fb:	00 00 
    c0fd:	48 63 f8             	movsxd rdi,eax
    c100:	ff c0                	inc    eax
    c102:	f3 0f 11 04 bd 00 00 	movss  DWORD PTR [rdi*4+0x0],xmm0
    c109:	00 00 
    c10b:	48 81 c6 00 20 00 00 	add    rsi,0x2000
    c112:	0f 85 cb fe ff ff    	jne    bfe3 <s343+0x33>
    c118:	48 ff c2             	inc    rdx
    c11b:	48 83 c1 04          	add    rcx,0x4
    c11f:	48 81 fa 00 01 00 00 	cmp    rdx,0x100
    c126:	0f 85 b0 fe ff ff    	jne    bfdc <s343+0x2c>
    c12c:	bf 00 00 00 00       	mov    edi,0x0
    c131:	be 00 00 00 00       	mov    esi,0x0
    c136:	ba 00 00 00 00       	mov    edx,0x0
    c13b:	b9 00 00 00 00       	mov    ecx,0x0
    c140:	41 b8 00 00 00 00    	mov    r8d,0x0
    c146:	41 b9 00 00 00 00    	mov    r9d,0x0
    c14c:	0f 57 c0             	xorps  xmm0,xmm0
    c14f:	68 00 00 00 00       	push   0x0
    c154:	68 00 00 00 00       	push   0x0
    c159:	e8 00 00 00 00       	call   c15e <s343+0x1ae>
    c15e:	0f 57 c9             	xorps  xmm1,xmm1
    c161:	48 83 c4 10          	add    rsp,0x10
    c165:	ff c3                	inc    ebx
    c167:	81 fb 3c 0f 00 00    	cmp    ebx,0xf3c
    c16d:	0f 85 5d fe ff ff    	jne    bfd0 <s343+0x20>
    c173:	49 83 c6 10          	add    r14,0x10
    c177:	4c 89 f7             	mov    rdi,r14
    c17a:	31 f6                	xor    esi,esi
    c17c:	e8 00 00 00 00       	call   c181 <s343+0x1d1>
    c181:	bf 00 00 00 00       	mov    edi,0x0
    c186:	48 83 c4 08          	add    rsp,0x8
    c18a:	5b                   	pop    rbx
    c18b:	41 5e                	pop    r14
    c18d:	e9 00 00 00 00       	jmp    c192 <s351>

000000000000c192 <s351>:
    c192:	41 56                	push   r14
    c194:	53                   	push   rbx
    c195:	50                   	push   rax
    c196:	49 89 fe             	mov    r14,rdi
    c199:	bf 00 00 00 00       	mov    edi,0x0
    c19e:	e8 00 00 00 00       	call   c1a3 <s351+0x11>
    c1a3:	31 db                	xor    ebx,ebx
    c1a5:	4c 89 f7             	mov    rdi,r14
    c1a8:	31 f6                	xor    esi,esi
    c1aa:	e8 00 00 00 00       	call   c1af <s351+0x1d>
    c1af:	f3 0f 10 0d 00 00 00 	movss  xmm1,DWORD PTR [rip+0x0]        # c1b7 <s351+0x25>
    c1b6:	00 
    c1b7:	f3 0f 11 4c 24 04    	movss  DWORD PTR [rsp+0x4],xmm1
    c1bd:	48 c7 c0 fb ff ff ff 	mov    rax,0xfffffffffffffffb
    c1c4:	f3 0f 10 04 85 00 00 	movss  xmm0,DWORD PTR [rax*4+0x0]
    c1cb:	00 00 
    c1cd:	f3 0f 59 c1          	mulss  xmm0,xmm1
    c1d1:	f3 0f 58 04 85 00 00 	addss  xmm0,DWORD PTR [rax*4+0x0]
    c1d8:	00 00 
    c1da:	f3 0f 11 04 85 00 00 	movss  DWORD PTR [rax*4+0x0],xmm0
    c1e1:	00 00 
    c1e3:	f3 0f 10 04 85 00 00 	movss  xmm0,DWORD PTR [rax*4+0x0]
    c1ea:	00 00 
    c1ec:	f3 0f 59 c1          	mulss  xmm0,xmm1
    c1f0:	f3 0f 58 04 85 00 00 	addss  xmm0,DWORD PTR [rax*4+0x0]
    c1f7:	00 00 
    c1f9:	f3 0f 11 04 85 00 00 	movss  DWORD PTR [rax*4+0x0],xmm0
    c200:	00 00 
    c202:	f3 0f 10 04 85 00 00 	movss  xmm0,DWORD PTR [rax*4+0x0]
    c209:	00 00 
    c20b:	f3 0f 59 c1          	mulss  xmm0,xmm1
    c20f:	f3 0f 58 04 85 00 00 	addss  xmm0,DWORD PTR [rax*4+0x0]
    c216:	00 00 
    c218:	f3 0f 11 04 85 00 00 	movss  DWORD PTR [rax*4+0x0],xmm0
    c21f:	00 00 
    c221:	f3 0f 10 04 85 00 00 	movss  xmm0,DWORD PTR [rax*4+0x0]
    c228:	00 00 
    c22a:	f3 0f 59 c1          	mulss  xmm0,xmm1
    c22e:	f3 0f 58 04 85 00 00 	addss  xmm0,DWORD PTR [rax*4+0x0]
    c235:	00 00 
    c237:	f3 0f 11 04 85 00 00 	movss  DWORD PTR [rax*4+0x0],xmm0
    c23e:	00 00 
    c240:	f3 0f 10 04 85 00 00 	movss  xmm0,DWORD PTR [rax*4+0x0]
    c247:	00 00 
    c249:	f3 0f 59 c1          	mulss  xmm0,xmm1
    c24d:	f3 0f 58 04 85 00 00 	addss  xmm0,DWORD PTR [rax*4+0x0]
    c254:	00 00 
    c256:	f3 0f 11 04 85 00 00 	movss  DWORD PTR [rax*4+0x0],xmm0
    c25d:	00 00 
    c25f:	48 83 c0 05          	add    rax,0x5
    c263:	48 3d fb 7c 00 00    	cmp    rax,0x7cfb
    c269:	0f 82 55 ff ff ff    	jb     c1c4 <s351+0x32>
    c26f:	bf 00 00 00 00       	mov    edi,0x0
    c274:	be 00 00 00 00       	mov    esi,0x0
    c279:	ba 00 00 00 00       	mov    edx,0x0
    c27e:	b9 00 00 00 00       	mov    ecx,0x0
    c283:	41 b8 00 00 00 00    	mov    r8d,0x0
    c289:	41 b9 00 00 00 00    	mov    r9d,0x0
    c28f:	0f 57 c0             	xorps  xmm0,xmm0
    c292:	68 00 00 00 00       	push   0x0
    c297:	68 00 00 00 00       	push   0x0
    c29c:	e8 00 00 00 00       	call   c2a1 <s351+0x10f>
    c2a1:	f3 0f 10 4c 24 14    	movss  xmm1,DWORD PTR [rsp+0x14]
    c2a7:	48 83 c4 10          	add    rsp,0x10
    c2ab:	ff c3                	inc    ebx
    c2ad:	81 fb 00 35 0c 00    	cmp    ebx,0xc3500
    c2b3:	0f 85 04 ff ff ff    	jne    c1bd <s351+0x2b>
    c2b9:	49 83 c6 10          	add    r14,0x10
    c2bd:	4c 89 f7             	mov    rdi,r14
    c2c0:	31 f6                	xor    esi,esi
    c2c2:	e8 00 00 00 00       	call   c2c7 <s351+0x135>
    c2c7:	bf 00 00 00 00       	mov    edi,0x0
    c2cc:	48 83 c4 08          	add    rsp,0x8
    c2d0:	5b                   	pop    rbx
    c2d1:	41 5e                	pop    r14
    c2d3:	e9 00 00 00 00       	jmp    c2d8 <s1351>

000000000000c2d8 <s1351>:
    c2d8:	41 56                	push   r14
    c2da:	53                   	push   rbx
    c2db:	50                   	push   rax
    c2dc:	49 89 fe             	mov    r14,rdi
    c2df:	bf 00 00 00 00       	mov    edi,0x0
    c2e4:	e8 00 00 00 00       	call   c2e9 <s1351+0x11>
    c2e9:	31 db                	xor    ebx,ebx
    c2eb:	4c 89 f7             	mov    rdi,r14
    c2ee:	31 f6                	xor    esi,esi
    c2f0:	e8 00 00 00 00       	call   c2f5 <s1351+0x1d>
    c2f5:	31 c0                	xor    eax,eax
    c2f7:	f3 0f 10 80 00 00 00 	movss  xmm0,DWORD PTR [rax+0x0]
    c2fe:	00 
    c2ff:	f3 0f 58 80 00 00 00 	addss  xmm0,DWORD PTR [rax+0x0]
    c306:	00 
    c307:	f3 0f 10 88 00 00 00 	movss  xmm1,DWORD PTR [rax+0x0]
    c30e:	00 
    c30f:	f3 0f 58 88 00 00 00 	addss  xmm1,DWORD PTR [rax+0x0]
    c316:	00 
    c317:	f3 0f 11 80 00 00 00 	movss  DWORD PTR [rax+0x0],xmm0
    c31e:	00 
    c31f:	f3 0f 10 80 00 00 00 	movss  xmm0,DWORD PTR [rax+0x0]
    c326:	00 
    c327:	f3 0f 58 80 00 00 00 	addss  xmm0,DWORD PTR [rax+0x0]
    c32e:	00 
    c32f:	f3 0f 11 88 00 00 00 	movss  DWORD PTR [rax+0x0],xmm1
    c336:	00 
    c337:	f3 0f 10 88 00 00 00 	movss  xmm1,DWORD PTR [rax+0x0]
    c33e:	00 
    c33f:	f3 0f 58 88 00 00 00 	addss  xmm1,DWORD PTR [rax+0x0]
    c346:	00 
    c347:	f3 0f 11 80 00 00 00 	movss  DWORD PTR [rax+0x0],xmm0
    c34e:	00 
    c34f:	f3 0f 10 80 00 00 00 	movss  xmm0,DWORD PTR [rax+0x0]
    c356:	00 
    c357:	f3 0f 58 80 00 00 00 	addss  xmm0,DWORD PTR [rax+0x0]
    c35e:	00 
    c35f:	f3 0f 11 88 00 00 00 	movss  DWORD PTR [rax+0x0],xmm1
    c366:	00 
    c367:	f3 0f 10 88 00 00 00 	movss  xmm1,DWORD PTR [rax+0x0]
    c36e:	00 
    c36f:	f3 0f 58 88 00 00 00 	addss  xmm1,DWORD PTR [rax+0x0]
    c376:	00 
    c377:	f3 0f 11 80 00 00 00 	movss  DWORD PTR [rax+0x0],xmm0
    c37e:	00 
    c37f:	f3 0f 10 80 00 00 00 	movss  xmm0,DWORD PTR [rax+0x0]
    c386:	00 
    c387:	f3 0f 58 80 00 00 00 	addss  xmm0,DWORD PTR [rax+0x0]
    c38e:	00 
    c38f:	f3 0f 11 88 00 00 00 	movss  DWORD PTR [rax+0x0],xmm1
    c396:	00 
    c397:	f3 0f 10 88 00 00 00 	movss  xmm1,DWORD PTR [rax+0x0]
    c39e:	00 
    c39f:	f3 0f 58 88 00 00 00 	addss  xmm1,DWORD PTR [rax+0x0]
    c3a6:	00 
    c3a7:	f3 0f 11 80 00 00 00 	movss  DWORD PTR [rax+0x0],xmm0
    c3ae:	00 
    c3af:	f3 0f 11 88 00 00 00 	movss  DWORD PTR [rax+0x0],xmm1
    c3b6:	00 
    c3b7:	48 83 c0 20          	add    rax,0x20
    c3bb:	3d 00 f4 01 00       	cmp    eax,0x1f400
    c3c0:	0f 85 31 ff ff ff    	jne    c2f7 <s1351+0x1f>
    c3c6:	bf 00 00 00 00       	mov    edi,0x0
    c3cb:	be 00 00 00 00       	mov    esi,0x0
    c3d0:	ba 00 00 00 00       	mov    edx,0x0
    c3d5:	b9 00 00 00 00       	mov    ecx,0x0
    c3da:	41 b8 00 00 00 00    	mov    r8d,0x0
    c3e0:	41 b9 00 00 00 00    	mov    r9d,0x0
    c3e6:	0f 57 c0             	xorps  xmm0,xmm0
    c3e9:	68 00 00 00 00       	push   0x0
    c3ee:	68 00 00 00 00       	push   0x0
    c3f3:	e8 00 00 00 00       	call   c3f8 <s1351+0x120>
    c3f8:	48 83 c4 10          	add    rsp,0x10
    c3fc:	ff c3                	inc    ebx
    c3fe:	81 fb 00 35 0c 00    	cmp    ebx,0xc3500
    c404:	0f 85 eb fe ff ff    	jne    c2f5 <s1351+0x1d>
    c40a:	49 83 c6 10          	add    r14,0x10
    c40e:	4c 89 f7             	mov    rdi,r14
    c411:	31 f6                	xor    esi,esi
    c413:	e8 00 00 00 00       	call   c418 <s1351+0x140>
    c418:	bf 00 00 00 00       	mov    edi,0x0
    c41d:	48 83 c4 08          	add    rsp,0x8
    c421:	5b                   	pop    rbx
    c422:	41 5e                	pop    r14
    c424:	e9 00 00 00 00       	jmp    c429 <s352>

000000000000c429 <s352>:
    c429:	41 56                	push   r14
    c42b:	53                   	push   rbx
    c42c:	50                   	push   rax
    c42d:	49 89 fe             	mov    r14,rdi
    c430:	bf 00 00 00 00       	mov    edi,0x0
    c435:	e8 00 00 00 00       	call   c43a <s352+0x11>
    c43a:	31 db                	xor    ebx,ebx
    c43c:	4c 89 f7             	mov    rdi,r14
    c43f:	31 f6                	xor    esi,esi
    c441:	e8 00 00 00 00       	call   c446 <s352+0x1d>
    c446:	0f 57 c0             	xorps  xmm0,xmm0
    c449:	48 c7 c0 fb ff ff ff 	mov    rax,0xfffffffffffffffb
    c450:	f3 0f 10 1c 85 00 00 	movss  xmm3,DWORD PTR [rax*4+0x0]
    c457:	00 00 
    c459:	f3 0f 59 1c 85 00 00 	mulss  xmm3,DWORD PTR [rax*4+0x0]
    c460:	00 00 
    c462:	f3 0f 10 0c 85 00 00 	movss  xmm1,DWORD PTR [rax*4+0x0]
    c469:	00 00 
    c46b:	f3 0f 59 0c 85 00 00 	mulss  xmm1,DWORD PTR [rax*4+0x0]
    c472:	00 00 
    c474:	f3 0f 58 d8          	addss  xmm3,xmm0
    c478:	f3 0f 10 14 85 00 00 	movss  xmm2,DWORD PTR [rax*4+0x0]
    c47f:	00 00 
    c481:	f3 0f 59 14 85 00 00 	mulss  xmm2,DWORD PTR [rax*4+0x0]
    c488:	00 00 
    c48a:	f3 0f 58 cb          	addss  xmm1,xmm3
    c48e:	f3 0f 10 1c 85 00 00 	movss  xmm3,DWORD PTR [rax*4+0x0]
    c495:	00 00 
    c497:	f3 0f 59 1c 85 00 00 	mulss  xmm3,DWORD PTR [rax*4+0x0]
    c49e:	00 00 
    c4a0:	f3 0f 58 d1          	addss  xmm2,xmm1
    c4a4:	f3 0f 10 04 85 00 00 	movss  xmm0,DWORD PTR [rax*4+0x0]
    c4ab:	00 00 
    c4ad:	f3 0f 59 04 85 00 00 	mulss  xmm0,DWORD PTR [rax*4+0x0]
    c4b4:	00 00 
    c4b6:	f3 0f 58 da          	addss  xmm3,xmm2
    c4ba:	f3 0f 58 c3          	addss  xmm0,xmm3
    c4be:	48 83 c0 05          	add    rax,0x5
    c4c2:	48 3d fb 7c 00 00    	cmp    rax,0x7cfb
    c4c8:	72 86                	jb     c450 <s352+0x27>
    c4ca:	bf 00 00 00 00       	mov    edi,0x0
    c4cf:	be 00 00 00 00       	mov    esi,0x0
    c4d4:	ba 00 00 00 00       	mov    edx,0x0
    c4d9:	b9 00 00 00 00       	mov    ecx,0x0
    c4de:	41 b8 00 00 00 00    	mov    r8d,0x0
    c4e4:	41 b9 00 00 00 00    	mov    r9d,0x0
    c4ea:	f3 0f 11 44 24 04    	movss  DWORD PTR [rsp+0x4],xmm0
    c4f0:	68 00 00 00 00       	push   0x0
    c4f5:	68 00 00 00 00       	push   0x0
    c4fa:	e8 00 00 00 00       	call   c4ff <s352+0xd6>
    c4ff:	48 83 c4 10          	add    rsp,0x10
    c503:	ff c3                	inc    ebx
    c505:	81 fb 00 35 0c 00    	cmp    ebx,0xc3500
    c50b:	0f 85 35 ff ff ff    	jne    c446 <s352+0x1d>
    c511:	49 83 c6 10          	add    r14,0x10
    c515:	4c 89 f7             	mov    rdi,r14
    c518:	31 f6                	xor    esi,esi
    c51a:	e8 00 00 00 00       	call   c51f <s352+0xf6>
    c51f:	f3 0f 10 44 24 04    	movss  xmm0,DWORD PTR [rsp+0x4]
    c525:	48 83 c4 08          	add    rsp,0x8
    c529:	5b                   	pop    rbx
    c52a:	41 5e                	pop    r14
    c52c:	c3                   	ret    

000000000000c52d <s353>:
    c52d:	41 57                	push   r15
    c52f:	41 56                	push   r14
    c531:	53                   	push   rbx
    c532:	48 83 ec 10          	sub    rsp,0x10
    c536:	49 89 fe             	mov    r14,rdi
    c539:	48 8b 5f 20          	mov    rbx,QWORD PTR [rdi+0x20]
    c53d:	bf 00 00 00 00       	mov    edi,0x0
    c542:	e8 00 00 00 00       	call   c547 <s353+0x1a>
    c547:	45 31 ff             	xor    r15d,r15d
    c54a:	4c 89 f7             	mov    rdi,r14
    c54d:	31 f6                	xor    esi,esi
    c54f:	e8 00 00 00 00       	call   c554 <s353+0x27>
    c554:	f3 0f 10 0d 00 00 00 	movss  xmm1,DWORD PTR [rip+0x0]        # c55c <s353+0x2f>
    c55b:	00 
    c55c:	f3 0f 11 4c 24 0c    	movss  DWORD PTR [rsp+0xc],xmm1
    c562:	48 c7 c0 fb ff ff ff 	mov    rax,0xfffffffffffffffb
    c569:	48 63 4c 83 14       	movsxd rcx,DWORD PTR [rbx+rax*4+0x14]
    c56e:	f3 0f 10 04 8d 00 00 	movss  xmm0,DWORD PTR [rcx*4+0x0]
    c575:	00 00 
    c577:	f3 0f 59 c1          	mulss  xmm0,xmm1
    c57b:	f3 0f 58 04 85 00 00 	addss  xmm0,DWORD PTR [rax*4+0x0]
    c582:	00 00 
    c584:	f3 0f 11 04 85 00 00 	movss  DWORD PTR [rax*4+0x0],xmm0
    c58b:	00 00 
    c58d:	48 63 4c 83 18       	movsxd rcx,DWORD PTR [rbx+rax*4+0x18]
    c592:	f3 0f 10 04 8d 00 00 	movss  xmm0,DWORD PTR [rcx*4+0x0]
    c599:	00 00 
    c59b:	f3 0f 59 c1          	mulss  xmm0,xmm1
    c59f:	f3 0f 58 04 85 00 00 	addss  xmm0,DWORD PTR [rax*4+0x0]
    c5a6:	00 00 
    c5a8:	f3 0f 11 04 85 00 00 	movss  DWORD PTR [rax*4+0x0],xmm0
    c5af:	00 00 
    c5b1:	48 63 4c 83 1c       	movsxd rcx,DWORD PTR [rbx+rax*4+0x1c]
    c5b6:	f3 0f 10 04 8d 00 00 	movss  xmm0,DWORD PTR [rcx*4+0x0]
    c5bd:	00 00 
    c5bf:	f3 0f 59 c1          	mulss  xmm0,xmm1
    c5c3:	f3 0f 58 04 85 00 00 	addss  xmm0,DWORD PTR [rax*4+0x0]
    c5ca:	00 00 
    c5cc:	f3 0f 11 04 85 00 00 	movss  DWORD PTR [rax*4+0x0],xmm0
    c5d3:	00 00 
    c5d5:	48 63 4c 83 20       	movsxd rcx,DWORD PTR [rbx+rax*4+0x20]
    c5da:	f3 0f 10 04 8d 00 00 	movss  xmm0,DWORD PTR [rcx*4+0x0]
    c5e1:	00 00 
    c5e3:	f3 0f 59 c1          	mulss  xmm0,xmm1
    c5e7:	f3 0f 58 04 85 00 00 	addss  xmm0,DWORD PTR [rax*4+0x0]
    c5ee:	00 00 
    c5f0:	f3 0f 11 04 85 00 00 	movss  DWORD PTR [rax*4+0x0],xmm0
    c5f7:	00 00 
    c5f9:	48 63 4c 83 24       	movsxd rcx,DWORD PTR [rbx+rax*4+0x24]
    c5fe:	f3 0f 10 04 8d 00 00 	movss  xmm0,DWORD PTR [rcx*4+0x0]
    c605:	00 00 
    c607:	f3 0f 59 c1          	mulss  xmm0,xmm1
    c60b:	f3 0f 58 04 85 00 00 	addss  xmm0,DWORD PTR [rax*4+0x0]
    c612:	00 00 
    c614:	f3 0f 11 04 85 00 00 	movss  DWORD PTR [rax*4+0x0],xmm0
    c61b:	00 00 
    c61d:	48 83 c0 05          	add    rax,0x5
    c621:	48 3d fb 7c 00 00    	cmp    rax,0x7cfb
    c627:	0f 82 3c ff ff ff    	jb     c569 <s353+0x3c>
    c62d:	bf 00 00 00 00       	mov    edi,0x0
    c632:	be 00 00 00 00       	mov    esi,0x0
    c637:	ba 00 00 00 00       	mov    edx,0x0
    c63c:	b9 00 00 00 00       	mov    ecx,0x0
    c641:	41 b8 00 00 00 00    	mov    r8d,0x0
    c647:	41 b9 00 00 00 00    	mov    r9d,0x0
    c64d:	0f 57 c0             	xorps  xmm0,xmm0
    c650:	68 00 00 00 00       	push   0x0
    c655:	68 00 00 00 00       	push   0x0
    c65a:	e8 00 00 00 00       	call   c65f <s353+0x132>
    c65f:	f3 0f 10 4c 24 1c    	movss  xmm1,DWORD PTR [rsp+0x1c]
    c665:	48 83 c4 10          	add    rsp,0x10
    c669:	41 ff c7             	inc    r15d
    c66c:	41 81 ff a0 86 01 00 	cmp    r15d,0x186a0
    c673:	0f 85 e9 fe ff ff    	jne    c562 <s353+0x35>
    c679:	49 83 c6 10          	add    r14,0x10
    c67d:	4c 89 f7             	mov    rdi,r14
    c680:	31 f6                	xor    esi,esi
    c682:	e8 00 00 00 00       	call   c687 <s353+0x15a>
    c687:	bf 00 00 00 00       	mov    edi,0x0
    c68c:	48 83 c4 10          	add    rsp,0x10
    c690:	5b                   	pop    rbx
    c691:	41 5e                	pop    r14
    c693:	41 5f                	pop    r15
    c695:	e9 00 00 00 00       	jmp    c69a <s421>

000000000000c69a <s421>:
    c69a:	41 56                	push   r14
    c69c:	53                   	push   rbx
    c69d:	50                   	push   rax
    c69e:	49 89 fe             	mov    r14,rdi
    c6a1:	bf 00 00 00 00       	mov    edi,0x0
    c6a6:	e8 00 00 00 00       	call   c6ab <s421+0x11>
    c6ab:	31 db                	xor    ebx,ebx
    c6ad:	4c 89 f7             	mov    rdi,r14
    c6b0:	31 f6                	xor    esi,esi
    c6b2:	e8 00 00 00 00       	call   c6b7 <s421+0x1d>
    c6b7:	48 c7 05 00 00 00 00 	mov    QWORD PTR [rip+0x0],0x0        # c6c2 <s421+0x28>
    c6be:	00 00 00 00 
    c6c2:	b8 00 00 00 00       	mov    eax,0x0
    c6c7:	48 89 05 00 00 00 00 	mov    QWORD PTR [rip+0x0],rax        # c6ce <s421+0x34>
    c6ce:	b9 20 00 00 00       	mov    ecx,0x20
    c6d3:	f3 0f 10 44 08 e4    	movss  xmm0,DWORD PTR [rax+rcx*1-0x1c]
    c6d9:	f3 0f 10 4c 08 e8    	movss  xmm1,DWORD PTR [rax+rcx*1-0x18]
    c6df:	f3 0f 58 81 00 00 00 	addss  xmm0,DWORD PTR [rcx+0x0]
    c6e6:	00 
    c6e7:	f3 0f 11 44 08 e0    	movss  DWORD PTR [rax+rcx*1-0x20],xmm0
    c6ed:	f3 0f 58 89 00 00 00 	addss  xmm1,DWORD PTR [rcx+0x0]
    c6f4:	00 
    c6f5:	f3 0f 11 4c 08 e4    	movss  DWORD PTR [rax+rcx*1-0x1c],xmm1
    c6fb:	f3 0f 10 44 08 ec    	movss  xmm0,DWORD PTR [rax+rcx*1-0x14]
    c701:	f3 0f 58 81 00 00 00 	addss  xmm0,DWORD PTR [rcx+0x0]
    c708:	00 
    c709:	f3 0f 11 44 08 e8    	movss  DWORD PTR [rax+rcx*1-0x18],xmm0
    c70f:	f3 0f 10 44 08 f0    	movss  xmm0,DWORD PTR [rax+rcx*1-0x10]
    c715:	f3 0f 58 81 00 00 00 	addss  xmm0,DWORD PTR [rcx+0x0]
    c71c:	00 
    c71d:	f3 0f 11 44 08 ec    	movss  DWORD PTR [rax+rcx*1-0x14],xmm0
    c723:	f3 0f 10 44 08 f4    	movss  xmm0,DWORD PTR [rax+rcx*1-0xc]
    c729:	f3 0f 58 81 00 00 00 	addss  xmm0,DWORD PTR [rcx+0x0]
    c730:	00 
    c731:	f3 0f 11 44 08 f0    	movss  DWORD PTR [rax+rcx*1-0x10],xmm0
    c737:	f3 0f 10 44 08 f8    	movss  xmm0,DWORD PTR [rax+rcx*1-0x8]
    c73d:	f3 0f 58 81 00 00 00 	addss  xmm0,DWORD PTR [rcx+0x0]
    c744:	00 
    c745:	f3 0f 11 44 08 f4    	movss  DWORD PTR [rax+rcx*1-0xc],xmm0
    c74b:	f3 0f 10 44 08 fc    	movss  xmm0,DWORD PTR [rax+rcx*1-0x4]
    c751:	f3 0f 58 81 00 00 00 	addss  xmm0,DWORD PTR [rcx+0x0]
    c758:	00 
    c759:	f3 0f 11 44 08 f8    	movss  DWORD PTR [rax+rcx*1-0x8],xmm0
    c75f:	48 81 f9 00 f4 01 00 	cmp    rcx,0x1f400
    c766:	74 1c                	je     c784 <s421+0xea>
    c768:	f3 0f 10 04 08       	movss  xmm0,DWORD PTR [rax+rcx*1]
    c76d:	f3 0f 58 81 00 00 00 	addss  xmm0,DWORD PTR [rcx+0x0]
    c774:	00 
    c775:	f3 0f 11 44 08 fc    	movss  DWORD PTR [rax+rcx*1-0x4],xmm0
    c77b:	48 83 c1 20          	add    rcx,0x20
    c77f:	e9 4f ff ff ff       	jmp    c6d3 <s421+0x39>
    c784:	bf 00 00 00 00       	mov    edi,0x0
    c789:	be 00 00 00 00       	mov    esi,0x0
    c78e:	ba 00 00 00 00       	mov    edx,0x0
    c793:	b9 00 00 00 00       	mov    ecx,0x0
    c798:	41 b8 00 00 00 00    	mov    r8d,0x0
    c79e:	41 b9 00 00 00 00    	mov    r9d,0x0
    c7a4:	f3 0f 10 05 00 00 00 	movss  xmm0,DWORD PTR [rip+0x0]        # c7ac <s421+0x112>
    c7ab:	00 
    c7ac:	68 00 00 00 00       	push   0x0
    c7b1:	68 00 00 00 00       	push   0x0
    c7b6:	e8 00 00 00 00       	call   c7bb <s421+0x121>
    c7bb:	48 83 c4 10          	add    rsp,0x10
    c7bf:	ff c3                	inc    ebx
    c7c1:	81 fb 80 1a 06 00    	cmp    ebx,0x61a80
    c7c7:	74 0c                	je     c7d5 <s421+0x13b>
    c7c9:	48 8b 05 00 00 00 00 	mov    rax,QWORD PTR [rip+0x0]        # c7d0 <s421+0x136>
    c7d0:	e9 f2 fe ff ff       	jmp    c6c7 <s421+0x2d>
    c7d5:	49 83 c6 10          	add    r14,0x10
    c7d9:	4c 89 f7             	mov    rdi,r14
    c7dc:	31 f6                	xor    esi,esi
    c7de:	e8 00 00 00 00       	call   c7e3 <s421+0x149>
    c7e3:	bf 00 00 00 00       	mov    edi,0x0
    c7e8:	48 83 c4 08          	add    rsp,0x8
    c7ec:	5b                   	pop    rbx
    c7ed:	41 5e                	pop    r14
    c7ef:	e9 00 00 00 00       	jmp    c7f4 <s1421>

000000000000c7f4 <s1421>:
    c7f4:	41 56                	push   r14
    c7f6:	53                   	push   rbx
    c7f7:	50                   	push   rax
    c7f8:	49 89 fe             	mov    r14,rdi
    c7fb:	bf 00 00 00 00       	mov    edi,0x0
    c800:	e8 00 00 00 00       	call   c805 <s1421+0x11>
    c805:	31 db                	xor    ebx,ebx
    c807:	4c 89 f7             	mov    rdi,r14
    c80a:	31 f6                	xor    esi,esi
    c80c:	e8 00 00 00 00       	call   c811 <s1421+0x1d>
    c811:	48 c7 05 00 00 00 00 	mov    QWORD PTR [rip+0x0],0x0        # c81c <s1421+0x28>
    c818:	00 00 00 00 
    c81c:	b8 00 00 00 00       	mov    eax,0x0
    c821:	31 c9                	xor    ecx,ecx
    c823:	f3 0f 10 04 08       	movss  xmm0,DWORD PTR [rax+rcx*1]
    c828:	f3 0f 58 81 00 00 00 	addss  xmm0,DWORD PTR [rcx+0x0]
    c82f:	00 
    c830:	f3 0f 11 81 00 00 00 	movss  DWORD PTR [rcx+0x0],xmm0
    c837:	00 
    c838:	48 83 c1 04          	add    rcx,0x4
    c83c:	48 81 f9 00 fa 00 00 	cmp    rcx,0xfa00
    c843:	75 de                	jne    c823 <s1421+0x2f>
    c845:	bf 00 00 00 00       	mov    edi,0x0
    c84a:	be 00 00 00 00       	mov    esi,0x0
    c84f:	ba 00 00 00 00       	mov    edx,0x0
    c854:	b9 00 00 00 00       	mov    ecx,0x0
    c859:	41 b8 00 00 00 00    	mov    r8d,0x0
    c85f:	41 b9 00 00 00 00    	mov    r9d,0x0
    c865:	f3 0f 10 05 00 00 00 	movss  xmm0,DWORD PTR [rip+0x0]        # c86d <s1421+0x79>
    c86c:	00 
    c86d:	68 00 00 00 00       	push   0x0
    c872:	68 00 00 00 00       	push   0x0
    c877:	e8 00 00 00 00       	call   c87c <s1421+0x88>
    c87c:	48 83 c4 10          	add    rsp,0x10
    c880:	ff c3                	inc    ebx
    c882:	81 fb 00 35 0c 00    	cmp    ebx,0xc3500
    c888:	74 09                	je     c893 <s1421+0x9f>
    c88a:	48 8b 05 00 00 00 00 	mov    rax,QWORD PTR [rip+0x0]        # c891 <s1421+0x9d>
    c891:	eb 8e                	jmp    c821 <s1421+0x2d>
    c893:	49 83 c6 10          	add    r14,0x10
    c897:	4c 89 f7             	mov    rdi,r14
    c89a:	31 f6                	xor    esi,esi
    c89c:	e8 00 00 00 00       	call   c8a1 <s1421+0xad>
    c8a1:	bf 00 00 00 00       	mov    edi,0x0
    c8a6:	48 83 c4 08          	add    rsp,0x8
    c8aa:	5b                   	pop    rbx
    c8ab:	41 5e                	pop    r14
    c8ad:	e9 00 00 00 00       	jmp    c8b2 <s422>

000000000000c8b2 <s422>:
    c8b2:	41 56                	push   r14
    c8b4:	53                   	push   rbx
    c8b5:	50                   	push   rax
    c8b6:	49 89 fe             	mov    r14,rdi
    c8b9:	bf 00 00 00 00       	mov    edi,0x0
    c8be:	e8 00 00 00 00       	call   c8c3 <s422+0x11>
    c8c3:	31 db                	xor    ebx,ebx
    c8c5:	4c 89 f7             	mov    rdi,r14
    c8c8:	31 f6                	xor    esi,esi
    c8ca:	e8 00 00 00 00       	call   c8cf <s422+0x1d>
    c8cf:	48 c7 05 00 00 00 00 	mov    QWORD PTR [rip+0x0],0x0        # c8da <s422+0x28>
    c8d6:	00 00 00 00 
    c8da:	b8 00 00 00 00       	mov    eax,0x0
    c8df:	31 c9                	xor    ecx,ecx
    c8e1:	f3 0f 10 81 00 00 00 	movss  xmm0,DWORD PTR [rcx+0x0]
    c8e8:	00 
    c8e9:	f3 0f 58 81 00 00 00 	addss  xmm0,DWORD PTR [rcx+0x0]
    c8f0:	00 
    c8f1:	f3 0f 11 04 08       	movss  DWORD PTR [rax+rcx*1],xmm0
    c8f6:	f3 0f 10 81 00 00 00 	movss  xmm0,DWORD PTR [rcx+0x0]
    c8fd:	00 
    c8fe:	f3 0f 58 81 00 00 00 	addss  xmm0,DWORD PTR [rcx+0x0]
    c905:	00 
    c906:	f3 0f 11 44 08 04    	movss  DWORD PTR [rax+rcx*1+0x4],xmm0
    c90c:	f3 0f 10 81 00 00 00 	movss  xmm0,DWORD PTR [rcx+0x0]
    c913:	00 
    c914:	f3 0f 58 81 00 00 00 	addss  xmm0,DWORD PTR [rcx+0x0]
    c91b:	00 
    c91c:	f3 0f 11 44 08 08    	movss  DWORD PTR [rax+rcx*1+0x8],xmm0
    c922:	f3 0f 10 81 00 00 00 	movss  xmm0,DWORD PTR [rcx+0x0]
    c929:	00 
    c92a:	f3 0f 58 81 00 00 00 	addss  xmm0,DWORD PTR [rcx+0x0]
    c931:	00 
    c932:	f3 0f 11 44 08 0c    	movss  DWORD PTR [rax+rcx*1+0xc],xmm0
    c938:	f3 0f 10 81 00 00 00 	movss  xmm0,DWORD PTR [rcx+0x0]
    c93f:	00 
    c940:	f3 0f 58 81 00 00 00 	addss  xmm0,DWORD PTR [rcx+0x0]
    c947:	00 
    c948:	f3 0f 11 44 08 10    	movss  DWORD PTR [rax+rcx*1+0x10],xmm0
    c94e:	f3 0f 10 81 00 00 00 	movss  xmm0,DWORD PTR [rcx+0x0]
    c955:	00 
    c956:	f3 0f 58 81 00 00 00 	addss  xmm0,DWORD PTR [rcx+0x0]
    c95d:	00 
    c95e:	f3 0f 11 44 08 14    	movss  DWORD PTR [rax+rcx*1+0x14],xmm0
    c964:	f3 0f 10 81 00 00 00 	movss  xmm0,DWORD PTR [rcx+0x0]
    c96b:	00 
    c96c:	f3 0f 58 81 00 00 00 	addss  xmm0,DWORD PTR [rcx+0x0]
    c973:	00 
    c974:	f3 0f 11 44 08 18    	movss  DWORD PTR [rax+rcx*1+0x18],xmm0
    c97a:	f3 0f 10 81 00 00 00 	movss  xmm0,DWORD PTR [rcx+0x0]
    c981:	00 
    c982:	f3 0f 58 81 00 00 00 	addss  xmm0,DWORD PTR [rcx+0x0]
    c989:	00 
    c98a:	f3 0f 11 44 08 1c    	movss  DWORD PTR [rax+rcx*1+0x1c],xmm0
    c990:	48 83 c1 20          	add    rcx,0x20
    c994:	48 81 f9 00 f4 01 00 	cmp    rcx,0x1f400
    c99b:	0f 85 40 ff ff ff    	jne    c8e1 <s422+0x2f>
    c9a1:	bf 00 00 00 00       	mov    edi,0x0
    c9a6:	be 00 00 00 00       	mov    esi,0x0
    c9ab:	ba 00 00 00 00       	mov    edx,0x0
    c9b0:	b9 00 00 00 00       	mov    ecx,0x0
    c9b5:	41 b8 00 00 00 00    	mov    r8d,0x0
    c9bb:	41 b9 00 00 00 00    	mov    r9d,0x0
    c9c1:	0f 57 c0             	xorps  xmm0,xmm0
    c9c4:	68 00 00 00 00       	push   0x0
    c9c9:	68 00 00 00 00       	push   0x0
    c9ce:	e8 00 00 00 00       	call   c9d3 <s422+0x121>
    c9d3:	48 83 c4 10          	add    rsp,0x10
    c9d7:	ff c3                	inc    ebx
    c9d9:	81 fb 00 35 0c 00    	cmp    ebx,0xc3500
    c9df:	74 0c                	je     c9ed <s422+0x13b>
    c9e1:	48 8b 05 00 00 00 00 	mov    rax,QWORD PTR [rip+0x0]        # c9e8 <s422+0x136>
    c9e8:	e9 f2 fe ff ff       	jmp    c8df <s422+0x2d>
    c9ed:	49 83 c6 10          	add    r14,0x10
    c9f1:	4c 89 f7             	mov    rdi,r14
    c9f4:	31 f6                	xor    esi,esi
    c9f6:	e8 00 00 00 00       	call   c9fb <s422+0x149>
    c9fb:	bf 00 00 00 00       	mov    edi,0x0
    ca00:	48 83 c4 08          	add    rsp,0x8
    ca04:	5b                   	pop    rbx
    ca05:	41 5e                	pop    r14
    ca07:	e9 00 00 00 00       	jmp    ca0c <s423>

000000000000ca0c <s423>:
    ca0c:	41 56                	push   r14
    ca0e:	53                   	push   rbx
    ca0f:	50                   	push   rax
    ca10:	49 89 fe             	mov    r14,rdi
    ca13:	48 c7 05 00 00 00 00 	mov    QWORD PTR [rip+0x0],0x0        # ca1e <s423+0x12>
    ca1a:	00 00 00 00 
    ca1e:	bf 00 00 00 00       	mov    edi,0x0
    ca23:	e8 00 00 00 00       	call   ca28 <s423+0x1c>
    ca28:	31 db                	xor    ebx,ebx
    ca2a:	4c 89 f7             	mov    rdi,r14
    ca2d:	31 f6                	xor    esi,esi
    ca2f:	e8 00 00 00 00       	call   ca34 <s423+0x28>
    ca34:	48 8b 05 00 00 00 00 	mov    rax,QWORD PTR [rip+0x0]        # ca3b <s423+0x2f>
    ca3b:	31 c9                	xor    ecx,ecx
    ca3d:	f3 0f 10 04 08       	movss  xmm0,DWORD PTR [rax+rcx*1]
    ca42:	f3 0f 58 81 00 00 00 	addss  xmm0,DWORD PTR [rcx+0x0]
    ca49:	00 
    ca4a:	f3 0f 11 81 00 00 00 	movss  DWORD PTR [rcx+0x0],xmm0
    ca51:	00 
    ca52:	f3 0f 10 44 08 04    	movss  xmm0,DWORD PTR [rax+rcx*1+0x4]
    ca58:	f3 0f 58 81 00 00 00 	addss  xmm0,DWORD PTR [rcx+0x0]
    ca5f:	00 
    ca60:	f3 0f 11 81 00 00 00 	movss  DWORD PTR [rcx+0x0],xmm0
    ca67:	00 
    ca68:	f3 0f 10 44 08 08    	movss  xmm0,DWORD PTR [rax+rcx*1+0x8]
    ca6e:	f3 0f 58 81 00 00 00 	addss  xmm0,DWORD PTR [rcx+0x0]
    ca75:	00 
    ca76:	f3 0f 11 81 00 00 00 	movss  DWORD PTR [rcx+0x0],xmm0
    ca7d:	00 
    ca7e:	f3 0f 10 44 08 0c    	movss  xmm0,DWORD PTR [rax+rcx*1+0xc]
    ca84:	f3 0f 58 81 00 00 00 	addss  xmm0,DWORD PTR [rcx+0x0]
    ca8b:	00 
    ca8c:	f3 0f 11 81 00 00 00 	movss  DWORD PTR [rcx+0x0],xmm0
    ca93:	00 
    ca94:	f3 0f 10 44 08 10    	movss  xmm0,DWORD PTR [rax+rcx*1+0x10]
    ca9a:	f3 0f 58 81 00 00 00 	addss  xmm0,DWORD PTR [rcx+0x0]
    caa1:	00 
    caa2:	f3 0f 11 81 00 00 00 	movss  DWORD PTR [rcx+0x0],xmm0
    caa9:	00 
    caaa:	f3 0f 10 44 08 14    	movss  xmm0,DWORD PTR [rax+rcx*1+0x14]
    cab0:	f3 0f 58 81 00 00 00 	addss  xmm0,DWORD PTR [rcx+0x0]
    cab7:	00 
    cab8:	f3 0f 11 81 00 00 00 	movss  DWORD PTR [rcx+0x0],xmm0
    cabf:	00 
    cac0:	f3 0f 10 44 08 18    	movss  xmm0,DWORD PTR [rax+rcx*1+0x18]
    cac6:	f3 0f 58 81 00 00 00 	addss  xmm0,DWORD PTR [rcx+0x0]
    cacd:	00 
    cace:	f3 0f 11 81 00 00 00 	movss  DWORD PTR [rcx+0x0],xmm0
    cad5:	00 
    cad6:	48 81 f9 e0 f3 01 00 	cmp    rcx,0x1f3e0
    cadd:	74 1f                	je     cafe <s423+0xf2>
    cadf:	f3 0f 10 44 08 1c    	movss  xmm0,DWORD PTR [rax+rcx*1+0x1c]
    cae5:	f3 0f 58 81 00 00 00 	addss  xmm0,DWORD PTR [rcx+0x0]
    caec:	00 
    caed:	f3 0f 11 81 00 00 00 	movss  DWORD PTR [rcx+0x0],xmm0
    caf4:	00 
    caf5:	48 83 c1 20          	add    rcx,0x20
    caf9:	e9 3f ff ff ff       	jmp    ca3d <s423+0x31>
    cafe:	bf 00 00 00 00       	mov    edi,0x0
    cb03:	be 00 00 00 00       	mov    esi,0x0
    cb08:	ba 00 00 00 00       	mov    edx,0x0
    cb0d:	b9 00 00 00 00       	mov    ecx,0x0
    cb12:	41 b8 00 00 00 00    	mov    r8d,0x0
    cb18:	41 b9 00 00 00 00    	mov    r9d,0x0
    cb1e:	f3 0f 10 05 00 00 00 	movss  xmm0,DWORD PTR [rip+0x0]        # cb26 <s423+0x11a>
    cb25:	00 
    cb26:	68 00 00 00 00       	push   0x0
    cb2b:	68 00 00 00 00       	push   0x0
    cb30:	e8 00 00 00 00       	call   cb35 <s423+0x129>
    cb35:	48 83 c4 10          	add    rsp,0x10
    cb39:	ff c3                	inc    ebx
    cb3b:	81 fb 80 1a 06 00    	cmp    ebx,0x61a80
    cb41:	0f 85 ed fe ff ff    	jne    ca34 <s423+0x28>
    cb47:	49 83 c6 10          	add    r14,0x10
    cb4b:	4c 89 f7             	mov    rdi,r14
    cb4e:	31 f6                	xor    esi,esi
    cb50:	e8 00 00 00 00       	call   cb55 <s423+0x149>
    cb55:	bf 00 00 00 00       	mov    edi,0x0
    cb5a:	48 83 c4 08          	add    rsp,0x8
    cb5e:	5b                   	pop    rbx
    cb5f:	41 5e                	pop    r14
    cb61:	e9 00 00 00 00       	jmp    cb66 <s424>

000000000000cb66 <s424>:
    cb66:	41 56                	push   r14
    cb68:	53                   	push   rbx
    cb69:	50                   	push   rax
    cb6a:	49 89 fe             	mov    r14,rdi
    cb6d:	48 c7 05 00 00 00 00 	mov    QWORD PTR [rip+0x0],0x0        # cb78 <s424+0x12>
    cb74:	00 00 00 00 
    cb78:	bf 00 00 00 00       	mov    edi,0x0
    cb7d:	e8 00 00 00 00       	call   cb82 <s424+0x1c>
    cb82:	31 db                	xor    ebx,ebx
    cb84:	4c 89 f7             	mov    rdi,r14
    cb87:	31 f6                	xor    esi,esi
    cb89:	e8 00 00 00 00       	call   cb8e <s424+0x28>
    cb8e:	b8 20 00 00 00       	mov    eax,0x20
    cb93:	48 8b 0d 00 00 00 00 	mov    rcx,QWORD PTR [rip+0x0]        # cb9a <s424+0x34>
    cb9a:	f3 0f 10 80 00 00 00 	movss  xmm0,DWORD PTR [rax+0x0]
    cba1:	00 
    cba2:	f3 0f 58 80 00 00 00 	addss  xmm0,DWORD PTR [rax+0x0]
    cba9:	00 
    cbaa:	f3 0f 11 44 01 e4    	movss  DWORD PTR [rcx+rax*1-0x1c],xmm0
    cbb0:	f3 0f 10 80 00 00 00 	movss  xmm0,DWORD PTR [rax+0x0]
    cbb7:	00 
    cbb8:	f3 0f 58 80 00 00 00 	addss  xmm0,DWORD PTR [rax+0x0]
    cbbf:	00 
    cbc0:	f3 0f 11 44 01 e8    	movss  DWORD PTR [rcx+rax*1-0x18],xmm0
    cbc6:	f3 0f 10 80 00 00 00 	movss  xmm0,DWORD PTR [rax+0x0]
    cbcd:	00 
    cbce:	f3 0f 58 80 00 00 00 	addss  xmm0,DWORD PTR [rax+0x0]
    cbd5:	00 
    cbd6:	f3 0f 11 44 01 ec    	movss  DWORD PTR [rcx+rax*1-0x14],xmm0
    cbdc:	f3 0f 10 80 00 00 00 	movss  xmm0,DWORD PTR [rax+0x0]
    cbe3:	00 
    cbe4:	f3 0f 58 80 00 00 00 	addss  xmm0,DWORD PTR [rax+0x0]
    cbeb:	00 
    cbec:	f3 0f 11 44 01 f0    	movss  DWORD PTR [rcx+rax*1-0x10],xmm0
    cbf2:	f3 0f 10 80 00 00 00 	movss  xmm0,DWORD PTR [rax+0x0]
    cbf9:	00 
    cbfa:	f3 0f 58 80 00 00 00 	addss  xmm0,DWORD PTR [rax+0x0]
    cc01:	00 
    cc02:	f3 0f 11 44 01 f4    	movss  DWORD PTR [rcx+rax*1-0xc],xmm0
    cc08:	f3 0f 10 80 00 00 00 	movss  xmm0,DWORD PTR [rax+0x0]
    cc0f:	00 
    cc10:	f3 0f 58 80 00 00 00 	addss  xmm0,DWORD PTR [rax+0x0]
    cc17:	00 
    cc18:	f3 0f 11 44 01 f8    	movss  DWORD PTR [rcx+rax*1-0x8],xmm0
    cc1e:	f3 0f 10 80 00 00 00 	movss  xmm0,DWORD PTR [rax+0x0]
    cc25:	00 
    cc26:	f3 0f 58 80 00 00 00 	addss  xmm0,DWORD PTR [rax+0x0]
    cc2d:	00 
    cc2e:	f3 0f 11 44 01 fc    	movss  DWORD PTR [rcx+rax*1-0x4],xmm0
    cc34:	48 3d 00 f4 01 00    	cmp    rax,0x1f400
    cc3a:	74 1e                	je     cc5a <s424+0xf4>
    cc3c:	f3 0f 10 80 00 00 00 	movss  xmm0,DWORD PTR [rax+0x0]
    cc43:	00 
    cc44:	f3 0f 58 80 00 00 00 	addss  xmm0,DWORD PTR [rax+0x0]
    cc4b:	00 
    cc4c:	f3 0f 11 04 01       	movss  DWORD PTR [rcx+rax*1],xmm0
    cc51:	48 83 c0 20          	add    rax,0x20
    cc55:	e9 40 ff ff ff       	jmp    cb9a <s424+0x34>
    cc5a:	bf 00 00 00 00       	mov    edi,0x0
    cc5f:	be 00 00 00 00       	mov    esi,0x0
    cc64:	ba 00 00 00 00       	mov    edx,0x0
    cc69:	b9 00 00 00 00       	mov    ecx,0x0
    cc6e:	41 b8 00 00 00 00    	mov    r8d,0x0
    cc74:	41 b9 00 00 00 00    	mov    r9d,0x0
    cc7a:	f3 0f 10 05 00 00 00 	movss  xmm0,DWORD PTR [rip+0x0]        # cc82 <s424+0x11c>
    cc81:	00 
    cc82:	68 00 00 00 00       	push   0x0
    cc87:	68 00 00 00 00       	push   0x0
    cc8c:	e8 00 00 00 00       	call   cc91 <s424+0x12b>
    cc91:	48 83 c4 10          	add    rsp,0x10
    cc95:	ff c3                	inc    ebx
    cc97:	81 fb 80 1a 06 00    	cmp    ebx,0x61a80
    cc9d:	0f 85 eb fe ff ff    	jne    cb8e <s424+0x28>
    cca3:	49 83 c6 10          	add    r14,0x10
    cca7:	4c 89 f7             	mov    rdi,r14
    ccaa:	31 f6                	xor    esi,esi
    ccac:	e8 00 00 00 00       	call   ccb1 <s424+0x14b>
    ccb1:	bf 00 00 00 00       	mov    edi,0x0
    ccb6:	48 83 c4 08          	add    rsp,0x8
    ccba:	5b                   	pop    rbx
    ccbb:	41 5e                	pop    r14
    ccbd:	e9 00 00 00 00       	jmp    ccc2 <s431>

000000000000ccc2 <s431>:
    ccc2:	41 56                	push   r14
    ccc4:	53                   	push   rbx
    ccc5:	50                   	push   rax
    ccc6:	49 89 fe             	mov    r14,rdi
    ccc9:	bf 00 00 00 00       	mov    edi,0x0
    ccce:	e8 00 00 00 00       	call   ccd3 <s431+0x11>
    ccd3:	31 db                	xor    ebx,ebx
    ccd5:	4c 89 f7             	mov    rdi,r14
    ccd8:	31 f6                	xor    esi,esi
    ccda:	e8 00 00 00 00       	call   ccdf <s431+0x1d>
    ccdf:	48 c7 c0 00 0c fe ff 	mov    rax,0xfffffffffffe0c00
    cce6:	f3 0f 10 80 00 00 00 	movss  xmm0,DWORD PTR [rax+0x0]
    cced:	00 
    ccee:	f3 0f 58 80 00 00 00 	addss  xmm0,DWORD PTR [rax+0x0]
    ccf5:	00 
    ccf6:	f3 0f 11 80 00 00 00 	movss  DWORD PTR [rax+0x0],xmm0
    ccfd:	00 
    ccfe:	48 83 c0 04          	add    rax,0x4
    cd02:	75 e2                	jne    cce6 <s431+0x24>
    cd04:	bf 00 00 00 00       	mov    edi,0x0
    cd09:	be 00 00 00 00       	mov    esi,0x0
    cd0e:	ba 00 00 00 00       	mov    edx,0x0
    cd13:	b9 00 00 00 00       	mov    ecx,0x0
    cd18:	41 b8 00 00 00 00    	mov    r8d,0x0
    cd1e:	41 b9 00 00 00 00    	mov    r9d,0x0
    cd24:	0f 57 c0             	xorps  xmm0,xmm0
    cd27:	68 00 00 00 00       	push   0x0
    cd2c:	68 00 00 00 00       	push   0x0
    cd31:	e8 00 00 00 00       	call   cd36 <s431+0x74>
    cd36:	48 83 c4 10          	add    rsp,0x10
    cd3a:	ff c3                	inc    ebx
    cd3c:	81 fb 40 42 0f 00    	cmp    ebx,0xf4240
    cd42:	75 9b                	jne    ccdf <s431+0x1d>
    cd44:	49 83 c6 10          	add    r14,0x10
    cd48:	4c 89 f7             	mov    rdi,r14
    cd4b:	31 f6                	xor    esi,esi
    cd4d:	e8 00 00 00 00       	call   cd52 <s431+0x90>
    cd52:	bf 00 00 00 00       	mov    edi,0x0
    cd57:	48 83 c4 08          	add    rsp,0x8
    cd5b:	5b                   	pop    rbx
    cd5c:	41 5e                	pop    r14
    cd5e:	e9 00 00 00 00       	jmp    cd63 <s441>

000000000000cd63 <s441>:
    cd63:	41 56                	push   r14
    cd65:	53                   	push   rbx
    cd66:	50                   	push   rax
    cd67:	49 89 fe             	mov    r14,rdi
    cd6a:	bf 00 00 00 00       	mov    edi,0x0
    cd6f:	e8 00 00 00 00       	call   cd74 <s441+0x11>
    cd74:	31 db                	xor    ebx,ebx
    cd76:	4c 89 f7             	mov    rdi,r14
    cd79:	31 f6                	xor    esi,esi
    cd7b:	e8 00 00 00 00       	call   cd80 <s441+0x1d>
    cd80:	0f 57 c9             	xorps  xmm1,xmm1
    cd83:	48 c7 c0 00 0c fe ff 	mov    rax,0xfffffffffffe0c00
    cd8a:	f3 0f 10 80 00 00 00 	movss  xmm0,DWORD PTR [rax+0x0]
    cd91:	00 
    cd92:	0f 2e c8             	ucomiss xmm1,xmm0
    cd95:	76 12                	jbe    cda9 <s441+0x46>
    cd97:	f3 0f 10 80 00 00 00 	movss  xmm0,DWORD PTR [rax+0x0]
    cd9e:	00 
    cd9f:	f3 0f 59 80 00 00 00 	mulss  xmm0,DWORD PTR [rax+0x0]
    cda6:	00 
    cda7:	eb 1d                	jmp    cdc6 <s441+0x63>
    cda9:	0f 2e c1             	ucomiss xmm0,xmm1
    cdac:	75 0c                	jne    cdba <s441+0x57>
    cdae:	7a 0a                	jp     cdba <s441+0x57>
    cdb0:	f3 0f 10 80 00 00 00 	movss  xmm0,DWORD PTR [rax+0x0]
    cdb7:	00 
    cdb8:	eb 08                	jmp    cdc2 <s441+0x5f>
    cdba:	f3 0f 10 80 00 00 00 	movss  xmm0,DWORD PTR [rax+0x0]
    cdc1:	00 
    cdc2:	f3 0f 59 c0          	mulss  xmm0,xmm0
    cdc6:	f3 0f 58 80 00 00 00 	addss  xmm0,DWORD PTR [rax+0x0]
    cdcd:	00 
    cdce:	f3 0f 11 80 00 00 00 	movss  DWORD PTR [rax+0x0],xmm0
    cdd5:	00 
    cdd6:	f3 0f 10 80 00 00 00 	movss  xmm0,DWORD PTR [rax+0x0]
    cddd:	00 
    cdde:	0f 2e c8             	ucomiss xmm1,xmm0
    cde1:	76 12                	jbe    cdf5 <s441+0x92>
    cde3:	f3 0f 10 80 00 00 00 	movss  xmm0,DWORD PTR [rax+0x0]
    cdea:	00 
    cdeb:	f3 0f 59 80 00 00 00 	mulss  xmm0,DWORD PTR [rax+0x0]
    cdf2:	00 
    cdf3:	eb 1d                	jmp    ce12 <s441+0xaf>
    cdf5:	0f 2e c1             	ucomiss xmm0,xmm1
    cdf8:	75 0c                	jne    ce06 <s441+0xa3>
    cdfa:	7a 0a                	jp     ce06 <s441+0xa3>
    cdfc:	f3 0f 10 80 00 00 00 	movss  xmm0,DWORD PTR [rax+0x0]
    ce03:	00 
    ce04:	eb 08                	jmp    ce0e <s441+0xab>
    ce06:	f3 0f 10 80 00 00 00 	movss  xmm0,DWORD PTR [rax+0x0]
    ce0d:	00 
    ce0e:	f3 0f 59 c0          	mulss  xmm0,xmm0
    ce12:	f3 0f 58 80 00 00 00 	addss  xmm0,DWORD PTR [rax+0x0]
    ce19:	00 
    ce1a:	f3 0f 11 80 00 00 00 	movss  DWORD PTR [rax+0x0],xmm0
    ce21:	00 
    ce22:	f3 0f 10 80 00 00 00 	movss  xmm0,DWORD PTR [rax+0x0]
    ce29:	00 
    ce2a:	0f 2e c8             	ucomiss xmm1,xmm0
    ce2d:	76 12                	jbe    ce41 <s441+0xde>
    ce2f:	f3 0f 10 80 00 00 00 	movss  xmm0,DWORD PTR [rax+0x0]
    ce36:	00 
    ce37:	f3 0f 59 80 00 00 00 	mulss  xmm0,DWORD PTR [rax+0x0]
    ce3e:	00 
    ce3f:	eb 1d                	jmp    ce5e <s441+0xfb>
    ce41:	0f 2e c1             	ucomiss xmm0,xmm1
    ce44:	75 0c                	jne    ce52 <s441+0xef>
    ce46:	7a 0a                	jp     ce52 <s441+0xef>
    ce48:	f3 0f 10 80 00 00 00 	movss  xmm0,DWORD PTR [rax+0x0]
    ce4f:	00 
    ce50:	eb 08                	jmp    ce5a <s441+0xf7>
    ce52:	f3 0f 10 80 00 00 00 	movss  xmm0,DWORD PTR [rax+0x0]
    ce59:	00 
    ce5a:	f3 0f 59 c0          	mulss  xmm0,xmm0
    ce5e:	f3 0f 58 80 00 00 00 	addss  xmm0,DWORD PTR [rax+0x0]
    ce65:	00 
    ce66:	f3 0f 11 80 00 00 00 	movss  DWORD PTR [rax+0x0],xmm0
    ce6d:	00 
    ce6e:	f3 0f 10 80 00 00 00 	movss  xmm0,DWORD PTR [rax+0x0]
    ce75:	00 
    ce76:	0f 2e c8             	ucomiss xmm1,xmm0
    ce79:	76 12                	jbe    ce8d <s441+0x12a>
    ce7b:	f3 0f 10 80 00 00 00 	movss  xmm0,DWORD PTR [rax+0x0]
    ce82:	00 
    ce83:	f3 0f 59 80 00 00 00 	mulss  xmm0,DWORD PTR [rax+0x0]
    ce8a:	00 
    ce8b:	eb 1d                	jmp    ceaa <s441+0x147>
    ce8d:	0f 2e c1             	ucomiss xmm0,xmm1
    ce90:	75 0c                	jne    ce9e <s441+0x13b>
    ce92:	7a 0a                	jp     ce9e <s441+0x13b>
    ce94:	f3 0f 10 80 00 00 00 	movss  xmm0,DWORD PTR [rax+0x0]
    ce9b:	00 
    ce9c:	eb 08                	jmp    cea6 <s441+0x143>
    ce9e:	f3 0f 10 80 00 00 00 	movss  xmm0,DWORD PTR [rax+0x0]
    cea5:	00 
    cea6:	f3 0f 59 c0          	mulss  xmm0,xmm0
    ceaa:	f3 0f 58 80 00 00 00 	addss  xmm0,DWORD PTR [rax+0x0]
    ceb1:	00 
    ceb2:	f3 0f 11 80 00 00 00 	movss  DWORD PTR [rax+0x0],xmm0
    ceb9:	00 
    ceba:	f3 0f 10 80 00 00 00 	movss  xmm0,DWORD PTR [rax+0x0]
    cec1:	00 
    cec2:	0f 2e c8             	ucomiss xmm1,xmm0
    cec5:	76 12                	jbe    ced9 <s441+0x176>
    cec7:	f3 0f 10 80 00 00 00 	movss  xmm0,DWORD PTR [rax+0x0]
    cece:	00 
    cecf:	f3 0f 59 80 00 00 00 	mulss  xmm0,DWORD PTR [rax+0x0]
    ced6:	00 
    ced7:	eb 1d                	jmp    cef6 <s441+0x193>
    ced9:	0f 2e c1             	ucomiss xmm0,xmm1
    cedc:	75 0c                	jne    ceea <s441+0x187>
    cede:	7a 0a                	jp     ceea <s441+0x187>
    cee0:	f3 0f 10 80 00 00 00 	movss  xmm0,DWORD PTR [rax+0x0]
    cee7:	00 
    cee8:	eb 08                	jmp    cef2 <s441+0x18f>
    ceea:	f3 0f 10 80 00 00 00 	movss  xmm0,DWORD PTR [rax+0x0]
    cef1:	00 
    cef2:	f3 0f 59 c0          	mulss  xmm0,xmm0
    cef6:	f3 0f 58 80 00 00 00 	addss  xmm0,DWORD PTR [rax+0x0]
    cefd:	00 
    cefe:	f3 0f 11 80 00 00 00 	movss  DWORD PTR [rax+0x0],xmm0
    cf05:	00 
    cf06:	f3 0f 10 80 00 00 00 	movss  xmm0,DWORD PTR [rax+0x0]
    cf0d:	00 
    cf0e:	0f 2e c8             	ucomiss xmm1,xmm0
    cf11:	76 12                	jbe    cf25 <s441+0x1c2>
    cf13:	f3 0f 10 80 00 00 00 	movss  xmm0,DWORD PTR [rax+0x0]
    cf1a:	00 
    cf1b:	f3 0f 59 80 00 00 00 	mulss  xmm0,DWORD PTR [rax+0x0]
    cf22:	00 
    cf23:	eb 1d                	jmp    cf42 <s441+0x1df>
    cf25:	0f 2e c1             	ucomiss xmm0,xmm1
    cf28:	75 0c                	jne    cf36 <s441+0x1d3>
    cf2a:	7a 0a                	jp     cf36 <s441+0x1d3>
    cf2c:	f3 0f 10 80 00 00 00 	movss  xmm0,DWORD PTR [rax+0x0]
    cf33:	00 
    cf34:	eb 08                	jmp    cf3e <s441+0x1db>
    cf36:	f3 0f 10 80 00 00 00 	movss  xmm0,DWORD PTR [rax+0x0]
    cf3d:	00 
    cf3e:	f3 0f 59 c0          	mulss  xmm0,xmm0
    cf42:	f3 0f 58 80 00 00 00 	addss  xmm0,DWORD PTR [rax+0x0]
    cf49:	00 
    cf4a:	f3 0f 11 80 00 00 00 	movss  DWORD PTR [rax+0x0],xmm0
    cf51:	00 
    cf52:	f3 0f 10 80 00 00 00 	movss  xmm0,DWORD PTR [rax+0x0]
    cf59:	00 
    cf5a:	0f 2e c8             	ucomiss xmm1,xmm0
    cf5d:	76 12                	jbe    cf71 <s441+0x20e>
    cf5f:	f3 0f 10 80 00 00 00 	movss  xmm0,DWORD PTR [rax+0x0]
    cf66:	00 
    cf67:	f3 0f 59 80 00 00 00 	mulss  xmm0,DWORD PTR [rax+0x0]
    cf6e:	00 
    cf6f:	eb 1d                	jmp    cf8e <s441+0x22b>
    cf71:	0f 2e c1             	ucomiss xmm0,xmm1
    cf74:	75 0c                	jne    cf82 <s441+0x21f>
    cf76:	7a 0a                	jp     cf82 <s441+0x21f>
    cf78:	f3 0f 10 80 00 00 00 	movss  xmm0,DWORD PTR [rax+0x0]
    cf7f:	00 
    cf80:	eb 08                	jmp    cf8a <s441+0x227>
    cf82:	f3 0f 10 80 00 00 00 	movss  xmm0,DWORD PTR [rax+0x0]
    cf89:	00 
    cf8a:	f3 0f 59 c0          	mulss  xmm0,xmm0
    cf8e:	f3 0f 58 80 00 00 00 	addss  xmm0,DWORD PTR [rax+0x0]
    cf95:	00 
    cf96:	f3 0f 11 80 00 00 00 	movss  DWORD PTR [rax+0x0],xmm0
    cf9d:	00 
    cf9e:	f3 0f 10 80 00 00 00 	movss  xmm0,DWORD PTR [rax+0x0]
    cfa5:	00 
    cfa6:	0f 2e c8             	ucomiss xmm1,xmm0
    cfa9:	76 12                	jbe    cfbd <s441+0x25a>
    cfab:	f3 0f 10 80 00 00 00 	movss  xmm0,DWORD PTR [rax+0x0]
    cfb2:	00 
    cfb3:	f3 0f 59 80 00 00 00 	mulss  xmm0,DWORD PTR [rax+0x0]
    cfba:	00 
    cfbb:	eb 1d                	jmp    cfda <s441+0x277>
    cfbd:	0f 2e c1             	ucomiss xmm0,xmm1
    cfc0:	75 0c                	jne    cfce <s441+0x26b>
    cfc2:	7a 0a                	jp     cfce <s441+0x26b>
    cfc4:	f3 0f 10 80 00 00 00 	movss  xmm0,DWORD PTR [rax+0x0]
    cfcb:	00 
    cfcc:	eb 08                	jmp    cfd6 <s441+0x273>
    cfce:	f3 0f 10 80 00 00 00 	movss  xmm0,DWORD PTR [rax+0x0]
    cfd5:	00 
    cfd6:	f3 0f 59 c0          	mulss  xmm0,xmm0
    cfda:	f3 0f 58 80 00 00 00 	addss  xmm0,DWORD PTR [rax+0x0]
    cfe1:	00 
    cfe2:	f3 0f 11 80 00 00 00 	movss  DWORD PTR [rax+0x0],xmm0
    cfe9:	00 
    cfea:	48 83 c0 20          	add    rax,0x20
    cfee:	0f 85 96 fd ff ff    	jne    cd8a <s441+0x27>
    cff4:	bf 00 00 00 00       	mov    edi,0x0
    cff9:	be 00 00 00 00       	mov    esi,0x0
    cffe:	ba 00 00 00 00       	mov    edx,0x0
    d003:	b9 00 00 00 00       	mov    ecx,0x0
    d008:	41 b8 00 00 00 00    	mov    r8d,0x0
    d00e:	41 b9 00 00 00 00    	mov    r9d,0x0
    d014:	0f 57 c0             	xorps  xmm0,xmm0
    d017:	68 00 00 00 00       	push   0x0
    d01c:	68 00 00 00 00       	push   0x0
    d021:	e8 00 00 00 00       	call   d026 <s441+0x2c3>
    d026:	0f 57 c9             	xorps  xmm1,xmm1
    d029:	48 83 c4 10          	add    rsp,0x10
    d02d:	ff c3                	inc    ebx
    d02f:	81 fb a0 86 01 00    	cmp    ebx,0x186a0
    d035:	0f 85 48 fd ff ff    	jne    cd83 <s441+0x20>
    d03b:	49 83 c6 10          	add    r14,0x10
    d03f:	4c 89 f7             	mov    rdi,r14
    d042:	31 f6                	xor    esi,esi
    d044:	e8 00 00 00 00       	call   d049 <s441+0x2e6>
    d049:	bf 00 00 00 00       	mov    edi,0x0
    d04e:	48 83 c4 08          	add    rsp,0x8
    d052:	5b                   	pop    rbx
    d053:	41 5e                	pop    r14
    d055:	e9 00 00 00 00       	jmp    d05a <s442>

000000000000d05a <s442>:
    d05a:	41 56                	push   r14
    d05c:	53                   	push   rbx
    d05d:	50                   	push   rax
    d05e:	49 89 fe             	mov    r14,rdi
    d061:	bf 00 00 00 00       	mov    edi,0x0
    d066:	e8 00 00 00 00       	call   d06b <s442+0x11>
    d06b:	31 db                	xor    ebx,ebx
    d06d:	4c 89 f7             	mov    rdi,r14
    d070:	31 f6                	xor    esi,esi
    d072:	e8 00 00 00 00       	call   d077 <s442+0x1d>
    d077:	48 c7 c0 00 0c fe ff 	mov    rax,0xfffffffffffe0c00
    d07e:	8b 88 00 00 00 00    	mov    ecx,DWORD PTR [rax+0x0]
    d084:	83 f9 02             	cmp    ecx,0x2
    d087:	74 1e                	je     d0a7 <s442+0x4d>
    d089:	83 f9 03             	cmp    ecx,0x3
    d08c:	74 0f                	je     d09d <s442+0x43>
    d08e:	83 f9 04             	cmp    ecx,0x4
    d091:	75 1e                	jne    d0b1 <s442+0x57>
    d093:	f3 0f 10 80 00 00 00 	movss  xmm0,DWORD PTR [rax+0x0]
    d09a:	00 
    d09b:	eb 1c                	jmp    d0b9 <s442+0x5f>
    d09d:	f3 0f 10 80 00 00 00 	movss  xmm0,DWORD PTR [rax+0x0]
    d0a4:	00 
    d0a5:	eb 12                	jmp    d0b9 <s442+0x5f>
    d0a7:	f3 0f 10 80 00 00 00 	movss  xmm0,DWORD PTR [rax+0x0]
    d0ae:	00 
    d0af:	eb 08                	jmp    d0b9 <s442+0x5f>
    d0b1:	f3 0f 10 80 00 00 00 	movss  xmm0,DWORD PTR [rax+0x0]
    d0b8:	00 
    d0b9:	f3 0f 59 c0          	mulss  xmm0,xmm0
    d0bd:	f3 0f 58 80 00 00 00 	addss  xmm0,DWORD PTR [rax+0x0]
    d0c4:	00 
    d0c5:	f3 0f 11 80 00 00 00 	movss  DWORD PTR [rax+0x0],xmm0
    d0cc:	00 
    d0cd:	8b 88 00 00 00 00    	mov    ecx,DWORD PTR [rax+0x0]
    d0d3:	83 f9 02             	cmp    ecx,0x2
    d0d6:	74 1e                	je     d0f6 <s442+0x9c>
    d0d8:	83 f9 04             	cmp    ecx,0x4
    d0db:	74 0f                	je     d0ec <s442+0x92>
    d0dd:	83 f9 03             	cmp    ecx,0x3
    d0e0:	75 1e                	jne    d100 <s442+0xa6>
    d0e2:	f3 0f 10 80 00 00 00 	movss  xmm0,DWORD PTR [rax+0x0]
    d0e9:	00 
    d0ea:	eb 1c                	jmp    d108 <s442+0xae>
    d0ec:	f3 0f 10 80 00 00 00 	movss  xmm0,DWORD PTR [rax+0x0]
    d0f3:	00 
    d0f4:	eb 12                	jmp    d108 <s442+0xae>
    d0f6:	f3 0f 10 80 00 00 00 	movss  xmm0,DWORD PTR [rax+0x0]
    d0fd:	00 
    d0fe:	eb 08                	jmp    d108 <s442+0xae>
    d100:	f3 0f 10 80 00 00 00 	movss  xmm0,DWORD PTR [rax+0x0]
    d107:	00 
    d108:	f3 0f 59 c0          	mulss  xmm0,xmm0
    d10c:	f3 0f 58 80 00 00 00 	addss  xmm0,DWORD PTR [rax+0x0]
    d113:	00 
    d114:	f3 0f 11 80 00 00 00 	movss  DWORD PTR [rax+0x0],xmm0
    d11b:	00 
    d11c:	8b 88 00 00 00 00    	mov    ecx,DWORD PTR [rax+0x0]
    d122:	83 f9 02             	cmp    ecx,0x2
    d125:	74 1e                	je     d145 <s442+0xeb>
    d127:	83 f9 04             	cmp    ecx,0x4
    d12a:	74 0f                	je     d13b <s442+0xe1>
    d12c:	83 f9 03             	cmp    ecx,0x3
    d12f:	75 1e                	jne    d14f <s442+0xf5>
    d131:	f3 0f 10 80 00 00 00 	movss  xmm0,DWORD PTR [rax+0x0]
    d138:	00 
    d139:	eb 1c                	jmp    d157 <s442+0xfd>
    d13b:	f3 0f 10 80 00 00 00 	movss  xmm0,DWORD PTR [rax+0x0]
    d142:	00 
    d143:	eb 12                	jmp    d157 <s442+0xfd>
    d145:	f3 0f 10 80 00 00 00 	movss  xmm0,DWORD PTR [rax+0x0]
    d14c:	00 
    d14d:	eb 08                	jmp    d157 <s442+0xfd>
    d14f:	f3 0f 10 80 00 00 00 	movss  xmm0,DWORD PTR [rax+0x0]
    d156:	00 
    d157:	f3 0f 59 c0          	mulss  xmm0,xmm0
    d15b:	f3 0f 58 80 00 00 00 	addss  xmm0,DWORD PTR [rax+0x0]
    d162:	00 
    d163:	f3 0f 11 80 00 00 00 	movss  DWORD PTR [rax+0x0],xmm0
    d16a:	00 
    d16b:	8b 88 00 00 00 00    	mov    ecx,DWORD PTR [rax+0x0]
    d171:	83 f9 02             	cmp    ecx,0x2
    d174:	74 1e                	je     d194 <s442+0x13a>
    d176:	83 f9 04             	cmp    ecx,0x4
    d179:	74 0f                	je     d18a <s442+0x130>
    d17b:	83 f9 03             	cmp    ecx,0x3
    d17e:	75 1e                	jne    d19e <s442+0x144>
    d180:	f3 0f 10 80 00 00 00 	movss  xmm0,DWORD PTR [rax+0x0]
    d187:	00 
    d188:	eb 1c                	jmp    d1a6 <s442+0x14c>
    d18a:	f3 0f 10 80 00 00 00 	movss  xmm0,DWORD PTR [rax+0x0]
    d191:	00 
    d192:	eb 12                	jmp    d1a6 <s442+0x14c>
    d194:	f3 0f 10 80 00 00 00 	movss  xmm0,DWORD PTR [rax+0x0]
    d19b:	00 
    d19c:	eb 08                	jmp    d1a6 <s442+0x14c>
    d19e:	f3 0f 10 80 00 00 00 	movss  xmm0,DWORD PTR [rax+0x0]
    d1a5:	00 
    d1a6:	f3 0f 59 c0          	mulss  xmm0,xmm0
    d1aa:	f3 0f 58 80 00 00 00 	addss  xmm0,DWORD PTR [rax+0x0]
    d1b1:	00 
    d1b2:	f3 0f 11 80 00 00 00 	movss  DWORD PTR [rax+0x0],xmm0
    d1b9:	00 
    d1ba:	8b 88 00 00 00 00    	mov    ecx,DWORD PTR [rax+0x0]
    d1c0:	83 f9 02             	cmp    ecx,0x2
    d1c3:	74 1e                	je     d1e3 <s442+0x189>
    d1c5:	83 f9 04             	cmp    ecx,0x4
    d1c8:	74 0f                	je     d1d9 <s442+0x17f>
    d1ca:	83 f9 03             	cmp    ecx,0x3
    d1cd:	75 1e                	jne    d1ed <s442+0x193>
    d1cf:	f3 0f 10 80 00 00 00 	movss  xmm0,DWORD PTR [rax+0x0]
    d1d6:	00 
    d1d7:	eb 1c                	jmp    d1f5 <s442+0x19b>
    d1d9:	f3 0f 10 80 00 00 00 	movss  xmm0,DWORD PTR [rax+0x0]
    d1e0:	00 
    d1e1:	eb 12                	jmp    d1f5 <s442+0x19b>
    d1e3:	f3 0f 10 80 00 00 00 	movss  xmm0,DWORD PTR [rax+0x0]
    d1ea:	00 
    d1eb:	eb 08                	jmp    d1f5 <s442+0x19b>
    d1ed:	f3 0f 10 80 00 00 00 	movss  xmm0,DWORD PTR [rax+0x0]
    d1f4:	00 
    d1f5:	f3 0f 59 c0          	mulss  xmm0,xmm0
    d1f9:	f3 0f 58 80 00 00 00 	addss  xmm0,DWORD PTR [rax+0x0]
    d200:	00 
    d201:	f3 0f 11 80 00 00 00 	movss  DWORD PTR [rax+0x0],xmm0
    d208:	00 
    d209:	8b 88 00 00 00 00    	mov    ecx,DWORD PTR [rax+0x0]
    d20f:	83 f9 02             	cmp    ecx,0x2
    d212:	74 1e                	je     d232 <s442+0x1d8>
    d214:	83 f9 04             	cmp    ecx,0x4
    d217:	74 0f                	je     d228 <s442+0x1ce>
    d219:	83 f9 03             	cmp    ecx,0x3
    d21c:	75 1e                	jne    d23c <s442+0x1e2>
    d21e:	f3 0f 10 80 00 00 00 	movss  xmm0,DWORD PTR [rax+0x0]
    d225:	00 
    d226:	eb 1c                	jmp    d244 <s442+0x1ea>
    d228:	f3 0f 10 80 00 00 00 	movss  xmm0,DWORD PTR [rax+0x0]
    d22f:	00 
    d230:	eb 12                	jmp    d244 <s442+0x1ea>
    d232:	f3 0f 10 80 00 00 00 	movss  xmm0,DWORD PTR [rax+0x0]
    d239:	00 
    d23a:	eb 08                	jmp    d244 <s442+0x1ea>
    d23c:	f3 0f 10 80 00 00 00 	movss  xmm0,DWORD PTR [rax+0x0]
    d243:	00 
    d244:	f3 0f 59 c0          	mulss  xmm0,xmm0
    d248:	f3 0f 58 80 00 00 00 	addss  xmm0,DWORD PTR [rax+0x0]
    d24f:	00 
    d250:	f3 0f 11 80 00 00 00 	movss  DWORD PTR [rax+0x0],xmm0
    d257:	00 
    d258:	8b 88 00 00 00 00    	mov    ecx,DWORD PTR [rax+0x0]
    d25e:	83 f9 02             	cmp    ecx,0x2
    d261:	74 1e                	je     d281 <s442+0x227>
    d263:	83 f9 04             	cmp    ecx,0x4
    d266:	74 0f                	je     d277 <s442+0x21d>
    d268:	83 f9 03             	cmp    ecx,0x3
    d26b:	75 1e                	jne    d28b <s442+0x231>
    d26d:	f3 0f 10 80 00 00 00 	movss  xmm0,DWORD PTR [rax+0x0]
    d274:	00 
    d275:	eb 1c                	jmp    d293 <s442+0x239>
    d277:	f3 0f 10 80 00 00 00 	movss  xmm0,DWORD PTR [rax+0x0]
    d27e:	00 
    d27f:	eb 12                	jmp    d293 <s442+0x239>
    d281:	f3 0f 10 80 00 00 00 	movss  xmm0,DWORD PTR [rax+0x0]
    d288:	00 
    d289:	eb 08                	jmp    d293 <s442+0x239>
    d28b:	f3 0f 10 80 00 00 00 	movss  xmm0,DWORD PTR [rax+0x0]
    d292:	00 
    d293:	f3 0f 59 c0          	mulss  xmm0,xmm0
    d297:	f3 0f 58 80 00 00 00 	addss  xmm0,DWORD PTR [rax+0x0]
    d29e:	00 
    d29f:	f3 0f 11 80 00 00 00 	movss  DWORD PTR [rax+0x0],xmm0
    d2a6:	00 
    d2a7:	8b 88 00 00 00 00    	mov    ecx,DWORD PTR [rax+0x0]
    d2ad:	83 f9 02             	cmp    ecx,0x2
    d2b0:	74 1e                	je     d2d0 <s442+0x276>
    d2b2:	83 f9 04             	cmp    ecx,0x4
    d2b5:	74 0f                	je     d2c6 <s442+0x26c>
    d2b7:	83 f9 03             	cmp    ecx,0x3
    d2ba:	75 1e                	jne    d2da <s442+0x280>
    d2bc:	f3 0f 10 80 00 00 00 	movss  xmm0,DWORD PTR [rax+0x0]
    d2c3:	00 
    d2c4:	eb 1c                	jmp    d2e2 <s442+0x288>
    d2c6:	f3 0f 10 80 00 00 00 	movss  xmm0,DWORD PTR [rax+0x0]
    d2cd:	00 
    d2ce:	eb 12                	jmp    d2e2 <s442+0x288>
    d2d0:	f3 0f 10 80 00 00 00 	movss  xmm0,DWORD PTR [rax+0x0]
    d2d7:	00 
    d2d8:	eb 08                	jmp    d2e2 <s442+0x288>
    d2da:	f3 0f 10 80 00 00 00 	movss  xmm0,DWORD PTR [rax+0x0]
    d2e1:	00 
    d2e2:	f3 0f 59 c0          	mulss  xmm0,xmm0
    d2e6:	f3 0f 58 80 00 00 00 	addss  xmm0,DWORD PTR [rax+0x0]
    d2ed:	00 
    d2ee:	f3 0f 11 80 00 00 00 	movss  DWORD PTR [rax+0x0],xmm0
    d2f5:	00 
    d2f6:	48 83 c0 20          	add    rax,0x20
    d2fa:	0f 85 7e fd ff ff    	jne    d07e <s442+0x24>
    d300:	bf 00 00 00 00       	mov    edi,0x0
    d305:	be 00 00 00 00       	mov    esi,0x0
    d30a:	ba 00 00 00 00       	mov    edx,0x0
    d30f:	b9 00 00 00 00       	mov    ecx,0x0
    d314:	41 b8 00 00 00 00    	mov    r8d,0x0
    d31a:	41 b9 00 00 00 00    	mov    r9d,0x0
    d320:	0f 57 c0             	xorps  xmm0,xmm0
    d323:	68 00 00 00 00       	push   0x0
    d328:	68 00 00 00 00       	push   0x0
    d32d:	e8 00 00 00 00       	call   d332 <s442+0x2d8>
    d332:	48 83 c4 10          	add    rsp,0x10
    d336:	ff c3                	inc    ebx
    d338:	81 fb 50 c3 00 00    	cmp    ebx,0xc350
    d33e:	0f 85 33 fd ff ff    	jne    d077 <s442+0x1d>
    d344:	49 83 c6 10          	add    r14,0x10
    d348:	4c 89 f7             	mov    rdi,r14
    d34b:	31 f6                	xor    esi,esi
    d34d:	e8 00 00 00 00       	call   d352 <s442+0x2f8>
    d352:	bf 00 00 00 00       	mov    edi,0x0
    d357:	48 83 c4 08          	add    rsp,0x8
    d35b:	5b                   	pop    rbx
    d35c:	41 5e                	pop    r14
    d35e:	e9 00 00 00 00       	jmp    d363 <s443>

000000000000d363 <s443>:
    d363:	41 56                	push   r14
    d365:	53                   	push   rbx
    d366:	50                   	push   rax
    d367:	49 89 fe             	mov    r14,rdi
    d36a:	bf 00 00 00 00       	mov    edi,0x0
    d36f:	e8 00 00 00 00       	call   d374 <s443+0x11>
    d374:	31 db                	xor    ebx,ebx
    d376:	4c 89 f7             	mov    rdi,r14
    d379:	31 f6                	xor    esi,esi
    d37b:	e8 00 00 00 00       	call   d380 <s443+0x1d>
    d380:	0f 57 d2             	xorps  xmm2,xmm2
    d383:	48 c7 c0 00 0c fe ff 	mov    rax,0xfffffffffffe0c00
    d38a:	0f 2e 90 00 00 00 00 	ucomiss xmm2,DWORD PTR [rax+0x0]
    d391:	f3 0f 10 80 00 00 00 	movss  xmm0,DWORD PTR [rax+0x0]
    d398:	00 
    d399:	0f 28 c8             	movaps xmm1,xmm0
    d39c:	72 08                	jb     d3a6 <s443+0x43>
    d39e:	f3 0f 10 88 00 00 00 	movss  xmm1,DWORD PTR [rax+0x0]
    d3a5:	00 
    d3a6:	f3 0f 59 c1          	mulss  xmm0,xmm1
    d3aa:	f3 0f 58 80 00 00 00 	addss  xmm0,DWORD PTR [rax+0x0]
    d3b1:	00 
    d3b2:	f3 0f 11 80 00 00 00 	movss  DWORD PTR [rax+0x0],xmm0
    d3b9:	00 
    d3ba:	0f 2e 90 00 00 00 00 	ucomiss xmm2,DWORD PTR [rax+0x0]
    d3c1:	f3 0f 10 80 00 00 00 	movss  xmm0,DWORD PTR [rax+0x0]
    d3c8:	00 
    d3c9:	0f 28 c8             	movaps xmm1,xmm0
    d3cc:	72 08                	jb     d3d6 <s443+0x73>
    d3ce:	f3 0f 10 88 00 00 00 	movss  xmm1,DWORD PTR [rax+0x0]
    d3d5:	00 
    d3d6:	f3 0f 59 c1          	mulss  xmm0,xmm1
    d3da:	f3 0f 58 80 00 00 00 	addss  xmm0,DWORD PTR [rax+0x0]
    d3e1:	00 
    d3e2:	f3 0f 11 80 00 00 00 	movss  DWORD PTR [rax+0x0],xmm0
    d3e9:	00 
    d3ea:	0f 2e 90 00 00 00 00 	ucomiss xmm2,DWORD PTR [rax+0x0]
    d3f1:	f3 0f 10 80 00 00 00 	movss  xmm0,DWORD PTR [rax+0x0]
    d3f8:	00 
    d3f9:	0f 28 c8             	movaps xmm1,xmm0
    d3fc:	72 08                	jb     d406 <s443+0xa3>
    d3fe:	f3 0f 10 88 00 00 00 	movss  xmm1,DWORD PTR [rax+0x0]
    d405:	00 
    d406:	f3 0f 59 c1          	mulss  xmm0,xmm1
    d40a:	f3 0f 58 80 00 00 00 	addss  xmm0,DWORD PTR [rax+0x0]
    d411:	00 
    d412:	f3 0f 11 80 00 00 00 	movss  DWORD PTR [rax+0x0],xmm0
    d419:	00 
    d41a:	0f 2e 90 00 00 00 00 	ucomiss xmm2,DWORD PTR [rax+0x0]
    d421:	f3 0f 10 80 00 00 00 	movss  xmm0,DWORD PTR [rax+0x0]
    d428:	00 
    d429:	0f 28 c8             	movaps xmm1,xmm0
    d42c:	72 08                	jb     d436 <s443+0xd3>
    d42e:	f3 0f 10 88 00 00 00 	movss  xmm1,DWORD PTR [rax+0x0]
    d435:	00 
    d436:	f3 0f 59 c1          	mulss  xmm0,xmm1
    d43a:	f3 0f 58 80 00 00 00 	addss  xmm0,DWORD PTR [rax+0x0]
    d441:	00 
    d442:	f3 0f 11 80 00 00 00 	movss  DWORD PTR [rax+0x0],xmm0
    d449:	00 
    d44a:	0f 2e 90 00 00 00 00 	ucomiss xmm2,DWORD PTR [rax+0x0]
    d451:	f3 0f 10 80 00 00 00 	movss  xmm0,DWORD PTR [rax+0x0]
    d458:	00 
    d459:	0f 28 c8             	movaps xmm1,xmm0
    d45c:	72 08                	jb     d466 <s443+0x103>
    d45e:	f3 0f 10 88 00 00 00 	movss  xmm1,DWORD PTR [rax+0x0]
    d465:	00 
    d466:	f3 0f 59 c1          	mulss  xmm0,xmm1
    d46a:	f3 0f 58 80 00 00 00 	addss  xmm0,DWORD PTR [rax+0x0]
    d471:	00 
    d472:	f3 0f 11 80 00 00 00 	movss  DWORD PTR [rax+0x0],xmm0
    d479:	00 
    d47a:	0f 2e 90 00 00 00 00 	ucomiss xmm2,DWORD PTR [rax+0x0]
    d481:	f3 0f 10 80 00 00 00 	movss  xmm0,DWORD PTR [rax+0x0]
    d488:	00 
    d489:	0f 28 c8             	movaps xmm1,xmm0
    d48c:	72 08                	jb     d496 <s443+0x133>
    d48e:	f3 0f 10 88 00 00 00 	movss  xmm1,DWORD PTR [rax+0x0]
    d495:	00 
    d496:	f3 0f 59 c1          	mulss  xmm0,xmm1
    d49a:	f3 0f 58 80 00 00 00 	addss  xmm0,DWORD PTR [rax+0x0]
    d4a1:	00 
    d4a2:	f3 0f 11 80 00 00 00 	movss  DWORD PTR [rax+0x0],xmm0
    d4a9:	00 
    d4aa:	0f 2e 90 00 00 00 00 	ucomiss xmm2,DWORD PTR [rax+0x0]
    d4b1:	f3 0f 10 80 00 00 00 	movss  xmm0,DWORD PTR [rax+0x0]
    d4b8:	00 
    d4b9:	0f 28 c8             	movaps xmm1,xmm0
    d4bc:	72 08                	jb     d4c6 <s443+0x163>
    d4be:	f3 0f 10 88 00 00 00 	movss  xmm1,DWORD PTR [rax+0x0]
    d4c5:	00 
    d4c6:	f3 0f 59 c1          	mulss  xmm0,xmm1
    d4ca:	f3 0f 58 80 00 00 00 	addss  xmm0,DWORD PTR [rax+0x0]
    d4d1:	00 
    d4d2:	f3 0f 11 80 00 00 00 	movss  DWORD PTR [rax+0x0],xmm0
    d4d9:	00 
    d4da:	0f 2e 90 00 00 00 00 	ucomiss xmm2,DWORD PTR [rax+0x0]
    d4e1:	f3 0f 10 80 00 00 00 	movss  xmm0,DWORD PTR [rax+0x0]
    d4e8:	00 
    d4e9:	0f 28 c8             	movaps xmm1,xmm0
    d4ec:	72 08                	jb     d4f6 <s443+0x193>
    d4ee:	f3 0f 10 88 00 00 00 	movss  xmm1,DWORD PTR [rax+0x0]
    d4f5:	00 
    d4f6:	f3 0f 59 c1          	mulss  xmm0,xmm1
    d4fa:	f3 0f 58 80 00 00 00 	addss  xmm0,DWORD PTR [rax+0x0]
    d501:	00 
    d502:	f3 0f 11 80 00 00 00 	movss  DWORD PTR [rax+0x0],xmm0
    d509:	00 
    d50a:	48 83 c0 20          	add    rax,0x20
    d50e:	0f 85 76 fe ff ff    	jne    d38a <s443+0x27>
    d514:	bf 00 00 00 00       	mov    edi,0x0
    d519:	be 00 00 00 00       	mov    esi,0x0
    d51e:	ba 00 00 00 00       	mov    edx,0x0
    d523:	b9 00 00 00 00       	mov    ecx,0x0
    d528:	41 b8 00 00 00 00    	mov    r8d,0x0
    d52e:	41 b9 00 00 00 00    	mov    r9d,0x0
    d534:	0f 57 c0             	xorps  xmm0,xmm0
    d537:	68 00 00 00 00       	push   0x0
    d53c:	68 00 00 00 00       	push   0x0
    d541:	e8 00 00 00 00       	call   d546 <s443+0x1e3>
    d546:	0f 57 d2             	xorps  xmm2,xmm2
    d549:	48 83 c4 10          	add    rsp,0x10
    d54d:	ff c3                	inc    ebx
    d54f:	81 fb 40 0d 03 00    	cmp    ebx,0x30d40
    d555:	0f 85 28 fe ff ff    	jne    d383 <s443+0x20>
    d55b:	49 83 c6 10          	add    r14,0x10
    d55f:	4c 89 f7             	mov    rdi,r14
    d562:	31 f6                	xor    esi,esi
    d564:	e8 00 00 00 00       	call   d569 <s443+0x206>
    d569:	bf 00 00 00 00       	mov    edi,0x0
    d56e:	48 83 c4 08          	add    rsp,0x8
    d572:	5b                   	pop    rbx
    d573:	41 5e                	pop    r14
    d575:	e9 00 00 00 00       	jmp    d57a <s451>

000000000000d57a <s451>:
    d57a:	41 57                	push   r15
    d57c:	41 56                	push   r14
    d57e:	53                   	push   rbx
    d57f:	48 83 ec 10          	sub    rsp,0x10
    d583:	49 89 fe             	mov    r14,rdi
    d586:	bf 00 00 00 00       	mov    edi,0x0
    d58b:	e8 00 00 00 00       	call   d590 <s451+0x16>
    d590:	45 31 ff             	xor    r15d,r15d
    d593:	4c 89 f7             	mov    rdi,r14
    d596:	31 f6                	xor    esi,esi
    d598:	e8 00 00 00 00       	call   d59d <s451+0x23>
    d59d:	48 c7 c3 00 0c fe ff 	mov    rbx,0xfffffffffffe0c00
    d5a4:	f3 0f 10 83 00 00 00 	movss  xmm0,DWORD PTR [rbx+0x0]
    d5ab:	00 
    d5ac:	e8 00 00 00 00       	call   d5b1 <s451+0x37>
    d5b1:	f3 0f 11 44 24 0c    	movss  DWORD PTR [rsp+0xc],xmm0
    d5b7:	f3 0f 10 83 00 00 00 	movss  xmm0,DWORD PTR [rbx+0x0]
    d5be:	00 
    d5bf:	e8 00 00 00 00       	call   d5c4 <s451+0x4a>
    d5c4:	f3 0f 58 44 24 0c    	addss  xmm0,DWORD PTR [rsp+0xc]
    d5ca:	f3 0f 11 83 00 00 00 	movss  DWORD PTR [rbx+0x0],xmm0
    d5d1:	00 
    d5d2:	f3 0f 10 83 00 00 00 	movss  xmm0,DWORD PTR [rbx+0x0]
    d5d9:	00 
    d5da:	e8 00 00 00 00       	call   d5df <s451+0x65>
    d5df:	f3 0f 11 44 24 0c    	movss  DWORD PTR [rsp+0xc],xmm0
    d5e5:	f3 0f 10 83 00 00 00 	movss  xmm0,DWORD PTR [rbx+0x0]
    d5ec:	00 
    d5ed:	e8 00 00 00 00       	call   d5f2 <s451+0x78>
    d5f2:	f3 0f 58 44 24 0c    	addss  xmm0,DWORD PTR [rsp+0xc]
    d5f8:	f3 0f 11 83 00 00 00 	movss  DWORD PTR [rbx+0x0],xmm0
    d5ff:	00 
    d600:	f3 0f 10 83 00 00 00 	movss  xmm0,DWORD PTR [rbx+0x0]
    d607:	00 
    d608:	e8 00 00 00 00       	call   d60d <s451+0x93>
    d60d:	f3 0f 11 44 24 0c    	movss  DWORD PTR [rsp+0xc],xmm0
    d613:	f3 0f 10 83 00 00 00 	movss  xmm0,DWORD PTR [rbx+0x0]
    d61a:	00 
    d61b:	e8 00 00 00 00       	call   d620 <s451+0xa6>
    d620:	f3 0f 58 44 24 0c    	addss  xmm0,DWORD PTR [rsp+0xc]
    d626:	f3 0f 11 83 00 00 00 	movss  DWORD PTR [rbx+0x0],xmm0
    d62d:	00 
    d62e:	f3 0f 10 83 00 00 00 	movss  xmm0,DWORD PTR [rbx+0x0]
    d635:	00 
    d636:	e8 00 00 00 00       	call   d63b <s451+0xc1>
    d63b:	f3 0f 11 44 24 0c    	movss  DWORD PTR [rsp+0xc],xmm0
    d641:	f3 0f 10 83 00 00 00 	movss  xmm0,DWORD PTR [rbx+0x0]
    d648:	00 
    d649:	e8 00 00 00 00       	call   d64e <s451+0xd4>
    d64e:	f3 0f 58 44 24 0c    	addss  xmm0,DWORD PTR [rsp+0xc]
    d654:	f3 0f 11 83 00 00 00 	movss  DWORD PTR [rbx+0x0],xmm0
    d65b:	00 
    d65c:	f3 0f 10 83 00 00 00 	movss  xmm0,DWORD PTR [rbx+0x0]
    d663:	00 
    d664:	e8 00 00 00 00       	call   d669 <s451+0xef>
    d669:	f3 0f 11 44 24 0c    	movss  DWORD PTR [rsp+0xc],xmm0
    d66f:	f3 0f 10 83 00 00 00 	movss  xmm0,DWORD PTR [rbx+0x0]
    d676:	00 
    d677:	e8 00 00 00 00       	call   d67c <s451+0x102>
    d67c:	f3 0f 58 44 24 0c    	addss  xmm0,DWORD PTR [rsp+0xc]
    d682:	f3 0f 11 83 00 00 00 	movss  DWORD PTR [rbx+0x0],xmm0
    d689:	00 
    d68a:	f3 0f 10 83 00 00 00 	movss  xmm0,DWORD PTR [rbx+0x0]
    d691:	00 
    d692:	e8 00 00 00 00       	call   d697 <s451+0x11d>
    d697:	f3 0f 11 44 24 0c    	movss  DWORD PTR [rsp+0xc],xmm0
    d69d:	f3 0f 10 83 00 00 00 	movss  xmm0,DWORD PTR [rbx+0x0]
    d6a4:	00 
    d6a5:	e8 00 00 00 00       	call   d6aa <s451+0x130>
    d6aa:	f3 0f 58 44 24 0c    	addss  xmm0,DWORD PTR [rsp+0xc]
    d6b0:	f3 0f 11 83 00 00 00 	movss  DWORD PTR [rbx+0x0],xmm0
    d6b7:	00 
    d6b8:	f3 0f 10 83 00 00 00 	movss  xmm0,DWORD PTR [rbx+0x0]
    d6bf:	00 
    d6c0:	e8 00 00 00 00       	call   d6c5 <s451+0x14b>
    d6c5:	f3 0f 11 44 24 0c    	movss  DWORD PTR [rsp+0xc],xmm0
    d6cb:	f3 0f 10 83 00 00 00 	movss  xmm0,DWORD PTR [rbx+0x0]
    d6d2:	00 
    d6d3:	e8 00 00 00 00       	call   d6d8 <s451+0x15e>
    d6d8:	f3 0f 58 44 24 0c    	addss  xmm0,DWORD PTR [rsp+0xc]
    d6de:	f3 0f 11 83 00 00 00 	movss  DWORD PTR [rbx+0x0],xmm0
    d6e5:	00 
    d6e6:	f3 0f 10 83 00 00 00 	movss  xmm0,DWORD PTR [rbx+0x0]
    d6ed:	00 
    d6ee:	e8 00 00 00 00       	call   d6f3 <s451+0x179>
    d6f3:	f3 0f 11 44 24 0c    	movss  DWORD PTR [rsp+0xc],xmm0
    d6f9:	f3 0f 10 83 00 00 00 	movss  xmm0,DWORD PTR [rbx+0x0]
    d700:	00 
    d701:	e8 00 00 00 00       	call   d706 <s451+0x18c>
    d706:	f3 0f 58 44 24 0c    	addss  xmm0,DWORD PTR [rsp+0xc]
    d70c:	f3 0f 11 83 00 00 00 	movss  DWORD PTR [rbx+0x0],xmm0
    d713:	00 
    d714:	48 83 c3 20          	add    rbx,0x20
    d718:	0f 85 86 fe ff ff    	jne    d5a4 <s451+0x2a>
    d71e:	bf 00 00 00 00       	mov    edi,0x0
    d723:	be 00 00 00 00       	mov    esi,0x0
    d728:	ba 00 00 00 00       	mov    edx,0x0
    d72d:	b9 00 00 00 00       	mov    ecx,0x0
    d732:	41 b8 00 00 00 00    	mov    r8d,0x0
    d738:	41 b9 00 00 00 00    	mov    r9d,0x0
    d73e:	0f 57 c0             	xorps  xmm0,xmm0
    d741:	68 00 00 00 00       	push   0x0
    d746:	68 00 00 00 00       	push   0x0
    d74b:	e8 00 00 00 00       	call   d750 <s451+0x1d6>
    d750:	48 83 c4 10          	add    rsp,0x10
    d754:	41 ff c7             	inc    r15d
    d757:	41 81 ff 20 4e 00 00 	cmp    r15d,0x4e20
    d75e:	0f 85 39 fe ff ff    	jne    d59d <s451+0x23>
    d764:	49 83 c6 10          	add    r14,0x10
    d768:	4c 89 f7             	mov    rdi,r14
    d76b:	31 f6                	xor    esi,esi
    d76d:	e8 00 00 00 00       	call   d772 <s451+0x1f8>
    d772:	bf 00 00 00 00       	mov    edi,0x0
    d777:	48 83 c4 10          	add    rsp,0x10
    d77b:	5b                   	pop    rbx
    d77c:	41 5e                	pop    r14
    d77e:	41 5f                	pop    r15
    d780:	e9 00 00 00 00       	jmp    d785 <s452>

000000000000d785 <s452>:
    d785:	41 56                	push   r14
    d787:	53                   	push   rbx
    d788:	50                   	push   rax
    d789:	49 89 fe             	mov    r14,rdi
    d78c:	bf 00 00 00 00       	mov    edi,0x0
    d791:	e8 00 00 00 00       	call   d796 <s452+0x11>
    d796:	31 db                	xor    ebx,ebx
    d798:	4c 89 f7             	mov    rdi,r14
    d79b:	31 f6                	xor    esi,esi
    d79d:	e8 00 00 00 00       	call   d7a2 <s452+0x1d>
    d7a2:	48 c7 c0 00 83 ff ff 	mov    rax,0xffffffffffff8300
    d7a9:	8d 88 01 7d 00 00    	lea    ecx,[rax+0x7d01]
    d7af:	0f 57 c0             	xorps  xmm0,xmm0
    d7b2:	f3 0f 2a c1          	cvtsi2ss xmm0,ecx
    d7b6:	f3 0f 59 04 85 00 00 	mulss  xmm0,DWORD PTR [rax*4+0x0]
    d7bd:	00 00 
    d7bf:	f3 0f 58 04 85 00 00 	addss  xmm0,DWORD PTR [rax*4+0x0]
    d7c6:	00 00 
    d7c8:	f3 0f 11 04 85 00 00 	movss  DWORD PTR [rax*4+0x0],xmm0
    d7cf:	00 00 
    d7d1:	8d 88 02 7d 00 00    	lea    ecx,[rax+0x7d02]
    d7d7:	0f 57 c0             	xorps  xmm0,xmm0
    d7da:	f3 0f 2a c1          	cvtsi2ss xmm0,ecx
    d7de:	f3 0f 59 04 85 00 00 	mulss  xmm0,DWORD PTR [rax*4+0x0]
    d7e5:	00 00 
    d7e7:	f3 0f 58 04 85 00 00 	addss  xmm0,DWORD PTR [rax*4+0x0]
    d7ee:	00 00 
    d7f0:	8d 88 03 7d 00 00    	lea    ecx,[rax+0x7d03]
    d7f6:	0f 57 c9             	xorps  xmm1,xmm1
    d7f9:	f3 0f 2a c9          	cvtsi2ss xmm1,ecx
    d7fd:	f3 0f 59 0c 85 00 00 	mulss  xmm1,DWORD PTR [rax*4+0x0]
    d804:	00 00 
    d806:	f3 0f 58 0c 85 00 00 	addss  xmm1,DWORD PTR [rax*4+0x0]
    d80d:	00 00 
    d80f:	8d 88 04 7d 00 00    	lea    ecx,[rax+0x7d04]
    d815:	0f 57 d2             	xorps  xmm2,xmm2
    d818:	f3 0f 2a d1          	cvtsi2ss xmm2,ecx
    d81c:	f3 0f 11 04 85 00 00 	movss  DWORD PTR [rax*4+0x0],xmm0
    d823:	00 00 
    d825:	f3 0f 11 0c 85 00 00 	movss  DWORD PTR [rax*4+0x0],xmm1
    d82c:	00 00 
    d82e:	f3 0f 59 14 85 00 00 	mulss  xmm2,DWORD PTR [rax*4+0x0]
    d835:	00 00 
    d837:	8d 88 05 7d 00 00    	lea    ecx,[rax+0x7d05]
    d83d:	0f 57 c0             	xorps  xmm0,xmm0
    d840:	f3 0f 2a c1          	cvtsi2ss xmm0,ecx
    d844:	f3 0f 58 14 85 00 00 	addss  xmm2,DWORD PTR [rax*4+0x0]
    d84b:	00 00 
    d84d:	f3 0f 59 04 85 00 00 	mulss  xmm0,DWORD PTR [rax*4+0x0]
    d854:	00 00 
    d856:	f3 0f 11 14 85 00 00 	movss  DWORD PTR [rax*4+0x0],xmm2
    d85d:	00 00 
    d85f:	f3 0f 58 04 85 00 00 	addss  xmm0,DWORD PTR [rax*4+0x0]
    d866:	00 00 
    d868:	f3 0f 11 04 85 00 00 	movss  DWORD PTR [rax*4+0x0],xmm0
    d86f:	00 00 
    d871:	8d 88 06 7d 00 00    	lea    ecx,[rax+0x7d06]
    d877:	0f 57 c0             	xorps  xmm0,xmm0
    d87a:	f3 0f 2a c1          	cvtsi2ss xmm0,ecx
    d87e:	f3 0f 59 04 85 00 00 	mulss  xmm0,DWORD PTR [rax*4+0x0]
    d885:	00 00 
    d887:	f3 0f 58 04 85 00 00 	addss  xmm0,DWORD PTR [rax*4+0x0]
    d88e:	00 00 
    d890:	8d 88 07 7d 00 00    	lea    ecx,[rax+0x7d07]
    d896:	0f 57 c9             	xorps  xmm1,xmm1
    d899:	f3 0f 2a c9          	cvtsi2ss xmm1,ecx
    d89d:	f3 0f 59 0c 85 00 00 	mulss  xmm1,DWORD PTR [rax*4+0x0]
    d8a4:	00 00 
    d8a6:	f3 0f 58 0c 85 00 00 	addss  xmm1,DWORD PTR [rax*4+0x0]
    d8ad:	00 00 
    d8af:	8d 88 08 7d 00 00    	lea    ecx,[rax+0x7d08]
    d8b5:	0f 57 d2             	xorps  xmm2,xmm2
    d8b8:	f3 0f 2a d1          	cvtsi2ss xmm2,ecx
    d8bc:	f3 0f 11 04 85 00 00 	movss  DWORD PTR [rax*4+0x0],xmm0
    d8c3:	00 00 
    d8c5:	f3 0f 11 0c 85 00 00 	movss  DWORD PTR [rax*4+0x0],xmm1
    d8cc:	00 00 
    d8ce:	f3 0f 59 14 85 00 00 	mulss  xmm2,DWORD PTR [rax*4+0x0]
    d8d5:	00 00 
    d8d7:	f3 0f 58 14 85 00 00 	addss  xmm2,DWORD PTR [rax*4+0x0]
    d8de:	00 00 
    d8e0:	f3 0f 11 14 85 00 00 	movss  DWORD PTR [rax*4+0x0],xmm2
    d8e7:	00 00 
    d8e9:	48 83 c0 08          	add    rax,0x8
    d8ed:	0f 85 b6 fe ff ff    	jne    d7a9 <s452+0x24>
    d8f3:	bf 00 00 00 00       	mov    edi,0x0
    d8f8:	be 00 00 00 00       	mov    esi,0x0
    d8fd:	ba 00 00 00 00       	mov    edx,0x0
    d902:	b9 00 00 00 00       	mov    ecx,0x0
    d907:	41 b8 00 00 00 00    	mov    r8d,0x0
    d90d:	41 b9 00 00 00 00    	mov    r9d,0x0
    d913:	0f 57 c0             	xorps  xmm0,xmm0
    d916:	68 00 00 00 00       	push   0x0
    d91b:	68 00 00 00 00       	push   0x0
    d920:	e8 00 00 00 00       	call   d925 <s452+0x1a0>
    d925:	48 83 c4 10          	add    rsp,0x10
    d929:	ff c3                	inc    ebx
    d92b:	81 fb 80 1a 06 00    	cmp    ebx,0x61a80
    d931:	0f 85 6b fe ff ff    	jne    d7a2 <s452+0x1d>
    d937:	49 83 c6 10          	add    r14,0x10
    d93b:	4c 89 f7             	mov    rdi,r14
    d93e:	31 f6                	xor    esi,esi
    d940:	e8 00 00 00 00       	call   d945 <s452+0x1c0>
    d945:	bf 00 00 00 00       	mov    edi,0x0
    d94a:	48 83 c4 08          	add    rsp,0x8
    d94e:	5b                   	pop    rbx
    d94f:	41 5e                	pop    r14
    d951:	e9 00 00 00 00       	jmp    d956 <s453>

000000000000d956 <s453>:
    d956:	41 56                	push   r14
    d958:	53                   	push   rbx
    d959:	50                   	push   rax
    d95a:	49 89 fe             	mov    r14,rdi
    d95d:	bf 00 00 00 00       	mov    edi,0x0
    d962:	e8 00 00 00 00       	call   d967 <s453+0x11>
    d967:	31 db                	xor    ebx,ebx
    d969:	4c 89 f7             	mov    rdi,r14
    d96c:	31 f6                	xor    esi,esi
    d96e:	e8 00 00 00 00       	call   d973 <s453+0x1d>
    d973:	f3 0f 10 15 00 00 00 	movss  xmm2,DWORD PTR [rip+0x0]        # d97b <s453+0x25>
    d97a:	00 
    d97b:	48 c7 c0 00 0c fe ff 	mov    rax,0xfffffffffffe0c00
    d982:	0f 57 c0             	xorps  xmm0,xmm0
    d985:	f3 0f 58 c2          	addss  xmm0,xmm2
    d989:	f3 0f 10 88 00 00 00 	movss  xmm1,DWORD PTR [rax+0x0]
    d990:	00 
    d991:	f3 0f 59 c8          	mulss  xmm1,xmm0
    d995:	f3 0f 11 88 00 00 00 	movss  DWORD PTR [rax+0x0],xmm1
    d99c:	00 
    d99d:	f3 0f 58 c2          	addss  xmm0,xmm2
    d9a1:	f3 0f 10 88 00 00 00 	movss  xmm1,DWORD PTR [rax+0x0]
    d9a8:	00 
    d9a9:	f3 0f 59 c8          	mulss  xmm1,xmm0
    d9ad:	f3 0f 11 88 00 00 00 	movss  DWORD PTR [rax+0x0],xmm1
    d9b4:	00 
    d9b5:	f3 0f 58 c2          	addss  xmm0,xmm2
    d9b9:	f3 0f 10 88 00 00 00 	movss  xmm1,DWORD PTR [rax+0x0]
    d9c0:	00 
    d9c1:	f3 0f 59 c8          	mulss  xmm1,xmm0
    d9c5:	f3 0f 11 88 00 00 00 	movss  DWORD PTR [rax+0x0],xmm1
    d9cc:	00 
    d9cd:	f3 0f 58 c2          	addss  xmm0,xmm2
    d9d1:	f3 0f 10 88 00 00 00 	movss  xmm1,DWORD PTR [rax+0x0]
    d9d8:	00 
    d9d9:	f3 0f 59 c8          	mulss  xmm1,xmm0
    d9dd:	f3 0f 11 88 00 00 00 	movss  DWORD PTR [rax+0x0],xmm1
    d9e4:	00 
    d9e5:	f3 0f 58 c2          	addss  xmm0,xmm2
    d9e9:	f3 0f 10 88 00 00 00 	movss  xmm1,DWORD PTR [rax+0x0]
    d9f0:	00 
    d9f1:	f3 0f 59 c8          	mulss  xmm1,xmm0
    d9f5:	f3 0f 11 88 00 00 00 	movss  DWORD PTR [rax+0x0],xmm1
    d9fc:	00 
    d9fd:	f3 0f 58 c2          	addss  xmm0,xmm2
    da01:	f3 0f 10 88 00 00 00 	movss  xmm1,DWORD PTR [rax+0x0]
    da08:	00 
    da09:	f3 0f 59 c8          	mulss  xmm1,xmm0
    da0d:	f3 0f 11 88 00 00 00 	movss  DWORD PTR [rax+0x0],xmm1
    da14:	00 
    da15:	f3 0f 58 c2          	addss  xmm0,xmm2
    da19:	f3 0f 10 88 00 00 00 	movss  xmm1,DWORD PTR [rax+0x0]
    da20:	00 
    da21:	f3 0f 59 c8          	mulss  xmm1,xmm0
    da25:	f3 0f 11 88 00 00 00 	movss  DWORD PTR [rax+0x0],xmm1
    da2c:	00 
    da2d:	f3 0f 58 c2          	addss  xmm0,xmm2
    da31:	f3 0f 10 88 00 00 00 	movss  xmm1,DWORD PTR [rax+0x0]
    da38:	00 
    da39:	f3 0f 59 c8          	mulss  xmm1,xmm0
    da3d:	f3 0f 11 88 00 00 00 	movss  DWORD PTR [rax+0x0],xmm1
    da44:	00 
    da45:	48 83 c0 20          	add    rax,0x20
    da49:	0f 85 36 ff ff ff    	jne    d985 <s453+0x2f>
    da4f:	bf 00 00 00 00       	mov    edi,0x0
    da54:	be 00 00 00 00       	mov    esi,0x0
    da59:	ba 00 00 00 00       	mov    edx,0x0
    da5e:	b9 00 00 00 00       	mov    ecx,0x0
    da63:	41 b8 00 00 00 00    	mov    r8d,0x0
    da69:	41 b9 00 00 00 00    	mov    r9d,0x0
    da6f:	0f 57 c0             	xorps  xmm0,xmm0
    da72:	68 00 00 00 00       	push   0x0
    da77:	68 00 00 00 00       	push   0x0
    da7c:	e8 00 00 00 00       	call   da81 <s453+0x12b>
    da81:	f3 0f 10 15 00 00 00 	movss  xmm2,DWORD PTR [rip+0x0]        # da89 <s453+0x133>
    da88:	00 
    da89:	48 83 c4 10          	add    rsp,0x10
    da8d:	ff c3                	inc    ebx
    da8f:	81 fb 40 0d 03 00    	cmp    ebx,0x30d40
    da95:	0f 85 e0 fe ff ff    	jne    d97b <s453+0x25>
    da9b:	49 83 c6 10          	add    r14,0x10
    da9f:	4c 89 f7             	mov    rdi,r14
    daa2:	31 f6                	xor    esi,esi
    daa4:	e8 00 00 00 00       	call   daa9 <s453+0x153>
    daa9:	bf 00 00 00 00       	mov    edi,0x0
    daae:	48 83 c4 08          	add    rsp,0x8
    dab2:	5b                   	pop    rbx
    dab3:	41 5e                	pop    r14
    dab5:	e9 00 00 00 00       	jmp    daba <s471s>

000000000000daba <s471s>:
    daba:	31 c0                	xor    eax,eax
    dabc:	c3                   	ret    

000000000000dabd <s471>:
    dabd:	41 56                	push   r14
    dabf:	53                   	push   rbx
    dac0:	50                   	push   rax
    dac1:	49 89 fe             	mov    r14,rdi
    dac4:	bf 00 00 00 00       	mov    edi,0x0
    dac9:	e8 00 00 00 00       	call   dace <s471+0x11>
    dace:	31 db                	xor    ebx,ebx
    dad0:	4c 89 f7             	mov    rdi,r14
    dad3:	31 f6                	xor    esi,esi
    dad5:	e8 00 00 00 00       	call   dada <s471+0x1d>
    dada:	48 c7 c0 00 0c fe ff 	mov    rax,0xfffffffffffe0c00
    dae1:	f3 0f 10 80 00 00 00 	movss  xmm0,DWORD PTR [rax+0x0]
    dae8:	00 
    dae9:	0f 28 c8             	movaps xmm1,xmm0
    daec:	f3 0f 59 c8          	mulss  xmm1,xmm0
    daf0:	f3 0f 58 88 00 00 00 	addss  xmm1,DWORD PTR [rax+0x0]
    daf7:	00 
    daf8:	f3 0f 11 88 00 00 00 	movss  DWORD PTR [rax+0x0],xmm1
    daff:	00 
    db00:	f3 0f 59 80 00 00 00 	mulss  xmm0,DWORD PTR [rax+0x0]
    db07:	00 
    db08:	f3 0f 58 80 00 00 00 	addss  xmm0,DWORD PTR [rax+0x0]
    db0f:	00 
    db10:	f3 0f 11 80 00 00 00 	movss  DWORD PTR [rax+0x0],xmm0
    db17:	00 
    db18:	48 83 c0 04          	add    rax,0x4
    db1c:	75 c3                	jne    dae1 <s471+0x24>
    db1e:	bf 00 00 00 00       	mov    edi,0x0
    db23:	be 00 00 00 00       	mov    esi,0x0
    db28:	ba 00 00 00 00       	mov    edx,0x0
    db2d:	b9 00 00 00 00       	mov    ecx,0x0
    db32:	41 b8 00 00 00 00    	mov    r8d,0x0
    db38:	41 b9 00 00 00 00    	mov    r9d,0x0
    db3e:	0f 57 c0             	xorps  xmm0,xmm0
    db41:	68 00 00 00 00       	push   0x0
    db46:	68 00 00 00 00       	push   0x0
    db4b:	e8 00 00 00 00       	call   db50 <s471+0x93>
    db50:	48 83 c4 10          	add    rsp,0x10
    db54:	ff c3                	inc    ebx
    db56:	81 fb 50 c3 00 00    	cmp    ebx,0xc350
    db5c:	0f 85 78 ff ff ff    	jne    dada <s471+0x1d>
    db62:	49 83 c6 10          	add    r14,0x10
    db66:	4c 89 f7             	mov    rdi,r14
    db69:	31 f6                	xor    esi,esi
    db6b:	e8 00 00 00 00       	call   db70 <s471+0xb3>
    db70:	bf 00 00 00 00       	mov    edi,0x0
    db75:	48 83 c4 08          	add    rsp,0x8
    db79:	5b                   	pop    rbx
    db7a:	41 5e                	pop    r14
    db7c:	e9 00 00 00 00       	jmp    db81 <s481>

000000000000db81 <s481>:
    db81:	41 56                	push   r14
    db83:	53                   	push   rbx
    db84:	50                   	push   rax
    db85:	49 89 fe             	mov    r14,rdi
    db88:	bf 00 00 00 00       	mov    edi,0x0
    db8d:	e8 00 00 00 00       	call   db92 <s481+0x11>
    db92:	31 db                	xor    ebx,ebx
    db94:	4c 89 f7             	mov    rdi,r14
    db97:	31 f6                	xor    esi,esi
    db99:	e8 00 00 00 00       	call   db9e <s481+0x1d>
    db9e:	0f 57 c9             	xorps  xmm1,xmm1
    dba1:	48 c7 c0 00 0c fe ff 	mov    rax,0xfffffffffffe0c00
    dba8:	0f 2e 88 00 00 00 00 	ucomiss xmm1,DWORD PTR [rax+0x0]
    dbaf:	0f 87 cb 01 00 00    	ja     dd80 <s481+0x1ff>
    dbb5:	f3 0f 10 80 00 00 00 	movss  xmm0,DWORD PTR [rax+0x0]
    dbbc:	00 
    dbbd:	f3 0f 59 80 00 00 00 	mulss  xmm0,DWORD PTR [rax+0x0]
    dbc4:	00 
    dbc5:	f3 0f 58 80 00 00 00 	addss  xmm0,DWORD PTR [rax+0x0]
    dbcc:	00 
    dbcd:	f3 0f 11 80 00 00 00 	movss  DWORD PTR [rax+0x0],xmm0
    dbd4:	00 
    dbd5:	0f 2e 88 00 00 00 00 	ucomiss xmm1,DWORD PTR [rax+0x0]
    dbdc:	0f 87 9e 01 00 00    	ja     dd80 <s481+0x1ff>
    dbe2:	f3 0f 10 80 00 00 00 	movss  xmm0,DWORD PTR [rax+0x0]
    dbe9:	00 
    dbea:	f3 0f 59 80 00 00 00 	mulss  xmm0,DWORD PTR [rax+0x0]
    dbf1:	00 
    dbf2:	f3 0f 58 80 00 00 00 	addss  xmm0,DWORD PTR [rax+0x0]
    dbf9:	00 
    dbfa:	f3 0f 11 80 00 00 00 	movss  DWORD PTR [rax+0x0],xmm0
    dc01:	00 
    dc02:	0f 2e 88 00 00 00 00 	ucomiss xmm1,DWORD PTR [rax+0x0]
    dc09:	0f 87 71 01 00 00    	ja     dd80 <s481+0x1ff>
    dc0f:	f3 0f 10 80 00 00 00 	movss  xmm0,DWORD PTR [rax+0x0]
    dc16:	00 
    dc17:	f3 0f 59 80 00 00 00 	mulss  xmm0,DWORD PTR [rax+0x0]
    dc1e:	00 
    dc1f:	f3 0f 58 80 00 00 00 	addss  xmm0,DWORD PTR [rax+0x0]
    dc26:	00 
    dc27:	f3 0f 11 80 00 00 00 	movss  DWORD PTR [rax+0x0],xmm0
    dc2e:	00 
    dc2f:	0f 2e 88 00 00 00 00 	ucomiss xmm1,DWORD PTR [rax+0x0]
    dc36:	0f 87 44 01 00 00    	ja     dd80 <s481+0x1ff>
    dc3c:	f3 0f 10 80 00 00 00 	movss  xmm0,DWORD PTR [rax+0x0]
    dc43:	00 
    dc44:	f3 0f 59 80 00 00 00 	mulss  xmm0,DWORD PTR [rax+0x0]
    dc4b:	00 
    dc4c:	f3 0f 58 80 00 00 00 	addss  xmm0,DWORD PTR [rax+0x0]
    dc53:	00 
    dc54:	f3 0f 11 80 00 00 00 	movss  DWORD PTR [rax+0x0],xmm0
    dc5b:	00 
    dc5c:	0f 2e 88 00 00 00 00 	ucomiss xmm1,DWORD PTR [rax+0x0]
    dc63:	0f 87 17 01 00 00    	ja     dd80 <s481+0x1ff>
    dc69:	f3 0f 10 80 00 00 00 	movss  xmm0,DWORD PTR [rax+0x0]
    dc70:	00 
    dc71:	f3 0f 59 80 00 00 00 	mulss  xmm0,DWORD PTR [rax+0x0]
    dc78:	00 
    dc79:	f3 0f 58 80 00 00 00 	addss  xmm0,DWORD PTR [rax+0x0]
    dc80:	00 
    dc81:	f3 0f 11 80 00 00 00 	movss  DWORD PTR [rax+0x0],xmm0
    dc88:	00 
    dc89:	0f 2e 88 00 00 00 00 	ucomiss xmm1,DWORD PTR [rax+0x0]
    dc90:	0f 87 ea 00 00 00    	ja     dd80 <s481+0x1ff>
    dc96:	f3 0f 10 80 00 00 00 	movss  xmm0,DWORD PTR [rax+0x0]
    dc9d:	00 
    dc9e:	f3 0f 59 80 00 00 00 	mulss  xmm0,DWORD PTR [rax+0x0]
    dca5:	00 
    dca6:	f3 0f 58 80 00 00 00 	addss  xmm0,DWORD PTR [rax+0x0]
    dcad:	00 
    dcae:	f3 0f 11 80 00 00 00 	movss  DWORD PTR [rax+0x0],xmm0
    dcb5:	00 
    dcb6:	0f 2e 88 00 00 00 00 	ucomiss xmm1,DWORD PTR [rax+0x0]
    dcbd:	0f 87 bd 00 00 00    	ja     dd80 <s481+0x1ff>
    dcc3:	f3 0f 10 80 00 00 00 	movss  xmm0,DWORD PTR [rax+0x0]
    dcca:	00 
    dccb:	f3 0f 59 80 00 00 00 	mulss  xmm0,DWORD PTR [rax+0x0]
    dcd2:	00 
    dcd3:	f3 0f 58 80 00 00 00 	addss  xmm0,DWORD PTR [rax+0x0]
    dcda:	00 
    dcdb:	f3 0f 11 80 00 00 00 	movss  DWORD PTR [rax+0x0],xmm0
    dce2:	00 
    dce3:	0f 2e 88 00 00 00 00 	ucomiss xmm1,DWORD PTR [rax+0x0]
    dcea:	0f 87 90 00 00 00    	ja     dd80 <s481+0x1ff>
    dcf0:	f3 0f 10 80 00 00 00 	movss  xmm0,DWORD PTR [rax+0x0]
    dcf7:	00 
    dcf8:	f3 0f 59 80 00 00 00 	mulss  xmm0,DWORD PTR [rax+0x0]
    dcff:	00 
    dd00:	f3 0f 58 80 00 00 00 	addss  xmm0,DWORD PTR [rax+0x0]
    dd07:	00 
    dd08:	f3 0f 11 80 00 00 00 	movss  DWORD PTR [rax+0x0],xmm0
    dd0f:	00 
    dd10:	48 83 c0 20          	add    rax,0x20
    dd14:	0f 85 8e fe ff ff    	jne    dba8 <s481+0x27>
    dd1a:	bf 00 00 00 00       	mov    edi,0x0
    dd1f:	be 00 00 00 00       	mov    esi,0x0
    dd24:	ba 00 00 00 00       	mov    edx,0x0
    dd29:	b9 00 00 00 00       	mov    ecx,0x0
    dd2e:	41 b8 00 00 00 00    	mov    r8d,0x0
    dd34:	41 b9 00 00 00 00    	mov    r9d,0x0
    dd3a:	0f 57 c0             	xorps  xmm0,xmm0
    dd3d:	68 00 00 00 00       	push   0x0
    dd42:	68 00 00 00 00       	push   0x0
    dd47:	e8 00 00 00 00       	call   dd4c <s481+0x1cb>
    dd4c:	0f 57 c9             	xorps  xmm1,xmm1
    dd4f:	48 83 c4 10          	add    rsp,0x10
    dd53:	ff c3                	inc    ebx
    dd55:	81 fb a0 86 01 00    	cmp    ebx,0x186a0
    dd5b:	0f 85 40 fe ff ff    	jne    dba1 <s481+0x20>
    dd61:	49 83 c6 10          	add    r14,0x10
    dd65:	4c 89 f7             	mov    rdi,r14
    dd68:	31 f6                	xor    esi,esi
    dd6a:	e8 00 00 00 00       	call   dd6f <s481+0x1ee>
    dd6f:	bf 00 00 00 00       	mov    edi,0x0
    dd74:	48 83 c4 08          	add    rsp,0x8
    dd78:	5b                   	pop    rbx
    dd79:	41 5e                	pop    r14
    dd7b:	e9 00 00 00 00       	jmp    dd80 <s481+0x1ff>
    dd80:	31 ff                	xor    edi,edi
    dd82:	e8 00 00 00 00       	call   dd87 <s482>

000000000000dd87 <s482>:
    dd87:	41 56                	push   r14
    dd89:	53                   	push   rbx
    dd8a:	50                   	push   rax
    dd8b:	49 89 fe             	mov    r14,rdi
    dd8e:	bf 00 00 00 00       	mov    edi,0x0
    dd93:	e8 00 00 00 00       	call   dd98 <s482+0x11>
    dd98:	31 db                	xor    ebx,ebx
    dd9a:	4c 89 f7             	mov    rdi,r14
    dd9d:	31 f6                	xor    esi,esi
    dd9f:	e8 00 00 00 00       	call   dda4 <s482+0x1d>
    dda4:	48 c7 c0 00 0c fe ff 	mov    rax,0xfffffffffffe0c00
    ddab:	f3 0f 10 80 00 00 00 	movss  xmm0,DWORD PTR [rax+0x0]
    ddb2:	00 
    ddb3:	f3 0f 10 88 00 00 00 	movss  xmm1,DWORD PTR [rax+0x0]
    ddba:	00 
    ddbb:	0f 2e c8             	ucomiss xmm1,xmm0
    ddbe:	f3 0f 59 c1          	mulss  xmm0,xmm1
    ddc2:	f3 0f 58 80 00 00 00 	addss  xmm0,DWORD PTR [rax+0x0]
    ddc9:	00 
    ddca:	f3 0f 11 80 00 00 00 	movss  DWORD PTR [rax+0x0],xmm0
    ddd1:	00 
    ddd2:	0f 87 39 01 00 00    	ja     df11 <s482+0x18a>
    ddd8:	f3 0f 10 80 00 00 00 	movss  xmm0,DWORD PTR [rax+0x0]
    dddf:	00 
    dde0:	f3 0f 10 88 00 00 00 	movss  xmm1,DWORD PTR [rax+0x0]
    dde7:	00 
    dde8:	0f 2e c8             	ucomiss xmm1,xmm0
    ddeb:	f3 0f 59 c1          	mulss  xmm0,xmm1
    ddef:	f3 0f 58 80 00 00 00 	addss  xmm0,DWORD PTR [rax+0x0]
    ddf6:	00 
    ddf7:	f3 0f 11 80 00 00 00 	movss  DWORD PTR [rax+0x0],xmm0
    ddfe:	00 
    ddff:	0f 87 0c 01 00 00    	ja     df11 <s482+0x18a>
    de05:	f3 0f 10 80 00 00 00 	movss  xmm0,DWORD PTR [rax+0x0]
    de0c:	00 
    de0d:	f3 0f 10 88 00 00 00 	movss  xmm1,DWORD PTR [rax+0x0]
    de14:	00 
    de15:	0f 2e c8             	ucomiss xmm1,xmm0
    de18:	f3 0f 59 c1          	mulss  xmm0,xmm1
    de1c:	f3 0f 58 80 00 00 00 	addss  xmm0,DWORD PTR [rax+0x0]
    de23:	00 
    de24:	f3 0f 11 80 00 00 00 	movss  DWORD PTR [rax+0x0],xmm0
    de2b:	00 
    de2c:	0f 87 df 00 00 00    	ja     df11 <s482+0x18a>
    de32:	f3 0f 10 80 00 00 00 	movss  xmm0,DWORD PTR [rax+0x0]
    de39:	00 
    de3a:	f3 0f 10 88 00 00 00 	movss  xmm1,DWORD PTR [rax+0x0]
    de41:	00 
    de42:	0f 2e c8             	ucomiss xmm1,xmm0
    de45:	f3 0f 59 c1          	mulss  xmm0,xmm1
    de49:	f3 0f 58 80 00 00 00 	addss  xmm0,DWORD PTR [rax+0x0]
    de50:	00 
    de51:	f3 0f 11 80 00 00 00 	movss  DWORD PTR [rax+0x0],xmm0
    de58:	00 
    de59:	0f 87 b2 00 00 00    	ja     df11 <s482+0x18a>
    de5f:	f3 0f 10 80 00 00 00 	movss  xmm0,DWORD PTR [rax+0x0]
    de66:	00 
    de67:	f3 0f 10 88 00 00 00 	movss  xmm1,DWORD PTR [rax+0x0]
    de6e:	00 
    de6f:	0f 2e c8             	ucomiss xmm1,xmm0
    de72:	f3 0f 59 c1          	mulss  xmm0,xmm1
    de76:	f3 0f 58 80 00 00 00 	addss  xmm0,DWORD PTR [rax+0x0]
    de7d:	00 
    de7e:	f3 0f 11 80 00 00 00 	movss  DWORD PTR [rax+0x0],xmm0
    de85:	00 
    de86:	0f 87 85 00 00 00    	ja     df11 <s482+0x18a>
    de8c:	f3 0f 10 80 00 00 00 	movss  xmm0,DWORD PTR [rax+0x0]
    de93:	00 
    de94:	f3 0f 10 88 00 00 00 	movss  xmm1,DWORD PTR [rax+0x0]
    de9b:	00 
    de9c:	0f 2e c8             	ucomiss xmm1,xmm0
    de9f:	f3 0f 59 c1          	mulss  xmm0,xmm1
    dea3:	f3 0f 58 80 00 00 00 	addss  xmm0,DWORD PTR [rax+0x0]
    deaa:	00 
    deab:	f3 0f 11 80 00 00 00 	movss  DWORD PTR [rax+0x0],xmm0
    deb2:	00 
    deb3:	77 5c                	ja     df11 <s482+0x18a>
    deb5:	f3 0f 10 80 00 00 00 	movss  xmm0,DWORD PTR [rax+0x0]
    debc:	00 
    debd:	f3 0f 10 88 00 00 00 	movss  xmm1,DWORD PTR [rax+0x0]
    dec4:	00 
    dec5:	0f 2e c8             	ucomiss xmm1,xmm0
    dec8:	f3 0f 59 c1          	mulss  xmm0,xmm1
    decc:	f3 0f 58 80 00 00 00 	addss  xmm0,DWORD PTR [rax+0x0]
    ded3:	00 
    ded4:	f3 0f 11 80 00 00 00 	movss  DWORD PTR [rax+0x0],xmm0
    dedb:	00 
    dedc:	77 33                	ja     df11 <s482+0x18a>
    dede:	f3 0f 10 80 00 00 00 	movss  xmm0,DWORD PTR [rax+0x0]
    dee5:	00 
    dee6:	f3 0f 10 88 00 00 00 	movss  xmm1,DWORD PTR [rax+0x0]
    deed:	00 
    deee:	0f 2e c8             	ucomiss xmm1,xmm0
    def1:	f3 0f 59 c1          	mulss  xmm0,xmm1
    def5:	f3 0f 58 80 00 00 00 	addss  xmm0,DWORD PTR [rax+0x0]
    defc:	00 
    defd:	f3 0f 11 80 00 00 00 	movss  DWORD PTR [rax+0x0],xmm0
    df04:	00 
    df05:	77 0a                	ja     df11 <s482+0x18a>
    df07:	48 83 c0 20          	add    rax,0x20
    df0b:	0f 85 9a fe ff ff    	jne    ddab <s482+0x24>
    df11:	bf 00 00 00 00       	mov    edi,0x0
    df16:	be 00 00 00 00       	mov    esi,0x0
    df1b:	ba 00 00 00 00       	mov    edx,0x0
    df20:	b9 00 00 00 00       	mov    ecx,0x0
    df25:	41 b8 00 00 00 00    	mov    r8d,0x0
    df2b:	41 b9 00 00 00 00    	mov    r9d,0x0
    df31:	0f 57 c0             	xorps  xmm0,xmm0
    df34:	68 00 00 00 00       	push   0x0
    df39:	68 00 00 00 00       	push   0x0
    df3e:	e8 00 00 00 00       	call   df43 <s482+0x1bc>
    df43:	48 83 c4 10          	add    rsp,0x10
    df47:	ff c3                	inc    ebx
    df49:	81 fb a0 86 01 00    	cmp    ebx,0x186a0
    df4f:	0f 85 4f fe ff ff    	jne    dda4 <s482+0x1d>
    df55:	49 83 c6 10          	add    r14,0x10
    df59:	4c 89 f7             	mov    rdi,r14
    df5c:	31 f6                	xor    esi,esi
    df5e:	e8 00 00 00 00       	call   df63 <s482+0x1dc>
    df63:	bf 00 00 00 00       	mov    edi,0x0
    df68:	48 83 c4 08          	add    rsp,0x8
    df6c:	5b                   	pop    rbx
    df6d:	41 5e                	pop    r14
    df6f:	e9 00 00 00 00       	jmp    df74 <s491>

000000000000df74 <s491>:
    df74:	41 57                	push   r15
    df76:	41 56                	push   r14
    df78:	53                   	push   rbx
    df79:	49 89 fe             	mov    r14,rdi
    df7c:	48 8b 5f 20          	mov    rbx,QWORD PTR [rdi+0x20]
    df80:	bf 00 00 00 00       	mov    edi,0x0
    df85:	e8 00 00 00 00       	call   df8a <s491+0x16>
    df8a:	45 31 ff             	xor    r15d,r15d
    df8d:	4c 89 f7             	mov    rdi,r14
    df90:	31 f6                	xor    esi,esi
    df92:	e8 00 00 00 00       	call   df97 <s491+0x23>
    df97:	31 c0                	xor    eax,eax
    df99:	f3 0f 10 80 00 00 00 	movss  xmm0,DWORD PTR [rax+0x0]
    dfa0:	00 
    dfa1:	f3 0f 59 80 00 00 00 	mulss  xmm0,DWORD PTR [rax+0x0]
    dfa8:	00 
    dfa9:	f3 0f 58 80 00 00 00 	addss  xmm0,DWORD PTR [rax+0x0]
    dfb0:	00 
    dfb1:	48 63 0c 03          	movsxd rcx,DWORD PTR [rbx+rax*1]
    dfb5:	f3 0f 11 04 8d 00 00 	movss  DWORD PTR [rcx*4+0x0],xmm0
    dfbc:	00 00 
    dfbe:	48 83 c0 04          	add    rax,0x4
    dfc2:	48 3d 00 f4 01 00    	cmp    rax,0x1f400
    dfc8:	75 cf                	jne    df99 <s491+0x25>
    dfca:	bf 00 00 00 00       	mov    edi,0x0
    dfcf:	be 00 00 00 00       	mov    esi,0x0
    dfd4:	ba 00 00 00 00       	mov    edx,0x0
    dfd9:	b9 00 00 00 00       	mov    ecx,0x0
    dfde:	41 b8 00 00 00 00    	mov    r8d,0x0
    dfe4:	41 b9 00 00 00 00    	mov    r9d,0x0
    dfea:	0f 57 c0             	xorps  xmm0,xmm0
    dfed:	68 00 00 00 00       	push   0x0
    dff2:	68 00 00 00 00       	push   0x0
    dff7:	e8 00 00 00 00       	call   dffc <s491+0x88>
    dffc:	48 83 c4 10          	add    rsp,0x10
    e000:	41 ff c7             	inc    r15d
    e003:	41 81 ff a0 86 01 00 	cmp    r15d,0x186a0
    e00a:	75 8b                	jne    df97 <s491+0x23>
    e00c:	49 83 c6 10          	add    r14,0x10
    e010:	4c 89 f7             	mov    rdi,r14
    e013:	31 f6                	xor    esi,esi
    e015:	e8 00 00 00 00       	call   e01a <s491+0xa6>
    e01a:	bf 00 00 00 00       	mov    edi,0x0
    e01f:	5b                   	pop    rbx
    e020:	41 5e                	pop    r14
    e022:	41 5f                	pop    r15
    e024:	e9 00 00 00 00       	jmp    e029 <s4112>

000000000000e029 <s4112>:
    e029:	41 57                	push   r15
    e02b:	41 56                	push   r14
    e02d:	53                   	push   rbx
    e02e:	48 83 ec 10          	sub    rsp,0x10
    e032:	49 89 fe             	mov    r14,rdi
    e035:	48 8b 47 20          	mov    rax,QWORD PTR [rdi+0x20]
    e039:	48 8b 18             	mov    rbx,QWORD PTR [rax]
    e03c:	f3 0f 10 40 08       	movss  xmm0,DWORD PTR [rax+0x8]
    e041:	f3 0f 11 44 24 0c    	movss  DWORD PTR [rsp+0xc],xmm0
    e047:	bf 00 00 00 00       	mov    edi,0x0
    e04c:	e8 00 00 00 00       	call   e051 <s4112+0x28>
    e051:	45 31 ff             	xor    r15d,r15d
    e054:	4c 89 f7             	mov    rdi,r14
    e057:	31 f6                	xor    esi,esi
    e059:	e8 00 00 00 00       	call   e05e <s4112+0x35>
    e05e:	31 c0                	xor    eax,eax
    e060:	f3 0f 10 4c 24 0c    	movss  xmm1,DWORD PTR [rsp+0xc]
    e066:	48 63 0c 03          	movsxd rcx,DWORD PTR [rbx+rax*1]
    e06a:	f3 0f 10 04 8d 00 00 	movss  xmm0,DWORD PTR [rcx*4+0x0]
    e071:	00 00 
    e073:	f3 0f 59 c1          	mulss  xmm0,xmm1
    e077:	f3 0f 58 80 00 00 00 	addss  xmm0,DWORD PTR [rax+0x0]
    e07e:	00 
    e07f:	f3 0f 11 80 00 00 00 	movss  DWORD PTR [rax+0x0],xmm0
    e086:	00 
    e087:	48 83 c0 04          	add    rax,0x4
    e08b:	48 3d 00 f4 01 00    	cmp    rax,0x1f400
    e091:	75 d3                	jne    e066 <s4112+0x3d>
    e093:	bf 00 00 00 00       	mov    edi,0x0
    e098:	be 00 00 00 00       	mov    esi,0x0
    e09d:	ba 00 00 00 00       	mov    edx,0x0
    e0a2:	b9 00 00 00 00       	mov    ecx,0x0
    e0a7:	41 b8 00 00 00 00    	mov    r8d,0x0
    e0ad:	41 b9 00 00 00 00    	mov    r9d,0x0
    e0b3:	0f 57 c0             	xorps  xmm0,xmm0
    e0b6:	68 00 00 00 00       	push   0x0
    e0bb:	68 00 00 00 00       	push   0x0
    e0c0:	e8 00 00 00 00       	call   e0c5 <s4112+0x9c>
    e0c5:	48 83 c4 10          	add    rsp,0x10
    e0c9:	41 ff c7             	inc    r15d
    e0cc:	41 81 ff a0 86 01 00 	cmp    r15d,0x186a0
    e0d3:	75 89                	jne    e05e <s4112+0x35>
    e0d5:	49 83 c6 10          	add    r14,0x10
    e0d9:	4c 89 f7             	mov    rdi,r14
    e0dc:	31 f6                	xor    esi,esi
    e0de:	e8 00 00 00 00       	call   e0e3 <s4112+0xba>
    e0e3:	bf 00 00 00 00       	mov    edi,0x0
    e0e8:	48 83 c4 10          	add    rsp,0x10
    e0ec:	5b                   	pop    rbx
    e0ed:	41 5e                	pop    r14
    e0ef:	41 5f                	pop    r15
    e0f1:	e9 00 00 00 00       	jmp    e0f6 <s4113>

000000000000e0f6 <s4113>:
    e0f6:	41 57                	push   r15
    e0f8:	41 56                	push   r14
    e0fa:	53                   	push   rbx
    e0fb:	49 89 fe             	mov    r14,rdi
    e0fe:	48 8b 5f 20          	mov    rbx,QWORD PTR [rdi+0x20]
    e102:	bf 00 00 00 00       	mov    edi,0x0
    e107:	e8 00 00 00 00       	call   e10c <s4113+0x16>
    e10c:	45 31 ff             	xor    r15d,r15d
    e10f:	4c 89 f7             	mov    rdi,r14
    e112:	31 f6                	xor    esi,esi
    e114:	e8 00 00 00 00       	call   e119 <s4113+0x23>
    e119:	31 c0                	xor    eax,eax
    e11b:	48 63 0c 03          	movsxd rcx,DWORD PTR [rbx+rax*1]
    e11f:	f3 0f 10 04 8d 00 00 	movss  xmm0,DWORD PTR [rcx*4+0x0]
    e126:	00 00 
    e128:	f3 0f 58 80 00 00 00 	addss  xmm0,DWORD PTR [rax+0x0]
    e12f:	00 
    e130:	f3 0f 11 04 8d 00 00 	movss  DWORD PTR [rcx*4+0x0],xmm0
    e137:	00 00 
    e139:	48 83 c0 04          	add    rax,0x4
    e13d:	48 3d 00 f4 01 00    	cmp    rax,0x1f400
    e143:	75 d6                	jne    e11b <s4113+0x25>
    e145:	bf 00 00 00 00       	mov    edi,0x0
    e14a:	be 00 00 00 00       	mov    esi,0x0
    e14f:	ba 00 00 00 00       	mov    edx,0x0
    e154:	b9 00 00 00 00       	mov    ecx,0x0
    e159:	41 b8 00 00 00 00    	mov    r8d,0x0
    e15f:	41 b9 00 00 00 00    	mov    r9d,0x0
    e165:	0f 57 c0             	xorps  xmm0,xmm0
    e168:	68 00 00 00 00       	push   0x0
    e16d:	68 00 00 00 00       	push   0x0
    e172:	e8 00 00 00 00       	call   e177 <s4113+0x81>
    e177:	48 83 c4 10          	add    rsp,0x10
    e17b:	41 ff c7             	inc    r15d
    e17e:	41 81 ff a0 86 01 00 	cmp    r15d,0x186a0
    e185:	75 92                	jne    e119 <s4113+0x23>
    e187:	49 83 c6 10          	add    r14,0x10
    e18b:	4c 89 f7             	mov    rdi,r14
    e18e:	31 f6                	xor    esi,esi
    e190:	e8 00 00 00 00       	call   e195 <s4113+0x9f>
    e195:	bf 00 00 00 00       	mov    edi,0x0
    e19a:	5b                   	pop    rbx
    e19b:	41 5e                	pop    r14
    e19d:	41 5f                	pop    r15
    e19f:	e9 00 00 00 00       	jmp    e1a4 <s4114>

000000000000e1a4 <s4114>:
    e1a4:	55                   	push   rbp
    e1a5:	41 57                	push   r15
    e1a7:	41 56                	push   r14
    e1a9:	41 55                	push   r13
    e1ab:	41 54                	push   r12
    e1ad:	53                   	push   rbx
    e1ae:	50                   	push   rax
    e1af:	48 89 fd             	mov    rbp,rdi
    e1b2:	48 8b 47 20          	mov    rax,QWORD PTR [rdi+0x20]
    e1b6:	48 8b 18             	mov    rbx,QWORD PTR [rax]
    e1b9:	44 8b 78 08          	mov    r15d,DWORD PTR [rax+0x8]
    e1bd:	bf 00 00 00 00       	mov    edi,0x0
    e1c2:	e8 00 00 00 00       	call   e1c7 <s4114+0x23>
    e1c7:	45 31 e4             	xor    r12d,r12d
    e1ca:	48 89 2c 24          	mov    QWORD PTR [rsp],rbp
    e1ce:	48 89 ef             	mov    rdi,rbp
    e1d1:	31 f6                	xor    esi,esi
    e1d3:	e8 00 00 00 00       	call   e1d8 <s4114+0x34>
    e1d8:	41 8d 47 ff          	lea    eax,[r15-0x1]
    e1dc:	4c 63 e8             	movsxd r13,eax
    e1df:	bd ff 7c 00 00       	mov    ebp,0x7cff
    e1e4:	41 39 ed             	cmp    r13d,ebp
    e1e7:	41 0f 4f ed          	cmovg  ebp,r13d
    e1eb:	44 29 fd             	sub    ebp,r15d
    e1ee:	44 8d 75 02          	lea    r14d,[rbp+0x2]
    e1f2:	ff c5                	inc    ebp
    e1f4:	41 83 e6 07          	and    r14d,0x7
    e1f8:	41 81 ff 00 7d 00 00 	cmp    r15d,0x7d00
    e1ff:	0f 8f e1 01 00 00    	jg     e3e6 <s4114+0x242>
    e205:	4c 89 e8             	mov    rax,r13
    e208:	45 85 f6             	test   r14d,r14d
    e20b:	74 3c                	je     e249 <s4114+0xa5>
    e20d:	4c 89 e8             	mov    rax,r13
    e210:	44 89 f1             	mov    ecx,r14d
    e213:	ba ff 7c 00 00       	mov    edx,0x7cff
    e218:	2b 14 83             	sub    edx,DWORD PTR [rbx+rax*4]
    e21b:	48 63 d2             	movsxd rdx,edx
    e21e:	f3 0f 10 04 95 00 00 	movss  xmm0,DWORD PTR [rdx*4+0x0]
    e225:	00 00 
    e227:	f3 0f 59 04 85 00 00 	mulss  xmm0,DWORD PTR [rax*4+0x0]
    e22e:	00 00 
    e230:	f3 0f 58 04 85 00 00 	addss  xmm0,DWORD PTR [rax*4+0x0]
    e237:	00 00 
    e239:	f3 0f 11 04 85 00 00 	movss  DWORD PTR [rax*4+0x0],xmm0
    e240:	00 00 
    e242:	48 ff c0             	inc    rax
    e245:	ff c9                	dec    ecx
    e247:	75 ca                	jne    e213 <s4114+0x6f>
    e249:	83 fd 07             	cmp    ebp,0x7
    e24c:	0f 82 94 01 00 00    	jb     e3e6 <s4114+0x242>
    e252:	48 83 c0 f8          	add    rax,0xfffffffffffffff8
    e256:	b9 ff 7c 00 00       	mov    ecx,0x7cff
    e25b:	2b 4c 83 20          	sub    ecx,DWORD PTR [rbx+rax*4+0x20]
    e25f:	48 63 c9             	movsxd rcx,ecx
    e262:	f3 0f 10 04 8d 00 00 	movss  xmm0,DWORD PTR [rcx*4+0x0]
    e269:	00 00 
    e26b:	f3 0f 59 04 85 00 00 	mulss  xmm0,DWORD PTR [rax*4+0x0]
    e272:	00 00 
    e274:	f3 0f 58 04 85 00 00 	addss  xmm0,DWORD PTR [rax*4+0x0]
    e27b:	00 00 
    e27d:	f3 0f 11 04 85 00 00 	movss  DWORD PTR [rax*4+0x0],xmm0
    e284:	00 00 
    e286:	b9 ff 7c 00 00       	mov    ecx,0x7cff
    e28b:	2b 4c 83 24          	sub    ecx,DWORD PTR [rbx+rax*4+0x24]
    e28f:	48 63 c9             	movsxd rcx,ecx
    e292:	f3 0f 10 04 8d 00 00 	movss  xmm0,DWORD PTR [rcx*4+0x0]
    e299:	00 00 
    e29b:	f3 0f 59 04 85 00 00 	mulss  xmm0,DWORD PTR [rax*4+0x0]
    e2a2:	00 00 
    e2a4:	f3 0f 58 04 85 00 00 	addss  xmm0,DWORD PTR [rax*4+0x0]
    e2ab:	00 00 
    e2ad:	f3 0f 11 04 85 00 00 	movss  DWORD PTR [rax*4+0x0],xmm0
    e2b4:	00 00 
    e2b6:	b9 ff 7c 00 00       	mov    ecx,0x7cff
    e2bb:	2b 4c 83 28          	sub    ecx,DWORD PTR [rbx+rax*4+0x28]
    e2bf:	48 63 c9             	movsxd rcx,ecx
    e2c2:	f3 0f 10 04 8d 00 00 	movss  xmm0,DWORD PTR [rcx*4+0x0]
    e2c9:	00 00 
    e2cb:	f3 0f 59 04 85 00 00 	mulss  xmm0,DWORD PTR [rax*4+0x0]
    e2d2:	00 00 
    e2d4:	f3 0f 58 04 85 00 00 	addss  xmm0,DWORD PTR [rax*4+0x0]
    e2db:	00 00 
    e2dd:	f3 0f 11 04 85 00 00 	movss  DWORD PTR [rax*4+0x0],xmm0
    e2e4:	00 00 
    e2e6:	b9 ff 7c 00 00       	mov    ecx,0x7cff
    e2eb:	2b 4c 83 2c          	sub    ecx,DWORD PTR [rbx+rax*4+0x2c]
    e2ef:	48 63 c9             	movsxd rcx,ecx
    e2f2:	f3 0f 10 04 8d 00 00 	movss  xmm0,DWORD PTR [rcx*4+0x0]
    e2f9:	00 00 
    e2fb:	f3 0f 59 04 85 00 00 	mulss  xmm0,DWORD PTR [rax*4+0x0]
    e302:	00 00 
    e304:	f3 0f 58 04 85 00 00 	addss  xmm0,DWORD PTR [rax*4+0x0]
    e30b:	00 00 
    e30d:	f3 0f 11 04 85 00 00 	movss  DWORD PTR [rax*4+0x0],xmm0
    e314:	00 00 
    e316:	b9 ff 7c 00 00       	mov    ecx,0x7cff
    e31b:	2b 4c 83 30          	sub    ecx,DWORD PTR [rbx+rax*4+0x30]
    e31f:	48 63 c9             	movsxd rcx,ecx
    e322:	f3 0f 10 04 8d 00 00 	movss  xmm0,DWORD PTR [rcx*4+0x0]
    e329:	00 00 
    e32b:	f3 0f 59 04 85 00 00 	mulss  xmm0,DWORD PTR [rax*4+0x0]
    e332:	00 00 
    e334:	f3 0f 58 04 85 00 00 	addss  xmm0,DWORD PTR [rax*4+0x0]
    e33b:	00 00 
    e33d:	f3 0f 11 04 85 00 00 	movss  DWORD PTR [rax*4+0x0],xmm0
    e344:	00 00 
    e346:	b9 ff 7c 00 00       	mov    ecx,0x7cff
    e34b:	2b 4c 83 34          	sub    ecx,DWORD PTR [rbx+rax*4+0x34]
    e34f:	48 63 c9             	movsxd rcx,ecx
    e352:	f3 0f 10 04 8d 00 00 	movss  xmm0,DWORD PTR [rcx*4+0x0]
    e359:	00 00 
    e35b:	f3 0f 59 04 85 00 00 	mulss  xmm0,DWORD PTR [rax*4+0x0]
    e362:	00 00 
    e364:	f3 0f 58 04 85 00 00 	addss  xmm0,DWORD PTR [rax*4+0x0]
    e36b:	00 00 
    e36d:	f3 0f 11 04 85 00 00 	movss  DWORD PTR [rax*4+0x0],xmm0
    e374:	00 00 
    e376:	b9 ff 7c 00 00       	mov    ecx,0x7cff
    e37b:	2b 4c 83 38          	sub    ecx,DWORD PTR [rbx+rax*4+0x38]
    e37f:	48 63 c9             	movsxd rcx,ecx
    e382:	f3 0f 10 04 8d 00 00 	movss  xmm0,DWORD PTR [rcx*4+0x0]
    e389:	00 00 
    e38b:	f3 0f 59 04 85 00 00 	mulss  xmm0,DWORD PTR [rax*4+0x0]
    e392:	00 00 
    e394:	f3 0f 58 04 85 00 00 	addss  xmm0,DWORD PTR [rax*4+0x0]
    e39b:	00 00 
    e39d:	f3 0f 11 04 85 00 00 	movss  DWORD PTR [rax*4+0x0],xmm0
    e3a4:	00 00 
    e3a6:	b9 ff 7c 00 00       	mov    ecx,0x7cff
    e3ab:	2b 4c 83 3c          	sub    ecx,DWORD PTR [rbx+rax*4+0x3c]
    e3af:	48 63 c9             	movsxd rcx,ecx
    e3b2:	f3 0f 10 04 8d 00 00 	movss  xmm0,DWORD PTR [rcx*4+0x0]
    e3b9:	00 00 
    e3bb:	f3 0f 59 04 85 00 00 	mulss  xmm0,DWORD PTR [rax*4+0x0]
    e3c2:	00 00 
    e3c4:	f3 0f 58 04 85 00 00 	addss  xmm0,DWORD PTR [rax*4+0x0]
    e3cb:	00 00 
    e3cd:	f3 0f 11 04 85 00 00 	movss  DWORD PTR [rax*4+0x0],xmm0
    e3d4:	00 00 
    e3d6:	48 83 c0 08          	add    rax,0x8
    e3da:	48 3d f8 7c 00 00    	cmp    rax,0x7cf8
    e3e0:	0f 8c 70 fe ff ff    	jl     e256 <s4114+0xb2>
    e3e6:	bf 00 00 00 00       	mov    edi,0x0
    e3eb:	be 00 00 00 00       	mov    esi,0x0
    e3f0:	ba 00 00 00 00       	mov    edx,0x0
    e3f5:	b9 00 00 00 00       	mov    ecx,0x0
    e3fa:	41 b8 00 00 00 00    	mov    r8d,0x0
    e400:	41 b9 00 00 00 00    	mov    r9d,0x0
    e406:	0f 57 c0             	xorps  xmm0,xmm0
    e409:	68 00 00 00 00       	push   0x0
    e40e:	68 00 00 00 00       	push   0x0
    e413:	e8 00 00 00 00       	call   e418 <s4114+0x274>
    e418:	48 83 c4 10          	add    rsp,0x10
    e41c:	41 ff c4             	inc    r12d
    e41f:	41 81 fc a0 86 01 00 	cmp    r12d,0x186a0
    e426:	0f 85 cc fd ff ff    	jne    e1f8 <s4114+0x54>
    e42c:	48 8b 3c 24          	mov    rdi,QWORD PTR [rsp]
    e430:	48 83 c7 10          	add    rdi,0x10
    e434:	31 f6                	xor    esi,esi
    e436:	e8 00 00 00 00       	call   e43b <s4114+0x297>
    e43b:	bf 00 00 00 00       	mov    edi,0x0
    e440:	48 83 c4 08          	add    rsp,0x8
    e444:	5b                   	pop    rbx
    e445:	41 5c                	pop    r12
    e447:	41 5d                	pop    r13
    e449:	41 5e                	pop    r14
    e44b:	41 5f                	pop    r15
    e44d:	5d                   	pop    rbp
    e44e:	e9 00 00 00 00       	jmp    e453 <s4115>

000000000000e453 <s4115>:
    e453:	41 57                	push   r15
    e455:	41 56                	push   r14
    e457:	53                   	push   rbx
    e458:	48 83 ec 10          	sub    rsp,0x10
    e45c:	49 89 fe             	mov    r14,rdi
    e45f:	48 8b 5f 20          	mov    rbx,QWORD PTR [rdi+0x20]
    e463:	bf 00 00 00 00       	mov    edi,0x0
    e468:	e8 00 00 00 00       	call   e46d <s4115+0x1a>
    e46d:	45 31 ff             	xor    r15d,r15d
    e470:	4c 89 f7             	mov    rdi,r14
    e473:	31 f6                	xor    esi,esi
    e475:	e8 00 00 00 00       	call   e47a <s4115+0x27>
    e47a:	31 c0                	xor    eax,eax
    e47c:	0f 57 c9             	xorps  xmm1,xmm1
    e47f:	f3 0f 10 80 00 00 00 	movss  xmm0,DWORD PTR [rax+0x0]
    e486:	00 
    e487:	48 63 0c 03          	movsxd rcx,DWORD PTR [rbx+rax*1]
    e48b:	f3 0f 59 04 8d 00 00 	mulss  xmm0,DWORD PTR [rcx*4+0x0]
    e492:	00 00 
    e494:	f3 0f 58 c8          	addss  xmm1,xmm0
    e498:	48 83 c0 04          	add    rax,0x4
    e49c:	48 3d 00 f4 01 00    	cmp    rax,0x1f400
    e4a2:	75 db                	jne    e47f <s4115+0x2c>
    e4a4:	f3 0f 11 4c 24 0c    	movss  DWORD PTR [rsp+0xc],xmm1
    e4aa:	bf 00 00 00 00       	mov    edi,0x0
    e4af:	be 00 00 00 00       	mov    esi,0x0
    e4b4:	ba 00 00 00 00       	mov    edx,0x0
    e4b9:	b9 00 00 00 00       	mov    ecx,0x0
    e4be:	41 b8 00 00 00 00    	mov    r8d,0x0
    e4c4:	41 b9 00 00 00 00    	mov    r9d,0x0
    e4ca:	0f 57 c0             	xorps  xmm0,xmm0
    e4cd:	68 00 00 00 00       	push   0x0
    e4d2:	68 00 00 00 00       	push   0x0
    e4d7:	e8 00 00 00 00       	call   e4dc <s4115+0x89>
    e4dc:	48 83 c4 10          	add    rsp,0x10
    e4e0:	41 ff c7             	inc    r15d
    e4e3:	41 81 ff a0 86 01 00 	cmp    r15d,0x186a0
    e4ea:	75 8e                	jne    e47a <s4115+0x27>
    e4ec:	49 83 c6 10          	add    r14,0x10
    e4f0:	4c 89 f7             	mov    rdi,r14
    e4f3:	31 f6                	xor    esi,esi
    e4f5:	e8 00 00 00 00       	call   e4fa <s4115+0xa7>
    e4fa:	f3 0f 10 44 24 0c    	movss  xmm0,DWORD PTR [rsp+0xc]
    e500:	48 83 c4 10          	add    rsp,0x10
    e504:	5b                   	pop    rbx
    e505:	41 5e                	pop    r14
    e507:	41 5f                	pop    r15
    e509:	c3                   	ret    

000000000000e50a <s4116>:
    e50a:	41 57                	push   r15
    e50c:	41 56                	push   r14
    e50e:	41 55                	push   r13
    e510:	41 54                	push   r12
    e512:	53                   	push   rbx
    e513:	48 83 ec 10          	sub    rsp,0x10
    e517:	49 89 fe             	mov    r14,rdi
    e51a:	48 8b 47 20          	mov    rax,QWORD PTR [rdi+0x20]
    e51e:	4c 8b 38             	mov    r15,QWORD PTR [rax]
    e521:	4c 63 68 08          	movsxd r13,DWORD PTR [rax+0x8]
    e525:	48 63 58 0c          	movsxd rbx,DWORD PTR [rax+0xc]
    e529:	bf 00 00 00 00       	mov    edi,0x0
    e52e:	e8 00 00 00 00       	call   e533 <s4116+0x29>
    e533:	45 31 e4             	xor    r12d,r12d
    e536:	4c 89 f7             	mov    rdi,r14
    e539:	31 f6                	xor    esi,esi
    e53b:	e8 00 00 00 00       	call   e540 <s4116+0x36>
    e540:	49 ff cd             	dec    r13
    e543:	48 8d 1c 9d 00 00 00 	lea    rbx,[rbx*4+0x0]
    e54a:	00 
    e54b:	49 c1 e5 0a          	shl    r13,0xa
    e54f:	b8 07 00 00 00       	mov    eax,0x7
    e554:	0f 57 db             	xorps  xmm3,xmm3
    e557:	49 63 4c 87 e4       	movsxd rcx,DWORD PTR [r15+rax*4-0x1c]
    e55c:	f3 0f 10 44 83 e4    	movss  xmm0,DWORD PTR [rbx+rax*4-0x1c]
    e562:	f3 41 0f 59 84 8d 00 	mulss  xmm0,DWORD PTR [r13+rcx*4+0x0]
    e569:	00 00 00 
    e56c:	f3 0f 10 4c 83 e8    	movss  xmm1,DWORD PTR [rbx+rax*4-0x18]
    e572:	49 63 4c 87 e8       	movsxd rcx,DWORD PTR [r15+rax*4-0x18]
    e577:	f3 41 0f 59 8c 8d 00 	mulss  xmm1,DWORD PTR [r13+rcx*4+0x0]
    e57e:	00 00 00 
    e581:	f3 0f 58 c3          	addss  xmm0,xmm3
    e585:	f3 0f 58 c8          	addss  xmm1,xmm0
    e589:	f3 0f 10 44 83 ec    	movss  xmm0,DWORD PTR [rbx+rax*4-0x14]
    e58f:	49 63 4c 87 ec       	movsxd rcx,DWORD PTR [r15+rax*4-0x14]
    e594:	f3 41 0f 59 84 8d 00 	mulss  xmm0,DWORD PTR [r13+rcx*4+0x0]
    e59b:	00 00 00 
    e59e:	f3 0f 58 c1          	addss  xmm0,xmm1
    e5a2:	f3 0f 10 4c 83 f0    	movss  xmm1,DWORD PTR [rbx+rax*4-0x10]
    e5a8:	49 63 4c 87 f0       	movsxd rcx,DWORD PTR [r15+rax*4-0x10]
    e5ad:	f3 41 0f 59 8c 8d 00 	mulss  xmm1,DWORD PTR [r13+rcx*4+0x0]
    e5b4:	00 00 00 
    e5b7:	f3 0f 58 c8          	addss  xmm1,xmm0
    e5bb:	f3 0f 10 44 83 f4    	movss  xmm0,DWORD PTR [rbx+rax*4-0xc]
    e5c1:	49 63 4c 87 f4       	movsxd rcx,DWORD PTR [r15+rax*4-0xc]
    e5c6:	f3 41 0f 59 84 8d 00 	mulss  xmm0,DWORD PTR [r13+rcx*4+0x0]
    e5cd:	00 00 00 
    e5d0:	f3 0f 10 54 83 f8    	movss  xmm2,DWORD PTR [rbx+rax*4-0x8]
    e5d6:	49 63 4c 87 f8       	movsxd rcx,DWORD PTR [r15+rax*4-0x8]
    e5db:	f3 41 0f 59 94 8d 00 	mulss  xmm2,DWORD PTR [r13+rcx*4+0x0]
    e5e2:	00 00 00 
    e5e5:	f3 0f 58 c1          	addss  xmm0,xmm1
    e5e9:	f3 0f 58 d0          	addss  xmm2,xmm0
    e5ed:	f3 0f 10 5c 83 fc    	movss  xmm3,DWORD PTR [rbx+rax*4-0x4]
    e5f3:	49 63 4c 87 fc       	movsxd rcx,DWORD PTR [r15+rax*4-0x4]
    e5f8:	f3 41 0f 59 9c 8d 00 	mulss  xmm3,DWORD PTR [r13+rcx*4+0x0]
    e5ff:	00 00 00 
    e602:	f3 0f 58 da          	addss  xmm3,xmm2
    e606:	48 3d ff 00 00 00    	cmp    rax,0xff
    e60c:	74 20                	je     e62e <s4116+0x124>
    e60e:	f3 0f 10 04 83       	movss  xmm0,DWORD PTR [rbx+rax*4]
    e613:	49 63 0c 87          	movsxd rcx,DWORD PTR [r15+rax*4]
    e617:	f3 41 0f 59 84 8d 00 	mulss  xmm0,DWORD PTR [r13+rcx*4+0x0]
    e61e:	00 00 00 
    e621:	f3 0f 58 d8          	addss  xmm3,xmm0
    e625:	48 83 c0 08          	add    rax,0x8
    e629:	e9 29 ff ff ff       	jmp    e557 <s4116+0x4d>
    e62e:	f3 0f 11 5c 24 0c    	movss  DWORD PTR [rsp+0xc],xmm3
    e634:	bf 00 00 00 00       	mov    edi,0x0
    e639:	be 00 00 00 00       	mov    esi,0x0
    e63e:	ba 00 00 00 00       	mov    edx,0x0
    e643:	b9 00 00 00 00       	mov    ecx,0x0
    e648:	41 b8 00 00 00 00    	mov    r8d,0x0
    e64e:	41 b9 00 00 00 00    	mov    r9d,0x0
    e654:	0f 57 c0             	xorps  xmm0,xmm0
    e657:	68 00 00 00 00       	push   0x0
    e65c:	68 00 00 00 00       	push   0x0
    e661:	e8 00 00 00 00       	call   e666 <s4116+0x15c>
    e666:	48 83 c4 10          	add    rsp,0x10
    e66a:	41 ff c4             	inc    r12d
    e66d:	41 81 fc 80 96 98 00 	cmp    r12d,0x989680
    e674:	0f 85 d5 fe ff ff    	jne    e54f <s4116+0x45>
    e67a:	49 83 c6 10          	add    r14,0x10
    e67e:	4c 89 f7             	mov    rdi,r14
    e681:	31 f6                	xor    esi,esi
    e683:	e8 00 00 00 00       	call   e688 <s4116+0x17e>
    e688:	f3 0f 10 44 24 0c    	movss  xmm0,DWORD PTR [rsp+0xc]
    e68e:	48 83 c4 10          	add    rsp,0x10
    e692:	5b                   	pop    rbx
    e693:	41 5c                	pop    r12
    e695:	41 5d                	pop    r13
    e697:	41 5e                	pop    r14
    e699:	41 5f                	pop    r15
    e69b:	c3                   	ret    

000000000000e69c <s4117>:
    e69c:	41 56                	push   r14
    e69e:	53                   	push   rbx
    e69f:	50                   	push   rax
    e6a0:	49 89 fe             	mov    r14,rdi
    e6a3:	bf 00 00 00 00       	mov    edi,0x0
    e6a8:	e8 00 00 00 00       	call   e6ad <s4117+0x11>
    e6ad:	31 db                	xor    ebx,ebx
    e6af:	4c 89 f7             	mov    rdi,r14
    e6b2:	31 f6                	xor    esi,esi
    e6b4:	e8 00 00 00 00       	call   e6b9 <s4117+0x1d>
    e6b9:	48 c7 c0 00 06 ff ff 	mov    rax,0xffffffffffff0600
    e6c0:	f3 0f 10 80 00 00 00 	movss  xmm0,DWORD PTR [rax+0x0]
    e6c7:	00 
    e6c8:	f3 0f 10 8c 00 00 00 	movss  xmm1,DWORD PTR [rax+rax*1+0x0]
    e6cf:	00 00 
    e6d1:	f3 0f 59 c8          	mulss  xmm1,xmm0
    e6d5:	f3 0f 58 8c 00 00 00 	addss  xmm1,DWORD PTR [rax+rax*1+0x0]
    e6dc:	00 00 
    e6de:	f3 0f 11 8c 00 00 00 	movss  DWORD PTR [rax+rax*1+0x0],xmm1
    e6e5:	00 00 
    e6e7:	f3 0f 59 84 00 00 00 	mulss  xmm0,DWORD PTR [rax+rax*1+0x0]
    e6ee:	00 00 
    e6f0:	f3 0f 58 84 00 00 00 	addss  xmm0,DWORD PTR [rax+rax*1+0x0]
    e6f7:	00 00 
    e6f9:	f3 0f 11 84 00 00 00 	movss  DWORD PTR [rax+rax*1+0x0],xmm0
    e700:	00 00 
    e702:	f3 0f 10 80 00 00 00 	movss  xmm0,DWORD PTR [rax+0x0]
    e709:	00 
    e70a:	f3 0f 59 84 00 00 00 	mulss  xmm0,DWORD PTR [rax+rax*1+0x0]
    e711:	00 00 
    e713:	f3 0f 58 84 00 00 00 	addss  xmm0,DWORD PTR [rax+rax*1+0x0]
    e71a:	00 00 
    e71c:	f3 0f 11 84 00 00 00 	movss  DWORD PTR [rax+rax*1+0x0],xmm0
    e723:	00 00 
    e725:	f3 0f 10 80 00 00 00 	movss  xmm0,DWORD PTR [rax+0x0]
    e72c:	00 
    e72d:	f3 0f 59 84 00 00 00 	mulss  xmm0,DWORD PTR [rax+rax*1+0x0]
    e734:	00 00 
    e736:	f3 0f 58 84 00 00 00 	addss  xmm0,DWORD PTR [rax+rax*1+0x0]
    e73d:	00 00 
    e73f:	f3 0f 11 84 00 00 00 	movss  DWORD PTR [rax+rax*1+0x0],xmm0
    e746:	00 00 
    e748:	f3 0f 10 80 00 00 00 	movss  xmm0,DWORD PTR [rax+0x0]
    e74f:	00 
    e750:	f3 0f 59 84 00 00 00 	mulss  xmm0,DWORD PTR [rax+rax*1+0x0]
    e757:	00 00 
    e759:	f3 0f 58 84 00 00 00 	addss  xmm0,DWORD PTR [rax+rax*1+0x0]
    e760:	00 00 
    e762:	f3 0f 11 84 00 00 00 	movss  DWORD PTR [rax+rax*1+0x0],xmm0
    e769:	00 00 
    e76b:	f3 0f 10 80 00 00 00 	movss  xmm0,DWORD PTR [rax+0x0]
    e772:	00 
    e773:	f3 0f 59 84 00 00 00 	mulss  xmm0,DWORD PTR [rax+rax*1+0x0]
    e77a:	00 00 
    e77c:	f3 0f 58 84 00 00 00 	addss  xmm0,DWORD PTR [rax+rax*1+0x0]
    e783:	00 00 
    e785:	f3 0f 11 84 00 00 00 	movss  DWORD PTR [rax+rax*1+0x0],xmm0
    e78c:	00 00 
    e78e:	f3 0f 10 80 00 00 00 	movss  xmm0,DWORD PTR [rax+0x0]
    e795:	00 
    e796:	f3 0f 59 84 00 00 00 	mulss  xmm0,DWORD PTR [rax+rax*1+0x0]
    e79d:	00 00 
    e79f:	f3 0f 58 84 00 00 00 	addss  xmm0,DWORD PTR [rax+rax*1+0x0]
    e7a6:	00 00 
    e7a8:	f3 0f 11 84 00 00 00 	movss  DWORD PTR [rax+rax*1+0x0],xmm0
    e7af:	00 00 
    e7b1:	f3 0f 10 80 00 00 00 	movss  xmm0,DWORD PTR [rax+0x0]
    e7b8:	00 
    e7b9:	f3 0f 59 84 00 00 00 	mulss  xmm0,DWORD PTR [rax+rax*1+0x0]
    e7c0:	00 00 
    e7c2:	f3 0f 58 84 00 00 00 	addss  xmm0,DWORD PTR [rax+rax*1+0x0]
    e7c9:	00 00 
    e7cb:	f3 0f 11 84 00 00 00 	movss  DWORD PTR [rax+rax*1+0x0],xmm0
    e7d2:	00 00 
    e7d4:	48 83 c0 10          	add    rax,0x10
    e7d8:	0f 85 e2 fe ff ff    	jne    e6c0 <s4117+0x24>
    e7de:	bf 00 00 00 00       	mov    edi,0x0
    e7e3:	be 00 00 00 00       	mov    esi,0x0
    e7e8:	ba 00 00 00 00       	mov    edx,0x0
    e7ed:	b9 00 00 00 00       	mov    ecx,0x0
    e7f2:	41 b8 00 00 00 00    	mov    r8d,0x0
    e7f8:	41 b9 00 00 00 00    	mov    r9d,0x0
    e7fe:	0f 57 c0             	xorps  xmm0,xmm0
    e801:	68 00 00 00 00       	push   0x0
    e806:	68 00 00 00 00       	push   0x0
    e80b:	e8 00 00 00 00       	call   e810 <s4117+0x174>
    e810:	48 83 c4 10          	add    rsp,0x10
    e814:	ff c3                	inc    ebx
    e816:	81 fb a0 86 01 00    	cmp    ebx,0x186a0
    e81c:	0f 85 97 fe ff ff    	jne    e6b9 <s4117+0x1d>
    e822:	49 83 c6 10          	add    r14,0x10
    e826:	4c 89 f7             	mov    rdi,r14
    e829:	31 f6                	xor    esi,esi
    e82b:	e8 00 00 00 00       	call   e830 <s4117+0x194>
    e830:	bf 00 00 00 00       	mov    edi,0x0
    e835:	48 83 c4 08          	add    rsp,0x8
    e839:	5b                   	pop    rbx
    e83a:	41 5e                	pop    r14
    e83c:	e9 00 00 00 00       	jmp    e841 <f>

000000000000e841 <f>:
    e841:	f3 0f 59 c1          	mulss  xmm0,xmm1
    e845:	c3                   	ret    

000000000000e846 <s4121>:
    e846:	41 56                	push   r14
    e848:	53                   	push   rbx
    e849:	50                   	push   rax
    e84a:	49 89 fe             	mov    r14,rdi
    e84d:	bf 00 00 00 00       	mov    edi,0x0
    e852:	e8 00 00 00 00       	call   e857 <s4121+0x11>
    e857:	31 db                	xor    ebx,ebx
    e859:	4c 89 f7             	mov    rdi,r14
    e85c:	31 f6                	xor    esi,esi
    e85e:	e8 00 00 00 00       	call   e863 <s4121+0x1d>
    e863:	48 c7 c0 00 0c fe ff 	mov    rax,0xfffffffffffe0c00
    e86a:	f3 0f 10 80 00 00 00 	movss  xmm0,DWORD PTR [rax+0x0]
    e871:	00 
    e872:	f3 0f 59 80 00 00 00 	mulss  xmm0,DWORD PTR [rax+0x0]
    e879:	00 
    e87a:	f3 0f 58 80 00 00 00 	addss  xmm0,DWORD PTR [rax+0x0]
    e881:	00 
    e882:	f3 0f 11 80 00 00 00 	movss  DWORD PTR [rax+0x0],xmm0
    e889:	00 
    e88a:	48 83 c0 04          	add    rax,0x4
    e88e:	75 da                	jne    e86a <s4121+0x24>
    e890:	bf 00 00 00 00       	mov    edi,0x0
    e895:	be 00 00 00 00       	mov    esi,0x0
    e89a:	ba 00 00 00 00       	mov    edx,0x0
    e89f:	b9 00 00 00 00       	mov    ecx,0x0
    e8a4:	41 b8 00 00 00 00    	mov    r8d,0x0
    e8aa:	41 b9 00 00 00 00    	mov    r9d,0x0
    e8b0:	0f 57 c0             	xorps  xmm0,xmm0
    e8b3:	68 00 00 00 00       	push   0x0
    e8b8:	68 00 00 00 00       	push   0x0
    e8bd:	e8 00 00 00 00       	call   e8c2 <s4121+0x7c>
    e8c2:	48 83 c4 10          	add    rsp,0x10
    e8c6:	ff c3                	inc    ebx
    e8c8:	81 fb a0 86 01 00    	cmp    ebx,0x186a0
    e8ce:	75 93                	jne    e863 <s4121+0x1d>
    e8d0:	49 83 c6 10          	add    r14,0x10
    e8d4:	4c 89 f7             	mov    rdi,r14
    e8d7:	31 f6                	xor    esi,esi
    e8d9:	e8 00 00 00 00       	call   e8de <s4121+0x98>
    e8de:	bf 00 00 00 00       	mov    edi,0x0
    e8e3:	48 83 c4 08          	add    rsp,0x8
    e8e7:	5b                   	pop    rbx
    e8e8:	41 5e                	pop    r14
    e8ea:	e9 00 00 00 00       	jmp    e8ef <va>

000000000000e8ef <va>:
    e8ef:	55                   	push   rbp
    e8f0:	53                   	push   rbx
    e8f1:	50                   	push   rax
    e8f2:	48 89 fb             	mov    rbx,rdi
    e8f5:	bf 00 00 00 00       	mov    edi,0x0
    e8fa:	e8 00 00 00 00       	call   e8ff <va+0x10>
    e8ff:	48 89 df             	mov    rdi,rbx
    e902:	31 f6                	xor    esi,esi
    e904:	e8 00 00 00 00       	call   e909 <va+0x1a>
    e909:	bd 40 42 0f 00       	mov    ebp,0xf4240
    e90e:	bf 00 00 00 00       	mov    edi,0x0
    e913:	be 00 00 00 00       	mov    esi,0x0
    e918:	ba 00 f4 01 00       	mov    edx,0x1f400
    e91d:	e8 00 00 00 00       	call   e922 <va+0x33>
    e922:	bf 00 00 00 00       	mov    edi,0x0
    e927:	be 00 00 00 00       	mov    esi,0x0
    e92c:	ba 00 00 00 00       	mov    edx,0x0
    e931:	b9 00 00 00 00       	mov    ecx,0x0
    e936:	41 b8 00 00 00 00    	mov    r8d,0x0
    e93c:	41 b9 00 00 00 00    	mov    r9d,0x0
    e942:	0f 57 c0             	xorps  xmm0,xmm0
    e945:	68 00 00 00 00       	push   0x0
    e94a:	68 00 00 00 00       	push   0x0
    e94f:	e8 00 00 00 00       	call   e954 <va+0x65>
    e954:	48 83 c4 10          	add    rsp,0x10
    e958:	ff cd                	dec    ebp
    e95a:	75 b2                	jne    e90e <va+0x1f>
    e95c:	48 83 c3 10          	add    rbx,0x10
    e960:	48 89 df             	mov    rdi,rbx
    e963:	31 f6                	xor    esi,esi
    e965:	e8 00 00 00 00       	call   e96a <va+0x7b>
    e96a:	bf 00 00 00 00       	mov    edi,0x0
    e96f:	48 83 c4 08          	add    rsp,0x8
    e973:	5b                   	pop    rbx
    e974:	5d                   	pop    rbp
    e975:	e9 00 00 00 00       	jmp    e97a <vag>

000000000000e97a <vag>:
    e97a:	41 57                	push   r15
    e97c:	41 56                	push   r14
    e97e:	53                   	push   rbx
    e97f:	49 89 fe             	mov    r14,rdi
    e982:	48 8b 5f 20          	mov    rbx,QWORD PTR [rdi+0x20]
    e986:	bf 00 00 00 00       	mov    edi,0x0
    e98b:	e8 00 00 00 00       	call   e990 <vag+0x16>
    e990:	45 31 ff             	xor    r15d,r15d
    e993:	4c 89 f7             	mov    rdi,r14
    e996:	31 f6                	xor    esi,esi
    e998:	e8 00 00 00 00       	call   e99d <vag+0x23>
    e99d:	31 c0                	xor    eax,eax
    e99f:	48 63 0c 03          	movsxd rcx,DWORD PTR [rbx+rax*1]
    e9a3:	f3 0f 10 04 8d 00 00 	movss  xmm0,DWORD PTR [rcx*4+0x0]
    e9aa:	00 00 
    e9ac:	f3 0f 11 80 00 00 00 	movss  DWORD PTR [rax+0x0],xmm0
    e9b3:	00 
    e9b4:	48 83 c0 04          	add    rax,0x4
    e9b8:	48 3d 00 f4 01 00    	cmp    rax,0x1f400
    e9be:	75 df                	jne    e99f <vag+0x25>
    e9c0:	bf 00 00 00 00       	mov    edi,0x0
    e9c5:	be 00 00 00 00       	mov    esi,0x0
    e9ca:	ba 00 00 00 00       	mov    edx,0x0
    e9cf:	b9 00 00 00 00       	mov    ecx,0x0
    e9d4:	41 b8 00 00 00 00    	mov    r8d,0x0
    e9da:	41 b9 00 00 00 00    	mov    r9d,0x0
    e9e0:	0f 57 c0             	xorps  xmm0,xmm0
    e9e3:	68 00 00 00 00       	push   0x0
    e9e8:	68 00 00 00 00       	push   0x0
    e9ed:	e8 00 00 00 00       	call   e9f2 <vag+0x78>
    e9f2:	48 83 c4 10          	add    rsp,0x10
    e9f6:	41 ff c7             	inc    r15d
    e9f9:	41 81 ff 40 0d 03 00 	cmp    r15d,0x30d40
    ea00:	75 9b                	jne    e99d <vag+0x23>
    ea02:	49 83 c6 10          	add    r14,0x10
    ea06:	4c 89 f7             	mov    rdi,r14
    ea09:	31 f6                	xor    esi,esi
    ea0b:	e8 00 00 00 00       	call   ea10 <vag+0x96>
    ea10:	bf 00 00 00 00       	mov    edi,0x0
    ea15:	5b                   	pop    rbx
    ea16:	41 5e                	pop    r14
    ea18:	41 5f                	pop    r15
    ea1a:	e9 00 00 00 00       	jmp    ea1f <vas>

000000000000ea1f <vas>:
    ea1f:	41 57                	push   r15
    ea21:	41 56                	push   r14
    ea23:	53                   	push   rbx
    ea24:	49 89 fe             	mov    r14,rdi
    ea27:	48 8b 5f 20          	mov    rbx,QWORD PTR [rdi+0x20]
    ea2b:	bf 00 00 00 00       	mov    edi,0x0
    ea30:	e8 00 00 00 00       	call   ea35 <vas+0x16>
    ea35:	45 31 ff             	xor    r15d,r15d
    ea38:	4c 89 f7             	mov    rdi,r14
    ea3b:	31 f6                	xor    esi,esi
    ea3d:	e8 00 00 00 00       	call   ea42 <vas+0x23>
    ea42:	31 c0                	xor    eax,eax
    ea44:	f3 0f 10 80 00 00 00 	movss  xmm0,DWORD PTR [rax+0x0]
    ea4b:	00 
    ea4c:	48 63 0c 03          	movsxd rcx,DWORD PTR [rbx+rax*1]
    ea50:	f3 0f 11 04 8d 00 00 	movss  DWORD PTR [rcx*4+0x0],xmm0
    ea57:	00 00 
    ea59:	48 83 c0 04          	add    rax,0x4
    ea5d:	48 3d 00 f4 01 00    	cmp    rax,0x1f400
    ea63:	75 df                	jne    ea44 <vas+0x25>
    ea65:	bf 00 00 00 00       	mov    edi,0x0
    ea6a:	be 00 00 00 00       	mov    esi,0x0
    ea6f:	ba 00 00 00 00       	mov    edx,0x0
    ea74:	b9 00 00 00 00       	mov    ecx,0x0
    ea79:	41 b8 00 00 00 00    	mov    r8d,0x0
    ea7f:	41 b9 00 00 00 00    	mov    r9d,0x0
    ea85:	0f 57 c0             	xorps  xmm0,xmm0
    ea88:	68 00 00 00 00       	push   0x0
    ea8d:	68 00 00 00 00       	push   0x0
    ea92:	e8 00 00 00 00       	call   ea97 <vas+0x78>
    ea97:	48 83 c4 10          	add    rsp,0x10
    ea9b:	41 ff c7             	inc    r15d
    ea9e:	41 81 ff 40 0d 03 00 	cmp    r15d,0x30d40
    eaa5:	75 9b                	jne    ea42 <vas+0x23>
    eaa7:	49 83 c6 10          	add    r14,0x10
    eaab:	4c 89 f7             	mov    rdi,r14
    eaae:	31 f6                	xor    esi,esi
    eab0:	e8 00 00 00 00       	call   eab5 <vas+0x96>
    eab5:	bf 00 00 00 00       	mov    edi,0x0
    eaba:	5b                   	pop    rbx
    eabb:	41 5e                	pop    r14
    eabd:	41 5f                	pop    r15
    eabf:	e9 00 00 00 00       	jmp    eac4 <vif>

000000000000eac4 <vif>:
    eac4:	41 56                	push   r14
    eac6:	53                   	push   rbx
    eac7:	50                   	push   rax
    eac8:	49 89 fe             	mov    r14,rdi
    eacb:	bf 00 00 00 00       	mov    edi,0x0
    ead0:	e8 00 00 00 00       	call   ead5 <vif+0x11>
    ead5:	31 db                	xor    ebx,ebx
    ead7:	4c 89 f7             	mov    rdi,r14
    eada:	31 f6                	xor    esi,esi
    eadc:	e8 00 00 00 00       	call   eae1 <vif+0x1d>
    eae1:	0f 57 c9             	xorps  xmm1,xmm1
    eae4:	48 c7 c0 00 0c fe ff 	mov    rax,0xfffffffffffe0c00
    eaeb:	f3 0f 10 80 00 00 00 	movss  xmm0,DWORD PTR [rax+0x0]
    eaf2:	00 
    eaf3:	0f 2e c1             	ucomiss xmm0,xmm1
    eaf6:	76 08                	jbe    eb00 <vif+0x3c>
    eaf8:	f3 0f 11 80 00 00 00 	movss  DWORD PTR [rax+0x0],xmm0
    eaff:	00 
    eb00:	f3 0f 10 80 00 00 00 	movss  xmm0,DWORD PTR [rax+0x0]
    eb07:	00 
    eb08:	0f 2e c1             	ucomiss xmm0,xmm1
    eb0b:	76 08                	jbe    eb15 <vif+0x51>
    eb0d:	f3 0f 11 80 00 00 00 	movss  DWORD PTR [rax+0x0],xmm0
    eb14:	00 
    eb15:	f3 0f 10 80 00 00 00 	movss  xmm0,DWORD PTR [rax+0x0]
    eb1c:	00 
    eb1d:	0f 2e c1             	ucomiss xmm0,xmm1
    eb20:	76 08                	jbe    eb2a <vif+0x66>
    eb22:	f3 0f 11 80 00 00 00 	movss  DWORD PTR [rax+0x0],xmm0
    eb29:	00 
    eb2a:	f3 0f 10 80 00 00 00 	movss  xmm0,DWORD PTR [rax+0x0]
    eb31:	00 
    eb32:	0f 2e c1             	ucomiss xmm0,xmm1
    eb35:	76 08                	jbe    eb3f <vif+0x7b>
    eb37:	f3 0f 11 80 00 00 00 	movss  DWORD PTR [rax+0x0],xmm0
    eb3e:	00 
    eb3f:	f3 0f 10 80 00 00 00 	movss  xmm0,DWORD PTR [rax+0x0]
    eb46:	00 
    eb47:	0f 2e c1             	ucomiss xmm0,xmm1
    eb4a:	76 08                	jbe    eb54 <vif+0x90>
    eb4c:	f3 0f 11 80 00 00 00 	movss  DWORD PTR [rax+0x0],xmm0
    eb53:	00 
    eb54:	f3 0f 10 80 00 00 00 	movss  xmm0,DWORD PTR [rax+0x0]
    eb5b:	00 
    eb5c:	0f 2e c1             	ucomiss xmm0,xmm1
    eb5f:	76 08                	jbe    eb69 <vif+0xa5>
    eb61:	f3 0f 11 80 00 00 00 	movss  DWORD PTR [rax+0x0],xmm0
    eb68:	00 
    eb69:	f3 0f 10 80 00 00 00 	movss  xmm0,DWORD PTR [rax+0x0]
    eb70:	00 
    eb71:	0f 2e c1             	ucomiss xmm0,xmm1
    eb74:	76 08                	jbe    eb7e <vif+0xba>
    eb76:	f3 0f 11 80 00 00 00 	movss  DWORD PTR [rax+0x0],xmm0
    eb7d:	00 
    eb7e:	f3 0f 10 80 00 00 00 	movss  xmm0,DWORD PTR [rax+0x0]
    eb85:	00 
    eb86:	0f 2e c1             	ucomiss xmm0,xmm1
    eb89:	76 08                	jbe    eb93 <vif+0xcf>
    eb8b:	f3 0f 11 80 00 00 00 	movss  DWORD PTR [rax+0x0],xmm0
    eb92:	00 
    eb93:	48 83 c0 20          	add    rax,0x20
    eb97:	0f 85 4e ff ff ff    	jne    eaeb <vif+0x27>
    eb9d:	bf 00 00 00 00       	mov    edi,0x0
    eba2:	be 00 00 00 00       	mov    esi,0x0
    eba7:	ba 00 00 00 00       	mov    edx,0x0
    ebac:	b9 00 00 00 00       	mov    ecx,0x0
    ebb1:	41 b8 00 00 00 00    	mov    r8d,0x0
    ebb7:	41 b9 00 00 00 00    	mov    r9d,0x0
    ebbd:	0f 57 c0             	xorps  xmm0,xmm0
    ebc0:	68 00 00 00 00       	push   0x0
    ebc5:	68 00 00 00 00       	push   0x0
    ebca:	e8 00 00 00 00       	call   ebcf <vif+0x10b>
    ebcf:	0f 57 c9             	xorps  xmm1,xmm1
    ebd2:	48 83 c4 10          	add    rsp,0x10
    ebd6:	ff c3                	inc    ebx
    ebd8:	81 fb a0 86 01 00    	cmp    ebx,0x186a0
    ebde:	0f 85 00 ff ff ff    	jne    eae4 <vif+0x20>
    ebe4:	49 83 c6 10          	add    r14,0x10
    ebe8:	4c 89 f7             	mov    rdi,r14
    ebeb:	31 f6                	xor    esi,esi
    ebed:	e8 00 00 00 00       	call   ebf2 <vif+0x12e>
    ebf2:	bf 00 00 00 00       	mov    edi,0x0
    ebf7:	48 83 c4 08          	add    rsp,0x8
    ebfb:	5b                   	pop    rbx
    ebfc:	41 5e                	pop    r14
    ebfe:	e9 00 00 00 00       	jmp    ec03 <vpv>

000000000000ec03 <vpv>:
    ec03:	41 56                	push   r14
    ec05:	53                   	push   rbx
    ec06:	50                   	push   rax
    ec07:	49 89 fe             	mov    r14,rdi
    ec0a:	bf 00 00 00 00       	mov    edi,0x0
    ec0f:	e8 00 00 00 00       	call   ec14 <vpv+0x11>
    ec14:	31 db                	xor    ebx,ebx
    ec16:	4c 89 f7             	mov    rdi,r14
    ec19:	31 f6                	xor    esi,esi
    ec1b:	e8 00 00 00 00       	call   ec20 <vpv+0x1d>
    ec20:	48 c7 c0 00 0c fe ff 	mov    rax,0xfffffffffffe0c00
    ec27:	f3 0f 10 80 00 00 00 	movss  xmm0,DWORD PTR [rax+0x0]
    ec2e:	00 
    ec2f:	f3 0f 58 80 00 00 00 	addss  xmm0,DWORD PTR [rax+0x0]
    ec36:	00 
    ec37:	f3 0f 11 80 00 00 00 	movss  DWORD PTR [rax+0x0],xmm0
    ec3e:	00 
    ec3f:	48 83 c0 04          	add    rax,0x4
    ec43:	75 e2                	jne    ec27 <vpv+0x24>
    ec45:	bf 00 00 00 00       	mov    edi,0x0
    ec4a:	be 00 00 00 00       	mov    esi,0x0
    ec4f:	ba 00 00 00 00       	mov    edx,0x0
    ec54:	b9 00 00 00 00       	mov    ecx,0x0
    ec59:	41 b8 00 00 00 00    	mov    r8d,0x0
    ec5f:	41 b9 00 00 00 00    	mov    r9d,0x0
    ec65:	0f 57 c0             	xorps  xmm0,xmm0
    ec68:	68 00 00 00 00       	push   0x0
    ec6d:	68 00 00 00 00       	push   0x0
    ec72:	e8 00 00 00 00       	call   ec77 <vpv+0x74>
    ec77:	48 83 c4 10          	add    rsp,0x10
    ec7b:	ff c3                	inc    ebx
    ec7d:	81 fb 40 42 0f 00    	cmp    ebx,0xf4240
    ec83:	75 9b                	jne    ec20 <vpv+0x1d>
    ec85:	49 83 c6 10          	add    r14,0x10
    ec89:	4c 89 f7             	mov    rdi,r14
    ec8c:	31 f6                	xor    esi,esi
    ec8e:	e8 00 00 00 00       	call   ec93 <vpv+0x90>
    ec93:	bf 00 00 00 00       	mov    edi,0x0
    ec98:	48 83 c4 08          	add    rsp,0x8
    ec9c:	5b                   	pop    rbx
    ec9d:	41 5e                	pop    r14
    ec9f:	e9 00 00 00 00       	jmp    eca4 <vtv>

000000000000eca4 <vtv>:
    eca4:	41 56                	push   r14
    eca6:	53                   	push   rbx
    eca7:	50                   	push   rax
    eca8:	49 89 fe             	mov    r14,rdi
    ecab:	bf 00 00 00 00       	mov    edi,0x0
    ecb0:	e8 00 00 00 00       	call   ecb5 <vtv+0x11>
    ecb5:	31 db                	xor    ebx,ebx
    ecb7:	4c 89 f7             	mov    rdi,r14
    ecba:	31 f6                	xor    esi,esi
    ecbc:	e8 00 00 00 00       	call   ecc1 <vtv+0x1d>
    ecc1:	48 c7 c0 00 0c fe ff 	mov    rax,0xfffffffffffe0c00
    ecc8:	f3 0f 10 80 00 00 00 	movss  xmm0,DWORD PTR [rax+0x0]
    eccf:	00 
    ecd0:	f3 0f 59 80 00 00 00 	mulss  xmm0,DWORD PTR [rax+0x0]
    ecd7:	00 
    ecd8:	f3 0f 11 80 00 00 00 	movss  DWORD PTR [rax+0x0],xmm0
    ecdf:	00 
    ece0:	48 83 c0 04          	add    rax,0x4
    ece4:	75 e2                	jne    ecc8 <vtv+0x24>
    ece6:	bf 00 00 00 00       	mov    edi,0x0
    eceb:	be 00 00 00 00       	mov    esi,0x0
    ecf0:	ba 00 00 00 00       	mov    edx,0x0
    ecf5:	b9 00 00 00 00       	mov    ecx,0x0
    ecfa:	41 b8 00 00 00 00    	mov    r8d,0x0
    ed00:	41 b9 00 00 00 00    	mov    r9d,0x0
    ed06:	0f 57 c0             	xorps  xmm0,xmm0
    ed09:	68 00 00 00 00       	push   0x0
    ed0e:	68 00 00 00 00       	push   0x0
    ed13:	e8 00 00 00 00       	call   ed18 <vtv+0x74>
    ed18:	48 83 c4 10          	add    rsp,0x10
    ed1c:	ff c3                	inc    ebx
    ed1e:	81 fb 40 42 0f 00    	cmp    ebx,0xf4240
    ed24:	75 9b                	jne    ecc1 <vtv+0x1d>
    ed26:	49 83 c6 10          	add    r14,0x10
    ed2a:	4c 89 f7             	mov    rdi,r14
    ed2d:	31 f6                	xor    esi,esi
    ed2f:	e8 00 00 00 00       	call   ed34 <vtv+0x90>
    ed34:	bf 00 00 00 00       	mov    edi,0x0
    ed39:	48 83 c4 08          	add    rsp,0x8
    ed3d:	5b                   	pop    rbx
    ed3e:	41 5e                	pop    r14
    ed40:	e9 00 00 00 00       	jmp    ed45 <vpvtv>

000000000000ed45 <vpvtv>:
    ed45:	41 56                	push   r14
    ed47:	53                   	push   rbx
    ed48:	50                   	push   rax
    ed49:	49 89 fe             	mov    r14,rdi
    ed4c:	bf 00 00 00 00       	mov    edi,0x0
    ed51:	e8 00 00 00 00       	call   ed56 <vpvtv+0x11>
    ed56:	31 db                	xor    ebx,ebx
    ed58:	4c 89 f7             	mov    rdi,r14
    ed5b:	31 f6                	xor    esi,esi
    ed5d:	e8 00 00 00 00       	call   ed62 <vpvtv+0x1d>
    ed62:	48 c7 c0 00 0c fe ff 	mov    rax,0xfffffffffffe0c00
    ed69:	f3 0f 10 80 00 00 00 	movss  xmm0,DWORD PTR [rax+0x0]
    ed70:	00 
    ed71:	f3 0f 59 80 00 00 00 	mulss  xmm0,DWORD PTR [rax+0x0]
    ed78:	00 
    ed79:	f3 0f 58 80 00 00 00 	addss  xmm0,DWORD PTR [rax+0x0]
    ed80:	00 
    ed81:	f3 0f 11 80 00 00 00 	movss  DWORD PTR [rax+0x0],xmm0
    ed88:	00 
    ed89:	48 83 c0 04          	add    rax,0x4
    ed8d:	75 da                	jne    ed69 <vpvtv+0x24>
    ed8f:	bf 00 00 00 00       	mov    edi,0x0
    ed94:	be 00 00 00 00       	mov    esi,0x0
    ed99:	ba 00 00 00 00       	mov    edx,0x0
    ed9e:	b9 00 00 00 00       	mov    ecx,0x0
    eda3:	41 b8 00 00 00 00    	mov    r8d,0x0
    eda9:	41 b9 00 00 00 00    	mov    r9d,0x0
    edaf:	0f 57 c0             	xorps  xmm0,xmm0
    edb2:	68 00 00 00 00       	push   0x0
    edb7:	68 00 00 00 00       	push   0x0
    edbc:	e8 00 00 00 00       	call   edc1 <vpvtv+0x7c>
    edc1:	48 83 c4 10          	add    rsp,0x10
    edc5:	ff c3                	inc    ebx
    edc7:	81 fb 80 1a 06 00    	cmp    ebx,0x61a80
    edcd:	75 93                	jne    ed62 <vpvtv+0x1d>
    edcf:	49 83 c6 10          	add    r14,0x10
    edd3:	4c 89 f7             	mov    rdi,r14
    edd6:	31 f6                	xor    esi,esi
    edd8:	e8 00 00 00 00       	call   eddd <vpvtv+0x98>
    eddd:	bf 00 00 00 00       	mov    edi,0x0
    ede2:	48 83 c4 08          	add    rsp,0x8
    ede6:	5b                   	pop    rbx
    ede7:	41 5e                	pop    r14
    ede9:	e9 00 00 00 00       	jmp    edee <vpvts>

000000000000edee <vpvts>:
    edee:	41 56                	push   r14
    edf0:	53                   	push   rbx
    edf1:	50                   	push   rax
    edf2:	49 89 fe             	mov    r14,rdi
    edf5:	48 8b 47 20          	mov    rax,QWORD PTR [rdi+0x20]
    edf9:	f3 0f 2a 00          	cvtsi2ss xmm0,DWORD PTR [rax]
    edfd:	f3 0f 11 44 24 04    	movss  DWORD PTR [rsp+0x4],xmm0
    ee03:	bf 00 00 00 00       	mov    edi,0x0
    ee08:	e8 00 00 00 00       	call   ee0d <vpvts+0x1f>
    ee0d:	31 db                	xor    ebx,ebx
    ee0f:	4c 89 f7             	mov    rdi,r14
    ee12:	31 f6                	xor    esi,esi
    ee14:	e8 00 00 00 00       	call   ee19 <vpvts+0x2b>
    ee19:	48 c7 c0 00 0c fe ff 	mov    rax,0xfffffffffffe0c00
    ee20:	f3 0f 10 4c 24 04    	movss  xmm1,DWORD PTR [rsp+0x4]
    ee26:	f3 0f 10 80 00 00 00 	movss  xmm0,DWORD PTR [rax+0x0]
    ee2d:	00 
    ee2e:	f3 0f 59 c1          	mulss  xmm0,xmm1
    ee32:	f3 0f 58 80 00 00 00 	addss  xmm0,DWORD PTR [rax+0x0]
    ee39:	00 
    ee3a:	f3 0f 11 80 00 00 00 	movss  DWORD PTR [rax+0x0],xmm0
    ee41:	00 
    ee42:	48 83 c0 04          	add    rax,0x4
    ee46:	75 de                	jne    ee26 <vpvts+0x38>
    ee48:	bf 00 00 00 00       	mov    edi,0x0
    ee4d:	be 00 00 00 00       	mov    esi,0x0
    ee52:	ba 00 00 00 00       	mov    edx,0x0
    ee57:	b9 00 00 00 00       	mov    ecx,0x0
    ee5c:	41 b8 00 00 00 00    	mov    r8d,0x0
    ee62:	41 b9 00 00 00 00    	mov    r9d,0x0
    ee68:	0f 57 c0             	xorps  xmm0,xmm0
    ee6b:	68 00 00 00 00       	push   0x0
    ee70:	68 00 00 00 00       	push   0x0
    ee75:	e8 00 00 00 00       	call   ee7a <vpvts+0x8c>
    ee7a:	48 83 c4 10          	add    rsp,0x10
    ee7e:	ff c3                	inc    ebx
    ee80:	81 fb a0 86 01 00    	cmp    ebx,0x186a0
    ee86:	75 91                	jne    ee19 <vpvts+0x2b>
    ee88:	49 83 c6 10          	add    r14,0x10
    ee8c:	4c 89 f7             	mov    rdi,r14
    ee8f:	31 f6                	xor    esi,esi
    ee91:	e8 00 00 00 00       	call   ee96 <vpvts+0xa8>
    ee96:	bf 00 00 00 00       	mov    edi,0x0
    ee9b:	48 83 c4 08          	add    rsp,0x8
    ee9f:	5b                   	pop    rbx
    eea0:	41 5e                	pop    r14
    eea2:	e9 00 00 00 00       	jmp    eea7 <vpvpv>

000000000000eea7 <vpvpv>:
    eea7:	41 56                	push   r14
    eea9:	53                   	push   rbx
    eeaa:	50                   	push   rax
    eeab:	49 89 fe             	mov    r14,rdi
    eeae:	bf 00 00 00 00       	mov    edi,0x0
    eeb3:	e8 00 00 00 00       	call   eeb8 <vpvpv+0x11>
    eeb8:	31 db                	xor    ebx,ebx
    eeba:	4c 89 f7             	mov    rdi,r14
    eebd:	31 f6                	xor    esi,esi
    eebf:	e8 00 00 00 00       	call   eec4 <vpvpv+0x1d>
    eec4:	48 c7 c0 00 0c fe ff 	mov    rax,0xfffffffffffe0c00
    eecb:	f3 0f 10 80 00 00 00 	movss  xmm0,DWORD PTR [rax+0x0]
    eed2:	00 
    eed3:	f3 0f 58 80 00 00 00 	addss  xmm0,DWORD PTR [rax+0x0]
    eeda:	00 
    eedb:	f3 0f 58 80 00 00 00 	addss  xmm0,DWORD PTR [rax+0x0]
    eee2:	00 
    eee3:	f3 0f 11 80 00 00 00 	movss  DWORD PTR [rax+0x0],xmm0
    eeea:	00 
    eeeb:	48 83 c0 04          	add    rax,0x4
    eeef:	75 da                	jne    eecb <vpvpv+0x24>
    eef1:	bf 00 00 00 00       	mov    edi,0x0
    eef6:	be 00 00 00 00       	mov    esi,0x0
    eefb:	ba 00 00 00 00       	mov    edx,0x0
    ef00:	b9 00 00 00 00       	mov    ecx,0x0
    ef05:	41 b8 00 00 00 00    	mov    r8d,0x0
    ef0b:	41 b9 00 00 00 00    	mov    r9d,0x0
    ef11:	0f 57 c0             	xorps  xmm0,xmm0
    ef14:	68 00 00 00 00       	push   0x0
    ef19:	68 00 00 00 00       	push   0x0
    ef1e:	e8 00 00 00 00       	call   ef23 <vpvpv+0x7c>
    ef23:	48 83 c4 10          	add    rsp,0x10
    ef27:	ff c3                	inc    ebx
    ef29:	81 fb 80 1a 06 00    	cmp    ebx,0x61a80
    ef2f:	75 93                	jne    eec4 <vpvpv+0x1d>
    ef31:	49 83 c6 10          	add    r14,0x10
    ef35:	4c 89 f7             	mov    rdi,r14
    ef38:	31 f6                	xor    esi,esi
    ef3a:	e8 00 00 00 00       	call   ef3f <vpvpv+0x98>
    ef3f:	bf 00 00 00 00       	mov    edi,0x0
    ef44:	48 83 c4 08          	add    rsp,0x8
    ef48:	5b                   	pop    rbx
    ef49:	41 5e                	pop    r14
    ef4b:	e9 00 00 00 00       	jmp    ef50 <vtvtv>

000000000000ef50 <vtvtv>:
    ef50:	41 56                	push   r14
    ef52:	53                   	push   rbx
    ef53:	50                   	push   rax
    ef54:	49 89 fe             	mov    r14,rdi
    ef57:	bf 00 00 00 00       	mov    edi,0x0
    ef5c:	e8 00 00 00 00       	call   ef61 <vtvtv+0x11>
    ef61:	31 db                	xor    ebx,ebx
    ef63:	4c 89 f7             	mov    rdi,r14
    ef66:	31 f6                	xor    esi,esi
    ef68:	e8 00 00 00 00       	call   ef6d <vtvtv+0x1d>
    ef6d:	48 c7 c0 00 0c fe ff 	mov    rax,0xfffffffffffe0c00
    ef74:	f3 0f 10 80 00 00 00 	movss  xmm0,DWORD PTR [rax+0x0]
    ef7b:	00 
    ef7c:	f3 0f 59 80 00 00 00 	mulss  xmm0,DWORD PTR [rax+0x0]
    ef83:	00 
    ef84:	f3 0f 59 80 00 00 00 	mulss  xmm0,DWORD PTR [rax+0x0]
    ef8b:	00 
    ef8c:	f3 0f 11 80 00 00 00 	movss  DWORD PTR [rax+0x0],xmm0
    ef93:	00 
    ef94:	48 83 c0 04          	add    rax,0x4
    ef98:	75 da                	jne    ef74 <vtvtv+0x24>
    ef9a:	bf 00 00 00 00       	mov    edi,0x0
    ef9f:	be 00 00 00 00       	mov    esi,0x0
    efa4:	ba 00 00 00 00       	mov    edx,0x0
    efa9:	b9 00 00 00 00       	mov    ecx,0x0
    efae:	41 b8 00 00 00 00    	mov    r8d,0x0
    efb4:	41 b9 00 00 00 00    	mov    r9d,0x0
    efba:	0f 57 c0             	xorps  xmm0,xmm0
    efbd:	68 00 00 00 00       	push   0x0
    efc2:	68 00 00 00 00       	push   0x0
    efc7:	e8 00 00 00 00       	call   efcc <vtvtv+0x7c>
    efcc:	48 83 c4 10          	add    rsp,0x10
    efd0:	ff c3                	inc    ebx
    efd2:	81 fb 80 1a 06 00    	cmp    ebx,0x61a80
    efd8:	75 93                	jne    ef6d <vtvtv+0x1d>
    efda:	49 83 c6 10          	add    r14,0x10
    efde:	4c 89 f7             	mov    rdi,r14
    efe1:	31 f6                	xor    esi,esi
    efe3:	e8 00 00 00 00       	call   efe8 <vtvtv+0x98>
    efe8:	bf 00 00 00 00       	mov    edi,0x0
    efed:	48 83 c4 08          	add    rsp,0x8
    eff1:	5b                   	pop    rbx
    eff2:	41 5e                	pop    r14
    eff4:	e9 00 00 00 00       	jmp    eff9 <vsumr>

000000000000eff9 <vsumr>:
    eff9:	41 56                	push   r14
    effb:	53                   	push   rbx
    effc:	50                   	push   rax
    effd:	49 89 fe             	mov    r14,rdi
    f000:	bf 00 00 00 00       	mov    edi,0x0
    f005:	e8 00 00 00 00       	call   f00a <vsumr+0x11>
    f00a:	31 db                	xor    ebx,ebx
    f00c:	4c 89 f7             	mov    rdi,r14
    f00f:	31 f6                	xor    esi,esi
    f011:	e8 00 00 00 00       	call   f016 <vsumr+0x1d>
    f016:	0f 57 c0             	xorps  xmm0,xmm0
    f019:	48 c7 c0 00 0c fe ff 	mov    rax,0xfffffffffffe0c00
    f020:	f3 0f 58 80 00 00 00 	addss  xmm0,DWORD PTR [rax+0x0]
    f027:	00 
    f028:	48 83 c0 04          	add    rax,0x4
    f02c:	75 f2                	jne    f020 <vsumr+0x27>
    f02e:	bf 00 00 00 00       	mov    edi,0x0
    f033:	be 00 00 00 00       	mov    esi,0x0
    f038:	ba 00 00 00 00       	mov    edx,0x0
    f03d:	b9 00 00 00 00       	mov    ecx,0x0
    f042:	41 b8 00 00 00 00    	mov    r8d,0x0
    f048:	41 b9 00 00 00 00    	mov    r9d,0x0
    f04e:	f3 0f 11 44 24 04    	movss  DWORD PTR [rsp+0x4],xmm0
    f054:	68 00 00 00 00       	push   0x0
    f059:	68 00 00 00 00       	push   0x0
    f05e:	e8 00 00 00 00       	call   f063 <vsumr+0x6a>
    f063:	48 83 c4 10          	add    rsp,0x10
    f067:	ff c3                	inc    ebx
    f069:	81 fb 40 42 0f 00    	cmp    ebx,0xf4240
    f06f:	75 a5                	jne    f016 <vsumr+0x1d>
    f071:	49 83 c6 10          	add    r14,0x10
    f075:	4c 89 f7             	mov    rdi,r14
    f078:	31 f6                	xor    esi,esi
    f07a:	e8 00 00 00 00       	call   f07f <vsumr+0x86>
    f07f:	f3 0f 10 44 24 04    	movss  xmm0,DWORD PTR [rsp+0x4]
    f085:	48 83 c4 08          	add    rsp,0x8
    f089:	5b                   	pop    rbx
    f08a:	41 5e                	pop    r14
    f08c:	c3                   	ret    

000000000000f08d <vdotr>:
    f08d:	41 56                	push   r14
    f08f:	53                   	push   rbx
    f090:	50                   	push   rax
    f091:	49 89 fe             	mov    r14,rdi
    f094:	bf 00 00 00 00       	mov    edi,0x0
    f099:	e8 00 00 00 00       	call   f09e <vdotr+0x11>
    f09e:	31 db                	xor    ebx,ebx
    f0a0:	4c 89 f7             	mov    rdi,r14
    f0a3:	31 f6                	xor    esi,esi
    f0a5:	e8 00 00 00 00       	call   f0aa <vdotr+0x1d>
    f0aa:	0f 57 c0             	xorps  xmm0,xmm0
    f0ad:	48 c7 c0 00 0c fe ff 	mov    rax,0xfffffffffffe0c00
    f0b4:	f3 0f 10 88 00 00 00 	movss  xmm1,DWORD PTR [rax+0x0]
    f0bb:	00 
    f0bc:	f3 0f 59 88 00 00 00 	mulss  xmm1,DWORD PTR [rax+0x0]
    f0c3:	00 
    f0c4:	f3 0f 58 c1          	addss  xmm0,xmm1
    f0c8:	48 83 c0 04          	add    rax,0x4
    f0cc:	75 e6                	jne    f0b4 <vdotr+0x27>
    f0ce:	bf 00 00 00 00       	mov    edi,0x0
    f0d3:	be 00 00 00 00       	mov    esi,0x0
    f0d8:	ba 00 00 00 00       	mov    edx,0x0
    f0dd:	b9 00 00 00 00       	mov    ecx,0x0
    f0e2:	41 b8 00 00 00 00    	mov    r8d,0x0
    f0e8:	41 b9 00 00 00 00    	mov    r9d,0x0
    f0ee:	f3 0f 11 44 24 04    	movss  DWORD PTR [rsp+0x4],xmm0
    f0f4:	68 00 00 00 00       	push   0x0
    f0f9:	68 00 00 00 00       	push   0x0
    f0fe:	e8 00 00 00 00       	call   f103 <vdotr+0x76>
    f103:	48 83 c4 10          	add    rsp,0x10
    f107:	ff c3                	inc    ebx
    f109:	81 fb 40 42 0f 00    	cmp    ebx,0xf4240
    f10f:	75 99                	jne    f0aa <vdotr+0x1d>
    f111:	49 83 c6 10          	add    r14,0x10
    f115:	4c 89 f7             	mov    rdi,r14
    f118:	31 f6                	xor    esi,esi
    f11a:	e8 00 00 00 00       	call   f11f <vdotr+0x92>
    f11f:	f3 0f 10 44 24 04    	movss  xmm0,DWORD PTR [rsp+0x4]
    f125:	48 83 c4 08          	add    rsp,0x8
    f129:	5b                   	pop    rbx
    f12a:	41 5e                	pop    r14
    f12c:	c3                   	ret    

000000000000f12d <vbor>:
    f12d:	41 56                	push   r14
    f12f:	53                   	push   rbx
    f130:	50                   	push   rax
    f131:	49 89 fe             	mov    r14,rdi
    f134:	bf 00 00 00 00       	mov    edi,0x0
    f139:	e8 00 00 00 00       	call   f13e <vbor+0x11>
    f13e:	31 db                	xor    ebx,ebx
    f140:	4c 89 f7             	mov    rdi,r14
    f143:	31 f6                	xor    esi,esi
    f145:	e8 00 00 00 00       	call   f14a <vbor+0x1d>
    f14a:	48 c7 c0 00 fc ff ff 	mov    rax,0xfffffffffffffc00
    f151:	f3 0f 10 a8 00 00 00 	movss  xmm5,DWORD PTR [rax+0x0]
    f158:	00 
    f159:	f3 0f 10 98 00 00 00 	movss  xmm3,DWORD PTR [rax+0x0]
    f160:	00 
    f161:	f3 0f 10 80 00 00 00 	movss  xmm0,DWORD PTR [rax+0x0]
    f168:	00 
    f169:	f3 0f 10 88 00 00 00 	movss  xmm1,DWORD PTR [rax+0x0]
    f170:	00 
    f171:	f3 0f 10 a0 00 00 00 	movss  xmm4,DWORD PTR [rax+0x0]
    f178:	00 
    f179:	f3 44 0f 10 80 00 00 	movss  xmm8,DWORD PTR [rax+0x0]
    f180:	00 00 
    f182:	0f 28 f5             	movaps xmm6,xmm5
    f185:	f3 0f 59 f3          	mulss  xmm6,xmm3
    f189:	0f 28 fe             	movaps xmm7,xmm6
    f18c:	f3 0f 59 f8          	mulss  xmm7,xmm0
    f190:	0f 28 d6             	movaps xmm2,xmm6
    f193:	f3 0f 59 d1          	mulss  xmm2,xmm1
    f197:	f3 0f 58 d7          	addss  xmm2,xmm7
    f19b:	0f 28 fe             	movaps xmm7,xmm6
    f19e:	f3 0f 59 fc          	mulss  xmm7,xmm4
    f1a2:	f3 0f 58 fa          	addss  xmm7,xmm2
    f1a6:	f3 41 0f 59 f0       	mulss  xmm6,xmm8
    f1ab:	f3 0f 58 f7          	addss  xmm6,xmm7
    f1af:	0f 28 d5             	movaps xmm2,xmm5
    f1b2:	f3 0f 59 d0          	mulss  xmm2,xmm0
    f1b6:	0f 28 fa             	movaps xmm7,xmm2
    f1b9:	f3 0f 59 f9          	mulss  xmm7,xmm1
    f1bd:	f3 0f 58 fe          	addss  xmm7,xmm6
    f1c1:	0f 28 f2             	movaps xmm6,xmm2
    f1c4:	f3 0f 59 f4          	mulss  xmm6,xmm4
    f1c8:	f3 0f 58 f7          	addss  xmm6,xmm7
    f1cc:	f3 41 0f 59 d0       	mulss  xmm2,xmm8
    f1d1:	f3 0f 58 d6          	addss  xmm2,xmm6
    f1d5:	0f 28 f5             	movaps xmm6,xmm5
    f1d8:	f3 0f 59 f1          	mulss  xmm6,xmm1
    f1dc:	0f 28 fe             	movaps xmm7,xmm6
    f1df:	f3 0f 59 fc          	mulss  xmm7,xmm4
    f1e3:	f3 0f 58 fa          	addss  xmm7,xmm2
    f1e7:	f3 41 0f 59 f0       	mulss  xmm6,xmm8
    f1ec:	f3 0f 58 f7          	addss  xmm6,xmm7
    f1f0:	f3 0f 59 ec          	mulss  xmm5,xmm4
    f1f4:	f3 41 0f 59 e8       	mulss  xmm5,xmm8
    f1f9:	f3 0f 58 ee          	addss  xmm5,xmm6
    f1fd:	0f 28 d3             	movaps xmm2,xmm3
    f200:	f3 0f 59 d0          	mulss  xmm2,xmm0
    f204:	0f 28 f2             	movaps xmm6,xmm2
    f207:	f3 0f 59 f1          	mulss  xmm6,xmm1
    f20b:	0f 28 fa             	movaps xmm7,xmm2
    f20e:	f3 0f 59 fc          	mulss  xmm7,xmm4
    f212:	f3 0f 58 fe          	addss  xmm7,xmm6
    f216:	f3 41 0f 59 d0       	mulss  xmm2,xmm8
    f21b:	f3 0f 58 d7          	addss  xmm2,xmm7
    f21f:	0f 28 f3             	movaps xmm6,xmm3
    f222:	f3 0f 59 f1          	mulss  xmm6,xmm1
    f226:	0f 28 fe             	movaps xmm7,xmm6
    f229:	f3 0f 59 fc          	mulss  xmm7,xmm4
    f22d:	f3 0f 58 fa          	addss  xmm7,xmm2
    f231:	f3 41 0f 59 f0       	mulss  xmm6,xmm8
    f236:	f3 0f 58 f7          	addss  xmm6,xmm7
    f23a:	f3 0f 59 dc          	mulss  xmm3,xmm4
    f23e:	f3 41 0f 59 d8       	mulss  xmm3,xmm8
    f243:	f3 0f 58 de          	addss  xmm3,xmm6
    f247:	f3 0f 59 dd          	mulss  xmm3,xmm5
    f24b:	0f 28 d0             	movaps xmm2,xmm0
    f24e:	f3 0f 59 d1          	mulss  xmm2,xmm1
    f252:	0f 28 ea             	movaps xmm5,xmm2
    f255:	f3 0f 59 ec          	mulss  xmm5,xmm4
    f259:	f3 41 0f 59 d0       	mulss  xmm2,xmm8
    f25e:	f3 0f 58 d5          	addss  xmm2,xmm5
    f262:	f3 0f 59 c4          	mulss  xmm0,xmm4
    f266:	f3 41 0f 59 c0       	mulss  xmm0,xmm8
    f26b:	f3 0f 58 c2          	addss  xmm0,xmm2
    f26f:	f3 0f 59 c3          	mulss  xmm0,xmm3
    f273:	f3 0f 59 cc          	mulss  xmm1,xmm4
    f277:	f3 41 0f 59 c8       	mulss  xmm1,xmm8
    f27c:	f3 0f 59 c8          	mulss  xmm1,xmm0
    f280:	f3 0f 11 88 00 00 00 	movss  DWORD PTR [rax+0x0],xmm1
    f287:	00 
    f288:	48 83 c0 04          	add    rax,0x4
    f28c:	0f 85 bf fe ff ff    	jne    f151 <vbor+0x24>
    f292:	bf 00 00 00 00       	mov    edi,0x0
    f297:	be 00 00 00 00       	mov    esi,0x0
    f29c:	ba 00 00 00 00       	mov    edx,0x0
    f2a1:	b9 00 00 00 00       	mov    ecx,0x0
    f2a6:	41 b8 00 00 00 00    	mov    r8d,0x0
    f2ac:	41 b9 00 00 00 00    	mov    r9d,0x0
    f2b2:	0f 57 c0             	xorps  xmm0,xmm0
    f2b5:	68 00 00 00 00       	push   0x0
    f2ba:	68 00 00 00 00       	push   0x0
    f2bf:	e8 00 00 00 00       	call   f2c4 <vbor+0x197>
    f2c4:	48 83 c4 10          	add    rsp,0x10
    f2c8:	ff c3                	inc    ebx
    f2ca:	81 fb 40 42 0f 00    	cmp    ebx,0xf4240
    f2d0:	0f 85 74 fe ff ff    	jne    f14a <vbor+0x1d>
    f2d6:	49 83 c6 10          	add    r14,0x10
    f2da:	4c 89 f7             	mov    rdi,r14
    f2dd:	31 f6                	xor    esi,esi
    f2df:	e8 00 00 00 00       	call   f2e4 <vbor+0x1b7>
    f2e4:	bf 00 00 00 00       	mov    edi,0x0
    f2e9:	48 83 c4 08          	add    rsp,0x8
    f2ed:	5b                   	pop    rbx
    f2ee:	41 5e                	pop    r14
    f2f0:	e9 00 00 00 00       	jmp    f2f5 <time_function>

000000000000f2f5 <time_function>:
    f2f5:	53                   	push   rbx
    f2f6:	48 83 ec 30          	sub    rsp,0x30
    f2fa:	48 89 f8             	mov    rax,rdi
    f2fd:	0f 57 c0             	xorps  xmm0,xmm0
    f300:	48 89 e3             	mov    rbx,rsp
    f303:	0f 29 43 10          	movaps XMMWORD PTR [rbx+0x10],xmm0
    f307:	0f 29 03             	movaps XMMWORD PTR [rbx],xmm0
    f30a:	48 89 73 20          	mov    QWORD PTR [rbx+0x20],rsi
    f30e:	48 89 df             	mov    rdi,rbx
    f311:	ff d0                	call   rax
    f313:	f2 48 0f 2a 0b       	cvtsi2sd xmm1,QWORD PTR [rbx]
    f318:	f2 48 0f 2a 5b 08    	cvtsi2sd xmm3,QWORD PTR [rbx+0x8]
    f31e:	f2 0f 10 25 00 00 00 	movsd  xmm4,QWORD PTR [rip+0x0]        # f326 <time_function+0x31>
    f325:	00 
    f326:	f2 0f 5e dc          	divsd  xmm3,xmm4
    f32a:	f2 0f 58 d9          	addsd  xmm3,xmm1
    f32e:	f2 48 0f 2a 6b 10    	cvtsi2sd xmm5,QWORD PTR [rbx+0x10]
    f334:	f2 48 0f 2a 53 18    	cvtsi2sd xmm2,QWORD PTR [rbx+0x18]
    f33a:	0f 57 c9             	xorps  xmm1,xmm1
    f33d:	f3 0f 5a c8          	cvtss2sd xmm1,xmm0
    f341:	f2 0f 5e d4          	divsd  xmm2,xmm4
    f345:	f2 0f 58 d5          	addsd  xmm2,xmm5
    f349:	f2 0f 5c d3          	subsd  xmm2,xmm3
    f34d:	bf 00 00 00 00       	mov    edi,0x0
    f352:	66 0f 28 c2          	movapd xmm0,xmm2
    f356:	b0 02                	mov    al,0x2
    f358:	e8 00 00 00 00       	call   f35d <time_function+0x68>
    f35d:	48 83 c4 30          	add    rsp,0x30
    f361:	5b                   	pop    rbx
    f362:	c3                   	ret    

000000000000f363 <main>:
    f363:	55                   	push   rbp
    f364:	41 57                	push   r15
    f366:	41 56                	push   r14
    f368:	41 54                	push   r12
    f36a:	53                   	push   rbx
    f36b:	48 83 ec 60          	sub    rsp,0x60
    f36f:	bd 01 00 00 00       	mov    ebp,0x1
    f374:	4c 8d 7c 24 0c       	lea    r15,[rsp+0xc]
    f379:	41 89 2f             	mov    DWORD PTR [r15],ebp
    f37c:	48 8d 5c 24 28       	lea    rbx,[rsp+0x28]
    f381:	4c 8d 74 24 08       	lea    r14,[rsp+0x8]
    f386:	4c 8d 64 24 04       	lea    r12,[rsp+0x4]
    f38b:	48 89 df             	mov    rdi,rbx
    f38e:	4c 89 f6             	mov    rsi,r14
    f391:	4c 89 e2             	mov    rdx,r12
    f394:	e8 00 00 00 00       	call   f399 <main+0x36>
    f399:	bf 00 00 00 00       	mov    edi,0x0
    f39e:	e8 00 00 00 00       	call   f3a3 <main+0x40>
    f3a3:	bf 00 00 00 00       	mov    edi,0x0
    f3a8:	31 f6                	xor    esi,esi
    f3aa:	e8 00 00 00 00       	call   f3af <main+0x4c>
    f3af:	bf 00 00 00 00       	mov    edi,0x0
    f3b4:	31 f6                	xor    esi,esi
    f3b6:	e8 00 00 00 00       	call   f3bb <main+0x58>
    f3bb:	bf 00 00 00 00       	mov    edi,0x0
    f3c0:	31 f6                	xor    esi,esi
    f3c2:	e8 00 00 00 00       	call   f3c7 <main+0x64>
    f3c7:	bf 00 00 00 00       	mov    edi,0x0
    f3cc:	31 f6                	xor    esi,esi
    f3ce:	e8 00 00 00 00       	call   f3d3 <main+0x70>
    f3d3:	bf 00 00 00 00       	mov    edi,0x0
    f3d8:	31 f6                	xor    esi,esi
    f3da:	e8 00 00 00 00       	call   f3df <main+0x7c>
    f3df:	bf 00 00 00 00       	mov    edi,0x0
    f3e4:	31 f6                	xor    esi,esi
    f3e6:	e8 00 00 00 00       	call   f3eb <main+0x88>
    f3eb:	bf 00 00 00 00       	mov    edi,0x0
    f3f0:	31 f6                	xor    esi,esi
    f3f2:	e8 00 00 00 00       	call   f3f7 <main+0x94>
    f3f7:	bf 00 00 00 00       	mov    edi,0x0
    f3fc:	31 f6                	xor    esi,esi
    f3fe:	e8 00 00 00 00       	call   f403 <main+0xa0>
    f403:	bf 00 00 00 00       	mov    edi,0x0
    f408:	31 f6                	xor    esi,esi
    f40a:	e8 00 00 00 00       	call   f40f <main+0xac>
    f40f:	bf 00 00 00 00       	mov    edi,0x0
    f414:	31 f6                	xor    esi,esi
    f416:	e8 00 00 00 00       	call   f41b <main+0xb8>
    f41b:	bf 00 00 00 00       	mov    edi,0x0
    f420:	31 f6                	xor    esi,esi
    f422:	e8 00 00 00 00       	call   f427 <main+0xc4>
    f427:	bf 00 00 00 00       	mov    edi,0x0
    f42c:	31 f6                	xor    esi,esi
    f42e:	e8 00 00 00 00       	call   f433 <main+0xd0>
    f433:	bf 00 00 00 00       	mov    edi,0x0
    f438:	31 f6                	xor    esi,esi
    f43a:	e8 00 00 00 00       	call   f43f <main+0xdc>
    f43f:	bf 00 00 00 00       	mov    edi,0x0
    f444:	31 f6                	xor    esi,esi
    f446:	e8 00 00 00 00       	call   f44b <main+0xe8>
    f44b:	bf 00 00 00 00       	mov    edi,0x0
    f450:	31 f6                	xor    esi,esi
    f452:	e8 00 00 00 00       	call   f457 <main+0xf4>
    f457:	48 b8 01 00 00 00 01 	movabs rax,0x100000001
    f45e:	00 00 00 
    f461:	48 8d 74 24 20       	lea    rsi,[rsp+0x20]
    f466:	48 89 06             	mov    QWORD PTR [rsi],rax
    f469:	bf 00 00 00 00       	mov    edi,0x0
    f46e:	e8 00 00 00 00       	call   f473 <main+0x110>
    f473:	bf 00 00 00 00       	mov    edi,0x0
    f478:	31 f6                	xor    esi,esi
    f47a:	e8 00 00 00 00       	call   f47f <main+0x11c>
    f47f:	bf 00 00 00 00       	mov    edi,0x0
    f484:	31 f6                	xor    esi,esi
    f486:	e8 00 00 00 00       	call   f48b <main+0x128>
    f48b:	bf 00 00 00 00       	mov    edi,0x0
    f490:	31 f6                	xor    esi,esi
    f492:	e8 00 00 00 00       	call   f497 <main+0x134>
    f497:	bf 00 00 00 00       	mov    edi,0x0
    f49c:	31 f6                	xor    esi,esi
    f49e:	e8 00 00 00 00       	call   f4a3 <main+0x140>
    f4a3:	bf 00 00 00 00       	mov    edi,0x0
    f4a8:	31 f6                	xor    esi,esi
    f4aa:	e8 00 00 00 00       	call   f4af <main+0x14c>
    f4af:	bf 00 00 00 00       	mov    edi,0x0
    f4b4:	31 f6                	xor    esi,esi
    f4b6:	e8 00 00 00 00       	call   f4bb <main+0x158>
    f4bb:	bf 00 00 00 00       	mov    edi,0x0
    f4c0:	31 f6                	xor    esi,esi
    f4c2:	e8 00 00 00 00       	call   f4c7 <main+0x164>
    f4c7:	bf 00 00 00 00       	mov    edi,0x0
    f4cc:	31 f6                	xor    esi,esi
    f4ce:	e8 00 00 00 00       	call   f4d3 <main+0x170>
    f4d3:	bf 00 00 00 00       	mov    edi,0x0
    f4d8:	31 f6                	xor    esi,esi
    f4da:	e8 00 00 00 00       	call   f4df <main+0x17c>
    f4df:	bf 00 00 00 00       	mov    edi,0x0
    f4e4:	31 f6                	xor    esi,esi
    f4e6:	e8 00 00 00 00       	call   f4eb <main+0x188>
    f4eb:	bf 00 00 00 00       	mov    edi,0x0
    f4f0:	31 f6                	xor    esi,esi
    f4f2:	e8 00 00 00 00       	call   f4f7 <main+0x194>
    f4f7:	bf 00 00 00 00       	mov    edi,0x0
    f4fc:	31 f6                	xor    esi,esi
    f4fe:	e8 00 00 00 00       	call   f503 <main+0x1a0>
    f503:	bf 00 00 00 00       	mov    edi,0x0
    f508:	31 f6                	xor    esi,esi
    f50a:	e8 00 00 00 00       	call   f50f <main+0x1ac>
    f50f:	bf 00 00 00 00       	mov    edi,0x0
    f514:	4c 89 fe             	mov    rsi,r15
    f517:	e8 00 00 00 00       	call   f51c <main+0x1b9>
    f51c:	bf 00 00 00 00       	mov    edi,0x0
    f521:	4c 89 fe             	mov    rsi,r15
    f524:	e8 00 00 00 00       	call   f529 <main+0x1c6>
    f529:	41 8b 07             	mov    eax,DWORD PTR [r15]
    f52c:	48 8d 74 24 18       	lea    rsi,[rsp+0x18]
    f531:	89 06                	mov    DWORD PTR [rsi],eax
    f533:	89 6e 04             	mov    DWORD PTR [rsi+0x4],ebp
    f536:	bf 00 00 00 00       	mov    edi,0x0
    f53b:	e8 00 00 00 00       	call   f540 <main+0x1dd>
    f540:	bf 00 00 00 00       	mov    edi,0x0
    f545:	31 f6                	xor    esi,esi
    f547:	e8 00 00 00 00       	call   f54c <main+0x1e9>
    f54c:	48 89 e6             	mov    rsi,rsp
    f54f:	c7 06 80 3e 00 00    	mov    DWORD PTR [rsi],0x3e80
    f555:	bf 00 00 00 00       	mov    edi,0x0
    f55a:	e8 00 00 00 00       	call   f55f <main+0x1fc>
    f55f:	bf 00 00 00 00       	mov    edi,0x0
    f564:	4c 89 fe             	mov    rsi,r15
    f567:	e8 00 00 00 00       	call   f56c <main+0x209>
    f56c:	bf 00 00 00 00       	mov    edi,0x0
    f571:	31 f6                	xor    esi,esi
    f573:	e8 00 00 00 00       	call   f578 <main+0x215>
    f578:	bf 00 00 00 00       	mov    edi,0x0
    f57d:	31 f6                	xor    esi,esi
    f57f:	e8 00 00 00 00       	call   f584 <main+0x221>
    f584:	bf 00 00 00 00       	mov    edi,0x0
    f589:	31 f6                	xor    esi,esi
    f58b:	e8 00 00 00 00       	call   f590 <main+0x22d>
    f590:	bf 00 00 00 00       	mov    edi,0x0
    f595:	31 f6                	xor    esi,esi
    f597:	e8 00 00 00 00       	call   f59c <main+0x239>
    f59c:	bf 00 00 00 00       	mov    edi,0x0
    f5a1:	31 f6                	xor    esi,esi
    f5a3:	e8 00 00 00 00       	call   f5a8 <main+0x245>
    f5a8:	bf 00 00 00 00       	mov    edi,0x0
    f5ad:	31 f6                	xor    esi,esi
    f5af:	e8 00 00 00 00       	call   f5b4 <main+0x251>
    f5b4:	bf 00 00 00 00       	mov    edi,0x0
    f5b9:	31 f6                	xor    esi,esi
    f5bb:	e8 00 00 00 00       	call   f5c0 <main+0x25d>
    f5c0:	bf 00 00 00 00       	mov    edi,0x0
    f5c5:	31 f6                	xor    esi,esi
    f5c7:	e8 00 00 00 00       	call   f5cc <main+0x269>
    f5cc:	bf 00 00 00 00       	mov    edi,0x0
    f5d1:	31 f6                	xor    esi,esi
    f5d3:	e8 00 00 00 00       	call   f5d8 <main+0x275>
    f5d8:	bf 00 00 00 00       	mov    edi,0x0
    f5dd:	31 f6                	xor    esi,esi
    f5df:	e8 00 00 00 00       	call   f5e4 <main+0x281>
    f5e4:	bf 00 00 00 00       	mov    edi,0x0
    f5e9:	31 f6                	xor    esi,esi
    f5eb:	e8 00 00 00 00       	call   f5f0 <main+0x28d>
    f5f0:	bf 00 00 00 00       	mov    edi,0x0
    f5f5:	31 f6                	xor    esi,esi
    f5f7:	e8 00 00 00 00       	call   f5fc <main+0x299>
    f5fc:	bf 00 00 00 00       	mov    edi,0x0
    f601:	31 f6                	xor    esi,esi
    f603:	e8 00 00 00 00       	call   f608 <main+0x2a5>
    f608:	bf 00 00 00 00       	mov    edi,0x0
    f60d:	31 f6                	xor    esi,esi
    f60f:	e8 00 00 00 00       	call   f614 <main+0x2b1>
    f614:	f3 41 0f 10 06       	movss  xmm0,DWORD PTR [r14]
    f619:	48 8d 74 24 10       	lea    rsi,[rsp+0x10]
    f61e:	f3 0f 11 06          	movss  DWORD PTR [rsi],xmm0
    f622:	f3 41 0f 10 04 24    	movss  xmm0,DWORD PTR [r12]
    f628:	f3 0f 11 46 04       	movss  DWORD PTR [rsi+0x4],xmm0
    f62d:	bf 00 00 00 00       	mov    edi,0x0
    f632:	e8 00 00 00 00       	call   f637 <main+0x2d4>
    f637:	bf 00 00 00 00       	mov    edi,0x0
    f63c:	31 f6                	xor    esi,esi
    f63e:	e8 00 00 00 00       	call   f643 <main+0x2e0>
    f643:	bf 00 00 00 00       	mov    edi,0x0
    f648:	31 f6                	xor    esi,esi
    f64a:	e8 00 00 00 00       	call   f64f <main+0x2ec>
    f64f:	bf 00 00 00 00       	mov    edi,0x0
    f654:	31 f6                	xor    esi,esi
    f656:	e8 00 00 00 00       	call   f65b <main+0x2f8>
    f65b:	bf 00 00 00 00       	mov    edi,0x0
    f660:	31 f6                	xor    esi,esi
    f662:	e8 00 00 00 00       	call   f667 <main+0x304>
    f667:	bf 00 00 00 00       	mov    edi,0x0
    f66c:	31 f6                	xor    esi,esi
    f66e:	e8 00 00 00 00       	call   f673 <main+0x310>
    f673:	bf 00 00 00 00       	mov    edi,0x0
    f678:	31 f6                	xor    esi,esi
    f67a:	e8 00 00 00 00       	call   f67f <main+0x31c>
    f67f:	bf 00 00 00 00       	mov    edi,0x0
    f684:	31 f6                	xor    esi,esi
    f686:	e8 00 00 00 00       	call   f68b <main+0x328>
    f68b:	bf 00 00 00 00       	mov    edi,0x0
    f690:	31 f6                	xor    esi,esi
    f692:	e8 00 00 00 00       	call   f697 <main+0x334>
    f697:	bf 00 00 00 00       	mov    edi,0x0
    f69c:	31 f6                	xor    esi,esi
    f69e:	e8 00 00 00 00       	call   f6a3 <main+0x340>
    f6a3:	bf 00 00 00 00       	mov    edi,0x0
    f6a8:	31 f6                	xor    esi,esi
    f6aa:	e8 00 00 00 00       	call   f6af <main+0x34c>
    f6af:	bf 00 00 00 00       	mov    edi,0x0
    f6b4:	31 f6                	xor    esi,esi
    f6b6:	e8 00 00 00 00       	call   f6bb <main+0x358>
    f6bb:	bf 00 00 00 00       	mov    edi,0x0
    f6c0:	31 f6                	xor    esi,esi
    f6c2:	e8 00 00 00 00       	call   f6c7 <main+0x364>
    f6c7:	bf 00 00 00 00       	mov    edi,0x0
    f6cc:	31 f6                	xor    esi,esi
    f6ce:	e8 00 00 00 00       	call   f6d3 <main+0x370>
    f6d3:	bf 00 00 00 00       	mov    edi,0x0
    f6d8:	31 f6                	xor    esi,esi
    f6da:	e8 00 00 00 00       	call   f6df <main+0x37c>
    f6df:	bf 00 00 00 00       	mov    edi,0x0
    f6e4:	31 f6                	xor    esi,esi
    f6e6:	e8 00 00 00 00       	call   f6eb <main+0x388>
    f6eb:	bf 00 00 00 00       	mov    edi,0x0
    f6f0:	31 f6                	xor    esi,esi
    f6f2:	e8 00 00 00 00       	call   f6f7 <main+0x394>
    f6f7:	bf 00 00 00 00       	mov    edi,0x0
    f6fc:	31 f6                	xor    esi,esi
    f6fe:	e8 00 00 00 00       	call   f703 <main+0x3a0>
    f703:	bf 00 00 00 00       	mov    edi,0x0
    f708:	4c 89 f6             	mov    rsi,r14
    f70b:	e8 00 00 00 00       	call   f710 <main+0x3ad>
    f710:	bf 00 00 00 00       	mov    edi,0x0
    f715:	31 f6                	xor    esi,esi
    f717:	e8 00 00 00 00       	call   f71c <main+0x3b9>
    f71c:	bf 00 00 00 00       	mov    edi,0x0
    f721:	31 f6                	xor    esi,esi
    f723:	e8 00 00 00 00       	call   f728 <main+0x3c5>
    f728:	bf 00 00 00 00       	mov    edi,0x0
    f72d:	31 f6                	xor    esi,esi
    f72f:	e8 00 00 00 00       	call   f734 <main+0x3d1>
    f734:	bf 00 00 00 00       	mov    edi,0x0
    f739:	31 f6                	xor    esi,esi
    f73b:	e8 00 00 00 00       	call   f740 <main+0x3dd>
    f740:	bf 00 00 00 00       	mov    edi,0x0
    f745:	31 f6                	xor    esi,esi
    f747:	e8 00 00 00 00       	call   f74c <main+0x3e9>
    f74c:	bf 00 00 00 00       	mov    edi,0x0
    f751:	31 f6                	xor    esi,esi
    f753:	e8 00 00 00 00       	call   f758 <main+0x3f5>
    f758:	bf 00 00 00 00       	mov    edi,0x0
    f75d:	31 f6                	xor    esi,esi
    f75f:	e8 00 00 00 00       	call   f764 <main+0x401>
    f764:	bf 00 00 00 00       	mov    edi,0x0
    f769:	31 f6                	xor    esi,esi
    f76b:	e8 00 00 00 00       	call   f770 <main+0x40d>
    f770:	bf 00 00 00 00       	mov    edi,0x0
    f775:	31 f6                	xor    esi,esi
    f777:	e8 00 00 00 00       	call   f77c <main+0x419>
    f77c:	bf 00 00 00 00       	mov    edi,0x0
    f781:	4c 89 f6             	mov    rsi,r14
    f784:	e8 00 00 00 00       	call   f789 <main+0x426>
    f789:	bf 00 00 00 00       	mov    edi,0x0
    f78e:	31 f6                	xor    esi,esi
    f790:	e8 00 00 00 00       	call   f795 <main+0x432>
    f795:	bf 00 00 00 00       	mov    edi,0x0
    f79a:	31 f6                	xor    esi,esi
    f79c:	e8 00 00 00 00       	call   f7a1 <main+0x43e>
    f7a1:	bf 00 00 00 00       	mov    edi,0x0
    f7a6:	31 f6                	xor    esi,esi
    f7a8:	e8 00 00 00 00       	call   f7ad <main+0x44a>
    f7ad:	bf 00 00 00 00       	mov    edi,0x0
    f7b2:	31 f6                	xor    esi,esi
    f7b4:	e8 00 00 00 00       	call   f7b9 <main+0x456>
    f7b9:	bf 00 00 00 00       	mov    edi,0x0
    f7be:	31 f6                	xor    esi,esi
    f7c0:	e8 00 00 00 00       	call   f7c5 <main+0x462>
    f7c5:	bf 00 00 00 00       	mov    edi,0x0
    f7ca:	31 f6                	xor    esi,esi
    f7cc:	e8 00 00 00 00       	call   f7d1 <main+0x46e>
    f7d1:	bf 00 00 00 00       	mov    edi,0x0
    f7d6:	31 f6                	xor    esi,esi
    f7d8:	e8 00 00 00 00       	call   f7dd <main+0x47a>
    f7dd:	bf 00 00 00 00       	mov    edi,0x0
    f7e2:	31 f6                	xor    esi,esi
    f7e4:	e8 00 00 00 00       	call   f7e9 <main+0x486>
    f7e9:	bf 00 00 00 00       	mov    edi,0x0
    f7ee:	31 f6                	xor    esi,esi
    f7f0:	e8 00 00 00 00       	call   f7f5 <main+0x492>
    f7f5:	bf 00 00 00 00       	mov    edi,0x0
    f7fa:	31 f6                	xor    esi,esi
    f7fc:	e8 00 00 00 00       	call   f801 <main+0x49e>
    f801:	bf 00 00 00 00       	mov    edi,0x0
    f806:	31 f6                	xor    esi,esi
    f808:	e8 00 00 00 00       	call   f80d <main+0x4aa>
    f80d:	bf 00 00 00 00       	mov    edi,0x0
    f812:	31 f6                	xor    esi,esi
    f814:	e8 00 00 00 00       	call   f819 <main+0x4b6>
    f819:	bf 00 00 00 00       	mov    edi,0x0
    f81e:	31 f6                	xor    esi,esi
    f820:	e8 00 00 00 00       	call   f825 <main+0x4c2>
    f825:	bf 00 00 00 00       	mov    edi,0x0
    f82a:	31 f6                	xor    esi,esi
    f82c:	e8 00 00 00 00       	call   f831 <main+0x4ce>
    f831:	bf 00 00 00 00       	mov    edi,0x0
    f836:	31 f6                	xor    esi,esi
    f838:	e8 00 00 00 00       	call   f83d <main+0x4da>
    f83d:	bf 00 00 00 00       	mov    edi,0x0
    f842:	31 f6                	xor    esi,esi
    f844:	e8 00 00 00 00       	call   f849 <main+0x4e6>
    f849:	bf 00 00 00 00       	mov    edi,0x0
    f84e:	31 f6                	xor    esi,esi
    f850:	e8 00 00 00 00       	call   f855 <main+0x4f2>
    f855:	bf 00 00 00 00       	mov    edi,0x0
    f85a:	31 f6                	xor    esi,esi
    f85c:	e8 00 00 00 00       	call   f861 <main+0x4fe>
    f861:	bf 00 00 00 00       	mov    edi,0x0
    f866:	4c 89 fe             	mov    rsi,r15
    f869:	e8 00 00 00 00       	call   f86e <main+0x50b>
    f86e:	bf 00 00 00 00       	mov    edi,0x0
    f873:	31 f6                	xor    esi,esi
    f875:	e8 00 00 00 00       	call   f87a <main+0x517>
    f87a:	bf 00 00 00 00       	mov    edi,0x0
    f87f:	31 f6                	xor    esi,esi
    f881:	e8 00 00 00 00       	call   f886 <main+0x523>
    f886:	bf 00 00 00 00       	mov    edi,0x0
    f88b:	31 f6                	xor    esi,esi
    f88d:	e8 00 00 00 00       	call   f892 <main+0x52f>
    f892:	bf 00 00 00 00       	mov    edi,0x0
    f897:	31 f6                	xor    esi,esi
    f899:	e8 00 00 00 00       	call   f89e <main+0x53b>
    f89e:	bf 00 00 00 00       	mov    edi,0x0
    f8a3:	31 f6                	xor    esi,esi
    f8a5:	e8 00 00 00 00       	call   f8aa <main+0x547>
    f8aa:	bf 00 00 00 00       	mov    edi,0x0
    f8af:	31 f6                	xor    esi,esi
    f8b1:	e8 00 00 00 00       	call   f8b6 <main+0x553>
    f8b6:	bf 00 00 00 00       	mov    edi,0x0
    f8bb:	31 f6                	xor    esi,esi
    f8bd:	e8 00 00 00 00       	call   f8c2 <main+0x55f>
    f8c2:	bf 00 00 00 00       	mov    edi,0x0
    f8c7:	31 f6                	xor    esi,esi
    f8c9:	e8 00 00 00 00       	call   f8ce <main+0x56b>
    f8ce:	bf 00 00 00 00       	mov    edi,0x0
    f8d3:	31 f6                	xor    esi,esi
    f8d5:	e8 00 00 00 00       	call   f8da <main+0x577>
    f8da:	bf 00 00 00 00       	mov    edi,0x0
    f8df:	31 f6                	xor    esi,esi
    f8e1:	e8 00 00 00 00       	call   f8e6 <main+0x583>
    f8e6:	bf 00 00 00 00       	mov    edi,0x0
    f8eb:	4c 89 f6             	mov    rsi,r14
    f8ee:	e8 00 00 00 00       	call   f8f3 <main+0x590>
    f8f3:	bf 00 00 00 00       	mov    edi,0x0
    f8f8:	31 f6                	xor    esi,esi
    f8fa:	e8 00 00 00 00       	call   f8ff <main+0x59c>
    f8ff:	bf 00 00 00 00       	mov    edi,0x0
    f904:	31 f6                	xor    esi,esi
    f906:	e8 00 00 00 00       	call   f90b <main+0x5a8>
    f90b:	bf 00 00 00 00       	mov    edi,0x0
    f910:	31 f6                	xor    esi,esi
    f912:	e8 00 00 00 00       	call   f917 <main+0x5b4>
    f917:	bf 00 00 00 00       	mov    edi,0x0
    f91c:	31 f6                	xor    esi,esi
    f91e:	e8 00 00 00 00       	call   f923 <main+0x5c0>
    f923:	bf 00 00 00 00       	mov    edi,0x0
    f928:	31 f6                	xor    esi,esi
    f92a:	e8 00 00 00 00       	call   f92f <main+0x5cc>
    f92f:	bf 00 00 00 00       	mov    edi,0x0
    f934:	31 f6                	xor    esi,esi
    f936:	e8 00 00 00 00       	call   f93b <main+0x5d8>
    f93b:	48 8b 33             	mov    rsi,QWORD PTR [rbx]
    f93e:	bf 00 00 00 00       	mov    edi,0x0
    f943:	e8 00 00 00 00       	call   f948 <main+0x5e5>
    f948:	bf 00 00 00 00       	mov    edi,0x0
    f94d:	31 f6                	xor    esi,esi
    f94f:	e8 00 00 00 00       	call   f954 <main+0x5f1>
    f954:	bf 00 00 00 00       	mov    edi,0x0
    f959:	31 f6                	xor    esi,esi
    f95b:	e8 00 00 00 00       	call   f960 <main+0x5fd>
    f960:	bf 00 00 00 00       	mov    edi,0x0
    f965:	31 f6                	xor    esi,esi
    f967:	e8 00 00 00 00       	call   f96c <main+0x609>
    f96c:	bf 00 00 00 00       	mov    edi,0x0
    f971:	31 f6                	xor    esi,esi
    f973:	e8 00 00 00 00       	call   f978 <main+0x615>
    f978:	bf 00 00 00 00       	mov    edi,0x0
    f97d:	31 f6                	xor    esi,esi
    f97f:	e8 00 00 00 00       	call   f984 <main+0x621>
    f984:	bf 00 00 00 00       	mov    edi,0x0
    f989:	31 f6                	xor    esi,esi
    f98b:	e8 00 00 00 00       	call   f990 <main+0x62d>
    f990:	bf 00 00 00 00       	mov    edi,0x0
    f995:	31 f6                	xor    esi,esi
    f997:	e8 00 00 00 00       	call   f99c <main+0x639>
    f99c:	bf 00 00 00 00       	mov    edi,0x0
    f9a1:	31 f6                	xor    esi,esi
    f9a3:	e8 00 00 00 00       	call   f9a8 <main+0x645>
    f9a8:	bf 00 00 00 00       	mov    edi,0x0
    f9ad:	31 f6                	xor    esi,esi
    f9af:	e8 00 00 00 00       	call   f9b4 <main+0x651>
    f9b4:	bf 00 00 00 00       	mov    edi,0x0
    f9b9:	31 f6                	xor    esi,esi
    f9bb:	e8 00 00 00 00       	call   f9c0 <main+0x65d>
    f9c0:	bf 00 00 00 00       	mov    edi,0x0
    f9c5:	31 f6                	xor    esi,esi
    f9c7:	e8 00 00 00 00       	call   f9cc <main+0x669>
    f9cc:	bf 00 00 00 00       	mov    edi,0x0
    f9d1:	31 f6                	xor    esi,esi
    f9d3:	e8 00 00 00 00       	call   f9d8 <main+0x675>
    f9d8:	bf 00 00 00 00       	mov    edi,0x0
    f9dd:	31 f6                	xor    esi,esi
    f9df:	e8 00 00 00 00       	call   f9e4 <main+0x681>
    f9e4:	bf 00 00 00 00       	mov    edi,0x0
    f9e9:	31 f6                	xor    esi,esi
    f9eb:	e8 00 00 00 00       	call   f9f0 <main+0x68d>
    f9f0:	bf 00 00 00 00       	mov    edi,0x0
    f9f5:	31 f6                	xor    esi,esi
    f9f7:	e8 00 00 00 00       	call   f9fc <main+0x699>
    f9fc:	48 8b 33             	mov    rsi,QWORD PTR [rbx]
    f9ff:	bf 00 00 00 00       	mov    edi,0x0
    fa04:	e8 00 00 00 00       	call   fa09 <main+0x6a6>
    fa09:	48 8b 03             	mov    rax,QWORD PTR [rbx]
    fa0c:	48 8d 74 24 50       	lea    rsi,[rsp+0x50]
    fa11:	48 89 06             	mov    QWORD PTR [rsi],rax
    fa14:	f3 41 0f 10 06       	movss  xmm0,DWORD PTR [r14]
    fa19:	f3 0f 11 46 08       	movss  DWORD PTR [rsi+0x8],xmm0
    fa1e:	bf 00 00 00 00       	mov    edi,0x0
    fa23:	e8 00 00 00 00       	call   fa28 <main+0x6c5>
    fa28:	48 8b 33             	mov    rsi,QWORD PTR [rbx]
    fa2b:	bf 00 00 00 00       	mov    edi,0x0
    fa30:	e8 00 00 00 00       	call   fa35 <main+0x6d2>
    fa35:	48 8b 03             	mov    rax,QWORD PTR [rbx]
    fa38:	48 8d 74 24 40       	lea    rsi,[rsp+0x40]
    fa3d:	48 89 06             	mov    QWORD PTR [rsi],rax
    fa40:	41 8b 07             	mov    eax,DWORD PTR [r15]
    fa43:	89 46 08             	mov    DWORD PTR [rsi+0x8],eax
    fa46:	bf 00 00 00 00       	mov    edi,0x0
    fa4b:	e8 00 00 00 00       	call   fa50 <main+0x6ed>
    fa50:	48 8b 33             	mov    rsi,QWORD PTR [rbx]
    fa53:	bf 00 00 00 00       	mov    edi,0x0
    fa58:	e8 00 00 00 00       	call   fa5d <main+0x6fa>
    fa5d:	48 8b 03             	mov    rax,QWORD PTR [rbx]
    fa60:	48 8d 74 24 30       	lea    rsi,[rsp+0x30]
    fa65:	48 89 06             	mov    QWORD PTR [rsi],rax
    fa68:	c7 46 08 80 00 00 00 	mov    DWORD PTR [rsi+0x8],0x80
    fa6f:	41 8b 07             	mov    eax,DWORD PTR [r15]
    fa72:	89 46 0c             	mov    DWORD PTR [rsi+0xc],eax
    fa75:	bf 00 00 00 00       	mov    edi,0x0
    fa7a:	e8 00 00 00 00       	call   fa7f <main+0x71c>
    fa7f:	bf 00 00 00 00       	mov    edi,0x0
    fa84:	31 f6                	xor    esi,esi
    fa86:	e8 00 00 00 00       	call   fa8b <main+0x728>
    fa8b:	bf 00 00 00 00       	mov    edi,0x0
    fa90:	31 f6                	xor    esi,esi
    fa92:	e8 00 00 00 00       	call   fa97 <main+0x734>
    fa97:	bf 00 00 00 00       	mov    edi,0x0
    fa9c:	31 f6                	xor    esi,esi
    fa9e:	e8 00 00 00 00       	call   faa3 <main+0x740>
    faa3:	48 8b 33             	mov    rsi,QWORD PTR [rbx]
    faa6:	bf 00 00 00 00       	mov    edi,0x0
    faab:	e8 00 00 00 00       	call   fab0 <main+0x74d>
    fab0:	48 8b 33             	mov    rsi,QWORD PTR [rbx]
    fab3:	bf 00 00 00 00       	mov    edi,0x0
    fab8:	e8 00 00 00 00       	call   fabd <main+0x75a>
    fabd:	bf 00 00 00 00       	mov    edi,0x0
    fac2:	31 f6                	xor    esi,esi
    fac4:	e8 00 00 00 00       	call   fac9 <main+0x766>
    fac9:	bf 00 00 00 00       	mov    edi,0x0
    face:	31 f6                	xor    esi,esi
    fad0:	e8 00 00 00 00       	call   fad5 <main+0x772>
    fad5:	bf 00 00 00 00       	mov    edi,0x0
    fada:	31 f6                	xor    esi,esi
    fadc:	e8 00 00 00 00       	call   fae1 <main+0x77e>
    fae1:	bf 00 00 00 00       	mov    edi,0x0
    fae6:	31 f6                	xor    esi,esi
    fae8:	e8 00 00 00 00       	call   faed <main+0x78a>
    faed:	bf 00 00 00 00       	mov    edi,0x0
    faf2:	4c 89 f6             	mov    rsi,r14
    faf5:	e8 00 00 00 00       	call   fafa <main+0x797>
    fafa:	bf 00 00 00 00       	mov    edi,0x0
    faff:	31 f6                	xor    esi,esi
    fb01:	e8 00 00 00 00       	call   fb06 <main+0x7a3>
    fb06:	bf 00 00 00 00       	mov    edi,0x0
    fb0b:	31 f6                	xor    esi,esi
    fb0d:	e8 00 00 00 00       	call   fb12 <main+0x7af>
    fb12:	bf 00 00 00 00       	mov    edi,0x0
    fb17:	31 f6                	xor    esi,esi
    fb19:	e8 00 00 00 00       	call   fb1e <main+0x7bb>
    fb1e:	bf 00 00 00 00       	mov    edi,0x0
    fb23:	31 f6                	xor    esi,esi
    fb25:	e8 00 00 00 00       	call   fb2a <main+0x7c7>
    fb2a:	bf 00 00 00 00       	mov    edi,0x0
    fb2f:	31 f6                	xor    esi,esi
    fb31:	e8 00 00 00 00       	call   fb36 <main+0x7d3>
    fb36:	31 c0                	xor    eax,eax
    fb38:	48 83 c4 60          	add    rsp,0x60
    fb3c:	5b                   	pop    rbx
    fb3d:	41 5c                	pop    r12
    fb3f:	41 5e                	pop    r14
    fb41:	41 5f                	pop    r15
    fb43:	5d                   	pop    rbp
    fb44:	c3                   	ret    
